ARM GAS  C:\Users\dmr85\AppData\Local\Temp\ccbw5e1d.s 			page 1


   1              		.syntax unified
   2              		.cpu cortex-m4
   3              		.eabi_attribute 27, 1
   4              		.fpu fpv4-sp-d16
   5              		.eabi_attribute 20, 1
   6              		.eabi_attribute 21, 1
   7              		.eabi_attribute 23, 3
   8              		.eabi_attribute 24, 1
   9              		.eabi_attribute 25, 1
  10              		.eabi_attribute 26, 1
  11              		.eabi_attribute 30, 1
  12              		.eabi_attribute 34, 1
  13              		.eabi_attribute 18, 4
  14              		.thumb
  15              		.syntax unified
  16              		.file	"ads1299_spi_adapt.c"
  17              		.text
  18              	.Ltext0:
  19              		.cfi_sections	.debug_frame
  20              		.section	.text.spi_put,"ax",%progbits
  21              		.align	2
  22              		.global	spi_put
  23              		.thumb
  24              		.thumb_func
  25              		.type	spi_put, %function
  26              	spi_put:
  27              	.LFB537:
  28              		.file 1 "ads1299_spi_adapt.c"
   1:ads1299_spi_adapt.c **** /* ========================================
   2:ads1299_spi_adapt.c ****  *
   3:ads1299_spi_adapt.c ****  * Copyright YOUR COMPANY, THE YEAR
   4:ads1299_spi_adapt.c ****  * All Rights Reserved
   5:ads1299_spi_adapt.c ****  * UNPUBLISHED, LICENSED SOFTWARE.
   6:ads1299_spi_adapt.c ****  *
   7:ads1299_spi_adapt.c ****  * CONFIDENTIAL AND PROPRIETARY INFORMATION
   8:ads1299_spi_adapt.c ****  * WHICH IS THE PROPERTY OF your company.
   9:ads1299_spi_adapt.c ****  *
  10:ads1299_spi_adapt.c ****  * ========================================
  11:ads1299_spi_adapt.c **** */
  12:ads1299_spi_adapt.c **** 
  13:ads1299_spi_adapt.c **** /* [] END OF FILE */
  14:ads1299_spi_adapt.c **** 
  15:ads1299_spi_adapt.c **** #include "ads1299_spi_adapt.h"
  16:ads1299_spi_adapt.c **** 
  17:ads1299_spi_adapt.c **** #define RX_PACKET_SIZE  27
  18:ads1299_spi_adapt.c **** #define ONE_PACKET_SIZE  1
  19:ads1299_spi_adapt.c **** #define TRANSFER_ERROR        (0xFFUL)
  20:ads1299_spi_adapt.c **** 
  21:ads1299_spi_adapt.c **** /* Combine master error statuses in single mask */
  22:ads1299_spi_adapt.c **** #define MASTER_ERROR_MASK  (CY_SCB_SPI_SLAVE_TRANSFER_ERR  | CY_SCB_SPI_TRANSFER_OVERFLOW    | \
  23:ads1299_spi_adapt.c ****                             CY_SCB_SPI_TRANSFER_UNDERFLOW)  
  24:ads1299_spi_adapt.c **** 
  25:ads1299_spi_adapt.c **** /* Start and end of packet markers */
  26:ads1299_spi_adapt.c **** #define PACKET_SOP            (0x01UL)
  27:ads1299_spi_adapt.c **** #define PACKET_EOP            (0x17UL)
  28:ads1299_spi_adapt.c **** 
  29:ads1299_spi_adapt.c **** /* Command valid status */
ARM GAS  C:\Users\dmr85\AppData\Local\Temp\ccbw5e1d.s 			page 2


  30:ads1299_spi_adapt.c **** #define TRANSFER_CMPLT        (0x00UL)
  31:ads1299_spi_adapt.c **** #define TRANSFER_ERROR        (0xFFUL)
  32:ads1299_spi_adapt.c **** #define READ_CMPLT            (TRANSFER_CMPLT)
  33:ads1299_spi_adapt.c **** #define READ_ERROR            (TRANSFER_ERROR)
  34:ads1299_spi_adapt.c **** 
  35:ads1299_spi_adapt.c **** 
  36:ads1299_spi_adapt.c **** /* Command valid status */
  37:ads1299_spi_adapt.c **** #define STS_CMD_DONE    (0x00UL)
  38:ads1299_spi_adapt.c **** #define STS_CMD_FAIL    (0x1FUL)
  39:ads1299_spi_adapt.c **** 
  40:ads1299_spi_adapt.c **** /* Packet positions */
  41:ads1299_spi_adapt.c **** #define PACKET_SOP_POS        (0UL)
  42:ads1299_spi_adapt.c **** #define PACKET_CMD_1_POS      (1UL)
  43:ads1299_spi_adapt.c **** #define PACKET_CMD_2_POS      (2UL)
  44:ads1299_spi_adapt.c **** #define PACKET_CMD_3_POS      (3UL)
  45:ads1299_spi_adapt.c **** #define PACKET_EOP_POS        (4UL)
  46:ads1299_spi_adapt.c **** #define PACKET_STS_POS        (1UL)
  47:ads1299_spi_adapt.c **** #define RX_PACKET_SOP_POS     (0UL)
  48:ads1299_spi_adapt.c **** #define RX_PACKET_STS_POS     (1UL)
  49:ads1299_spi_adapt.c **** #define RX_PACKET_EOP_POS     (2UL)
  50:ads1299_spi_adapt.c **** 
  51:ads1299_spi_adapt.c **** 
  52:ads1299_spi_adapt.c **** uint8_t spi = 0xFF;
  53:ads1299_spi_adapt.c **** 
  54:ads1299_spi_adapt.c **** 
  55:ads1299_spi_adapt.c **** cy_en_scb_spi_status_t spi_put(volatile uint8_t *spi, uint8_t opcode)
  56:ads1299_spi_adapt.c **** {
  29              		.loc 1 56 0
  30              		.cfi_startproc
  31              		@ args = 0, pretend = 0, frame = 8
  32              		@ frame_needed = 0, uses_anonymous_args = 0
  33              	.LVL0:
  34 0000 10B5     		push	{r4, lr}
  35              		.cfi_def_cfa_offset 8
  36              		.cfi_offset 4, -8
  37              		.cfi_offset 14, -4
  38 0002 84B0     		sub	sp, sp, #16
  39              		.cfi_def_cfa_offset 24
  57:ads1299_spi_adapt.c ****     uint8_t txBuffer[ONE_PACKET_SIZE];
  58:ads1299_spi_adapt.c ****     txBuffer[0] = opcode;
  40              		.loc 1 58 0
  41 0004 04AC     		add	r4, sp, #16
  42 0006 04F8041D 		strb	r1, [r4, #-4]!
  59:ads1299_spi_adapt.c ****     printf("%x ", opcode);
  43              		.loc 1 59 0
  44 000a 0648     		ldr	r0, .L3
  45              	.LVL1:
  46 000c FFF7FEFF 		bl	printf
  47              	.LVL2:
  48              	.LBB43:
  49              	.LBB44:
  50              		.file 2 "Generated_Source\\PSoC6/SPI.h"
   1:Generated_Source\PSoC6/SPI.h **** /***************************************************************************//**
   2:Generated_Source\PSoC6/SPI.h **** * \file SPI.h
   3:Generated_Source\PSoC6/SPI.h **** * \version 2.0
   4:Generated_Source\PSoC6/SPI.h **** *
   5:Generated_Source\PSoC6/SPI.h **** *  This file provides constants and parameter values for the SPI component.
ARM GAS  C:\Users\dmr85\AppData\Local\Temp\ccbw5e1d.s 			page 3


   6:Generated_Source\PSoC6/SPI.h **** *
   7:Generated_Source\PSoC6/SPI.h **** ********************************************************************************
   8:Generated_Source\PSoC6/SPI.h **** * \copyright
   9:Generated_Source\PSoC6/SPI.h **** * Copyright 2016-2017, Cypress Semiconductor Corporation. All rights reserved.
  10:Generated_Source\PSoC6/SPI.h **** * You may use this file only in accordance with the license, terms, conditions,
  11:Generated_Source\PSoC6/SPI.h **** * disclaimers, and limitations in the end user license agreement accompanying
  12:Generated_Source\PSoC6/SPI.h **** * the software package with which this file was provided.
  13:Generated_Source\PSoC6/SPI.h **** *******************************************************************************/
  14:Generated_Source\PSoC6/SPI.h **** 
  15:Generated_Source\PSoC6/SPI.h **** #if !defined(SPI_CY_SCB_SPI_PDL_H)
  16:Generated_Source\PSoC6/SPI.h **** #define SPI_CY_SCB_SPI_PDL_H
  17:Generated_Source\PSoC6/SPI.h **** 
  18:Generated_Source\PSoC6/SPI.h **** #include "cyfitter.h"
  19:Generated_Source\PSoC6/SPI.h **** #include "scb/cy_scb_spi.h"
  20:Generated_Source\PSoC6/SPI.h **** 
  21:Generated_Source\PSoC6/SPI.h **** #if defined(__cplusplus)
  22:Generated_Source\PSoC6/SPI.h **** extern "C" {
  23:Generated_Source\PSoC6/SPI.h **** #endif
  24:Generated_Source\PSoC6/SPI.h **** 
  25:Generated_Source\PSoC6/SPI.h **** /***************************************
  26:Generated_Source\PSoC6/SPI.h **** *        Function Prototypes
  27:Generated_Source\PSoC6/SPI.h **** ***************************************/
  28:Generated_Source\PSoC6/SPI.h **** /**
  29:Generated_Source\PSoC6/SPI.h **** * \addtogroup group_general
  30:Generated_Source\PSoC6/SPI.h **** * @{
  31:Generated_Source\PSoC6/SPI.h **** */
  32:Generated_Source\PSoC6/SPI.h **** /* Component specific functions. */
  33:Generated_Source\PSoC6/SPI.h **** void SPI_Start(void);
  34:Generated_Source\PSoC6/SPI.h **** 
  35:Generated_Source\PSoC6/SPI.h **** /* Basic functions. */
  36:Generated_Source\PSoC6/SPI.h **** __STATIC_INLINE cy_en_scb_spi_status_t SPI_Init(cy_stc_scb_spi_config_t const *config);
  37:Generated_Source\PSoC6/SPI.h **** __STATIC_INLINE void SPI_DeInit(void);
  38:Generated_Source\PSoC6/SPI.h **** __STATIC_INLINE void SPI_Enable(void);
  39:Generated_Source\PSoC6/SPI.h **** __STATIC_INLINE void SPI_Disable(void);
  40:Generated_Source\PSoC6/SPI.h **** 
  41:Generated_Source\PSoC6/SPI.h **** /* Register callback. */
  42:Generated_Source\PSoC6/SPI.h **** __STATIC_INLINE void SPI_RegisterCallback(cy_cb_scb_spi_handle_events_t callback);
  43:Generated_Source\PSoC6/SPI.h **** 
  44:Generated_Source\PSoC6/SPI.h **** /* Bus state. */
  45:Generated_Source\PSoC6/SPI.h **** __STATIC_INLINE bool SPI_IsBusBusy(void);
  46:Generated_Source\PSoC6/SPI.h **** 
  47:Generated_Source\PSoC6/SPI.h **** /* Slave select control. */
  48:Generated_Source\PSoC6/SPI.h **** __STATIC_INLINE void SPI_SetActiveSlaveSelect(cy_en_scb_spi_slave_select_t slaveSelect);
  49:Generated_Source\PSoC6/SPI.h **** __STATIC_INLINE void SPI_SetActiveSlaveSelectPolarity(cy_en_scb_spi_slave_select_t slaveSelect, 
  50:Generated_Source\PSoC6/SPI.h ****                                                                    cy_en_scb_spi_polarity_t polarit
  51:Generated_Source\PSoC6/SPI.h **** 
  52:Generated_Source\PSoC6/SPI.h **** /* Low level: read. */
  53:Generated_Source\PSoC6/SPI.h **** __STATIC_INLINE uint32_t SPI_Read(void);
  54:Generated_Source\PSoC6/SPI.h **** __STATIC_INLINE uint32_t SPI_ReadArray(void *buffer, uint32_t size);
  55:Generated_Source\PSoC6/SPI.h **** __STATIC_INLINE uint32_t SPI_GetRxFifoStatus(void);
  56:Generated_Source\PSoC6/SPI.h **** __STATIC_INLINE void     SPI_ClearRxFifoStatus(uint32_t clearMask);
  57:Generated_Source\PSoC6/SPI.h **** __STATIC_INLINE uint32_t SPI_GetNumInRxFifo(void);
  58:Generated_Source\PSoC6/SPI.h **** __STATIC_INLINE void     SPI_ClearRxFifo(void);
  59:Generated_Source\PSoC6/SPI.h **** 
  60:Generated_Source\PSoC6/SPI.h **** /* Low level: write. */
  61:Generated_Source\PSoC6/SPI.h **** __STATIC_INLINE uint32_t SPI_Write(uint32_t data);
  62:Generated_Source\PSoC6/SPI.h **** __STATIC_INLINE uint32_t SPI_WriteArray(void *buffer, uint32_t size);
ARM GAS  C:\Users\dmr85\AppData\Local\Temp\ccbw5e1d.s 			page 4


  63:Generated_Source\PSoC6/SPI.h **** __STATIC_INLINE void     SPI_WriteArrayBlocking(void *buffer, uint32_t size);
  64:Generated_Source\PSoC6/SPI.h **** __STATIC_INLINE uint32_t SPI_GetTxFifoStatus(void);
  65:Generated_Source\PSoC6/SPI.h **** __STATIC_INLINE void     SPI_ClearTxFifoStatus(uint32_t clearMask);
  66:Generated_Source\PSoC6/SPI.h **** __STATIC_INLINE uint32_t SPI_GetNumInTxFifo(void);
  67:Generated_Source\PSoC6/SPI.h **** __STATIC_INLINE bool     SPI_IsTxComplete(void);
  68:Generated_Source\PSoC6/SPI.h **** __STATIC_INLINE void     SPI_ClearTxFifo(void);
  69:Generated_Source\PSoC6/SPI.h **** 
  70:Generated_Source\PSoC6/SPI.h **** /* Master/slave specific status. */
  71:Generated_Source\PSoC6/SPI.h **** __STATIC_INLINE uint32_t SPI_GetSlaveMasterStatus(void);
  72:Generated_Source\PSoC6/SPI.h **** __STATIC_INLINE void     SPI_ClearSlaveMasterStatus(uint32_t clearMask);
  73:Generated_Source\PSoC6/SPI.h **** 
  74:Generated_Source\PSoC6/SPI.h **** /* High level: transfer functions. */
  75:Generated_Source\PSoC6/SPI.h **** __STATIC_INLINE cy_en_scb_spi_status_t SPI_Transfer(void *txBuffer, void *rxBuffer, uint32_t size);
  76:Generated_Source\PSoC6/SPI.h **** __STATIC_INLINE void     SPI_AbortTransfer(void);
  77:Generated_Source\PSoC6/SPI.h **** __STATIC_INLINE uint32_t SPI_GetTransferStatus(void);
  78:Generated_Source\PSoC6/SPI.h **** __STATIC_INLINE uint32_t SPI_GetNumTransfered(void);
  79:Generated_Source\PSoC6/SPI.h **** 
  80:Generated_Source\PSoC6/SPI.h **** /* Interrupt handler */
  81:Generated_Source\PSoC6/SPI.h **** __STATIC_INLINE void SPI_Interrupt(void);
  82:Generated_Source\PSoC6/SPI.h **** /** @} group_general */
  83:Generated_Source\PSoC6/SPI.h **** 
  84:Generated_Source\PSoC6/SPI.h **** 
  85:Generated_Source\PSoC6/SPI.h **** /***************************************
  86:Generated_Source\PSoC6/SPI.h **** *    Variables with External Linkage
  87:Generated_Source\PSoC6/SPI.h **** ***************************************/
  88:Generated_Source\PSoC6/SPI.h **** /**
  89:Generated_Source\PSoC6/SPI.h **** * \addtogroup group_globals
  90:Generated_Source\PSoC6/SPI.h **** * @{
  91:Generated_Source\PSoC6/SPI.h **** */
  92:Generated_Source\PSoC6/SPI.h **** extern uint8_t SPI_initVar;
  93:Generated_Source\PSoC6/SPI.h **** extern cy_stc_scb_spi_config_t const SPI_config;
  94:Generated_Source\PSoC6/SPI.h **** extern cy_stc_scb_spi_context_t SPI_context;
  95:Generated_Source\PSoC6/SPI.h **** /** @} group_globals */
  96:Generated_Source\PSoC6/SPI.h **** 
  97:Generated_Source\PSoC6/SPI.h **** 
  98:Generated_Source\PSoC6/SPI.h **** /***************************************
  99:Generated_Source\PSoC6/SPI.h **** *         Preprocessor Macros
 100:Generated_Source\PSoC6/SPI.h **** ***************************************/
 101:Generated_Source\PSoC6/SPI.h **** /**
 102:Generated_Source\PSoC6/SPI.h **** * \addtogroup group_macros
 103:Generated_Source\PSoC6/SPI.h **** * @{
 104:Generated_Source\PSoC6/SPI.h **** */
 105:Generated_Source\PSoC6/SPI.h **** /** The pointer to the base address of the hardware */
 106:Generated_Source\PSoC6/SPI.h **** #define SPI_HW     ((CySCB_Type *) SPI_SCB__HW)
 107:Generated_Source\PSoC6/SPI.h **** 
 108:Generated_Source\PSoC6/SPI.h **** /** The slave select line 0 constant which takes into account pin placement */
 109:Generated_Source\PSoC6/SPI.h **** #define SPI_SPI_SLAVE_SELECT0    ( (cy_en_scb_spi_slave_select_t) SPI_SCB__SS0_POSITION)
 110:Generated_Source\PSoC6/SPI.h **** 
 111:Generated_Source\PSoC6/SPI.h **** /** The slave select line 1 constant which takes into account pin placement */
 112:Generated_Source\PSoC6/SPI.h **** #define SPI_SPI_SLAVE_SELECT1    ( (cy_en_scb_spi_slave_select_t) SPI_SCB__SS1_POSITION)
 113:Generated_Source\PSoC6/SPI.h **** 
 114:Generated_Source\PSoC6/SPI.h **** /** The slave select line 2 constant which takes into account pin placement */
 115:Generated_Source\PSoC6/SPI.h **** #define SPI_SPI_SLAVE_SELECT2    ( (cy_en_scb_spi_slave_select_t) SPI_SCB__SS2_POSITION)
 116:Generated_Source\PSoC6/SPI.h **** 
 117:Generated_Source\PSoC6/SPI.h **** /** The slave select line 3 constant which takes into account pin placement */
 118:Generated_Source\PSoC6/SPI.h **** #define SPI_SPI_SLAVE_SELECT3    ((cy_en_scb_spi_slave_select_t) SPI_SCB__SS3_POSITION)
 119:Generated_Source\PSoC6/SPI.h **** /** @} group_macros */
ARM GAS  C:\Users\dmr85\AppData\Local\Temp\ccbw5e1d.s 			page 5


 120:Generated_Source\PSoC6/SPI.h **** 
 121:Generated_Source\PSoC6/SPI.h **** 
 122:Generated_Source\PSoC6/SPI.h **** /***************************************
 123:Generated_Source\PSoC6/SPI.h **** *    In-line Function Implementation
 124:Generated_Source\PSoC6/SPI.h **** ***************************************/
 125:Generated_Source\PSoC6/SPI.h **** 
 126:Generated_Source\PSoC6/SPI.h **** /*******************************************************************************
 127:Generated_Source\PSoC6/SPI.h **** * Function Name: SPI_Init
 128:Generated_Source\PSoC6/SPI.h **** ****************************************************************************//**
 129:Generated_Source\PSoC6/SPI.h **** *
 130:Generated_Source\PSoC6/SPI.h **** * Invokes the Cy_SCB_SPI_Init() PDL driver function.
 131:Generated_Source\PSoC6/SPI.h **** *
 132:Generated_Source\PSoC6/SPI.h **** *******************************************************************************/
 133:Generated_Source\PSoC6/SPI.h **** __STATIC_INLINE cy_en_scb_spi_status_t SPI_Init(cy_stc_scb_spi_config_t const *config)
 134:Generated_Source\PSoC6/SPI.h **** {
 135:Generated_Source\PSoC6/SPI.h ****     return Cy_SCB_SPI_Init(SPI_HW, config, &SPI_context);
 136:Generated_Source\PSoC6/SPI.h **** }
 137:Generated_Source\PSoC6/SPI.h **** 
 138:Generated_Source\PSoC6/SPI.h **** 
 139:Generated_Source\PSoC6/SPI.h **** /*******************************************************************************
 140:Generated_Source\PSoC6/SPI.h **** * Function Name: SPI_DeInit
 141:Generated_Source\PSoC6/SPI.h **** ****************************************************************************//**
 142:Generated_Source\PSoC6/SPI.h **** *
 143:Generated_Source\PSoC6/SPI.h **** * Invokes the Cy_SCB_SPI_DeInit() PDL driver function.
 144:Generated_Source\PSoC6/SPI.h **** *
 145:Generated_Source\PSoC6/SPI.h **** *******************************************************************************/
 146:Generated_Source\PSoC6/SPI.h **** __STATIC_INLINE void SPI_DeInit(void)
 147:Generated_Source\PSoC6/SPI.h **** {
 148:Generated_Source\PSoC6/SPI.h ****     Cy_SCB_SPI_DeInit(SPI_HW);
 149:Generated_Source\PSoC6/SPI.h **** }
 150:Generated_Source\PSoC6/SPI.h **** 
 151:Generated_Source\PSoC6/SPI.h **** 
 152:Generated_Source\PSoC6/SPI.h **** /*******************************************************************************
 153:Generated_Source\PSoC6/SPI.h **** * Function Name: SPI_Enable
 154:Generated_Source\PSoC6/SPI.h **** ****************************************************************************//**
 155:Generated_Source\PSoC6/SPI.h **** *
 156:Generated_Source\PSoC6/SPI.h **** * Invokes the Cy_SCB_SPI_Enable() PDL driver function.
 157:Generated_Source\PSoC6/SPI.h **** *
 158:Generated_Source\PSoC6/SPI.h **** *******************************************************************************/
 159:Generated_Source\PSoC6/SPI.h **** __STATIC_INLINE void SPI_Enable(void)
 160:Generated_Source\PSoC6/SPI.h **** {
 161:Generated_Source\PSoC6/SPI.h ****     Cy_SCB_SPI_Enable(SPI_HW);
 162:Generated_Source\PSoC6/SPI.h **** }
 163:Generated_Source\PSoC6/SPI.h **** 
 164:Generated_Source\PSoC6/SPI.h **** 
 165:Generated_Source\PSoC6/SPI.h **** /*******************************************************************************
 166:Generated_Source\PSoC6/SPI.h **** * Function Name: SPI_Disable
 167:Generated_Source\PSoC6/SPI.h **** ****************************************************************************//**
 168:Generated_Source\PSoC6/SPI.h **** *
 169:Generated_Source\PSoC6/SPI.h **** * Invokes the Cy_SCB_SPI_Disable() PDL driver function.
 170:Generated_Source\PSoC6/SPI.h **** *
 171:Generated_Source\PSoC6/SPI.h **** *******************************************************************************/
 172:Generated_Source\PSoC6/SPI.h **** __STATIC_INLINE void SPI_Disable(void)
 173:Generated_Source\PSoC6/SPI.h **** {
 174:Generated_Source\PSoC6/SPI.h ****     Cy_SCB_SPI_Disable(SPI_HW, &SPI_context);
 175:Generated_Source\PSoC6/SPI.h **** }
 176:Generated_Source\PSoC6/SPI.h **** 
ARM GAS  C:\Users\dmr85\AppData\Local\Temp\ccbw5e1d.s 			page 6


 177:Generated_Source\PSoC6/SPI.h **** 
 178:Generated_Source\PSoC6/SPI.h **** /*******************************************************************************
 179:Generated_Source\PSoC6/SPI.h **** * Function Name: SPI_RegisterCallback
 180:Generated_Source\PSoC6/SPI.h **** ****************************************************************************//**
 181:Generated_Source\PSoC6/SPI.h **** *
 182:Generated_Source\PSoC6/SPI.h **** * Invokes the Cy_SCB_SPI_RegisterCallback() PDL driver function.
 183:Generated_Source\PSoC6/SPI.h **** *
 184:Generated_Source\PSoC6/SPI.h **** *******************************************************************************/
 185:Generated_Source\PSoC6/SPI.h **** __STATIC_INLINE void SPI_RegisterCallback(cy_cb_scb_spi_handle_events_t callback)
 186:Generated_Source\PSoC6/SPI.h **** {
 187:Generated_Source\PSoC6/SPI.h ****     Cy_SCB_SPI_RegisterCallback(SPI_HW, callback, &SPI_context);
 188:Generated_Source\PSoC6/SPI.h **** }
 189:Generated_Source\PSoC6/SPI.h **** 
 190:Generated_Source\PSoC6/SPI.h **** 
 191:Generated_Source\PSoC6/SPI.h **** /*******************************************************************************
 192:Generated_Source\PSoC6/SPI.h **** * Function Name: SPI_IsBusBusy
 193:Generated_Source\PSoC6/SPI.h **** ****************************************************************************//**
 194:Generated_Source\PSoC6/SPI.h **** *
 195:Generated_Source\PSoC6/SPI.h **** * Invokes the Cy_SCB_SPI_IsBusBusy() PDL driver function.
 196:Generated_Source\PSoC6/SPI.h **** *
 197:Generated_Source\PSoC6/SPI.h **** *******************************************************************************/
 198:Generated_Source\PSoC6/SPI.h **** __STATIC_INLINE bool SPI_IsBusBusy(void)
 199:Generated_Source\PSoC6/SPI.h **** {
 200:Generated_Source\PSoC6/SPI.h ****     return Cy_SCB_SPI_IsBusBusy(SPI_HW);
 201:Generated_Source\PSoC6/SPI.h **** }
 202:Generated_Source\PSoC6/SPI.h **** 
 203:Generated_Source\PSoC6/SPI.h **** 
 204:Generated_Source\PSoC6/SPI.h **** /*******************************************************************************
 205:Generated_Source\PSoC6/SPI.h **** * Function Name: SPI_SetActiveSlaveSelect
 206:Generated_Source\PSoC6/SPI.h **** ****************************************************************************//**
 207:Generated_Source\PSoC6/SPI.h **** *
 208:Generated_Source\PSoC6/SPI.h **** * Invokes the Cy_SCB_SPI_SetActiveSlaveSelect() PDL driver function.
 209:Generated_Source\PSoC6/SPI.h **** *
 210:Generated_Source\PSoC6/SPI.h **** *******************************************************************************/
 211:Generated_Source\PSoC6/SPI.h **** __STATIC_INLINE void SPI_SetActiveSlaveSelect(cy_en_scb_spi_slave_select_t slaveSelect)
 212:Generated_Source\PSoC6/SPI.h **** {
 213:Generated_Source\PSoC6/SPI.h ****     Cy_SCB_SPI_SetActiveSlaveSelect(SPI_HW, slaveSelect);
 214:Generated_Source\PSoC6/SPI.h **** }
 215:Generated_Source\PSoC6/SPI.h **** 
 216:Generated_Source\PSoC6/SPI.h **** 
 217:Generated_Source\PSoC6/SPI.h **** /*******************************************************************************
 218:Generated_Source\PSoC6/SPI.h **** * Function Name: SPI_SetActiveSlaveSelectPolarity
 219:Generated_Source\PSoC6/SPI.h **** ****************************************************************************//**
 220:Generated_Source\PSoC6/SPI.h **** *
 221:Generated_Source\PSoC6/SPI.h **** * Invokes the Cy_SCB_SPI_SetActiveSlaveSelectPolarity() PDL driver function.
 222:Generated_Source\PSoC6/SPI.h **** *
 223:Generated_Source\PSoC6/SPI.h **** *******************************************************************************/
 224:Generated_Source\PSoC6/SPI.h **** __STATIC_INLINE void SPI_SetActiveSlaveSelectPolarity(cy_en_scb_spi_slave_select_t slaveSelect, 
 225:Generated_Source\PSoC6/SPI.h ****                                                                    cy_en_scb_spi_polarity_t polarit
 226:Generated_Source\PSoC6/SPI.h **** {
 227:Generated_Source\PSoC6/SPI.h ****     Cy_SCB_SPI_SetActiveSlaveSelectPolarity(SPI_HW, slaveSelect, polarity);
 228:Generated_Source\PSoC6/SPI.h **** }
 229:Generated_Source\PSoC6/SPI.h **** 
 230:Generated_Source\PSoC6/SPI.h **** 
 231:Generated_Source\PSoC6/SPI.h **** /*******************************************************************************
 232:Generated_Source\PSoC6/SPI.h **** * Function Name: SPI_Read
 233:Generated_Source\PSoC6/SPI.h **** ****************************************************************************//**
ARM GAS  C:\Users\dmr85\AppData\Local\Temp\ccbw5e1d.s 			page 7


 234:Generated_Source\PSoC6/SPI.h **** *
 235:Generated_Source\PSoC6/SPI.h **** * Invokes the Cy_SCB_SPI_Read() PDL driver function.
 236:Generated_Source\PSoC6/SPI.h **** *
 237:Generated_Source\PSoC6/SPI.h **** *******************************************************************************/
 238:Generated_Source\PSoC6/SPI.h **** __STATIC_INLINE uint32_t SPI_Read(void)
 239:Generated_Source\PSoC6/SPI.h **** {
 240:Generated_Source\PSoC6/SPI.h ****     return Cy_SCB_SPI_Read(SPI_HW);
 241:Generated_Source\PSoC6/SPI.h **** }
 242:Generated_Source\PSoC6/SPI.h **** 
 243:Generated_Source\PSoC6/SPI.h **** 
 244:Generated_Source\PSoC6/SPI.h **** /*******************************************************************************
 245:Generated_Source\PSoC6/SPI.h **** * Function Name: SPI_ReadArray
 246:Generated_Source\PSoC6/SPI.h **** ****************************************************************************//**
 247:Generated_Source\PSoC6/SPI.h **** *
 248:Generated_Source\PSoC6/SPI.h **** * Invokes the Cy_SCB_SPI_ReadArray() PDL driver function.
 249:Generated_Source\PSoC6/SPI.h **** *
 250:Generated_Source\PSoC6/SPI.h **** *******************************************************************************/
 251:Generated_Source\PSoC6/SPI.h **** __STATIC_INLINE uint32_t SPI_ReadArray(void *buffer, uint32_t size)
 252:Generated_Source\PSoC6/SPI.h **** {
 253:Generated_Source\PSoC6/SPI.h ****     return Cy_SCB_SPI_ReadArray(SPI_HW, buffer, size);
 254:Generated_Source\PSoC6/SPI.h **** }
 255:Generated_Source\PSoC6/SPI.h **** 
 256:Generated_Source\PSoC6/SPI.h **** 
 257:Generated_Source\PSoC6/SPI.h **** /*******************************************************************************
 258:Generated_Source\PSoC6/SPI.h **** * Function Name: SPI_GetRxFifoStatus
 259:Generated_Source\PSoC6/SPI.h **** ****************************************************************************//**
 260:Generated_Source\PSoC6/SPI.h **** *
 261:Generated_Source\PSoC6/SPI.h **** * Invokes the Cy_SCB_SPI_GetRxFifoStatus() PDL driver function.
 262:Generated_Source\PSoC6/SPI.h **** *
 263:Generated_Source\PSoC6/SPI.h **** *******************************************************************************/
 264:Generated_Source\PSoC6/SPI.h **** __STATIC_INLINE uint32_t SPI_GetRxFifoStatus(void)
 265:Generated_Source\PSoC6/SPI.h **** {
 266:Generated_Source\PSoC6/SPI.h ****     return Cy_SCB_SPI_GetRxFifoStatus(SPI_HW);
 267:Generated_Source\PSoC6/SPI.h **** }
 268:Generated_Source\PSoC6/SPI.h **** 
 269:Generated_Source\PSoC6/SPI.h **** 
 270:Generated_Source\PSoC6/SPI.h **** /*******************************************************************************
 271:Generated_Source\PSoC6/SPI.h **** * Function Name: SPI_ClearRxFifoStatus
 272:Generated_Source\PSoC6/SPI.h **** ****************************************************************************//**
 273:Generated_Source\PSoC6/SPI.h **** *
 274:Generated_Source\PSoC6/SPI.h **** * Invokes the Cy_SCB_SPI_ClearRxFifoStatus() PDL driver function.
 275:Generated_Source\PSoC6/SPI.h **** *
 276:Generated_Source\PSoC6/SPI.h **** *******************************************************************************/
 277:Generated_Source\PSoC6/SPI.h **** __STATIC_INLINE void SPI_ClearRxFifoStatus(uint32_t clearMask)
 278:Generated_Source\PSoC6/SPI.h **** {
 279:Generated_Source\PSoC6/SPI.h ****     Cy_SCB_SPI_ClearRxFifoStatus(SPI_HW, clearMask);
 280:Generated_Source\PSoC6/SPI.h **** }
 281:Generated_Source\PSoC6/SPI.h **** 
 282:Generated_Source\PSoC6/SPI.h **** 
 283:Generated_Source\PSoC6/SPI.h **** /*******************************************************************************
 284:Generated_Source\PSoC6/SPI.h **** * Function Name: SPI_GetNumInRxFifo
 285:Generated_Source\PSoC6/SPI.h **** ****************************************************************************//**
 286:Generated_Source\PSoC6/SPI.h **** *
 287:Generated_Source\PSoC6/SPI.h **** * Invokes the Cy_SCB_GetNumInRxFifo() PDL driver function.
 288:Generated_Source\PSoC6/SPI.h **** *
 289:Generated_Source\PSoC6/SPI.h **** *******************************************************************************/
 290:Generated_Source\PSoC6/SPI.h **** __STATIC_INLINE uint32_t SPI_GetNumInRxFifo(void)
ARM GAS  C:\Users\dmr85\AppData\Local\Temp\ccbw5e1d.s 			page 8


 291:Generated_Source\PSoC6/SPI.h **** {
 292:Generated_Source\PSoC6/SPI.h ****     return Cy_SCB_GetNumInRxFifo(SPI_HW);
 293:Generated_Source\PSoC6/SPI.h **** }
 294:Generated_Source\PSoC6/SPI.h **** 
 295:Generated_Source\PSoC6/SPI.h **** 
 296:Generated_Source\PSoC6/SPI.h **** /*******************************************************************************
 297:Generated_Source\PSoC6/SPI.h **** * Function Name: SPI_ClearRxFifo
 298:Generated_Source\PSoC6/SPI.h **** ****************************************************************************//**
 299:Generated_Source\PSoC6/SPI.h **** *
 300:Generated_Source\PSoC6/SPI.h **** * Invokes the Cy_SCB_SPI_ClearRxFifo() PDL driver function.
 301:Generated_Source\PSoC6/SPI.h **** *
 302:Generated_Source\PSoC6/SPI.h **** *******************************************************************************/
 303:Generated_Source\PSoC6/SPI.h **** __STATIC_INLINE void SPI_ClearRxFifo(void)
 304:Generated_Source\PSoC6/SPI.h **** {
 305:Generated_Source\PSoC6/SPI.h ****     Cy_SCB_SPI_ClearRxFifo(SPI_HW);
 306:Generated_Source\PSoC6/SPI.h **** }
 307:Generated_Source\PSoC6/SPI.h **** 
 308:Generated_Source\PSoC6/SPI.h **** 
 309:Generated_Source\PSoC6/SPI.h **** /*******************************************************************************
 310:Generated_Source\PSoC6/SPI.h **** * Function Name: SPI_Write
 311:Generated_Source\PSoC6/SPI.h **** ****************************************************************************//**
 312:Generated_Source\PSoC6/SPI.h **** *
 313:Generated_Source\PSoC6/SPI.h **** * Invokes the Cy_SCB_SPI_Write() PDL driver function.
 314:Generated_Source\PSoC6/SPI.h **** *
 315:Generated_Source\PSoC6/SPI.h **** *******************************************************************************/
 316:Generated_Source\PSoC6/SPI.h **** __STATIC_INLINE uint32_t SPI_Write(uint32_t data)
 317:Generated_Source\PSoC6/SPI.h **** {
 318:Generated_Source\PSoC6/SPI.h ****     return Cy_SCB_SPI_Write(SPI_HW, data);
 319:Generated_Source\PSoC6/SPI.h **** }
 320:Generated_Source\PSoC6/SPI.h **** 
 321:Generated_Source\PSoC6/SPI.h **** 
 322:Generated_Source\PSoC6/SPI.h **** /*******************************************************************************
 323:Generated_Source\PSoC6/SPI.h **** * Function Name: SPI_WriteArray
 324:Generated_Source\PSoC6/SPI.h **** ****************************************************************************//**
 325:Generated_Source\PSoC6/SPI.h **** *
 326:Generated_Source\PSoC6/SPI.h **** * Invokes the Cy_SCB_SPI_WriteArray() PDL driver function.
 327:Generated_Source\PSoC6/SPI.h **** *
 328:Generated_Source\PSoC6/SPI.h **** *******************************************************************************/
 329:Generated_Source\PSoC6/SPI.h **** __STATIC_INLINE uint32_t SPI_WriteArray(void *buffer, uint32_t size)
 330:Generated_Source\PSoC6/SPI.h **** {
 331:Generated_Source\PSoC6/SPI.h ****     return Cy_SCB_SPI_WriteArray(SPI_HW, buffer, size);
 332:Generated_Source\PSoC6/SPI.h **** }
 333:Generated_Source\PSoC6/SPI.h **** 
 334:Generated_Source\PSoC6/SPI.h **** 
 335:Generated_Source\PSoC6/SPI.h **** /*******************************************************************************
 336:Generated_Source\PSoC6/SPI.h **** * Function Name: SPI_WriteArrayBlocking
 337:Generated_Source\PSoC6/SPI.h **** ****************************************************************************//**
 338:Generated_Source\PSoC6/SPI.h **** *
 339:Generated_Source\PSoC6/SPI.h **** * Invokes the Cy_SCB_SPI_WriteArrayBlocking() PDL driver function.
 340:Generated_Source\PSoC6/SPI.h **** *
 341:Generated_Source\PSoC6/SPI.h **** *******************************************************************************/
 342:Generated_Source\PSoC6/SPI.h **** __STATIC_INLINE void SPI_WriteArrayBlocking(void *buffer, uint32_t size)
 343:Generated_Source\PSoC6/SPI.h **** {
 344:Generated_Source\PSoC6/SPI.h ****     Cy_SCB_SPI_WriteArrayBlocking(SPI_HW, buffer, size);
 345:Generated_Source\PSoC6/SPI.h **** }
 346:Generated_Source\PSoC6/SPI.h **** 
 347:Generated_Source\PSoC6/SPI.h **** 
ARM GAS  C:\Users\dmr85\AppData\Local\Temp\ccbw5e1d.s 			page 9


 348:Generated_Source\PSoC6/SPI.h **** /*******************************************************************************
 349:Generated_Source\PSoC6/SPI.h **** * Function Name: SPI_GetTxFifoStatus
 350:Generated_Source\PSoC6/SPI.h **** ****************************************************************************//**
 351:Generated_Source\PSoC6/SPI.h **** *
 352:Generated_Source\PSoC6/SPI.h **** * Invokes the Cy_SCB_SPI_GetTxFifoStatus() PDL driver function.
 353:Generated_Source\PSoC6/SPI.h **** *
 354:Generated_Source\PSoC6/SPI.h **** *******************************************************************************/
 355:Generated_Source\PSoC6/SPI.h **** __STATIC_INLINE uint32_t SPI_GetTxFifoStatus(void)
 356:Generated_Source\PSoC6/SPI.h **** {
 357:Generated_Source\PSoC6/SPI.h ****     return Cy_SCB_SPI_GetTxFifoStatus(SPI_HW);
 358:Generated_Source\PSoC6/SPI.h **** }
 359:Generated_Source\PSoC6/SPI.h **** 
 360:Generated_Source\PSoC6/SPI.h **** 
 361:Generated_Source\PSoC6/SPI.h **** /*******************************************************************************
 362:Generated_Source\PSoC6/SPI.h **** * Function Name: SPI_ClearTxFifoStatus
 363:Generated_Source\PSoC6/SPI.h **** ****************************************************************************//**
 364:Generated_Source\PSoC6/SPI.h **** *
 365:Generated_Source\PSoC6/SPI.h **** * Invokes the Cy_SCB_SPI_ClearTxFifoStatus() PDL driver function.
 366:Generated_Source\PSoC6/SPI.h **** *
 367:Generated_Source\PSoC6/SPI.h **** *******************************************************************************/
 368:Generated_Source\PSoC6/SPI.h **** __STATIC_INLINE void SPI_ClearTxFifoStatus(uint32_t clearMask)
 369:Generated_Source\PSoC6/SPI.h **** {
 370:Generated_Source\PSoC6/SPI.h ****     Cy_SCB_SPI_ClearTxFifoStatus(SPI_HW, clearMask);
 371:Generated_Source\PSoC6/SPI.h **** }
 372:Generated_Source\PSoC6/SPI.h **** 
 373:Generated_Source\PSoC6/SPI.h **** 
 374:Generated_Source\PSoC6/SPI.h **** /*******************************************************************************
 375:Generated_Source\PSoC6/SPI.h **** * Function Name: SPI_GetNumInTxFifo
 376:Generated_Source\PSoC6/SPI.h **** ****************************************************************************//**
 377:Generated_Source\PSoC6/SPI.h **** *
 378:Generated_Source\PSoC6/SPI.h **** * Invokes the Cy_SCB_SPI_GetNumInTxFifo() PDL driver function.
 379:Generated_Source\PSoC6/SPI.h **** *
 380:Generated_Source\PSoC6/SPI.h **** *******************************************************************************/
 381:Generated_Source\PSoC6/SPI.h **** __STATIC_INLINE uint32_t SPI_GetNumInTxFifo(void)
 382:Generated_Source\PSoC6/SPI.h **** {
 383:Generated_Source\PSoC6/SPI.h ****     return Cy_SCB_SPI_GetNumInTxFifo(SPI_HW);
 384:Generated_Source\PSoC6/SPI.h **** }
 385:Generated_Source\PSoC6/SPI.h **** 
 386:Generated_Source\PSoC6/SPI.h **** 
 387:Generated_Source\PSoC6/SPI.h **** /*******************************************************************************
 388:Generated_Source\PSoC6/SPI.h **** * Function Name: SPI_IsTxComplete
 389:Generated_Source\PSoC6/SPI.h **** ****************************************************************************//**
 390:Generated_Source\PSoC6/SPI.h **** *
 391:Generated_Source\PSoC6/SPI.h **** * Invokes the Cy_SCB_SPI_IsTxComplete() PDL driver function.
 392:Generated_Source\PSoC6/SPI.h **** *
 393:Generated_Source\PSoC6/SPI.h **** *******************************************************************************/
 394:Generated_Source\PSoC6/SPI.h **** __STATIC_INLINE bool SPI_IsTxComplete(void)
 395:Generated_Source\PSoC6/SPI.h **** {
 396:Generated_Source\PSoC6/SPI.h ****     return Cy_SCB_SPI_IsTxComplete(SPI_HW);
 397:Generated_Source\PSoC6/SPI.h **** }
 398:Generated_Source\PSoC6/SPI.h **** 
 399:Generated_Source\PSoC6/SPI.h **** 
 400:Generated_Source\PSoC6/SPI.h **** /*******************************************************************************
 401:Generated_Source\PSoC6/SPI.h **** * Function Name: SPI_ClearTxFifo
 402:Generated_Source\PSoC6/SPI.h **** ****************************************************************************//**
 403:Generated_Source\PSoC6/SPI.h **** *
 404:Generated_Source\PSoC6/SPI.h **** * Invokes the Cy_SCB_SPI_ClearTxFifo() PDL driver function.
ARM GAS  C:\Users\dmr85\AppData\Local\Temp\ccbw5e1d.s 			page 10


 405:Generated_Source\PSoC6/SPI.h **** *
 406:Generated_Source\PSoC6/SPI.h **** *******************************************************************************/
 407:Generated_Source\PSoC6/SPI.h **** __STATIC_INLINE void SPI_ClearTxFifo(void)
 408:Generated_Source\PSoC6/SPI.h **** {
 409:Generated_Source\PSoC6/SPI.h ****     Cy_SCB_SPI_ClearTxFifo(SPI_HW);
 410:Generated_Source\PSoC6/SPI.h **** }
 411:Generated_Source\PSoC6/SPI.h **** 
 412:Generated_Source\PSoC6/SPI.h **** 
 413:Generated_Source\PSoC6/SPI.h **** /*******************************************************************************
 414:Generated_Source\PSoC6/SPI.h **** * Function Name: SPI_GetSlaveMasterStatus
 415:Generated_Source\PSoC6/SPI.h **** ****************************************************************************//**
 416:Generated_Source\PSoC6/SPI.h **** *
 417:Generated_Source\PSoC6/SPI.h **** * Invokes the Cy_SCB_SPI_GetSlaveMasterStatus() PDL driver function.
 418:Generated_Source\PSoC6/SPI.h **** *
 419:Generated_Source\PSoC6/SPI.h **** *******************************************************************************/
 420:Generated_Source\PSoC6/SPI.h **** __STATIC_INLINE uint32_t SPI_GetSlaveMasterStatus(void)
 421:Generated_Source\PSoC6/SPI.h **** {
 422:Generated_Source\PSoC6/SPI.h ****     return Cy_SCB_SPI_GetSlaveMasterStatus(SPI_HW);
 423:Generated_Source\PSoC6/SPI.h **** }
 424:Generated_Source\PSoC6/SPI.h **** 
 425:Generated_Source\PSoC6/SPI.h **** 
 426:Generated_Source\PSoC6/SPI.h **** /*******************************************************************************
 427:Generated_Source\PSoC6/SPI.h **** * Function Name: SPI_ClearSlaveMasterStatus
 428:Generated_Source\PSoC6/SPI.h **** ****************************************************************************//**
 429:Generated_Source\PSoC6/SPI.h **** *
 430:Generated_Source\PSoC6/SPI.h **** * Invokes the Cy_SCB_SPI_ClearSlaveMasterStatus() PDL driver function.
 431:Generated_Source\PSoC6/SPI.h **** *
 432:Generated_Source\PSoC6/SPI.h **** *******************************************************************************/
 433:Generated_Source\PSoC6/SPI.h **** __STATIC_INLINE void SPI_ClearSlaveMasterStatus(uint32_t clearMask)
 434:Generated_Source\PSoC6/SPI.h **** {
 435:Generated_Source\PSoC6/SPI.h ****     Cy_SCB_SPI_ClearSlaveMasterStatus(SPI_HW, clearMask);
 436:Generated_Source\PSoC6/SPI.h **** }
 437:Generated_Source\PSoC6/SPI.h **** 
 438:Generated_Source\PSoC6/SPI.h **** 
 439:Generated_Source\PSoC6/SPI.h **** /*******************************************************************************
 440:Generated_Source\PSoC6/SPI.h **** * Function Name: SPI_Transfer
 441:Generated_Source\PSoC6/SPI.h **** ****************************************************************************//**
 442:Generated_Source\PSoC6/SPI.h **** *
 443:Generated_Source\PSoC6/SPI.h **** * Invokes the Cy_SCB_SPI_Transfer() PDL driver function.
 444:Generated_Source\PSoC6/SPI.h **** *
 445:Generated_Source\PSoC6/SPI.h **** *******************************************************************************/
 446:Generated_Source\PSoC6/SPI.h **** __STATIC_INLINE cy_en_scb_spi_status_t SPI_Transfer(void *txBuffer, void *rxBuffer, uint32_t size)
 447:Generated_Source\PSoC6/SPI.h **** {
 448:Generated_Source\PSoC6/SPI.h ****     return Cy_SCB_SPI_Transfer(SPI_HW, txBuffer, rxBuffer, size, &SPI_context);
  51              		.loc 2 448 0
  52 0010 054B     		ldr	r3, .L3+4
  53 0012 0093     		str	r3, [sp]
  54 0014 0123     		movs	r3, #1
  55 0016 0022     		movs	r2, #0
  56 0018 2146     		mov	r1, r4
  57 001a 0448     		ldr	r0, .L3+8
  58 001c FFF7FEFF 		bl	Cy_SCB_SPI_Transfer
  59              	.LVL3:
  60              	.LBE44:
  61              	.LBE43:
  60:ads1299_spi_adapt.c ****     cy_en_scb_spi_status_t transfer_status;
  61:ads1299_spi_adapt.c ****     transfer_status = SPI_Transfer(txBuffer, NULL, ONE_PACKET_SIZE);
ARM GAS  C:\Users\dmr85\AppData\Local\Temp\ccbw5e1d.s 			page 11


  62:ads1299_spi_adapt.c ****     //CyDelay(10);
  63:ads1299_spi_adapt.c ****     return transfer_status;
  64:ads1299_spi_adapt.c **** }
  62              		.loc 1 64 0
  63 0020 04B0     		add	sp, sp, #16
  64              		.cfi_def_cfa_offset 8
  65              		@ sp needed
  66 0022 10BD     		pop	{r4, pc}
  67              	.L4:
  68              		.align	2
  69              	.L3:
  70 0024 00000000 		.word	.LC0
  71 0028 00000000 		.word	SPI_context
  72 002c 00006340 		.word	1080229888
  73              		.cfi_endproc
  74              	.LFE537:
  75              		.size	spi_put, .-spi_put
  76              		.section	.text.spi_get,"ax",%progbits
  77              		.align	2
  78              		.global	spi_get
  79              		.thumb
  80              		.thumb_func
  81              		.type	spi_get, %function
  82              	spi_get:
  83              	.LFB538:
  65:ads1299_spi_adapt.c **** 
  66:ads1299_spi_adapt.c **** cy_en_scb_spi_status_t spi_get(volatile uint8_t *spi, uint8_t rxBuffer[])
  67:ads1299_spi_adapt.c **** {
  84              		.loc 1 67 0
  85              		.cfi_startproc
  86              		@ args = 0, pretend = 0, frame = 0
  87              		@ frame_needed = 0, uses_anonymous_args = 0
  88              	.LVL4:
  89 0000 30B5     		push	{r4, r5, lr}
  90              		.cfi_def_cfa_offset 12
  91              		.cfi_offset 4, -12
  92              		.cfi_offset 5, -8
  93              		.cfi_offset 14, -4
  94 0002 83B0     		sub	sp, sp, #12
  95              		.cfi_def_cfa_offset 24
  96 0004 0C46     		mov	r4, r1
  97              	.LVL5:
  98              	.LBB45:
  99              	.LBB46:
 100              		.loc 2 448 0
 101 0006 084B     		ldr	r3, .L7
 102 0008 0093     		str	r3, [sp]
 103 000a 0123     		movs	r3, #1
 104 000c 0A46     		mov	r2, r1
 105 000e 0021     		movs	r1, #0
 106              	.LVL6:
 107 0010 0648     		ldr	r0, .L7+4
 108              	.LVL7:
 109 0012 FFF7FEFF 		bl	Cy_SCB_SPI_Transfer
 110              	.LVL8:
 111 0016 0546     		mov	r5, r0
 112              	.LVL9:
ARM GAS  C:\Users\dmr85\AppData\Local\Temp\ccbw5e1d.s 			page 12


 113              	.LBE46:
 114              	.LBE45:
  68:ads1299_spi_adapt.c ****     cy_en_scb_spi_status_t transferStatus;
  69:ads1299_spi_adapt.c ****     transferStatus = SPI_Transfer(NULL, rxBuffer, ONE_PACKET_SIZE);
  70:ads1299_spi_adapt.c ****     //CyDelay(10);
  71:ads1299_spi_adapt.c ****     printf("%x ", rxBuffer[0]);
 115              		.loc 1 71 0
 116 0018 2178     		ldrb	r1, [r4]	@ zero_extendqisi2
 117 001a 0548     		ldr	r0, .L7+8
 118 001c FFF7FEFF 		bl	printf
 119              	.LVL10:
  72:ads1299_spi_adapt.c ****     return transferStatus;
  73:ads1299_spi_adapt.c **** }
 120              		.loc 1 73 0
 121 0020 2846     		mov	r0, r5
 122 0022 03B0     		add	sp, sp, #12
 123              		.cfi_def_cfa_offset 12
 124              		@ sp needed
 125 0024 30BD     		pop	{r4, r5, pc}
 126              	.LVL11:
 127              	.L8:
 128 0026 00BF     		.align	2
 129              	.L7:
 130 0028 00000000 		.word	SPI_context
 131 002c 00006340 		.word	1080229888
 132 0030 00000000 		.word	.LC0
 133              		.cfi_endproc
 134              	.LFE538:
 135              		.size	spi_get, .-spi_get
 136              		.section	.text.delay_s,"ax",%progbits
 137              		.align	2
 138              		.global	delay_s
 139              		.thumb
 140              		.thumb_func
 141              		.type	delay_s, %function
 142              	delay_s:
 143              	.LFB541:
  74:ads1299_spi_adapt.c **** 
  75:ads1299_spi_adapt.c **** void spi_selectChip(volatile uint8_t *spi, uint8_t chip_select)
  76:ads1299_spi_adapt.c **** {   
  77:ads1299_spi_adapt.c ****     gpio_clr_gpio_pin(ADS1299_PIN_CS);
  78:ads1299_spi_adapt.c ****     // CyDelayUs(1);
  79:ads1299_spi_adapt.c **** }
  80:ads1299_spi_adapt.c **** 
  81:ads1299_spi_adapt.c **** void spi_unselectChip(volatile uint8_t *spi, uint8_t chip_select)
  82:ads1299_spi_adapt.c **** {   
  83:ads1299_spi_adapt.c ****     // CyDelayUs(1);
  84:ads1299_spi_adapt.c ****     gpio_set_gpio_pin(ADS1299_PIN_CS);
  85:ads1299_spi_adapt.c **** }
  86:ads1299_spi_adapt.c **** 
  87:ads1299_spi_adapt.c **** void delay_s(int delay)
  88:ads1299_spi_adapt.c **** {
 144              		.loc 1 88 0
 145              		.cfi_startproc
 146              		@ args = 0, pretend = 0, frame = 0
 147              		@ frame_needed = 0, uses_anonymous_args = 0
 148              	.LVL12:
ARM GAS  C:\Users\dmr85\AppData\Local\Temp\ccbw5e1d.s 			page 13


 149 0000 08B5     		push	{r3, lr}
 150              		.cfi_def_cfa_offset 8
 151              		.cfi_offset 3, -8
 152              		.cfi_offset 14, -4
  89:ads1299_spi_adapt.c ****     CyDelay(1000 * delay);
 153              		.loc 1 89 0
 154 0002 4FF47A73 		mov	r3, #1000
 155 0006 03FB00F0 		mul	r0, r3, r0
 156              	.LVL13:
 157 000a FFF7FEFF 		bl	Cy_SysLib_Delay
 158              	.LVL14:
 159 000e 08BD     		pop	{r3, pc}
 160              		.cfi_endproc
 161              	.LFE541:
 162              		.size	delay_s, .-delay_s
 163              		.section	.text.delay_ms,"ax",%progbits
 164              		.align	2
 165              		.global	delay_ms
 166              		.thumb
 167              		.thumb_func
 168              		.type	delay_ms, %function
 169              	delay_ms:
 170              	.LFB542:
  90:ads1299_spi_adapt.c **** }
  91:ads1299_spi_adapt.c **** 
  92:ads1299_spi_adapt.c **** void delay_ms(int delay)
  93:ads1299_spi_adapt.c **** {
 171              		.loc 1 93 0
 172              		.cfi_startproc
 173              		@ args = 0, pretend = 0, frame = 0
 174              		@ frame_needed = 0, uses_anonymous_args = 0
 175              	.LVL15:
 176 0000 08B5     		push	{r3, lr}
 177              		.cfi_def_cfa_offset 8
 178              		.cfi_offset 3, -8
 179              		.cfi_offset 14, -4
  94:ads1299_spi_adapt.c ****     CyDelay(delay);
 180              		.loc 1 94 0
 181 0002 FFF7FEFF 		bl	Cy_SysLib_Delay
 182              	.LVL16:
 183 0006 08BD     		pop	{r3, pc}
 184              		.cfi_endproc
 185              	.LFE542:
 186              		.size	delay_ms, .-delay_ms
 187              		.section	.text.delay_us,"ax",%progbits
 188              		.align	2
 189              		.global	delay_us
 190              		.thumb
 191              		.thumb_func
 192              		.type	delay_us, %function
 193              	delay_us:
 194              	.LFB543:
  95:ads1299_spi_adapt.c **** }
  96:ads1299_spi_adapt.c **** 
  97:ads1299_spi_adapt.c **** void delay_us(int delay)
  98:ads1299_spi_adapt.c **** {
 195              		.loc 1 98 0
ARM GAS  C:\Users\dmr85\AppData\Local\Temp\ccbw5e1d.s 			page 14


 196              		.cfi_startproc
 197              		@ args = 0, pretend = 0, frame = 0
 198              		@ frame_needed = 0, uses_anonymous_args = 0
 199              	.LVL17:
 200 0000 08B5     		push	{r3, lr}
 201              		.cfi_def_cfa_offset 8
 202              		.cfi_offset 3, -8
 203              		.cfi_offset 14, -4
  99:ads1299_spi_adapt.c ****     CyDelayUs(delay);
 204              		.loc 1 99 0
 205 0002 80B2     		uxth	r0, r0
 206              	.LVL18:
 207 0004 FFF7FEFF 		bl	Cy_SysLib_DelayUs
 208              	.LVL19:
 209 0008 08BD     		pop	{r3, pc}
 210              		.cfi_endproc
 211              	.LFE543:
 212              		.size	delay_us, .-delay_us
 213              		.section	.text.gpio_set_gpio_pin,"ax",%progbits
 214              		.align	2
 215              		.global	gpio_set_gpio_pin
 216              		.thumb
 217              		.thumb_func
 218              		.type	gpio_set_gpio_pin, %function
 219              	gpio_set_gpio_pin:
 220              	.LFB544:
 100:ads1299_spi_adapt.c **** }
 101:ads1299_spi_adapt.c **** 
 102:ads1299_spi_adapt.c **** void gpio_set_gpio_pin(uint32_t pin)
 103:ads1299_spi_adapt.c **** {
 221              		.loc 1 103 0
 222              		.cfi_startproc
 223              		@ args = 0, pretend = 0, frame = 0
 224              		@ frame_needed = 0, uses_anonymous_args = 0
 225              		@ link register save eliminated.
 226              	.LVL20:
 104:ads1299_spi_adapt.c ****     switch (pin)
 227              		.loc 1 104 0
 228 0000 0138     		subs	r0, r0, #1
 229              	.LVL21:
 230 0002 0528     		cmp	r0, #5
 231 0004 1BD8     		bhi	.L15
 232 0006 DFE800F0 		tbb	[pc, r0]
 233              	.L18:
 234 000a 03       		.byte	(.L17-.L18)/2
 235 000b 07       		.byte	(.L19-.L18)/2
 236 000c 0B       		.byte	(.L20-.L18)/2
 237 000d 0F       		.byte	(.L21-.L18)/2
 238 000e 13       		.byte	(.L22-.L18)/2
 239 000f 17       		.byte	(.L23-.L18)/2
 240              		.p2align 1
 241              	.L17:
 242              	.LVL22:
 243              	.LBB47:
 244              	.LBB48:
 245              		.file 3 "Generated_Source\\PSoC6\\pdl\\drivers/peripheral/gpio/cy_gpio.h"
   1:Generated_Source\PSoC6\pdl\drivers/peripheral/gpio/cy_gpio.h **** /***************************************************************************//**
ARM GAS  C:\Users\dmr85\AppData\Local\Temp\ccbw5e1d.s 			page 15


   2:Generated_Source\PSoC6\pdl\drivers/peripheral/gpio/cy_gpio.h **** * \file cy_gpio.h
   3:Generated_Source\PSoC6\pdl\drivers/peripheral/gpio/cy_gpio.h **** * \version 1.20
   4:Generated_Source\PSoC6\pdl\drivers/peripheral/gpio/cy_gpio.h **** *
   5:Generated_Source\PSoC6\pdl\drivers/peripheral/gpio/cy_gpio.h **** * Provides an API declaration of the GPIO driver
   6:Generated_Source\PSoC6\pdl\drivers/peripheral/gpio/cy_gpio.h **** *
   7:Generated_Source\PSoC6\pdl\drivers/peripheral/gpio/cy_gpio.h **** ********************************************************************************
   8:Generated_Source\PSoC6\pdl\drivers/peripheral/gpio/cy_gpio.h **** * \copyright
   9:Generated_Source\PSoC6\pdl\drivers/peripheral/gpio/cy_gpio.h **** * Copyright 2016-2018, Cypress Semiconductor Corporation. All rights reserved.
  10:Generated_Source\PSoC6\pdl\drivers/peripheral/gpio/cy_gpio.h **** * You may use this file only in accordance with the license, terms, conditions,
  11:Generated_Source\PSoC6\pdl\drivers/peripheral/gpio/cy_gpio.h **** * disclaimers, and limitations in the end user license agreement accompanying
  12:Generated_Source\PSoC6\pdl\drivers/peripheral/gpio/cy_gpio.h **** * the software package with which this file was provided.
  13:Generated_Source\PSoC6\pdl\drivers/peripheral/gpio/cy_gpio.h **** *******************************************************************************/
  14:Generated_Source\PSoC6\pdl\drivers/peripheral/gpio/cy_gpio.h **** 
  15:Generated_Source\PSoC6\pdl\drivers/peripheral/gpio/cy_gpio.h **** /**
  16:Generated_Source\PSoC6\pdl\drivers/peripheral/gpio/cy_gpio.h **** * \addtogroup group_gpio
  17:Generated_Source\PSoC6\pdl\drivers/peripheral/gpio/cy_gpio.h **** * \{
  18:Generated_Source\PSoC6\pdl\drivers/peripheral/gpio/cy_gpio.h **** * The GPIO driver provides an API to configure and access device Input/Output pins.
  19:Generated_Source\PSoC6\pdl\drivers/peripheral/gpio/cy_gpio.h **** *
  20:Generated_Source\PSoC6\pdl\drivers/peripheral/gpio/cy_gpio.h **** * The functions and other declarations used in this driver are in cy_gpio.h. 
  21:Generated_Source\PSoC6\pdl\drivers/peripheral/gpio/cy_gpio.h **** * You can include cy_pdl.h (ModusToolbox only) to get access to all functions 
  22:Generated_Source\PSoC6\pdl\drivers/peripheral/gpio/cy_gpio.h **** * and declarations in the PDL.
  23:Generated_Source\PSoC6\pdl\drivers/peripheral/gpio/cy_gpio.h **** *
  24:Generated_Source\PSoC6\pdl\drivers/peripheral/gpio/cy_gpio.h **** * IO pins include all general purpose types such as GPIO, SIO, HSIO, AUXIO, and
  25:Generated_Source\PSoC6\pdl\drivers/peripheral/gpio/cy_gpio.h **** * their variants.
  26:Generated_Source\PSoC6\pdl\drivers/peripheral/gpio/cy_gpio.h **** *
  27:Generated_Source\PSoC6\pdl\drivers/peripheral/gpio/cy_gpio.h **** * Initialization can be performed either at the port level or by configuring the
  28:Generated_Source\PSoC6\pdl\drivers/peripheral/gpio/cy_gpio.h **** * individual pins. For efficient use of code space, port
  29:Generated_Source\PSoC6\pdl\drivers/peripheral/gpio/cy_gpio.h **** * configuration should be used in the field. Refer to the product device header files 
  30:Generated_Source\PSoC6\pdl\drivers/peripheral/gpio/cy_gpio.h **** * for the list of supported ports and pins.
  31:Generated_Source\PSoC6\pdl\drivers/peripheral/gpio/cy_gpio.h **** * 
  32:Generated_Source\PSoC6\pdl\drivers/peripheral/gpio/cy_gpio.h **** * - Single pin configuration is performed by using \ref Cy_GPIO_Pin_FastInit 
  33:Generated_Source\PSoC6\pdl\drivers/peripheral/gpio/cy_gpio.h **** *   (provide specific values) or \ref Cy_GPIO_Pin_Init (provide a filled
  34:Generated_Source\PSoC6\pdl\drivers/peripheral/gpio/cy_gpio.h **** *   cy_stc_gpio_pin_config_t structure).
  35:Generated_Source\PSoC6\pdl\drivers/peripheral/gpio/cy_gpio.h **** * - An entire port can be configured using \ref Cy_GPIO_Port_Init. Provide a filled 
  36:Generated_Source\PSoC6\pdl\drivers/peripheral/gpio/cy_gpio.h **** *   cy_stc_gpio_prt_config_t structure. The values in the structure are 
  37:Generated_Source\PSoC6\pdl\drivers/peripheral/gpio/cy_gpio.h **** *   bitfields representing the desired value for each pin in the port.
  38:Generated_Source\PSoC6\pdl\drivers/peripheral/gpio/cy_gpio.h **** * - Pin configuration and management is based on the port address and pin number.
  39:Generated_Source\PSoC6\pdl\drivers/peripheral/gpio/cy_gpio.h **** *   \ref Cy_GPIO_PortToAddr function can optionally be used to calculate the port
  40:Generated_Source\PSoC6\pdl\drivers/peripheral/gpio/cy_gpio.h **** *   address from the port number at run-time.
  41:Generated_Source\PSoC6\pdl\drivers/peripheral/gpio/cy_gpio.h **** *
  42:Generated_Source\PSoC6\pdl\drivers/peripheral/gpio/cy_gpio.h **** * Once the pin/port initialization is complete, each pin can be accessed by 
  43:Generated_Source\PSoC6\pdl\drivers/peripheral/gpio/cy_gpio.h **** * specifying the port (GPIO_PRT_Type) and the pin (0-7) in the provided API 
  44:Generated_Source\PSoC6\pdl\drivers/peripheral/gpio/cy_gpio.h **** * functions.
  45:Generated_Source\PSoC6\pdl\drivers/peripheral/gpio/cy_gpio.h **** *
  46:Generated_Source\PSoC6\pdl\drivers/peripheral/gpio/cy_gpio.h **** * \section group_gpio_configuration Configuration Considerations
  47:Generated_Source\PSoC6\pdl\drivers/peripheral/gpio/cy_gpio.h **** *
  48:Generated_Source\PSoC6\pdl\drivers/peripheral/gpio/cy_gpio.h **** * 1. Pin multiplexing is controlled through the High-Speed IO Matrix (HSIOM) selection.
  49:Generated_Source\PSoC6\pdl\drivers/peripheral/gpio/cy_gpio.h **** *    This allows the pin to connect to signal sources/sinks throughout the device,
  50:Generated_Source\PSoC6\pdl\drivers/peripheral/gpio/cy_gpio.h **** *    as defined by the pin HSIOM selection options (en_hsiom_sel_t).
  51:Generated_Source\PSoC6\pdl\drivers/peripheral/gpio/cy_gpio.h **** * 2. All pins are initialized to High-Z drive mode with HSIOM connected to CPU (SW
  52:Generated_Source\PSoC6\pdl\drivers/peripheral/gpio/cy_gpio.h **** *    control digital pin only) at Power-On-Reset(POR).
  53:Generated_Source\PSoC6\pdl\drivers/peripheral/gpio/cy_gpio.h **** * 3. Some API functions perform read-modify-write operations on shared port
  54:Generated_Source\PSoC6\pdl\drivers/peripheral/gpio/cy_gpio.h **** *    registers. These functions are not thread safe and care must be taken when
  55:Generated_Source\PSoC6\pdl\drivers/peripheral/gpio/cy_gpio.h **** *    called by the application.
  56:Generated_Source\PSoC6\pdl\drivers/peripheral/gpio/cy_gpio.h **** * 4. Digital input buffer provides a high-impedance buffer for the external 
  57:Generated_Source\PSoC6\pdl\drivers/peripheral/gpio/cy_gpio.h **** *    digital input. The input buffer is connected to the HSIOM for routing to 
  58:Generated_Source\PSoC6\pdl\drivers/peripheral/gpio/cy_gpio.h **** *    the CPU port registers and selected peripheral. Enabling the input 
ARM GAS  C:\Users\dmr85\AppData\Local\Temp\ccbw5e1d.s 			page 16


  59:Generated_Source\PSoC6\pdl\drivers/peripheral/gpio/cy_gpio.h **** *    buffer provides possibility to read the pin state via the CPU.
  60:Generated_Source\PSoC6\pdl\drivers/peripheral/gpio/cy_gpio.h **** *    If pin is connected to an analog signal, the input buffer should be 
  61:Generated_Source\PSoC6\pdl\drivers/peripheral/gpio/cy_gpio.h **** *    disabled to avoid crowbar currents. For more information refer to device 
  62:Generated_Source\PSoC6\pdl\drivers/peripheral/gpio/cy_gpio.h **** *    TRM and the device datasheet.
  63:Generated_Source\PSoC6\pdl\drivers/peripheral/gpio/cy_gpio.h **** *
  64:Generated_Source\PSoC6\pdl\drivers/peripheral/gpio/cy_gpio.h **** * Multiple pins on a port can be updated using direct port register writes with an
  65:Generated_Source\PSoC6\pdl\drivers/peripheral/gpio/cy_gpio.h **** * appropriate port mask. An example is shown below, highlighting the different ways of 
  66:Generated_Source\PSoC6\pdl\drivers/peripheral/gpio/cy_gpio.h **** * configuring Port 1 pins using:
  67:Generated_Source\PSoC6\pdl\drivers/peripheral/gpio/cy_gpio.h **** * 
  68:Generated_Source\PSoC6\pdl\drivers/peripheral/gpio/cy_gpio.h **** * - Port output data register
  69:Generated_Source\PSoC6\pdl\drivers/peripheral/gpio/cy_gpio.h **** * - Port output data set register
  70:Generated_Source\PSoC6\pdl\drivers/peripheral/gpio/cy_gpio.h **** * - Port output data clear register
  71:Generated_Source\PSoC6\pdl\drivers/peripheral/gpio/cy_gpio.h **** *
  72:Generated_Source\PSoC6\pdl\drivers/peripheral/gpio/cy_gpio.h **** * \snippet gpio/gpio_v1_10_sut_01.cydsn/main_cm4.c Cy_GPIO_Snippet
  73:Generated_Source\PSoC6\pdl\drivers/peripheral/gpio/cy_gpio.h **** *
  74:Generated_Source\PSoC6\pdl\drivers/peripheral/gpio/cy_gpio.h **** * \section group_gpio_more_information More Information
  75:Generated_Source\PSoC6\pdl\drivers/peripheral/gpio/cy_gpio.h **** *
  76:Generated_Source\PSoC6\pdl\drivers/peripheral/gpio/cy_gpio.h **** * Refer to the technical reference manual (TRM) and the device datasheet.
  77:Generated_Source\PSoC6\pdl\drivers/peripheral/gpio/cy_gpio.h **** *
  78:Generated_Source\PSoC6\pdl\drivers/peripheral/gpio/cy_gpio.h **** * \section group_gpio_MISRA MISRA-C Compliance
  79:Generated_Source\PSoC6\pdl\drivers/peripheral/gpio/cy_gpio.h **** * The GPIO driver has the following specific deviations:
  80:Generated_Source\PSoC6\pdl\drivers/peripheral/gpio/cy_gpio.h **** *
  81:Generated_Source\PSoC6\pdl\drivers/peripheral/gpio/cy_gpio.h **** * <table class="doxtable">
  82:Generated_Source\PSoC6\pdl\drivers/peripheral/gpio/cy_gpio.h **** *   <tr>
  83:Generated_Source\PSoC6\pdl\drivers/peripheral/gpio/cy_gpio.h **** *     <th>MISRA Rule</th>
  84:Generated_Source\PSoC6\pdl\drivers/peripheral/gpio/cy_gpio.h **** *     <th>Rule Class (Required/Advisory)</th>
  85:Generated_Source\PSoC6\pdl\drivers/peripheral/gpio/cy_gpio.h **** *     <th>Rule Description</th>
  86:Generated_Source\PSoC6\pdl\drivers/peripheral/gpio/cy_gpio.h **** *     <th>Description of Deviation(s)</th>
  87:Generated_Source\PSoC6\pdl\drivers/peripheral/gpio/cy_gpio.h **** *   </tr>
  88:Generated_Source\PSoC6\pdl\drivers/peripheral/gpio/cy_gpio.h **** *   <tr>
  89:Generated_Source\PSoC6\pdl\drivers/peripheral/gpio/cy_gpio.h **** *     <td>11.4</td>
  90:Generated_Source\PSoC6\pdl\drivers/peripheral/gpio/cy_gpio.h **** *     <td>A</td>
  91:Generated_Source\PSoC6\pdl\drivers/peripheral/gpio/cy_gpio.h **** *     <td>A cast should not be performed between a pointer to object type and
  92:Generated_Source\PSoC6\pdl\drivers/peripheral/gpio/cy_gpio.h **** *         a different pointer to object type.</td>
  93:Generated_Source\PSoC6\pdl\drivers/peripheral/gpio/cy_gpio.h **** *     <td> This code is safe because the elements of both GPIO_PRT_V1_Type and GPIO_PRT_V2_Type 
  94:Generated_Source\PSoC6\pdl\drivers/peripheral/gpio/cy_gpio.h **** *          types have identical alignment.</td>
  95:Generated_Source\PSoC6\pdl\drivers/peripheral/gpio/cy_gpio.h **** *   </tr>
  96:Generated_Source\PSoC6\pdl\drivers/peripheral/gpio/cy_gpio.h **** *   <tr>
  97:Generated_Source\PSoC6\pdl\drivers/peripheral/gpio/cy_gpio.h **** *     <td>16.7</td>
  98:Generated_Source\PSoC6\pdl\drivers/peripheral/gpio/cy_gpio.h **** *     <td>A</td>
  99:Generated_Source\PSoC6\pdl\drivers/peripheral/gpio/cy_gpio.h **** *     <td>A pointer parameter in a function prototype should be declared as pointer 
 100:Generated_Source\PSoC6\pdl\drivers/peripheral/gpio/cy_gpio.h **** *         to const if the pointer is not used to modify the addressed object.</td>
 101:Generated_Source\PSoC6\pdl\drivers/peripheral/gpio/cy_gpio.h **** *     <td>The objects pointed to by the base addresses of the GPIO port are not always modified.
 102:Generated_Source\PSoC6\pdl\drivers/peripheral/gpio/cy_gpio.h **** *         While a const qualifier can be used in select scenarios, it brings little benefit
 103:Generated_Source\PSoC6\pdl\drivers/peripheral/gpio/cy_gpio.h **** *         in adding this to the affected functions. </td>
 104:Generated_Source\PSoC6\pdl\drivers/peripheral/gpio/cy_gpio.h **** *   </tr>
 105:Generated_Source\PSoC6\pdl\drivers/peripheral/gpio/cy_gpio.h **** * </table>
 106:Generated_Source\PSoC6\pdl\drivers/peripheral/gpio/cy_gpio.h **** *
 107:Generated_Source\PSoC6\pdl\drivers/peripheral/gpio/cy_gpio.h **** * \section group_gpio_changelog Changelog
 108:Generated_Source\PSoC6\pdl\drivers/peripheral/gpio/cy_gpio.h **** * <table class="doxtable">
 109:Generated_Source\PSoC6\pdl\drivers/peripheral/gpio/cy_gpio.h **** *   <tr><th>Version</th><th>Changes</th><th>Reason for Change</th></tr>
 110:Generated_Source\PSoC6\pdl\drivers/peripheral/gpio/cy_gpio.h **** *   <tr>
 111:Generated_Source\PSoC6\pdl\drivers/peripheral/gpio/cy_gpio.h **** *     <td rowspan="3">1.20</td>
 112:Generated_Source\PSoC6\pdl\drivers/peripheral/gpio/cy_gpio.h **** *     <td>Flattened the organization of the driver source code into the single source directory and
 113:Generated_Source\PSoC6\pdl\drivers/peripheral/gpio/cy_gpio.h **** *     <td>Driver library directory-structure simplification.</td>
 114:Generated_Source\PSoC6\pdl\drivers/peripheral/gpio/cy_gpio.h **** *   </tr>
 115:Generated_Source\PSoC6\pdl\drivers/peripheral/gpio/cy_gpio.h **** *   <tr>
ARM GAS  C:\Users\dmr85\AppData\Local\Temp\ccbw5e1d.s 			page 17


 116:Generated_Source\PSoC6\pdl\drivers/peripheral/gpio/cy_gpio.h **** *     <td>Added the functions for configuring the AMux bus splitter switch cells:
 117:Generated_Source\PSoC6\pdl\drivers/peripheral/gpio/cy_gpio.h **** *     - \ref Cy_GPIO_SetAmuxSplit
 118:Generated_Source\PSoC6\pdl\drivers/peripheral/gpio/cy_gpio.h **** *     - \ref Cy_GPIO_GetAmuxSplit
 119:Generated_Source\PSoC6\pdl\drivers/peripheral/gpio/cy_gpio.h **** *     </td>
 120:Generated_Source\PSoC6\pdl\drivers/peripheral/gpio/cy_gpio.h **** *     <td>Added a new functionality related to AMux bus.</td>
 121:Generated_Source\PSoC6\pdl\drivers/peripheral/gpio/cy_gpio.h **** *   </tr>
 122:Generated_Source\PSoC6\pdl\drivers/peripheral/gpio/cy_gpio.h **** *   <tr>
 123:Generated_Source\PSoC6\pdl\drivers/peripheral/gpio/cy_gpio.h **** *     <td>Added register access layer. Use register access macros instead
 124:Generated_Source\PSoC6\pdl\drivers/peripheral/gpio/cy_gpio.h **** *         of direct register access using dereferenced pointers.</td>
 125:Generated_Source\PSoC6\pdl\drivers/peripheral/gpio/cy_gpio.h **** *     <td>Makes register access device-independent, so that the PDL does 
 126:Generated_Source\PSoC6\pdl\drivers/peripheral/gpio/cy_gpio.h **** *         not need to be recompiled for each supported part number.</td>
 127:Generated_Source\PSoC6\pdl\drivers/peripheral/gpio/cy_gpio.h **** *   </tr>
 128:Generated_Source\PSoC6\pdl\drivers/peripheral/gpio/cy_gpio.h **** *   <tr>
 129:Generated_Source\PSoC6\pdl\drivers/peripheral/gpio/cy_gpio.h **** *     <td>1.10.1</td>
 130:Generated_Source\PSoC6\pdl\drivers/peripheral/gpio/cy_gpio.h **** *     <td>Updated description for the functions: \ref Cy_GPIO_GetInterruptStatus, 
 131:Generated_Source\PSoC6\pdl\drivers/peripheral/gpio/cy_gpio.h **** *         \ref Cy_GPIO_GetInterruptMask, \ref Cy_GPIO_GetInterruptStatusMasked.
 132:Generated_Source\PSoC6\pdl\drivers/peripheral/gpio/cy_gpio.h **** *
 133:Generated_Source\PSoC6\pdl\drivers/peripheral/gpio/cy_gpio.h **** *         Minor documentation edits.
 134:Generated_Source\PSoC6\pdl\drivers/peripheral/gpio/cy_gpio.h **** *     </td>
 135:Generated_Source\PSoC6\pdl\drivers/peripheral/gpio/cy_gpio.h **** *     <td>Documentation update and clarification</td>
 136:Generated_Source\PSoC6\pdl\drivers/peripheral/gpio/cy_gpio.h **** *   </tr>
 137:Generated_Source\PSoC6\pdl\drivers/peripheral/gpio/cy_gpio.h **** *   <tr>
 138:Generated_Source\PSoC6\pdl\drivers/peripheral/gpio/cy_gpio.h **** *     <td>1.10</td>
 139:Generated_Source\PSoC6\pdl\drivers/peripheral/gpio/cy_gpio.h **** *     <td>Added input parameter validation to the API functions</td>
 140:Generated_Source\PSoC6\pdl\drivers/peripheral/gpio/cy_gpio.h **** *     <td></td>
 141:Generated_Source\PSoC6\pdl\drivers/peripheral/gpio/cy_gpio.h **** *   </tr>
 142:Generated_Source\PSoC6\pdl\drivers/peripheral/gpio/cy_gpio.h **** *   <tr>
 143:Generated_Source\PSoC6\pdl\drivers/peripheral/gpio/cy_gpio.h **** *     <td>1.0</td>
 144:Generated_Source\PSoC6\pdl\drivers/peripheral/gpio/cy_gpio.h **** *     <td>Initial version</td>
 145:Generated_Source\PSoC6\pdl\drivers/peripheral/gpio/cy_gpio.h **** *     <td></td>
 146:Generated_Source\PSoC6\pdl\drivers/peripheral/gpio/cy_gpio.h **** *   </tr>
 147:Generated_Source\PSoC6\pdl\drivers/peripheral/gpio/cy_gpio.h **** * </table>
 148:Generated_Source\PSoC6\pdl\drivers/peripheral/gpio/cy_gpio.h **** *
 149:Generated_Source\PSoC6\pdl\drivers/peripheral/gpio/cy_gpio.h **** * \defgroup group_gpio_macros Macros
 150:Generated_Source\PSoC6\pdl\drivers/peripheral/gpio/cy_gpio.h **** * \defgroup group_gpio_functions Functions
 151:Generated_Source\PSoC6\pdl\drivers/peripheral/gpio/cy_gpio.h **** * \{
 152:Generated_Source\PSoC6\pdl\drivers/peripheral/gpio/cy_gpio.h **** *   \defgroup group_gpio_functions_init       Initialization Functions
 153:Generated_Source\PSoC6\pdl\drivers/peripheral/gpio/cy_gpio.h **** *   \defgroup group_gpio_functions_gpio       GPIO Functions
 154:Generated_Source\PSoC6\pdl\drivers/peripheral/gpio/cy_gpio.h **** *   \defgroup group_gpio_functions_sio        SIO Functions
 155:Generated_Source\PSoC6\pdl\drivers/peripheral/gpio/cy_gpio.h **** *   \defgroup group_gpio_functions_interrupt  Port Interrupt Functions
 156:Generated_Source\PSoC6\pdl\drivers/peripheral/gpio/cy_gpio.h **** * \}
 157:Generated_Source\PSoC6\pdl\drivers/peripheral/gpio/cy_gpio.h **** * \defgroup group_gpio_data_structures Data Structures
 158:Generated_Source\PSoC6\pdl\drivers/peripheral/gpio/cy_gpio.h **** * \defgroup group_gpio_enums Enumerated Types
 159:Generated_Source\PSoC6\pdl\drivers/peripheral/gpio/cy_gpio.h **** */
 160:Generated_Source\PSoC6\pdl\drivers/peripheral/gpio/cy_gpio.h **** 
 161:Generated_Source\PSoC6\pdl\drivers/peripheral/gpio/cy_gpio.h **** #if !defined(CY_GPIO_H)
 162:Generated_Source\PSoC6\pdl\drivers/peripheral/gpio/cy_gpio.h **** #define CY_GPIO_H
 163:Generated_Source\PSoC6\pdl\drivers/peripheral/gpio/cy_gpio.h **** 
 164:Generated_Source\PSoC6\pdl\drivers/peripheral/gpio/cy_gpio.h **** #include <stddef.h>
 165:Generated_Source\PSoC6\pdl\drivers/peripheral/gpio/cy_gpio.h **** #include "cy_device.h"
 166:Generated_Source\PSoC6\pdl\drivers/peripheral/gpio/cy_gpio.h **** #include "cy_device_headers.h"
 167:Generated_Source\PSoC6\pdl\drivers/peripheral/gpio/cy_gpio.h **** #include "cy_syslib.h"
 168:Generated_Source\PSoC6\pdl\drivers/peripheral/gpio/cy_gpio.h **** 
 169:Generated_Source\PSoC6\pdl\drivers/peripheral/gpio/cy_gpio.h **** #if defined(__cplusplus)
 170:Generated_Source\PSoC6\pdl\drivers/peripheral/gpio/cy_gpio.h **** extern "C" {
 171:Generated_Source\PSoC6\pdl\drivers/peripheral/gpio/cy_gpio.h **** #endif
 172:Generated_Source\PSoC6\pdl\drivers/peripheral/gpio/cy_gpio.h **** 
ARM GAS  C:\Users\dmr85\AppData\Local\Temp\ccbw5e1d.s 			page 18


 173:Generated_Source\PSoC6\pdl\drivers/peripheral/gpio/cy_gpio.h **** /** \addtogroup group_gpio_macros
 174:Generated_Source\PSoC6\pdl\drivers/peripheral/gpio/cy_gpio.h **** * \{
 175:Generated_Source\PSoC6\pdl\drivers/peripheral/gpio/cy_gpio.h **** */
 176:Generated_Source\PSoC6\pdl\drivers/peripheral/gpio/cy_gpio.h **** 
 177:Generated_Source\PSoC6\pdl\drivers/peripheral/gpio/cy_gpio.h **** /** Driver major version */
 178:Generated_Source\PSoC6\pdl\drivers/peripheral/gpio/cy_gpio.h **** #define CY_GPIO_DRV_VERSION_MAJOR       1
 179:Generated_Source\PSoC6\pdl\drivers/peripheral/gpio/cy_gpio.h **** 
 180:Generated_Source\PSoC6\pdl\drivers/peripheral/gpio/cy_gpio.h **** /** Driver minor version */
 181:Generated_Source\PSoC6\pdl\drivers/peripheral/gpio/cy_gpio.h **** #define CY_GPIO_DRV_VERSION_MINOR       20
 182:Generated_Source\PSoC6\pdl\drivers/peripheral/gpio/cy_gpio.h **** 
 183:Generated_Source\PSoC6\pdl\drivers/peripheral/gpio/cy_gpio.h **** /** GPIO driver ID */
 184:Generated_Source\PSoC6\pdl\drivers/peripheral/gpio/cy_gpio.h **** #define CY_GPIO_ID CY_PDL_DRV_ID(0x16U)
 185:Generated_Source\PSoC6\pdl\drivers/peripheral/gpio/cy_gpio.h **** 
 186:Generated_Source\PSoC6\pdl\drivers/peripheral/gpio/cy_gpio.h **** /** \} group_gpio_macros */
 187:Generated_Source\PSoC6\pdl\drivers/peripheral/gpio/cy_gpio.h **** 
 188:Generated_Source\PSoC6\pdl\drivers/peripheral/gpio/cy_gpio.h **** 
 189:Generated_Source\PSoC6\pdl\drivers/peripheral/gpio/cy_gpio.h **** /***************************************
 190:Generated_Source\PSoC6\pdl\drivers/peripheral/gpio/cy_gpio.h **** *       Enumerations
 191:Generated_Source\PSoC6\pdl\drivers/peripheral/gpio/cy_gpio.h **** ***************************************/
 192:Generated_Source\PSoC6\pdl\drivers/peripheral/gpio/cy_gpio.h **** /**
 193:Generated_Source\PSoC6\pdl\drivers/peripheral/gpio/cy_gpio.h **** * \addtogroup group_gpio_enums
 194:Generated_Source\PSoC6\pdl\drivers/peripheral/gpio/cy_gpio.h **** * \{
 195:Generated_Source\PSoC6\pdl\drivers/peripheral/gpio/cy_gpio.h **** */
 196:Generated_Source\PSoC6\pdl\drivers/peripheral/gpio/cy_gpio.h **** 
 197:Generated_Source\PSoC6\pdl\drivers/peripheral/gpio/cy_gpio.h **** /** GPIO Driver error codes */
 198:Generated_Source\PSoC6\pdl\drivers/peripheral/gpio/cy_gpio.h **** typedef enum 
 199:Generated_Source\PSoC6\pdl\drivers/peripheral/gpio/cy_gpio.h **** {
 200:Generated_Source\PSoC6\pdl\drivers/peripheral/gpio/cy_gpio.h ****     CY_GPIO_SUCCESS   = 0x00U,                                    /**< Returned successful */
 201:Generated_Source\PSoC6\pdl\drivers/peripheral/gpio/cy_gpio.h ****     CY_GPIO_BAD_PARAM = CY_GPIO_ID | CY_PDL_STATUS_ERROR | 0x01U, /**< Bad parameter was passed */
 202:Generated_Source\PSoC6\pdl\drivers/peripheral/gpio/cy_gpio.h **** } cy_en_gpio_status_t;
 203:Generated_Source\PSoC6\pdl\drivers/peripheral/gpio/cy_gpio.h **** 
 204:Generated_Source\PSoC6\pdl\drivers/peripheral/gpio/cy_gpio.h **** /** AMux switch open/close config */
 205:Generated_Source\PSoC6\pdl\drivers/peripheral/gpio/cy_gpio.h **** typedef enum
 206:Generated_Source\PSoC6\pdl\drivers/peripheral/gpio/cy_gpio.h **** {
 207:Generated_Source\PSoC6\pdl\drivers/peripheral/gpio/cy_gpio.h ****     CY_GPIO_AMUX_OPENALL,   /**< Open ground switch. Open right switch. Open left switch */
 208:Generated_Source\PSoC6\pdl\drivers/peripheral/gpio/cy_gpio.h ****     CY_GPIO_AMUX_L,         /**< Open ground switch. Open right switch. Close left switch */
 209:Generated_Source\PSoC6\pdl\drivers/peripheral/gpio/cy_gpio.h ****     CY_GPIO_AMUX_R,         /**< Open ground switch. Close right switch. Open left switch */
 210:Generated_Source\PSoC6\pdl\drivers/peripheral/gpio/cy_gpio.h ****     CY_GPIO_AMUX_LR,        /**< Open ground switch. Close right switch. Close left switch */
 211:Generated_Source\PSoC6\pdl\drivers/peripheral/gpio/cy_gpio.h ****     CY_GPIO_AMUX_G,         /**< Close ground switch. Open right switch. Open left switch */
 212:Generated_Source\PSoC6\pdl\drivers/peripheral/gpio/cy_gpio.h ****     CY_GPIO_AMUX_GL,        /**< Close ground switch. Open right switch. Close left switch */
 213:Generated_Source\PSoC6\pdl\drivers/peripheral/gpio/cy_gpio.h ****     CY_GPIO_AMUX_GR,        /**< Close ground switch. Close right switch. Open left switch */
 214:Generated_Source\PSoC6\pdl\drivers/peripheral/gpio/cy_gpio.h ****     CY_GPIO_AMUX_GLR,       /**< Close ground switch. Close right switch. Close left switch */
 215:Generated_Source\PSoC6\pdl\drivers/peripheral/gpio/cy_gpio.h **** }cy_en_gpio_amuxconnect_t;
 216:Generated_Source\PSoC6\pdl\drivers/peripheral/gpio/cy_gpio.h **** 
 217:Generated_Source\PSoC6\pdl\drivers/peripheral/gpio/cy_gpio.h **** /**
 218:Generated_Source\PSoC6\pdl\drivers/peripheral/gpio/cy_gpio.h **** * AMux Bus selection
 219:Generated_Source\PSoC6\pdl\drivers/peripheral/gpio/cy_gpio.h **** */
 220:Generated_Source\PSoC6\pdl\drivers/peripheral/gpio/cy_gpio.h **** typedef enum
 221:Generated_Source\PSoC6\pdl\drivers/peripheral/gpio/cy_gpio.h **** {
 222:Generated_Source\PSoC6\pdl\drivers/peripheral/gpio/cy_gpio.h ****     CY_GPIO_AMUXBUSA,       /**< AMuxBus A */
 223:Generated_Source\PSoC6\pdl\drivers/peripheral/gpio/cy_gpio.h ****     CY_GPIO_AMUXBUSB        /**< AMuxBus B */
 224:Generated_Source\PSoC6\pdl\drivers/peripheral/gpio/cy_gpio.h **** }cy_en_gpio_amuxselect_t;
 225:Generated_Source\PSoC6\pdl\drivers/peripheral/gpio/cy_gpio.h **** 
 226:Generated_Source\PSoC6\pdl\drivers/peripheral/gpio/cy_gpio.h **** /** \} group_gpio_enums */
 227:Generated_Source\PSoC6\pdl\drivers/peripheral/gpio/cy_gpio.h **** 
 228:Generated_Source\PSoC6\pdl\drivers/peripheral/gpio/cy_gpio.h **** 
 229:Generated_Source\PSoC6\pdl\drivers/peripheral/gpio/cy_gpio.h **** /***************************************
ARM GAS  C:\Users\dmr85\AppData\Local\Temp\ccbw5e1d.s 			page 19


 230:Generated_Source\PSoC6\pdl\drivers/peripheral/gpio/cy_gpio.h **** *       Configuration Structures
 231:Generated_Source\PSoC6\pdl\drivers/peripheral/gpio/cy_gpio.h **** ***************************************/
 232:Generated_Source\PSoC6\pdl\drivers/peripheral/gpio/cy_gpio.h **** 
 233:Generated_Source\PSoC6\pdl\drivers/peripheral/gpio/cy_gpio.h **** /**
 234:Generated_Source\PSoC6\pdl\drivers/peripheral/gpio/cy_gpio.h **** * \addtogroup group_gpio_data_structures
 235:Generated_Source\PSoC6\pdl\drivers/peripheral/gpio/cy_gpio.h **** * \{
 236:Generated_Source\PSoC6\pdl\drivers/peripheral/gpio/cy_gpio.h **** */
 237:Generated_Source\PSoC6\pdl\drivers/peripheral/gpio/cy_gpio.h **** 
 238:Generated_Source\PSoC6\pdl\drivers/peripheral/gpio/cy_gpio.h **** /** This structure is used to initialize a port of GPIO pins */
 239:Generated_Source\PSoC6\pdl\drivers/peripheral/gpio/cy_gpio.h **** typedef struct 
 240:Generated_Source\PSoC6\pdl\drivers/peripheral/gpio/cy_gpio.h **** {
 241:Generated_Source\PSoC6\pdl\drivers/peripheral/gpio/cy_gpio.h ****     uint32_t out;           /**< Initial output data for the IO pins in the port */
 242:Generated_Source\PSoC6\pdl\drivers/peripheral/gpio/cy_gpio.h ****     uint32_t intrMask;      /**< Interrupt enable mask for the port interrupt */
 243:Generated_Source\PSoC6\pdl\drivers/peripheral/gpio/cy_gpio.h ****     uint32_t intrCfg;       /**< Port pin interrupt edge detection configuration */
 244:Generated_Source\PSoC6\pdl\drivers/peripheral/gpio/cy_gpio.h ****     uint32_t cfg;           /**< Port pin drive modes and input buffer enable configuration */
 245:Generated_Source\PSoC6\pdl\drivers/peripheral/gpio/cy_gpio.h ****     uint32_t cfgIn;         /**< Port pin input buffer configuration */
 246:Generated_Source\PSoC6\pdl\drivers/peripheral/gpio/cy_gpio.h ****     uint32_t cfgOut;        /**< Port pin output buffer configuration */
 247:Generated_Source\PSoC6\pdl\drivers/peripheral/gpio/cy_gpio.h ****     uint32_t cfgSIO;        /**< Port SIO pins configuration */
 248:Generated_Source\PSoC6\pdl\drivers/peripheral/gpio/cy_gpio.h ****     uint32_t sel0Active;    /**< HSIOM selection for port pins 0,1,2,3 */
 249:Generated_Source\PSoC6\pdl\drivers/peripheral/gpio/cy_gpio.h ****     uint32_t sel1Active;    /**< HSIOM selection for port pins 4,5,6,7 */
 250:Generated_Source\PSoC6\pdl\drivers/peripheral/gpio/cy_gpio.h **** } cy_stc_gpio_prt_config_t;
 251:Generated_Source\PSoC6\pdl\drivers/peripheral/gpio/cy_gpio.h **** 
 252:Generated_Source\PSoC6\pdl\drivers/peripheral/gpio/cy_gpio.h **** /** This structure is used to initialize a single GPIO pin */
 253:Generated_Source\PSoC6\pdl\drivers/peripheral/gpio/cy_gpio.h **** typedef struct
 254:Generated_Source\PSoC6\pdl\drivers/peripheral/gpio/cy_gpio.h **** {
 255:Generated_Source\PSoC6\pdl\drivers/peripheral/gpio/cy_gpio.h ****     uint32_t outVal;         /**< Pin output state */
 256:Generated_Source\PSoC6\pdl\drivers/peripheral/gpio/cy_gpio.h ****     uint32_t driveMode;      /**< Drive mode */
 257:Generated_Source\PSoC6\pdl\drivers/peripheral/gpio/cy_gpio.h ****     en_hsiom_sel_t hsiom;    /**< HSIOM selection */
 258:Generated_Source\PSoC6\pdl\drivers/peripheral/gpio/cy_gpio.h ****     uint32_t intEdge;        /**< Interrupt Edge type */
 259:Generated_Source\PSoC6\pdl\drivers/peripheral/gpio/cy_gpio.h ****     uint32_t intMask;        /**< Interrupt enable mask */
 260:Generated_Source\PSoC6\pdl\drivers/peripheral/gpio/cy_gpio.h ****     uint32_t vtrip;          /**< Input buffer voltage trip type */
 261:Generated_Source\PSoC6\pdl\drivers/peripheral/gpio/cy_gpio.h ****     uint32_t slewRate;       /**< Output buffer slew rate */
 262:Generated_Source\PSoC6\pdl\drivers/peripheral/gpio/cy_gpio.h ****     uint32_t driveSel;       /**< Drive strength */
 263:Generated_Source\PSoC6\pdl\drivers/peripheral/gpio/cy_gpio.h ****     uint32_t vregEn;         /**< SIO pair output buffer mode */
 264:Generated_Source\PSoC6\pdl\drivers/peripheral/gpio/cy_gpio.h ****     uint32_t ibufMode;       /**< SIO pair input buffer mode */
 265:Generated_Source\PSoC6\pdl\drivers/peripheral/gpio/cy_gpio.h ****     uint32_t vtripSel;       /**< SIO pair input buffer trip point */
 266:Generated_Source\PSoC6\pdl\drivers/peripheral/gpio/cy_gpio.h ****     uint32_t vrefSel;        /**< SIO pair reference voltage for input buffer trip point */
 267:Generated_Source\PSoC6\pdl\drivers/peripheral/gpio/cy_gpio.h ****     uint32_t vohSel;         /**< SIO pair regulated voltage output level */
 268:Generated_Source\PSoC6\pdl\drivers/peripheral/gpio/cy_gpio.h **** } cy_stc_gpio_pin_config_t;
 269:Generated_Source\PSoC6\pdl\drivers/peripheral/gpio/cy_gpio.h **** 
 270:Generated_Source\PSoC6\pdl\drivers/peripheral/gpio/cy_gpio.h **** /** \} group_gpio_data_structures */
 271:Generated_Source\PSoC6\pdl\drivers/peripheral/gpio/cy_gpio.h **** 
 272:Generated_Source\PSoC6\pdl\drivers/peripheral/gpio/cy_gpio.h **** /***************************************
 273:Generated_Source\PSoC6\pdl\drivers/peripheral/gpio/cy_gpio.h **** *        Constants
 274:Generated_Source\PSoC6\pdl\drivers/peripheral/gpio/cy_gpio.h **** ***************************************/
 275:Generated_Source\PSoC6\pdl\drivers/peripheral/gpio/cy_gpio.h **** 
 276:Generated_Source\PSoC6\pdl\drivers/peripheral/gpio/cy_gpio.h **** /** \cond INTERNAL */
 277:Generated_Source\PSoC6\pdl\drivers/peripheral/gpio/cy_gpio.h **** 
 278:Generated_Source\PSoC6\pdl\drivers/peripheral/gpio/cy_gpio.h **** /* General Constants */
 279:Generated_Source\PSoC6\pdl\drivers/peripheral/gpio/cy_gpio.h **** #define CY_GPIO_PRT_HALF                       (4UL)      /**< Half-way point of a GPIO port */
 280:Generated_Source\PSoC6\pdl\drivers/peripheral/gpio/cy_gpio.h **** #define CY_GPIO_PRT_DEINIT                     (0UL)      /**< De-init value for port registers */
 281:Generated_Source\PSoC6\pdl\drivers/peripheral/gpio/cy_gpio.h **** 
 282:Generated_Source\PSoC6\pdl\drivers/peripheral/gpio/cy_gpio.h **** /* GPIO Masks */
 283:Generated_Source\PSoC6\pdl\drivers/peripheral/gpio/cy_gpio.h **** #define CY_GPIO_HSIOM_MASK                     (0x1FUL)   /**< HSIOM selection mask */
 284:Generated_Source\PSoC6\pdl\drivers/peripheral/gpio/cy_gpio.h **** #define CY_GPIO_OUT_MASK                       (0x01UL)   /**< Single pin mask for OUT register */
 285:Generated_Source\PSoC6\pdl\drivers/peripheral/gpio/cy_gpio.h **** #define CY_GPIO_IN_MASK                        (0x01UL)   /**< Single pin mask for IN register */
 286:Generated_Source\PSoC6\pdl\drivers/peripheral/gpio/cy_gpio.h **** #define CY_GPIO_CFG_DM_MASK                    (0x0FUL)   /**< Single pin mask for drive mode in CF
ARM GAS  C:\Users\dmr85\AppData\Local\Temp\ccbw5e1d.s 			page 20


 287:Generated_Source\PSoC6\pdl\drivers/peripheral/gpio/cy_gpio.h **** #define CY_GPIO_CFG_IN_VTRIP_SEL_MASK          (0x01UL)   /**< Single pin mask for VTRIP selection 
 288:Generated_Source\PSoC6\pdl\drivers/peripheral/gpio/cy_gpio.h **** #define CY_GPIO_CFG_OUT_SLOW_MASK              (0x01UL)   /**< Single pin mask for slew rate in CFG
 289:Generated_Source\PSoC6\pdl\drivers/peripheral/gpio/cy_gpio.h **** #define CY_GPIO_CFG_OUT_DRIVE_SEL_MASK         (0x03UL)   /**< Single pin mask for drive strength i
 290:Generated_Source\PSoC6\pdl\drivers/peripheral/gpio/cy_gpio.h **** #define CY_GPIO_INTR_STATUS_MASK               (0x01UL)   /**< Single pin mask for interrupt status
 291:Generated_Source\PSoC6\pdl\drivers/peripheral/gpio/cy_gpio.h **** #define CY_GPIO_INTR_EN_MASK                   (0x01UL)   /**< Single pin mask for interrupt status
 292:Generated_Source\PSoC6\pdl\drivers/peripheral/gpio/cy_gpio.h **** #define CY_GPIO_INTR_MASKED_MASK               (0x01UL)   /**< Single pin mask for masked interrupt
 293:Generated_Source\PSoC6\pdl\drivers/peripheral/gpio/cy_gpio.h **** #define CY_GPIO_INTR_SET_MASK                  (0x01UL)   /**< Single pin mask for setting the inte
 294:Generated_Source\PSoC6\pdl\drivers/peripheral/gpio/cy_gpio.h **** #define CY_GPIO_INTR_EDGE_MASK                 (0x03UL)   /**< Single pin mask for interrupt edge t
 295:Generated_Source\PSoC6\pdl\drivers/peripheral/gpio/cy_gpio.h **** #define CY_GPIO_INTR_FLT_EDGE_MASK             (0x07UL)   /**< Single pin mask for setting filtered
 296:Generated_Source\PSoC6\pdl\drivers/peripheral/gpio/cy_gpio.h **** 
 297:Generated_Source\PSoC6\pdl\drivers/peripheral/gpio/cy_gpio.h **** /* SIO Masks */
 298:Generated_Source\PSoC6\pdl\drivers/peripheral/gpio/cy_gpio.h **** #define CY_GPIO_VREG_EN_MASK                   (0x01UL)   /**< Single SIO pin mask for voltage regu
 299:Generated_Source\PSoC6\pdl\drivers/peripheral/gpio/cy_gpio.h **** #define CY_GPIO_IBUF_MASK                      (0x01UL)   /**< Single SIO pin mask for input buffer
 300:Generated_Source\PSoC6\pdl\drivers/peripheral/gpio/cy_gpio.h **** #define CY_GPIO_IBUF_SHIFT                     (0x01UL)   /**< Single SIO pin shift for input buffe
 301:Generated_Source\PSoC6\pdl\drivers/peripheral/gpio/cy_gpio.h **** #define CY_GPIO_VTRIP_SEL_MASK                 (0x01UL)   /**< Single SIO pin mask for the input bu
 302:Generated_Source\PSoC6\pdl\drivers/peripheral/gpio/cy_gpio.h **** #define CY_GPIO_VTRIP_SEL_SHIFT                (0x02UL)   /**< Single SIO pin shift for the input b
 303:Generated_Source\PSoC6\pdl\drivers/peripheral/gpio/cy_gpio.h **** #define CY_GPIO_VREF_SEL_MASK                  (0x03UL)   /**< Single SIO pin mask for voltage refe
 304:Generated_Source\PSoC6\pdl\drivers/peripheral/gpio/cy_gpio.h **** #define CY_GPIO_VREF_SEL_SHIFT                 (0x03UL)   /**< Single SIO pin shift for voltage ref
 305:Generated_Source\PSoC6\pdl\drivers/peripheral/gpio/cy_gpio.h **** #define CY_GPIO_VOH_SEL_MASK                   (0x07UL)   /**< Single SIO pin mask for VOH */
 306:Generated_Source\PSoC6\pdl\drivers/peripheral/gpio/cy_gpio.h **** #define CY_GPIO_VOH_SEL_SHIFT                  (0x05UL)   /**< Single SIO pin shift for VOH */
 307:Generated_Source\PSoC6\pdl\drivers/peripheral/gpio/cy_gpio.h **** 
 308:Generated_Source\PSoC6\pdl\drivers/peripheral/gpio/cy_gpio.h **** /* Special mask for SIO pin pair setting */
 309:Generated_Source\PSoC6\pdl\drivers/peripheral/gpio/cy_gpio.h **** #define CY_GPIO_SIO_ODD_PIN_MASK               (0x00FEUL) /**< SIO pin pair selection mask */
 310:Generated_Source\PSoC6\pdl\drivers/peripheral/gpio/cy_gpio.h **** #define CY_GPIO_SIO_PIN_MASK                   (0x00FFUL) /**< SIO pin pair mask */
 311:Generated_Source\PSoC6\pdl\drivers/peripheral/gpio/cy_gpio.h **** 
 312:Generated_Source\PSoC6\pdl\drivers/peripheral/gpio/cy_gpio.h **** /* Offsets */
 313:Generated_Source\PSoC6\pdl\drivers/peripheral/gpio/cy_gpio.h **** #define CY_GPIO_HSIOM_OFFSET                   (3UL)      /**< Offset for HSIOM */
 314:Generated_Source\PSoC6\pdl\drivers/peripheral/gpio/cy_gpio.h **** #define CY_GPIO_DRIVE_MODE_OFFSET              (2UL)      /**< Offset for Drive mode */
 315:Generated_Source\PSoC6\pdl\drivers/peripheral/gpio/cy_gpio.h **** #define CY_GPIO_INBUF_OFFSET                   (3UL)      /**< Offset for input buffer */
 316:Generated_Source\PSoC6\pdl\drivers/peripheral/gpio/cy_gpio.h **** #define CY_GPIO_CFG_OUT_DRIVE_OFFSET           (16UL)     /**< Offset for drive strength */
 317:Generated_Source\PSoC6\pdl\drivers/peripheral/gpio/cy_gpio.h **** #define CY_GPIO_INTR_CFG_OFFSET                (1UL)      /**< Offset for interrupt config */
 318:Generated_Source\PSoC6\pdl\drivers/peripheral/gpio/cy_gpio.h **** #define CY_GPIO_INTR_FILT_OFFSET               (18UL)     /**< Offset for filtered interrupt config
 319:Generated_Source\PSoC6\pdl\drivers/peripheral/gpio/cy_gpio.h **** #define CY_GPIO_CFG_SIO_OFFSET                 (2UL)      /**< Offset for SIO config */
 320:Generated_Source\PSoC6\pdl\drivers/peripheral/gpio/cy_gpio.h **** 
 321:Generated_Source\PSoC6\pdl\drivers/peripheral/gpio/cy_gpio.h **** /* Parameter validation constants */
 322:Generated_Source\PSoC6\pdl\drivers/peripheral/gpio/cy_gpio.h **** #define CY_GPIO_PINS_MAX                       (8UL)      /**< Number of pins in the port */
 323:Generated_Source\PSoC6\pdl\drivers/peripheral/gpio/cy_gpio.h **** #define CY_GPIO_PRT_PINS_MASK                  (0x0000000FFUL)
 324:Generated_Source\PSoC6\pdl\drivers/peripheral/gpio/cy_gpio.h **** #define CY_GPIO_PRT_INTR_CFG_EDGE_SEL_MASK     (GPIO_PRT_INTR_CFG_EDGE0_SEL_Msk | \
 325:Generated_Source\PSoC6\pdl\drivers/peripheral/gpio/cy_gpio.h ****                                                 GPIO_PRT_INTR_CFG_EDGE1_SEL_Msk | \
 326:Generated_Source\PSoC6\pdl\drivers/peripheral/gpio/cy_gpio.h ****                                                 GPIO_PRT_INTR_CFG_EDGE2_SEL_Msk | \
 327:Generated_Source\PSoC6\pdl\drivers/peripheral/gpio/cy_gpio.h ****                                                 GPIO_PRT_INTR_CFG_EDGE3_SEL_Msk | \
 328:Generated_Source\PSoC6\pdl\drivers/peripheral/gpio/cy_gpio.h ****                                                 GPIO_PRT_INTR_CFG_EDGE4_SEL_Msk | \
 329:Generated_Source\PSoC6\pdl\drivers/peripheral/gpio/cy_gpio.h ****                                                 GPIO_PRT_INTR_CFG_EDGE5_SEL_Msk | \
 330:Generated_Source\PSoC6\pdl\drivers/peripheral/gpio/cy_gpio.h ****                                                 GPIO_PRT_INTR_CFG_EDGE6_SEL_Msk | \
 331:Generated_Source\PSoC6\pdl\drivers/peripheral/gpio/cy_gpio.h ****                                                 GPIO_PRT_INTR_CFG_EDGE7_SEL_Msk)
 332:Generated_Source\PSoC6\pdl\drivers/peripheral/gpio/cy_gpio.h **** #define CY_GPIO_PRT_INTR_CFG_RANGE_MASK        (CY_GPIO_PRT_INTR_CFG_EDGE_SEL_MASK | \
 333:Generated_Source\PSoC6\pdl\drivers/peripheral/gpio/cy_gpio.h ****                                                 GPIO_PRT_INTR_CFG_FLT_EDGE_SEL_Msk | \
 334:Generated_Source\PSoC6\pdl\drivers/peripheral/gpio/cy_gpio.h ****                                                 GPIO_PRT_INTR_CFG_FLT_SEL_Msk)
 335:Generated_Source\PSoC6\pdl\drivers/peripheral/gpio/cy_gpio.h **** #define CY_GPIO_PRT_INT_MASK_MASK              (0x0000001FFUL)
 336:Generated_Source\PSoC6\pdl\drivers/peripheral/gpio/cy_gpio.h **** #define CY_GPIO_PRT_SEL_ACTIVE_MASK            (0x1FFFFFFFUL)
 337:Generated_Source\PSoC6\pdl\drivers/peripheral/gpio/cy_gpio.h **** 
 338:Generated_Source\PSoC6\pdl\drivers/peripheral/gpio/cy_gpio.h **** #define GPIO_MAX_SPLIT_CELL_SEGMENTS           (9U)
 339:Generated_Source\PSoC6\pdl\drivers/peripheral/gpio/cy_gpio.h **** 
 340:Generated_Source\PSoC6\pdl\drivers/peripheral/gpio/cy_gpio.h **** /* Parameter validation macros */
 341:Generated_Source\PSoC6\pdl\drivers/peripheral/gpio/cy_gpio.h **** #define CY_GPIO_IS_PIN_VALID(pinNum)           (CY_GPIO_PINS_MAX > (pinNum))
 342:Generated_Source\PSoC6\pdl\drivers/peripheral/gpio/cy_gpio.h **** #define CY_GPIO_IS_FILTER_PIN_VALID(pinNum)    (CY_GPIO_PINS_MAX >= (pinNum))
 343:Generated_Source\PSoC6\pdl\drivers/peripheral/gpio/cy_gpio.h **** #define CY_GPIO_IS_VALUE_VALID(outVal)         (1UL >= (outVal))
ARM GAS  C:\Users\dmr85\AppData\Local\Temp\ccbw5e1d.s 			page 21


 344:Generated_Source\PSoC6\pdl\drivers/peripheral/gpio/cy_gpio.h **** #define CY_GPIO_IS_DM_VALID(driveMode)         (0U == ((driveMode) & (uint32_t)~CY_GPIO_CFG_DM_MASK
 345:Generated_Source\PSoC6\pdl\drivers/peripheral/gpio/cy_gpio.h **** 
 346:Generated_Source\PSoC6\pdl\drivers/peripheral/gpio/cy_gpio.h **** #define CY_GPIO_IS_HSIOM_VALID(hsiom)          (0U == ((hsiom) & (uint32_t)~CY_GPIO_HSIOM_MASK))
 347:Generated_Source\PSoC6\pdl\drivers/peripheral/gpio/cy_gpio.h **** 
 348:Generated_Source\PSoC6\pdl\drivers/peripheral/gpio/cy_gpio.h **** #define CY_GPIO_IS_INT_EDGE_VALID(intEdge)     ((CY_GPIO_INTR_DISABLE  == (intEdge)) || \
 349:Generated_Source\PSoC6\pdl\drivers/peripheral/gpio/cy_gpio.h ****                                                 (CY_GPIO_INTR_RISING   == (intEdge)) || \
 350:Generated_Source\PSoC6\pdl\drivers/peripheral/gpio/cy_gpio.h ****                                                 (CY_GPIO_INTR_FALLING  == (intEdge)) || \
 351:Generated_Source\PSoC6\pdl\drivers/peripheral/gpio/cy_gpio.h ****                                                 (CY_GPIO_INTR_BOTH     == (intEdge)))
 352:Generated_Source\PSoC6\pdl\drivers/peripheral/gpio/cy_gpio.h **** 
 353:Generated_Source\PSoC6\pdl\drivers/peripheral/gpio/cy_gpio.h **** #define CY_GPIO_IS_DRIVE_SEL_VALID(driveSel)   ((CY_GPIO_DRIVE_FULL    == (driveSel)) || \
 354:Generated_Source\PSoC6\pdl\drivers/peripheral/gpio/cy_gpio.h ****                                                 (CY_GPIO_DRIVE_1_2     == (driveSel)) || \
 355:Generated_Source\PSoC6\pdl\drivers/peripheral/gpio/cy_gpio.h ****                                                 (CY_GPIO_DRIVE_1_4     == (driveSel)) || \
 356:Generated_Source\PSoC6\pdl\drivers/peripheral/gpio/cy_gpio.h ****                                                 (CY_GPIO_DRIVE_1_8     == (driveSel)))
 357:Generated_Source\PSoC6\pdl\drivers/peripheral/gpio/cy_gpio.h **** 
 358:Generated_Source\PSoC6\pdl\drivers/peripheral/gpio/cy_gpio.h **** #define CY_GPIO_IS_VREF_SEL_VALID(vrefSel)     ((CY_SIO_VREF_PINREF    == (vrefSel)) || \
 359:Generated_Source\PSoC6\pdl\drivers/peripheral/gpio/cy_gpio.h ****                                                 (CY_SIO_VREF_1_2V      == (vrefSel)) || \
 360:Generated_Source\PSoC6\pdl\drivers/peripheral/gpio/cy_gpio.h ****                                                 (CY_SIO_VREF_AMUX_A    == (vrefSel)) || \
 361:Generated_Source\PSoC6\pdl\drivers/peripheral/gpio/cy_gpio.h ****                                                 (CY_SIO_VREF_AMUX_B    == (vrefSel)))
 362:Generated_Source\PSoC6\pdl\drivers/peripheral/gpio/cy_gpio.h **** 
 363:Generated_Source\PSoC6\pdl\drivers/peripheral/gpio/cy_gpio.h **** #define CY_GPIO_IS_VOH_SEL_VALID(vrefSel)      ((CY_SIO_VOH_1_00       == (vrefSel)) || \
 364:Generated_Source\PSoC6\pdl\drivers/peripheral/gpio/cy_gpio.h ****                                                 (CY_SIO_VOH_1_25       == (vrefSel)) || \
 365:Generated_Source\PSoC6\pdl\drivers/peripheral/gpio/cy_gpio.h ****                                                 (CY_SIO_VOH_1_49       == (vrefSel)) || \
 366:Generated_Source\PSoC6\pdl\drivers/peripheral/gpio/cy_gpio.h ****                                                 (CY_SIO_VOH_1_67       == (vrefSel)) || \
 367:Generated_Source\PSoC6\pdl\drivers/peripheral/gpio/cy_gpio.h ****                                                 (CY_SIO_VOH_2_08       == (vrefSel)) || \
 368:Generated_Source\PSoC6\pdl\drivers/peripheral/gpio/cy_gpio.h ****                                                 (CY_SIO_VOH_2_50       == (vrefSel)) || \
 369:Generated_Source\PSoC6\pdl\drivers/peripheral/gpio/cy_gpio.h ****                                                 (CY_SIO_VOH_2_78       == (vrefSel)) || \
 370:Generated_Source\PSoC6\pdl\drivers/peripheral/gpio/cy_gpio.h ****                                                 (CY_SIO_VOH_4_16       == (vrefSel)))
 371:Generated_Source\PSoC6\pdl\drivers/peripheral/gpio/cy_gpio.h ****                    
 372:Generated_Source\PSoC6\pdl\drivers/peripheral/gpio/cy_gpio.h **** #define CY_GPIO_IS_PIN_BIT_VALID(pinBit)       (0U == ((pinBit) & (uint32_t)~CY_GPIO_PRT_PINS_MASK)
 373:Generated_Source\PSoC6\pdl\drivers/peripheral/gpio/cy_gpio.h **** #define CY_GPIO_IS_INTR_CFG_VALID(intrCfg)     (0U == ((intrCfg) & (uint32_t)~CY_GPIO_PRT_INTR_CFG_
 374:Generated_Source\PSoC6\pdl\drivers/peripheral/gpio/cy_gpio.h **** #define CY_GPIO_IS_INTR_MASK_VALID(intrMask)   (0U == ((intrMask) & (uint32_t)~CY_GPIO_PRT_INT_MASK
 375:Generated_Source\PSoC6\pdl\drivers/peripheral/gpio/cy_gpio.h **** #define CY_GPIO_IS_SEL_ACT_VALID(selActive)    (0U == ((selActive) & (uint32_t)~CY_GPIO_PRT_SEL_ACT
 376:Generated_Source\PSoC6\pdl\drivers/peripheral/gpio/cy_gpio.h **** 
 377:Generated_Source\PSoC6\pdl\drivers/peripheral/gpio/cy_gpio.h **** #define CY_GPIO_IS_AMUX_SPLIT_VALID(switchCtrl)       (((uint32_t) (switchCtrl)) < GPIO_MAX_SPLIT_C
 378:Generated_Source\PSoC6\pdl\drivers/peripheral/gpio/cy_gpio.h **** 
 379:Generated_Source\PSoC6\pdl\drivers/peripheral/gpio/cy_gpio.h **** #define CY_GPIO_IS_AMUX_CONNECT_VALID(amuxConnect)    ((CY_GPIO_AMUX_OPENALL == (amuxConnect)) || \
 380:Generated_Source\PSoC6\pdl\drivers/peripheral/gpio/cy_gpio.h ****                                                        (CY_GPIO_AMUX_L       == (amuxConnect)) || \
 381:Generated_Source\PSoC6\pdl\drivers/peripheral/gpio/cy_gpio.h ****                                                        (CY_GPIO_AMUX_R       == (amuxConnect)) || \
 382:Generated_Source\PSoC6\pdl\drivers/peripheral/gpio/cy_gpio.h ****                                                        (CY_GPIO_AMUX_LR      == (amuxConnect)) || \
 383:Generated_Source\PSoC6\pdl\drivers/peripheral/gpio/cy_gpio.h ****                                                        (CY_GPIO_AMUX_G       == (amuxConnect)) || \
 384:Generated_Source\PSoC6\pdl\drivers/peripheral/gpio/cy_gpio.h ****                                                        (CY_GPIO_AMUX_GL      == (amuxConnect)) || \
 385:Generated_Source\PSoC6\pdl\drivers/peripheral/gpio/cy_gpio.h ****                                                        (CY_GPIO_AMUX_GR      == (amuxConnect)) || \
 386:Generated_Source\PSoC6\pdl\drivers/peripheral/gpio/cy_gpio.h ****                                                        (CY_GPIO_AMUX_GLR     == (amuxConnect)))
 387:Generated_Source\PSoC6\pdl\drivers/peripheral/gpio/cy_gpio.h **** 
 388:Generated_Source\PSoC6\pdl\drivers/peripheral/gpio/cy_gpio.h **** #define CY_GPIO_IS_AMUX_SELECT_VALID(amuxBus)       ((CY_GPIO_AMUXBUSA       == (amuxBus)) || \
 389:Generated_Source\PSoC6\pdl\drivers/peripheral/gpio/cy_gpio.h ****                                                      (CY_GPIO_AMUXBUSB       == (amuxBus)))
 390:Generated_Source\PSoC6\pdl\drivers/peripheral/gpio/cy_gpio.h **** /** \endcond */
 391:Generated_Source\PSoC6\pdl\drivers/peripheral/gpio/cy_gpio.h **** 
 392:Generated_Source\PSoC6\pdl\drivers/peripheral/gpio/cy_gpio.h **** 
 393:Generated_Source\PSoC6\pdl\drivers/peripheral/gpio/cy_gpio.h **** /***************************************
 394:Generated_Source\PSoC6\pdl\drivers/peripheral/gpio/cy_gpio.h **** *        Function Constants
 395:Generated_Source\PSoC6\pdl\drivers/peripheral/gpio/cy_gpio.h **** ***************************************/
 396:Generated_Source\PSoC6\pdl\drivers/peripheral/gpio/cy_gpio.h **** 
 397:Generated_Source\PSoC6\pdl\drivers/peripheral/gpio/cy_gpio.h **** /**
 398:Generated_Source\PSoC6\pdl\drivers/peripheral/gpio/cy_gpio.h **** * \addtogroup group_gpio_macros
 399:Generated_Source\PSoC6\pdl\drivers/peripheral/gpio/cy_gpio.h **** * \{
 400:Generated_Source\PSoC6\pdl\drivers/peripheral/gpio/cy_gpio.h **** */
ARM GAS  C:\Users\dmr85\AppData\Local\Temp\ccbw5e1d.s 			page 22


 401:Generated_Source\PSoC6\pdl\drivers/peripheral/gpio/cy_gpio.h **** 
 402:Generated_Source\PSoC6\pdl\drivers/peripheral/gpio/cy_gpio.h **** /**
 403:Generated_Source\PSoC6\pdl\drivers/peripheral/gpio/cy_gpio.h **** * \defgroup group_gpio_driveModes Pin drive mode
 404:Generated_Source\PSoC6\pdl\drivers/peripheral/gpio/cy_gpio.h **** * \{
 405:Generated_Source\PSoC6\pdl\drivers/peripheral/gpio/cy_gpio.h **** * Constants to be used for setting the drive mode of the pin.
 406:Generated_Source\PSoC6\pdl\drivers/peripheral/gpio/cy_gpio.h **** */
 407:Generated_Source\PSoC6\pdl\drivers/peripheral/gpio/cy_gpio.h **** #define CY_GPIO_DM_ANALOG                      (0x00UL) /**< Analog High-Z. Input buffer off */
 408:Generated_Source\PSoC6\pdl\drivers/peripheral/gpio/cy_gpio.h **** #define CY_GPIO_DM_PULLUP_IN_OFF               (0x02UL) /**< Resistive Pull-Up. Input buffer off */
 409:Generated_Source\PSoC6\pdl\drivers/peripheral/gpio/cy_gpio.h **** #define CY_GPIO_DM_PULLDOWN_IN_OFF             (0x03UL) /**< Resistive Pull-Down. Input buffer off 
 410:Generated_Source\PSoC6\pdl\drivers/peripheral/gpio/cy_gpio.h **** #define CY_GPIO_DM_OD_DRIVESLOW_IN_OFF         (0x04UL) /**< Open Drain, Drives Low. Input buffer o
 411:Generated_Source\PSoC6\pdl\drivers/peripheral/gpio/cy_gpio.h **** #define CY_GPIO_DM_OD_DRIVESHIGH_IN_OFF        (0x05UL) /**< Open Drain, Drives High. Input buffer 
 412:Generated_Source\PSoC6\pdl\drivers/peripheral/gpio/cy_gpio.h **** #define CY_GPIO_DM_STRONG_IN_OFF               (0x06UL) /**< Strong Drive. Input buffer off */
 413:Generated_Source\PSoC6\pdl\drivers/peripheral/gpio/cy_gpio.h **** #define CY_GPIO_DM_PULLUP_DOWN_IN_OFF          (0x07UL) /**< Resistive Pull-Up/Down. Input buffer o
 414:Generated_Source\PSoC6\pdl\drivers/peripheral/gpio/cy_gpio.h **** #define CY_GPIO_DM_HIGHZ                       (0x08UL) /**< Digital High-Z. Input buffer on */
 415:Generated_Source\PSoC6\pdl\drivers/peripheral/gpio/cy_gpio.h **** #define CY_GPIO_DM_PULLUP                      (0x0AUL) /**< Resistive Pull-Up. Input buffer on */
 416:Generated_Source\PSoC6\pdl\drivers/peripheral/gpio/cy_gpio.h **** #define CY_GPIO_DM_PULLDOWN                    (0x0BUL) /**< Resistive Pull-Down. Input buffer on *
 417:Generated_Source\PSoC6\pdl\drivers/peripheral/gpio/cy_gpio.h **** #define CY_GPIO_DM_OD_DRIVESLOW                (0x0CUL) /**< Open Drain, Drives Low. Input buffer o
 418:Generated_Source\PSoC6\pdl\drivers/peripheral/gpio/cy_gpio.h **** #define CY_GPIO_DM_OD_DRIVESHIGH               (0x0DUL) /**< Open Drain, Drives High. Input buffer 
 419:Generated_Source\PSoC6\pdl\drivers/peripheral/gpio/cy_gpio.h **** #define CY_GPIO_DM_STRONG                      (0x0EUL) /**< Strong Drive. Input buffer on */
 420:Generated_Source\PSoC6\pdl\drivers/peripheral/gpio/cy_gpio.h **** #define CY_GPIO_DM_PULLUP_DOWN                 (0x0FUL) /**< Resistive Pull-Up/Down. Input buffer o
 421:Generated_Source\PSoC6\pdl\drivers/peripheral/gpio/cy_gpio.h **** /** \} */
 422:Generated_Source\PSoC6\pdl\drivers/peripheral/gpio/cy_gpio.h **** 
 423:Generated_Source\PSoC6\pdl\drivers/peripheral/gpio/cy_gpio.h **** /**
 424:Generated_Source\PSoC6\pdl\drivers/peripheral/gpio/cy_gpio.h **** * \defgroup group_gpio_vtrip Voltage trip mode
 425:Generated_Source\PSoC6\pdl\drivers/peripheral/gpio/cy_gpio.h **** * \{
 426:Generated_Source\PSoC6\pdl\drivers/peripheral/gpio/cy_gpio.h **** * Constants to be used for setting the voltage trip type on the pin.
 427:Generated_Source\PSoC6\pdl\drivers/peripheral/gpio/cy_gpio.h **** */
 428:Generated_Source\PSoC6\pdl\drivers/peripheral/gpio/cy_gpio.h **** #define CY_GPIO_VTRIP_CMOS                     (0x00UL) /**< Input buffer compatible with CMOS and 
 429:Generated_Source\PSoC6\pdl\drivers/peripheral/gpio/cy_gpio.h **** #define CY_GPIO_VTRIP_TTL                      (0x01UL) /**< Input buffer compatible with TTL and M
 430:Generated_Source\PSoC6\pdl\drivers/peripheral/gpio/cy_gpio.h **** /** \} */
 431:Generated_Source\PSoC6\pdl\drivers/peripheral/gpio/cy_gpio.h **** 
 432:Generated_Source\PSoC6\pdl\drivers/peripheral/gpio/cy_gpio.h **** /**
 433:Generated_Source\PSoC6\pdl\drivers/peripheral/gpio/cy_gpio.h **** * \defgroup group_gpio_slewRate Slew Rate Mode
 434:Generated_Source\PSoC6\pdl\drivers/peripheral/gpio/cy_gpio.h **** * \{
 435:Generated_Source\PSoC6\pdl\drivers/peripheral/gpio/cy_gpio.h **** * Constants to be used for setting the slew rate of the pin.
 436:Generated_Source\PSoC6\pdl\drivers/peripheral/gpio/cy_gpio.h **** */
 437:Generated_Source\PSoC6\pdl\drivers/peripheral/gpio/cy_gpio.h **** #define CY_GPIO_SLEW_FAST                      (0x00UL) /**< Fast slew rate */
 438:Generated_Source\PSoC6\pdl\drivers/peripheral/gpio/cy_gpio.h **** #define CY_GPIO_SLEW_SLOW                      (0x01UL) /**< Slow slew rate */
 439:Generated_Source\PSoC6\pdl\drivers/peripheral/gpio/cy_gpio.h **** /** \} */
 440:Generated_Source\PSoC6\pdl\drivers/peripheral/gpio/cy_gpio.h **** 
 441:Generated_Source\PSoC6\pdl\drivers/peripheral/gpio/cy_gpio.h **** /**
 442:Generated_Source\PSoC6\pdl\drivers/peripheral/gpio/cy_gpio.h **** * \defgroup group_gpio_driveStrength Pin drive strength
 443:Generated_Source\PSoC6\pdl\drivers/peripheral/gpio/cy_gpio.h **** * \{
 444:Generated_Source\PSoC6\pdl\drivers/peripheral/gpio/cy_gpio.h **** * Constants to be used for setting the drive strength of the pin.
 445:Generated_Source\PSoC6\pdl\drivers/peripheral/gpio/cy_gpio.h **** */
 446:Generated_Source\PSoC6\pdl\drivers/peripheral/gpio/cy_gpio.h **** #define CY_GPIO_DRIVE_FULL                     (0x00UL) /**< Full drive strength: Max drive current
 447:Generated_Source\PSoC6\pdl\drivers/peripheral/gpio/cy_gpio.h **** #define CY_GPIO_DRIVE_1_2                      (0x01UL) /**< 1/2 drive strength: 1/2 drive current 
 448:Generated_Source\PSoC6\pdl\drivers/peripheral/gpio/cy_gpio.h **** #define CY_GPIO_DRIVE_1_4                      (0x02UL) /**< 1/4 drive strength: 1/4 drive current 
 449:Generated_Source\PSoC6\pdl\drivers/peripheral/gpio/cy_gpio.h **** #define CY_GPIO_DRIVE_1_8                      (0x03UL) /**< 1/8 drive strength: 1/8 drive current 
 450:Generated_Source\PSoC6\pdl\drivers/peripheral/gpio/cy_gpio.h **** /** \} */
 451:Generated_Source\PSoC6\pdl\drivers/peripheral/gpio/cy_gpio.h **** 
 452:Generated_Source\PSoC6\pdl\drivers/peripheral/gpio/cy_gpio.h **** /**
 453:Generated_Source\PSoC6\pdl\drivers/peripheral/gpio/cy_gpio.h **** * \defgroup group_gpio_interruptTrigger Interrupt trigger type
 454:Generated_Source\PSoC6\pdl\drivers/peripheral/gpio/cy_gpio.h **** * \{
 455:Generated_Source\PSoC6\pdl\drivers/peripheral/gpio/cy_gpio.h **** * Constants to be used for setting the interrupt trigger type on the pin.
 456:Generated_Source\PSoC6\pdl\drivers/peripheral/gpio/cy_gpio.h **** */
 457:Generated_Source\PSoC6\pdl\drivers/peripheral/gpio/cy_gpio.h **** #define CY_GPIO_INTR_DISABLE                   (0x00UL) /**< Disable the pin interrupt generation *
ARM GAS  C:\Users\dmr85\AppData\Local\Temp\ccbw5e1d.s 			page 23


 458:Generated_Source\PSoC6\pdl\drivers/peripheral/gpio/cy_gpio.h **** #define CY_GPIO_INTR_RISING                    (0x01UL) /**< Rising-Edge interrupt */
 459:Generated_Source\PSoC6\pdl\drivers/peripheral/gpio/cy_gpio.h **** #define CY_GPIO_INTR_FALLING                   (0x02UL) /**< Falling-Edge interrupt */
 460:Generated_Source\PSoC6\pdl\drivers/peripheral/gpio/cy_gpio.h **** #define CY_GPIO_INTR_BOTH                      (0x03UL) /**< Both-Edge interrupt */
 461:Generated_Source\PSoC6\pdl\drivers/peripheral/gpio/cy_gpio.h **** /** \} */
 462:Generated_Source\PSoC6\pdl\drivers/peripheral/gpio/cy_gpio.h **** 
 463:Generated_Source\PSoC6\pdl\drivers/peripheral/gpio/cy_gpio.h **** /**
 464:Generated_Source\PSoC6\pdl\drivers/peripheral/gpio/cy_gpio.h **** * \defgroup group_gpio_sioVreg SIO output buffer mode
 465:Generated_Source\PSoC6\pdl\drivers/peripheral/gpio/cy_gpio.h **** * \{
 466:Generated_Source\PSoC6\pdl\drivers/peripheral/gpio/cy_gpio.h **** * Constants to be used for setting the SIO output buffer mode on the pin.
 467:Generated_Source\PSoC6\pdl\drivers/peripheral/gpio/cy_gpio.h **** */
 468:Generated_Source\PSoC6\pdl\drivers/peripheral/gpio/cy_gpio.h **** #define CY_SIO_VREG_UNREGULATED                (0x00UL) /**< Unregulated output buffer */
 469:Generated_Source\PSoC6\pdl\drivers/peripheral/gpio/cy_gpio.h **** #define CY_SIO_VREG_REGULATED                  (0x01UL) /**< Regulated output buffer */
 470:Generated_Source\PSoC6\pdl\drivers/peripheral/gpio/cy_gpio.h **** /** \} */
 471:Generated_Source\PSoC6\pdl\drivers/peripheral/gpio/cy_gpio.h **** 
 472:Generated_Source\PSoC6\pdl\drivers/peripheral/gpio/cy_gpio.h **** /**
 473:Generated_Source\PSoC6\pdl\drivers/peripheral/gpio/cy_gpio.h **** * \defgroup group_gpio_sioIbuf SIO input buffer mode
 474:Generated_Source\PSoC6\pdl\drivers/peripheral/gpio/cy_gpio.h **** * \{
 475:Generated_Source\PSoC6\pdl\drivers/peripheral/gpio/cy_gpio.h **** * Constants to be used for setting the SIO input buffer mode on the pin.
 476:Generated_Source\PSoC6\pdl\drivers/peripheral/gpio/cy_gpio.h **** */
 477:Generated_Source\PSoC6\pdl\drivers/peripheral/gpio/cy_gpio.h **** #define CY_SIO_IBUF_SINGLEENDED                (0x00UL) /**< Single ended input buffer */
 478:Generated_Source\PSoC6\pdl\drivers/peripheral/gpio/cy_gpio.h **** #define CY_SIO_IBUF_DIFFERENTIAL               (0x01UL) /**< Differential input buffer */
 479:Generated_Source\PSoC6\pdl\drivers/peripheral/gpio/cy_gpio.h **** /** \} */
 480:Generated_Source\PSoC6\pdl\drivers/peripheral/gpio/cy_gpio.h **** 
 481:Generated_Source\PSoC6\pdl\drivers/peripheral/gpio/cy_gpio.h **** /**
 482:Generated_Source\PSoC6\pdl\drivers/peripheral/gpio/cy_gpio.h **** * \defgroup group_gpio_sioVtrip SIO input buffer trip-point
 483:Generated_Source\PSoC6\pdl\drivers/peripheral/gpio/cy_gpio.h **** * \{
 484:Generated_Source\PSoC6\pdl\drivers/peripheral/gpio/cy_gpio.h **** * Constants to be used for setting the SIO input buffer trip-point of the pin.
 485:Generated_Source\PSoC6\pdl\drivers/peripheral/gpio/cy_gpio.h **** */
 486:Generated_Source\PSoC6\pdl\drivers/peripheral/gpio/cy_gpio.h **** #define CY_SIO_VTRIP_CMOS                      (0x00UL) /**< CMOS input buffer (single-ended) */
 487:Generated_Source\PSoC6\pdl\drivers/peripheral/gpio/cy_gpio.h **** #define CY_SIO_VTRIP_TTL                       (0x01UL) /**< TTL input buffer (single-ended) */
 488:Generated_Source\PSoC6\pdl\drivers/peripheral/gpio/cy_gpio.h **** #define CY_SIO_VTRIP_0_5VDDIO_0_5VOH           (0x00UL) /**< 0.5xVddio or 0.5xVoh (differential) */
 489:Generated_Source\PSoC6\pdl\drivers/peripheral/gpio/cy_gpio.h **** #define CY_SIO_VTRIP_0_4VDDIO_1_0VREF          (0x01UL) /**< 0.4xVddio or 0.4xVoh (differential) */
 490:Generated_Source\PSoC6\pdl\drivers/peripheral/gpio/cy_gpio.h **** /** \} */
 491:Generated_Source\PSoC6\pdl\drivers/peripheral/gpio/cy_gpio.h **** 
 492:Generated_Source\PSoC6\pdl\drivers/peripheral/gpio/cy_gpio.h **** /**
 493:Generated_Source\PSoC6\pdl\drivers/peripheral/gpio/cy_gpio.h **** * \defgroup group_gpio_sioVref SIO reference voltage for input buffer trip-point
 494:Generated_Source\PSoC6\pdl\drivers/peripheral/gpio/cy_gpio.h **** * \{
 495:Generated_Source\PSoC6\pdl\drivers/peripheral/gpio/cy_gpio.h **** * Constants to be used for setting the reference voltage of SIO input buffer trip-point.
 496:Generated_Source\PSoC6\pdl\drivers/peripheral/gpio/cy_gpio.h **** */
 497:Generated_Source\PSoC6\pdl\drivers/peripheral/gpio/cy_gpio.h **** #define CY_SIO_VREF_PINREF                     (0x00UL) /**< Vref from analog pin */
 498:Generated_Source\PSoC6\pdl\drivers/peripheral/gpio/cy_gpio.h **** #define CY_SIO_VREF_1_2V                       (0x01UL) /**< Vref from internal 1.2V reference */
 499:Generated_Source\PSoC6\pdl\drivers/peripheral/gpio/cy_gpio.h **** #define CY_SIO_VREF_AMUX_A                     (0x02UL) /**< Vref from AMUXBUS_A */
 500:Generated_Source\PSoC6\pdl\drivers/peripheral/gpio/cy_gpio.h **** #define CY_SIO_VREF_AMUX_B                     (0x03UL) /**< Vref from AMUXBUS_B */
 501:Generated_Source\PSoC6\pdl\drivers/peripheral/gpio/cy_gpio.h **** /** \} */
 502:Generated_Source\PSoC6\pdl\drivers/peripheral/gpio/cy_gpio.h **** 
 503:Generated_Source\PSoC6\pdl\drivers/peripheral/gpio/cy_gpio.h **** /**
 504:Generated_Source\PSoC6\pdl\drivers/peripheral/gpio/cy_gpio.h **** * \defgroup group_gpio_sioVoh Regulated output voltage level (Voh) and input buffer trip-point of a
 505:Generated_Source\PSoC6\pdl\drivers/peripheral/gpio/cy_gpio.h **** * \{
 506:Generated_Source\PSoC6\pdl\drivers/peripheral/gpio/cy_gpio.h **** * Constants to be used for setting the Voh and input buffer trip-point of an SIO pair
 507:Generated_Source\PSoC6\pdl\drivers/peripheral/gpio/cy_gpio.h **** */
 508:Generated_Source\PSoC6\pdl\drivers/peripheral/gpio/cy_gpio.h **** #define CY_SIO_VOH_1_00                        (0x00UL) /**< Voh = 1 x Reference */
 509:Generated_Source\PSoC6\pdl\drivers/peripheral/gpio/cy_gpio.h **** #define CY_SIO_VOH_1_25                        (0x01UL) /**< Voh = 1.25 x Reference */
 510:Generated_Source\PSoC6\pdl\drivers/peripheral/gpio/cy_gpio.h **** #define CY_SIO_VOH_1_49                        (0x02UL) /**< Voh = 1.49 x Reference */
 511:Generated_Source\PSoC6\pdl\drivers/peripheral/gpio/cy_gpio.h **** #define CY_SIO_VOH_1_67                        (0x03UL) /**< Voh = 1.67 x Reference */
 512:Generated_Source\PSoC6\pdl\drivers/peripheral/gpio/cy_gpio.h **** #define CY_SIO_VOH_2_08                        (0x04UL) /**< Voh = 2.08 x Reference */
 513:Generated_Source\PSoC6\pdl\drivers/peripheral/gpio/cy_gpio.h **** #define CY_SIO_VOH_2_50                        (0x05UL) /**< Voh = 2.50 x Reference */
 514:Generated_Source\PSoC6\pdl\drivers/peripheral/gpio/cy_gpio.h **** #define CY_SIO_VOH_2_78                        (0x06UL) /**< Voh = 2.78 x Reference */
ARM GAS  C:\Users\dmr85\AppData\Local\Temp\ccbw5e1d.s 			page 24


 515:Generated_Source\PSoC6\pdl\drivers/peripheral/gpio/cy_gpio.h **** #define CY_SIO_VOH_4_16                        (0x07UL) /**< Voh = 4.16 x Reference */
 516:Generated_Source\PSoC6\pdl\drivers/peripheral/gpio/cy_gpio.h **** /** \} */
 517:Generated_Source\PSoC6\pdl\drivers/peripheral/gpio/cy_gpio.h **** 
 518:Generated_Source\PSoC6\pdl\drivers/peripheral/gpio/cy_gpio.h **** /** \} group_gpio_macros */
 519:Generated_Source\PSoC6\pdl\drivers/peripheral/gpio/cy_gpio.h **** 
 520:Generated_Source\PSoC6\pdl\drivers/peripheral/gpio/cy_gpio.h **** /***************************************
 521:Generated_Source\PSoC6\pdl\drivers/peripheral/gpio/cy_gpio.h **** *        Function Prototypes
 522:Generated_Source\PSoC6\pdl\drivers/peripheral/gpio/cy_gpio.h **** ***************************************/
 523:Generated_Source\PSoC6\pdl\drivers/peripheral/gpio/cy_gpio.h **** 
 524:Generated_Source\PSoC6\pdl\drivers/peripheral/gpio/cy_gpio.h **** /**
 525:Generated_Source\PSoC6\pdl\drivers/peripheral/gpio/cy_gpio.h **** * \addtogroup group_gpio_functions
 526:Generated_Source\PSoC6\pdl\drivers/peripheral/gpio/cy_gpio.h **** * \{
 527:Generated_Source\PSoC6\pdl\drivers/peripheral/gpio/cy_gpio.h **** */
 528:Generated_Source\PSoC6\pdl\drivers/peripheral/gpio/cy_gpio.h **** 
 529:Generated_Source\PSoC6\pdl\drivers/peripheral/gpio/cy_gpio.h **** /**
 530:Generated_Source\PSoC6\pdl\drivers/peripheral/gpio/cy_gpio.h **** * \addtogroup group_gpio_functions_init
 531:Generated_Source\PSoC6\pdl\drivers/peripheral/gpio/cy_gpio.h **** * \{
 532:Generated_Source\PSoC6\pdl\drivers/peripheral/gpio/cy_gpio.h **** */
 533:Generated_Source\PSoC6\pdl\drivers/peripheral/gpio/cy_gpio.h **** 
 534:Generated_Source\PSoC6\pdl\drivers/peripheral/gpio/cy_gpio.h **** cy_en_gpio_status_t Cy_GPIO_Pin_Init(GPIO_PRT_Type* base, uint32_t pinNum, const cy_stc_gpio_pin_co
 535:Generated_Source\PSoC6\pdl\drivers/peripheral/gpio/cy_gpio.h **** cy_en_gpio_status_t Cy_GPIO_Port_Init(GPIO_PRT_Type* base, const cy_stc_gpio_prt_config_t *config);
 536:Generated_Source\PSoC6\pdl\drivers/peripheral/gpio/cy_gpio.h **** void Cy_GPIO_Pin_FastInit(GPIO_PRT_Type* base, uint32_t pinNum, uint32_t driveMode, uint32_t outVal
 537:Generated_Source\PSoC6\pdl\drivers/peripheral/gpio/cy_gpio.h **** void Cy_GPIO_Port_Deinit(GPIO_PRT_Type* base);
 538:Generated_Source\PSoC6\pdl\drivers/peripheral/gpio/cy_gpio.h **** __STATIC_INLINE void Cy_GPIO_SetHSIOM(GPIO_PRT_Type* base, uint32_t pinNum, en_hsiom_sel_t value);
 539:Generated_Source\PSoC6\pdl\drivers/peripheral/gpio/cy_gpio.h **** __STATIC_INLINE en_hsiom_sel_t Cy_GPIO_GetHSIOM(GPIO_PRT_Type* base, uint32_t pinNum);
 540:Generated_Source\PSoC6\pdl\drivers/peripheral/gpio/cy_gpio.h **** __STATIC_INLINE GPIO_PRT_Type* Cy_GPIO_PortToAddr(uint32_t portNum);
 541:Generated_Source\PSoC6\pdl\drivers/peripheral/gpio/cy_gpio.h **** 
 542:Generated_Source\PSoC6\pdl\drivers/peripheral/gpio/cy_gpio.h **** /** \} group_gpio_functions_init */
 543:Generated_Source\PSoC6\pdl\drivers/peripheral/gpio/cy_gpio.h **** 
 544:Generated_Source\PSoC6\pdl\drivers/peripheral/gpio/cy_gpio.h **** /**
 545:Generated_Source\PSoC6\pdl\drivers/peripheral/gpio/cy_gpio.h **** * \addtogroup group_gpio_functions_gpio
 546:Generated_Source\PSoC6\pdl\drivers/peripheral/gpio/cy_gpio.h **** * \{
 547:Generated_Source\PSoC6\pdl\drivers/peripheral/gpio/cy_gpio.h **** */
 548:Generated_Source\PSoC6\pdl\drivers/peripheral/gpio/cy_gpio.h **** 
 549:Generated_Source\PSoC6\pdl\drivers/peripheral/gpio/cy_gpio.h **** void Cy_GPIO_SetAmuxSplit(cy_en_amux_split_t switchCtrl, cy_en_gpio_amuxconnect_t amuxConnect, cy_e
 550:Generated_Source\PSoC6\pdl\drivers/peripheral/gpio/cy_gpio.h **** cy_en_gpio_amuxconnect_t Cy_GPIO_GetAmuxSplit(cy_en_amux_split_t switchCtrl, cy_en_gpio_amuxselect_
 551:Generated_Source\PSoC6\pdl\drivers/peripheral/gpio/cy_gpio.h **** 
 552:Generated_Source\PSoC6\pdl\drivers/peripheral/gpio/cy_gpio.h **** __STATIC_INLINE uint32_t Cy_GPIO_Read(GPIO_PRT_Type* base, uint32_t pinNum);
 553:Generated_Source\PSoC6\pdl\drivers/peripheral/gpio/cy_gpio.h **** __STATIC_INLINE void Cy_GPIO_Write(GPIO_PRT_Type* base, uint32_t pinNum, uint32_t value);
 554:Generated_Source\PSoC6\pdl\drivers/peripheral/gpio/cy_gpio.h **** __STATIC_INLINE uint32_t Cy_GPIO_ReadOut(GPIO_PRT_Type* base, uint32_t pinNum);
 555:Generated_Source\PSoC6\pdl\drivers/peripheral/gpio/cy_gpio.h **** __STATIC_INLINE void Cy_GPIO_Set(GPIO_PRT_Type* base, uint32_t pinNum);
 556:Generated_Source\PSoC6\pdl\drivers/peripheral/gpio/cy_gpio.h **** __STATIC_INLINE void Cy_GPIO_Clr(GPIO_PRT_Type* base, uint32_t pinNum);
 557:Generated_Source\PSoC6\pdl\drivers/peripheral/gpio/cy_gpio.h **** __STATIC_INLINE void Cy_GPIO_Inv(GPIO_PRT_Type* base, uint32_t pinNum);
 558:Generated_Source\PSoC6\pdl\drivers/peripheral/gpio/cy_gpio.h **** __STATIC_INLINE void Cy_GPIO_SetDrivemode(GPIO_PRT_Type* base, uint32_t pinNum, uint32_t value);
 559:Generated_Source\PSoC6\pdl\drivers/peripheral/gpio/cy_gpio.h **** __STATIC_INLINE uint32_t Cy_GPIO_GetDrivemode(GPIO_PRT_Type* base, uint32_t pinNum);
 560:Generated_Source\PSoC6\pdl\drivers/peripheral/gpio/cy_gpio.h **** __STATIC_INLINE void Cy_GPIO_SetVtrip(GPIO_PRT_Type* base, uint32_t pinNum, uint32_t value);
 561:Generated_Source\PSoC6\pdl\drivers/peripheral/gpio/cy_gpio.h **** __STATIC_INLINE uint32_t Cy_GPIO_GetVtrip(GPIO_PRT_Type* base, uint32_t pinNum);
 562:Generated_Source\PSoC6\pdl\drivers/peripheral/gpio/cy_gpio.h **** __STATIC_INLINE void Cy_GPIO_SetSlewRate(GPIO_PRT_Type* base, uint32_t pinNum, uint32_t value);
 563:Generated_Source\PSoC6\pdl\drivers/peripheral/gpio/cy_gpio.h **** __STATIC_INLINE uint32_t Cy_GPIO_GetSlewRate(GPIO_PRT_Type* base, uint32_t pinNum);
 564:Generated_Source\PSoC6\pdl\drivers/peripheral/gpio/cy_gpio.h **** __STATIC_INLINE void Cy_GPIO_SetDriveSel(GPIO_PRT_Type* base, uint32_t pinNum, uint32_t value);
 565:Generated_Source\PSoC6\pdl\drivers/peripheral/gpio/cy_gpio.h **** __STATIC_INLINE uint32_t Cy_GPIO_GetDriveSel(GPIO_PRT_Type* base, uint32_t pinNum);
 566:Generated_Source\PSoC6\pdl\drivers/peripheral/gpio/cy_gpio.h **** 
 567:Generated_Source\PSoC6\pdl\drivers/peripheral/gpio/cy_gpio.h **** /** \} group_gpio_functions_gpio */
 568:Generated_Source\PSoC6\pdl\drivers/peripheral/gpio/cy_gpio.h **** 
 569:Generated_Source\PSoC6\pdl\drivers/peripheral/gpio/cy_gpio.h **** /**
 570:Generated_Source\PSoC6\pdl\drivers/peripheral/gpio/cy_gpio.h **** * \addtogroup group_gpio_functions_sio
 571:Generated_Source\PSoC6\pdl\drivers/peripheral/gpio/cy_gpio.h **** * \{
ARM GAS  C:\Users\dmr85\AppData\Local\Temp\ccbw5e1d.s 			page 25


 572:Generated_Source\PSoC6\pdl\drivers/peripheral/gpio/cy_gpio.h **** */
 573:Generated_Source\PSoC6\pdl\drivers/peripheral/gpio/cy_gpio.h **** 
 574:Generated_Source\PSoC6\pdl\drivers/peripheral/gpio/cy_gpio.h **** __STATIC_INLINE void Cy_GPIO_SetVregEn(GPIO_PRT_Type* base, uint32_t pinNum, uint32_t value);
 575:Generated_Source\PSoC6\pdl\drivers/peripheral/gpio/cy_gpio.h **** __STATIC_INLINE uint32_t Cy_GPIO_GetVregEn(GPIO_PRT_Type* base, uint32_t pinNum);
 576:Generated_Source\PSoC6\pdl\drivers/peripheral/gpio/cy_gpio.h **** __STATIC_INLINE void Cy_GPIO_SetIbufMode(GPIO_PRT_Type* base, uint32_t pinNum, uint32_t value);
 577:Generated_Source\PSoC6\pdl\drivers/peripheral/gpio/cy_gpio.h **** __STATIC_INLINE uint32_t Cy_GPIO_GetIbufMode(GPIO_PRT_Type* base, uint32_t pinNum);
 578:Generated_Source\PSoC6\pdl\drivers/peripheral/gpio/cy_gpio.h **** __STATIC_INLINE void Cy_GPIO_SetVtripSel(GPIO_PRT_Type* base, uint32_t pinNum, uint32_t value);
 579:Generated_Source\PSoC6\pdl\drivers/peripheral/gpio/cy_gpio.h **** __STATIC_INLINE uint32_t Cy_GPIO_GetVtripSel(GPIO_PRT_Type* base, uint32_t pinNum);
 580:Generated_Source\PSoC6\pdl\drivers/peripheral/gpio/cy_gpio.h **** __STATIC_INLINE void Cy_GPIO_SetVrefSel(GPIO_PRT_Type* base, uint32_t pinNum, uint32_t value);
 581:Generated_Source\PSoC6\pdl\drivers/peripheral/gpio/cy_gpio.h **** __STATIC_INLINE uint32_t Cy_GPIO_GetVrefSel(GPIO_PRT_Type* base, uint32_t pinNum);
 582:Generated_Source\PSoC6\pdl\drivers/peripheral/gpio/cy_gpio.h **** __STATIC_INLINE void Cy_GPIO_SetVohSel(GPIO_PRT_Type* base, uint32_t pinNum, uint32_t value);
 583:Generated_Source\PSoC6\pdl\drivers/peripheral/gpio/cy_gpio.h **** __STATIC_INLINE uint32_t Cy_GPIO_GetVohSel(GPIO_PRT_Type* base, uint32_t pinNum);
 584:Generated_Source\PSoC6\pdl\drivers/peripheral/gpio/cy_gpio.h **** 
 585:Generated_Source\PSoC6\pdl\drivers/peripheral/gpio/cy_gpio.h **** /** \} group_gpio_functions_sio */
 586:Generated_Source\PSoC6\pdl\drivers/peripheral/gpio/cy_gpio.h **** 
 587:Generated_Source\PSoC6\pdl\drivers/peripheral/gpio/cy_gpio.h **** /**
 588:Generated_Source\PSoC6\pdl\drivers/peripheral/gpio/cy_gpio.h **** * \addtogroup group_gpio_functions_interrupt
 589:Generated_Source\PSoC6\pdl\drivers/peripheral/gpio/cy_gpio.h **** * \{
 590:Generated_Source\PSoC6\pdl\drivers/peripheral/gpio/cy_gpio.h **** */
 591:Generated_Source\PSoC6\pdl\drivers/peripheral/gpio/cy_gpio.h **** 
 592:Generated_Source\PSoC6\pdl\drivers/peripheral/gpio/cy_gpio.h **** __STATIC_INLINE uint32_t Cy_GPIO_GetInterruptStatus(GPIO_PRT_Type* base, uint32_t pinNum);
 593:Generated_Source\PSoC6\pdl\drivers/peripheral/gpio/cy_gpio.h **** __STATIC_INLINE void Cy_GPIO_ClearInterrupt(GPIO_PRT_Type* base, uint32_t pinNum);
 594:Generated_Source\PSoC6\pdl\drivers/peripheral/gpio/cy_gpio.h **** __STATIC_INLINE void Cy_GPIO_SetInterruptMask(GPIO_PRT_Type* base, uint32_t pinNum, uint32_t value)
 595:Generated_Source\PSoC6\pdl\drivers/peripheral/gpio/cy_gpio.h **** __STATIC_INLINE uint32_t Cy_GPIO_GetInterruptMask(GPIO_PRT_Type* base, uint32_t pinNum);
 596:Generated_Source\PSoC6\pdl\drivers/peripheral/gpio/cy_gpio.h **** __STATIC_INLINE uint32_t Cy_GPIO_GetInterruptStatusMasked(GPIO_PRT_Type* base, uint32_t pinNum);
 597:Generated_Source\PSoC6\pdl\drivers/peripheral/gpio/cy_gpio.h **** __STATIC_INLINE void Cy_GPIO_SetSwInterrupt(GPIO_PRT_Type* base, uint32_t pinNum);
 598:Generated_Source\PSoC6\pdl\drivers/peripheral/gpio/cy_gpio.h **** __STATIC_INLINE void Cy_GPIO_SetInterruptEdge(GPIO_PRT_Type* base, uint32_t pinNum, uint32_t value)
 599:Generated_Source\PSoC6\pdl\drivers/peripheral/gpio/cy_gpio.h **** __STATIC_INLINE uint32_t Cy_GPIO_GetInterruptEdge(GPIO_PRT_Type* base, uint32_t pinNum);
 600:Generated_Source\PSoC6\pdl\drivers/peripheral/gpio/cy_gpio.h **** __STATIC_INLINE void Cy_GPIO_SetFilter(GPIO_PRT_Type* base, uint32_t value);
 601:Generated_Source\PSoC6\pdl\drivers/peripheral/gpio/cy_gpio.h **** __STATIC_INLINE uint32_t Cy_GPIO_GetFilter(GPIO_PRT_Type* base);
 602:Generated_Source\PSoC6\pdl\drivers/peripheral/gpio/cy_gpio.h **** 
 603:Generated_Source\PSoC6\pdl\drivers/peripheral/gpio/cy_gpio.h **** __STATIC_INLINE uint32_t Cy_GPIO_GetInterruptCause0(void);
 604:Generated_Source\PSoC6\pdl\drivers/peripheral/gpio/cy_gpio.h **** __STATIC_INLINE uint32_t Cy_GPIO_GetInterruptCause1(void);
 605:Generated_Source\PSoC6\pdl\drivers/peripheral/gpio/cy_gpio.h **** __STATIC_INLINE uint32_t Cy_GPIO_GetInterruptCause2(void);
 606:Generated_Source\PSoC6\pdl\drivers/peripheral/gpio/cy_gpio.h **** __STATIC_INLINE uint32_t Cy_GPIO_GetInterruptCause3(void);
 607:Generated_Source\PSoC6\pdl\drivers/peripheral/gpio/cy_gpio.h **** 
 608:Generated_Source\PSoC6\pdl\drivers/peripheral/gpio/cy_gpio.h **** /** \} group_gpio_functions_interrupt */
 609:Generated_Source\PSoC6\pdl\drivers/peripheral/gpio/cy_gpio.h **** 
 610:Generated_Source\PSoC6\pdl\drivers/peripheral/gpio/cy_gpio.h **** 
 611:Generated_Source\PSoC6\pdl\drivers/peripheral/gpio/cy_gpio.h **** /**
 612:Generated_Source\PSoC6\pdl\drivers/peripheral/gpio/cy_gpio.h **** * \addtogroup group_gpio_functions_init
 613:Generated_Source\PSoC6\pdl\drivers/peripheral/gpio/cy_gpio.h **** * \{
 614:Generated_Source\PSoC6\pdl\drivers/peripheral/gpio/cy_gpio.h **** */
 615:Generated_Source\PSoC6\pdl\drivers/peripheral/gpio/cy_gpio.h **** 
 616:Generated_Source\PSoC6\pdl\drivers/peripheral/gpio/cy_gpio.h **** /*******************************************************************************
 617:Generated_Source\PSoC6\pdl\drivers/peripheral/gpio/cy_gpio.h **** * Function Name: Cy_GPIO_SetHSIOM
 618:Generated_Source\PSoC6\pdl\drivers/peripheral/gpio/cy_gpio.h **** ****************************************************************************//**
 619:Generated_Source\PSoC6\pdl\drivers/peripheral/gpio/cy_gpio.h **** *
 620:Generated_Source\PSoC6\pdl\drivers/peripheral/gpio/cy_gpio.h **** * Configures the HSIOM connection to the pin.
 621:Generated_Source\PSoC6\pdl\drivers/peripheral/gpio/cy_gpio.h **** *
 622:Generated_Source\PSoC6\pdl\drivers/peripheral/gpio/cy_gpio.h **** * Connects the specified High-Speed Input Output Multiplexer (HSIOM) selection
 623:Generated_Source\PSoC6\pdl\drivers/peripheral/gpio/cy_gpio.h **** * to the pin.
 624:Generated_Source\PSoC6\pdl\drivers/peripheral/gpio/cy_gpio.h **** *
 625:Generated_Source\PSoC6\pdl\drivers/peripheral/gpio/cy_gpio.h **** * \param base
 626:Generated_Source\PSoC6\pdl\drivers/peripheral/gpio/cy_gpio.h **** * Pointer to the pin's port register base address
 627:Generated_Source\PSoC6\pdl\drivers/peripheral/gpio/cy_gpio.h **** *
 628:Generated_Source\PSoC6\pdl\drivers/peripheral/gpio/cy_gpio.h **** * \param pinNum
ARM GAS  C:\Users\dmr85\AppData\Local\Temp\ccbw5e1d.s 			page 26


 629:Generated_Source\PSoC6\pdl\drivers/peripheral/gpio/cy_gpio.h **** * Position of the pin bit-field within the port register
 630:Generated_Source\PSoC6\pdl\drivers/peripheral/gpio/cy_gpio.h **** *
 631:Generated_Source\PSoC6\pdl\drivers/peripheral/gpio/cy_gpio.h **** * \param value
 632:Generated_Source\PSoC6\pdl\drivers/peripheral/gpio/cy_gpio.h **** * HSIOM input selection
 633:Generated_Source\PSoC6\pdl\drivers/peripheral/gpio/cy_gpio.h **** *
 634:Generated_Source\PSoC6\pdl\drivers/peripheral/gpio/cy_gpio.h **** * \note 
 635:Generated_Source\PSoC6\pdl\drivers/peripheral/gpio/cy_gpio.h **** * This function modifies a port register in a read-modify-write operation. It is
 636:Generated_Source\PSoC6\pdl\drivers/peripheral/gpio/cy_gpio.h **** * not thread safe as the resource is shared among multiple pins on a port.
 637:Generated_Source\PSoC6\pdl\drivers/peripheral/gpio/cy_gpio.h **** *
 638:Generated_Source\PSoC6\pdl\drivers/peripheral/gpio/cy_gpio.h **** * \funcusage
 639:Generated_Source\PSoC6\pdl\drivers/peripheral/gpio/cy_gpio.h **** * \snippet gpio/gpio_v1_10_sut_01.cydsn/main_cm4.c snippet_Cy_GPIO_SetHSIOM
 640:Generated_Source\PSoC6\pdl\drivers/peripheral/gpio/cy_gpio.h **** *
 641:Generated_Source\PSoC6\pdl\drivers/peripheral/gpio/cy_gpio.h **** *******************************************************************************/
 642:Generated_Source\PSoC6\pdl\drivers/peripheral/gpio/cy_gpio.h **** __STATIC_INLINE void Cy_GPIO_SetHSIOM(GPIO_PRT_Type* base, uint32_t pinNum, en_hsiom_sel_t value)
 643:Generated_Source\PSoC6\pdl\drivers/peripheral/gpio/cy_gpio.h **** {
 644:Generated_Source\PSoC6\pdl\drivers/peripheral/gpio/cy_gpio.h ****     uint32_t portNum;
 645:Generated_Source\PSoC6\pdl\drivers/peripheral/gpio/cy_gpio.h ****     uint32_t tempReg;
 646:Generated_Source\PSoC6\pdl\drivers/peripheral/gpio/cy_gpio.h ****     HSIOM_PRT_V1_Type* portAddrHSIOM;
 647:Generated_Source\PSoC6\pdl\drivers/peripheral/gpio/cy_gpio.h **** 
 648:Generated_Source\PSoC6\pdl\drivers/peripheral/gpio/cy_gpio.h ****     CY_ASSERT_L2(CY_GPIO_IS_PIN_VALID(pinNum));
 649:Generated_Source\PSoC6\pdl\drivers/peripheral/gpio/cy_gpio.h ****     CY_ASSERT_L2(CY_GPIO_IS_HSIOM_VALID(value));
 650:Generated_Source\PSoC6\pdl\drivers/peripheral/gpio/cy_gpio.h **** 
 651:Generated_Source\PSoC6\pdl\drivers/peripheral/gpio/cy_gpio.h ****     portNum = ((uint32_t)(base) - CY_GPIO_BASE) / GPIO_PRT_SECTION_SIZE;
 652:Generated_Source\PSoC6\pdl\drivers/peripheral/gpio/cy_gpio.h ****     portAddrHSIOM = (HSIOM_PRT_V1_Type*)(CY_HSIOM_BASE + (HSIOM_PRT_SECTION_SIZE * portNum));
 653:Generated_Source\PSoC6\pdl\drivers/peripheral/gpio/cy_gpio.h **** 
 654:Generated_Source\PSoC6\pdl\drivers/peripheral/gpio/cy_gpio.h ****     if(pinNum < CY_GPIO_PRT_HALF)
 655:Generated_Source\PSoC6\pdl\drivers/peripheral/gpio/cy_gpio.h ****     {
 656:Generated_Source\PSoC6\pdl\drivers/peripheral/gpio/cy_gpio.h ****         tempReg = HSIOM_PRT_PORT_SEL0(portAddrHSIOM) & ~(CY_GPIO_HSIOM_MASK << (pinNum << CY_GPIO_H
 657:Generated_Source\PSoC6\pdl\drivers/peripheral/gpio/cy_gpio.h ****         HSIOM_PRT_PORT_SEL0(portAddrHSIOM) = tempReg | ((value & CY_GPIO_HSIOM_MASK) << (pinNum << 
 658:Generated_Source\PSoC6\pdl\drivers/peripheral/gpio/cy_gpio.h ****     }
 659:Generated_Source\PSoC6\pdl\drivers/peripheral/gpio/cy_gpio.h ****     else
 660:Generated_Source\PSoC6\pdl\drivers/peripheral/gpio/cy_gpio.h ****     {
 661:Generated_Source\PSoC6\pdl\drivers/peripheral/gpio/cy_gpio.h ****         pinNum -= CY_GPIO_PRT_HALF;
 662:Generated_Source\PSoC6\pdl\drivers/peripheral/gpio/cy_gpio.h ****         tempReg = HSIOM_PRT_PORT_SEL1(portAddrHSIOM) & ~(CY_GPIO_HSIOM_MASK << (pinNum << CY_GPIO_H
 663:Generated_Source\PSoC6\pdl\drivers/peripheral/gpio/cy_gpio.h ****         HSIOM_PRT_PORT_SEL1(portAddrHSIOM) = tempReg | ((value & CY_GPIO_HSIOM_MASK) << (pinNum << 
 664:Generated_Source\PSoC6\pdl\drivers/peripheral/gpio/cy_gpio.h ****     }
 665:Generated_Source\PSoC6\pdl\drivers/peripheral/gpio/cy_gpio.h **** }
 666:Generated_Source\PSoC6\pdl\drivers/peripheral/gpio/cy_gpio.h **** 
 667:Generated_Source\PSoC6\pdl\drivers/peripheral/gpio/cy_gpio.h **** 
 668:Generated_Source\PSoC6\pdl\drivers/peripheral/gpio/cy_gpio.h **** /*******************************************************************************
 669:Generated_Source\PSoC6\pdl\drivers/peripheral/gpio/cy_gpio.h **** * Function Name: Cy_GPIO_GetHSIOM
 670:Generated_Source\PSoC6\pdl\drivers/peripheral/gpio/cy_gpio.h **** ****************************************************************************//**
 671:Generated_Source\PSoC6\pdl\drivers/peripheral/gpio/cy_gpio.h **** *
 672:Generated_Source\PSoC6\pdl\drivers/peripheral/gpio/cy_gpio.h **** * Returns the current HSIOM multiplexer connection to the pin.
 673:Generated_Source\PSoC6\pdl\drivers/peripheral/gpio/cy_gpio.h **** *
 674:Generated_Source\PSoC6\pdl\drivers/peripheral/gpio/cy_gpio.h **** * \param base
 675:Generated_Source\PSoC6\pdl\drivers/peripheral/gpio/cy_gpio.h **** * Pointer to the pin's port register base address
 676:Generated_Source\PSoC6\pdl\drivers/peripheral/gpio/cy_gpio.h **** *
 677:Generated_Source\PSoC6\pdl\drivers/peripheral/gpio/cy_gpio.h **** * \param pinNum
 678:Generated_Source\PSoC6\pdl\drivers/peripheral/gpio/cy_gpio.h **** * Position of the pin bit-field within the port register
 679:Generated_Source\PSoC6\pdl\drivers/peripheral/gpio/cy_gpio.h **** *
 680:Generated_Source\PSoC6\pdl\drivers/peripheral/gpio/cy_gpio.h **** * \return
 681:Generated_Source\PSoC6\pdl\drivers/peripheral/gpio/cy_gpio.h **** * HSIOM input selection
 682:Generated_Source\PSoC6\pdl\drivers/peripheral/gpio/cy_gpio.h **** *
 683:Generated_Source\PSoC6\pdl\drivers/peripheral/gpio/cy_gpio.h **** * \funcusage
 684:Generated_Source\PSoC6\pdl\drivers/peripheral/gpio/cy_gpio.h **** * \snippet gpio/gpio_v1_10_sut_01.cydsn/main_cm4.c snippet_Cy_GPIO_SetHSIOM
 685:Generated_Source\PSoC6\pdl\drivers/peripheral/gpio/cy_gpio.h **** *
ARM GAS  C:\Users\dmr85\AppData\Local\Temp\ccbw5e1d.s 			page 27


 686:Generated_Source\PSoC6\pdl\drivers/peripheral/gpio/cy_gpio.h **** *******************************************************************************/
 687:Generated_Source\PSoC6\pdl\drivers/peripheral/gpio/cy_gpio.h **** __STATIC_INLINE en_hsiom_sel_t Cy_GPIO_GetHSIOM(GPIO_PRT_Type* base, uint32_t pinNum)
 688:Generated_Source\PSoC6\pdl\drivers/peripheral/gpio/cy_gpio.h **** {
 689:Generated_Source\PSoC6\pdl\drivers/peripheral/gpio/cy_gpio.h ****     uint32_t returnValue;
 690:Generated_Source\PSoC6\pdl\drivers/peripheral/gpio/cy_gpio.h ****     uint32_t portNum;
 691:Generated_Source\PSoC6\pdl\drivers/peripheral/gpio/cy_gpio.h ****     HSIOM_PRT_V1_Type* portAddrHSIOM;
 692:Generated_Source\PSoC6\pdl\drivers/peripheral/gpio/cy_gpio.h ****     
 693:Generated_Source\PSoC6\pdl\drivers/peripheral/gpio/cy_gpio.h ****     CY_ASSERT_L2(CY_GPIO_IS_PIN_VALID(pinNum));
 694:Generated_Source\PSoC6\pdl\drivers/peripheral/gpio/cy_gpio.h **** 
 695:Generated_Source\PSoC6\pdl\drivers/peripheral/gpio/cy_gpio.h ****     portNum = ((uint32_t)(base) - CY_GPIO_BASE) / GPIO_PRT_SECTION_SIZE;
 696:Generated_Source\PSoC6\pdl\drivers/peripheral/gpio/cy_gpio.h ****     portAddrHSIOM = (HSIOM_PRT_V1_Type*)(CY_HSIOM_BASE + (HSIOM_PRT_SECTION_SIZE * portNum));
 697:Generated_Source\PSoC6\pdl\drivers/peripheral/gpio/cy_gpio.h **** 
 698:Generated_Source\PSoC6\pdl\drivers/peripheral/gpio/cy_gpio.h ****     if(pinNum < CY_GPIO_PRT_HALF)
 699:Generated_Source\PSoC6\pdl\drivers/peripheral/gpio/cy_gpio.h ****     {
 700:Generated_Source\PSoC6\pdl\drivers/peripheral/gpio/cy_gpio.h ****         returnValue = (HSIOM_PRT_PORT_SEL0(portAddrHSIOM) >> (pinNum << CY_GPIO_HSIOM_OFFSET)) & CY
 701:Generated_Source\PSoC6\pdl\drivers/peripheral/gpio/cy_gpio.h ****     }
 702:Generated_Source\PSoC6\pdl\drivers/peripheral/gpio/cy_gpio.h ****     else
 703:Generated_Source\PSoC6\pdl\drivers/peripheral/gpio/cy_gpio.h ****     {
 704:Generated_Source\PSoC6\pdl\drivers/peripheral/gpio/cy_gpio.h ****         pinNum -= CY_GPIO_PRT_HALF;
 705:Generated_Source\PSoC6\pdl\drivers/peripheral/gpio/cy_gpio.h ****         returnValue = (HSIOM_PRT_PORT_SEL1(portAddrHSIOM) >> (pinNum << CY_GPIO_HSIOM_OFFSET)) & CY
 706:Generated_Source\PSoC6\pdl\drivers/peripheral/gpio/cy_gpio.h ****     }
 707:Generated_Source\PSoC6\pdl\drivers/peripheral/gpio/cy_gpio.h **** 
 708:Generated_Source\PSoC6\pdl\drivers/peripheral/gpio/cy_gpio.h ****     return (en_hsiom_sel_t)returnValue;
 709:Generated_Source\PSoC6\pdl\drivers/peripheral/gpio/cy_gpio.h **** }
 710:Generated_Source\PSoC6\pdl\drivers/peripheral/gpio/cy_gpio.h **** 
 711:Generated_Source\PSoC6\pdl\drivers/peripheral/gpio/cy_gpio.h **** 
 712:Generated_Source\PSoC6\pdl\drivers/peripheral/gpio/cy_gpio.h **** /*******************************************************************************
 713:Generated_Source\PSoC6\pdl\drivers/peripheral/gpio/cy_gpio.h **** * Function Name: Cy_GPIO_PortToAddr
 714:Generated_Source\PSoC6\pdl\drivers/peripheral/gpio/cy_gpio.h **** ****************************************************************************//**
 715:Generated_Source\PSoC6\pdl\drivers/peripheral/gpio/cy_gpio.h **** *
 716:Generated_Source\PSoC6\pdl\drivers/peripheral/gpio/cy_gpio.h **** * Retrieves the port address based on the given port number.
 717:Generated_Source\PSoC6\pdl\drivers/peripheral/gpio/cy_gpio.h **** *
 718:Generated_Source\PSoC6\pdl\drivers/peripheral/gpio/cy_gpio.h **** * This is a helper function to calculate the port base address when given a port
 719:Generated_Source\PSoC6\pdl\drivers/peripheral/gpio/cy_gpio.h **** * number. It is to be used when pin access needs to be calculated at runtime.
 720:Generated_Source\PSoC6\pdl\drivers/peripheral/gpio/cy_gpio.h **** *
 721:Generated_Source\PSoC6\pdl\drivers/peripheral/gpio/cy_gpio.h **** * \param portNum
 722:Generated_Source\PSoC6\pdl\drivers/peripheral/gpio/cy_gpio.h **** * Port number
 723:Generated_Source\PSoC6\pdl\drivers/peripheral/gpio/cy_gpio.h **** *
 724:Generated_Source\PSoC6\pdl\drivers/peripheral/gpio/cy_gpio.h **** * \return
 725:Generated_Source\PSoC6\pdl\drivers/peripheral/gpio/cy_gpio.h **** * Base address of the port register structure
 726:Generated_Source\PSoC6\pdl\drivers/peripheral/gpio/cy_gpio.h **** *
 727:Generated_Source\PSoC6\pdl\drivers/peripheral/gpio/cy_gpio.h **** * \funcusage
 728:Generated_Source\PSoC6\pdl\drivers/peripheral/gpio/cy_gpio.h **** * \snippet gpio/gpio_v1_10_sut_01.cydsn/main_cm4.c snippet_Cy_GPIO_PortToAddr
 729:Generated_Source\PSoC6\pdl\drivers/peripheral/gpio/cy_gpio.h **** *
 730:Generated_Source\PSoC6\pdl\drivers/peripheral/gpio/cy_gpio.h **** *******************************************************************************/
 731:Generated_Source\PSoC6\pdl\drivers/peripheral/gpio/cy_gpio.h **** __STATIC_INLINE GPIO_PRT_Type* Cy_GPIO_PortToAddr(uint32_t portNum)
 732:Generated_Source\PSoC6\pdl\drivers/peripheral/gpio/cy_gpio.h **** {
 733:Generated_Source\PSoC6\pdl\drivers/peripheral/gpio/cy_gpio.h ****     GPIO_PRT_Type* portBase;
 734:Generated_Source\PSoC6\pdl\drivers/peripheral/gpio/cy_gpio.h ****     
 735:Generated_Source\PSoC6\pdl\drivers/peripheral/gpio/cy_gpio.h ****     if(portNum < (uint32_t)IOSS_GPIO_GPIO_PORT_NR)
 736:Generated_Source\PSoC6\pdl\drivers/peripheral/gpio/cy_gpio.h ****     {
 737:Generated_Source\PSoC6\pdl\drivers/peripheral/gpio/cy_gpio.h ****         portBase = (GPIO_PRT_Type *)(CY_GPIO_BASE + (GPIO_PRT_SECTION_SIZE * portNum));
 738:Generated_Source\PSoC6\pdl\drivers/peripheral/gpio/cy_gpio.h ****     }
 739:Generated_Source\PSoC6\pdl\drivers/peripheral/gpio/cy_gpio.h ****     else
 740:Generated_Source\PSoC6\pdl\drivers/peripheral/gpio/cy_gpio.h ****     {
 741:Generated_Source\PSoC6\pdl\drivers/peripheral/gpio/cy_gpio.h ****         /* Error: Return default base address */
 742:Generated_Source\PSoC6\pdl\drivers/peripheral/gpio/cy_gpio.h ****         portBase = (GPIO_PRT_Type *)(CY_GPIO_BASE);
ARM GAS  C:\Users\dmr85\AppData\Local\Temp\ccbw5e1d.s 			page 28


 743:Generated_Source\PSoC6\pdl\drivers/peripheral/gpio/cy_gpio.h ****     }
 744:Generated_Source\PSoC6\pdl\drivers/peripheral/gpio/cy_gpio.h **** 
 745:Generated_Source\PSoC6\pdl\drivers/peripheral/gpio/cy_gpio.h ****     return (portBase);
 746:Generated_Source\PSoC6\pdl\drivers/peripheral/gpio/cy_gpio.h **** }
 747:Generated_Source\PSoC6\pdl\drivers/peripheral/gpio/cy_gpio.h **** 
 748:Generated_Source\PSoC6\pdl\drivers/peripheral/gpio/cy_gpio.h **** /** \} group_gpio_functions_init */
 749:Generated_Source\PSoC6\pdl\drivers/peripheral/gpio/cy_gpio.h **** 
 750:Generated_Source\PSoC6\pdl\drivers/peripheral/gpio/cy_gpio.h **** /**
 751:Generated_Source\PSoC6\pdl\drivers/peripheral/gpio/cy_gpio.h **** * \addtogroup group_gpio_functions_gpio
 752:Generated_Source\PSoC6\pdl\drivers/peripheral/gpio/cy_gpio.h **** * \{
 753:Generated_Source\PSoC6\pdl\drivers/peripheral/gpio/cy_gpio.h **** */
 754:Generated_Source\PSoC6\pdl\drivers/peripheral/gpio/cy_gpio.h **** 
 755:Generated_Source\PSoC6\pdl\drivers/peripheral/gpio/cy_gpio.h **** /*******************************************************************************
 756:Generated_Source\PSoC6\pdl\drivers/peripheral/gpio/cy_gpio.h **** * Function Name: Cy_GPIO_Read
 757:Generated_Source\PSoC6\pdl\drivers/peripheral/gpio/cy_gpio.h **** ****************************************************************************//**
 758:Generated_Source\PSoC6\pdl\drivers/peripheral/gpio/cy_gpio.h **** *
 759:Generated_Source\PSoC6\pdl\drivers/peripheral/gpio/cy_gpio.h **** * Reads the current logic level on the input buffer of the pin.
 760:Generated_Source\PSoC6\pdl\drivers/peripheral/gpio/cy_gpio.h **** *
 761:Generated_Source\PSoC6\pdl\drivers/peripheral/gpio/cy_gpio.h **** * \param base
 762:Generated_Source\PSoC6\pdl\drivers/peripheral/gpio/cy_gpio.h **** * Pointer to the pin's port register base address
 763:Generated_Source\PSoC6\pdl\drivers/peripheral/gpio/cy_gpio.h **** *
 764:Generated_Source\PSoC6\pdl\drivers/peripheral/gpio/cy_gpio.h **** * \param pinNum
 765:Generated_Source\PSoC6\pdl\drivers/peripheral/gpio/cy_gpio.h **** * Position of the pin bit-field within the port register.
 766:Generated_Source\PSoC6\pdl\drivers/peripheral/gpio/cy_gpio.h **** * Bit position 8 is the routed pin through the port glitch filter.
 767:Generated_Source\PSoC6\pdl\drivers/peripheral/gpio/cy_gpio.h **** *
 768:Generated_Source\PSoC6\pdl\drivers/peripheral/gpio/cy_gpio.h **** * \return
 769:Generated_Source\PSoC6\pdl\drivers/peripheral/gpio/cy_gpio.h **** * Logic level present on the pin
 770:Generated_Source\PSoC6\pdl\drivers/peripheral/gpio/cy_gpio.h **** *
 771:Generated_Source\PSoC6\pdl\drivers/peripheral/gpio/cy_gpio.h **** * \funcusage
 772:Generated_Source\PSoC6\pdl\drivers/peripheral/gpio/cy_gpio.h **** * \snippet gpio/gpio_v1_10_sut_01.cydsn/main_cm4.c snippet_Cy_GPIO_Read
 773:Generated_Source\PSoC6\pdl\drivers/peripheral/gpio/cy_gpio.h **** *
 774:Generated_Source\PSoC6\pdl\drivers/peripheral/gpio/cy_gpio.h **** *******************************************************************************/
 775:Generated_Source\PSoC6\pdl\drivers/peripheral/gpio/cy_gpio.h **** __STATIC_INLINE uint32_t Cy_GPIO_Read(GPIO_PRT_Type* base, uint32_t pinNum)
 776:Generated_Source\PSoC6\pdl\drivers/peripheral/gpio/cy_gpio.h **** {
 777:Generated_Source\PSoC6\pdl\drivers/peripheral/gpio/cy_gpio.h ****     CY_ASSERT_L2(CY_GPIO_IS_FILTER_PIN_VALID(pinNum));
 778:Generated_Source\PSoC6\pdl\drivers/peripheral/gpio/cy_gpio.h ****     
 779:Generated_Source\PSoC6\pdl\drivers/peripheral/gpio/cy_gpio.h ****     return (GPIO_PRT_IN(base) >> (pinNum)) & CY_GPIO_IN_MASK;
 780:Generated_Source\PSoC6\pdl\drivers/peripheral/gpio/cy_gpio.h **** }
 781:Generated_Source\PSoC6\pdl\drivers/peripheral/gpio/cy_gpio.h **** 
 782:Generated_Source\PSoC6\pdl\drivers/peripheral/gpio/cy_gpio.h **** 
 783:Generated_Source\PSoC6\pdl\drivers/peripheral/gpio/cy_gpio.h **** /*******************************************************************************
 784:Generated_Source\PSoC6\pdl\drivers/peripheral/gpio/cy_gpio.h **** * Function Name: Cy_GPIO_Write
 785:Generated_Source\PSoC6\pdl\drivers/peripheral/gpio/cy_gpio.h **** ****************************************************************************//**
 786:Generated_Source\PSoC6\pdl\drivers/peripheral/gpio/cy_gpio.h **** *
 787:Generated_Source\PSoC6\pdl\drivers/peripheral/gpio/cy_gpio.h **** * Write a logic 0 or logic 1 state to the output driver.
 788:Generated_Source\PSoC6\pdl\drivers/peripheral/gpio/cy_gpio.h **** *
 789:Generated_Source\PSoC6\pdl\drivers/peripheral/gpio/cy_gpio.h **** * This function should be used only for software driven pins. It does not have
 790:Generated_Source\PSoC6\pdl\drivers/peripheral/gpio/cy_gpio.h **** * any effect on peripheral driven pins.
 791:Generated_Source\PSoC6\pdl\drivers/peripheral/gpio/cy_gpio.h **** *
 792:Generated_Source\PSoC6\pdl\drivers/peripheral/gpio/cy_gpio.h **** * \param base
 793:Generated_Source\PSoC6\pdl\drivers/peripheral/gpio/cy_gpio.h **** * Pointer to the pin's port register base address
 794:Generated_Source\PSoC6\pdl\drivers/peripheral/gpio/cy_gpio.h **** *
 795:Generated_Source\PSoC6\pdl\drivers/peripheral/gpio/cy_gpio.h **** * \param pinNum
 796:Generated_Source\PSoC6\pdl\drivers/peripheral/gpio/cy_gpio.h **** * Position of the pin bit-field within the port register
 797:Generated_Source\PSoC6\pdl\drivers/peripheral/gpio/cy_gpio.h **** *
 798:Generated_Source\PSoC6\pdl\drivers/peripheral/gpio/cy_gpio.h **** * \param value
 799:Generated_Source\PSoC6\pdl\drivers/peripheral/gpio/cy_gpio.h **** * Logic level to drive out on the pin
ARM GAS  C:\Users\dmr85\AppData\Local\Temp\ccbw5e1d.s 			page 29


 800:Generated_Source\PSoC6\pdl\drivers/peripheral/gpio/cy_gpio.h **** *
 801:Generated_Source\PSoC6\pdl\drivers/peripheral/gpio/cy_gpio.h **** * \funcusage
 802:Generated_Source\PSoC6\pdl\drivers/peripheral/gpio/cy_gpio.h **** * \snippet gpio/gpio_v1_10_sut_01.cydsn/main_cm4.c snippet_Cy_GPIO_Write
 803:Generated_Source\PSoC6\pdl\drivers/peripheral/gpio/cy_gpio.h **** *
 804:Generated_Source\PSoC6\pdl\drivers/peripheral/gpio/cy_gpio.h **** *******************************************************************************/
 805:Generated_Source\PSoC6\pdl\drivers/peripheral/gpio/cy_gpio.h **** __STATIC_INLINE void Cy_GPIO_Write(GPIO_PRT_Type* base, uint32_t pinNum, uint32_t value)
 806:Generated_Source\PSoC6\pdl\drivers/peripheral/gpio/cy_gpio.h **** {
 807:Generated_Source\PSoC6\pdl\drivers/peripheral/gpio/cy_gpio.h ****     CY_ASSERT_L2(CY_GPIO_IS_PIN_VALID(pinNum));
 808:Generated_Source\PSoC6\pdl\drivers/peripheral/gpio/cy_gpio.h ****     CY_ASSERT_L2(CY_GPIO_IS_VALUE_VALID(value));
 809:Generated_Source\PSoC6\pdl\drivers/peripheral/gpio/cy_gpio.h **** 
 810:Generated_Source\PSoC6\pdl\drivers/peripheral/gpio/cy_gpio.h ****     /* Thread-safe: Directly access the pin registers instead of base->OUT */
 811:Generated_Source\PSoC6\pdl\drivers/peripheral/gpio/cy_gpio.h ****     if(0UL == value)
 812:Generated_Source\PSoC6\pdl\drivers/peripheral/gpio/cy_gpio.h ****     {
 813:Generated_Source\PSoC6\pdl\drivers/peripheral/gpio/cy_gpio.h ****         GPIO_PRT_OUT_CLR(base) = CY_GPIO_OUT_MASK << pinNum;
 814:Generated_Source\PSoC6\pdl\drivers/peripheral/gpio/cy_gpio.h ****     }
 815:Generated_Source\PSoC6\pdl\drivers/peripheral/gpio/cy_gpio.h ****     else
 816:Generated_Source\PSoC6\pdl\drivers/peripheral/gpio/cy_gpio.h ****     {
 817:Generated_Source\PSoC6\pdl\drivers/peripheral/gpio/cy_gpio.h ****         GPIO_PRT_OUT_SET(base) = CY_GPIO_OUT_MASK << pinNum;
 818:Generated_Source\PSoC6\pdl\drivers/peripheral/gpio/cy_gpio.h ****     }
 819:Generated_Source\PSoC6\pdl\drivers/peripheral/gpio/cy_gpio.h **** }
 820:Generated_Source\PSoC6\pdl\drivers/peripheral/gpio/cy_gpio.h **** 
 821:Generated_Source\PSoC6\pdl\drivers/peripheral/gpio/cy_gpio.h **** 
 822:Generated_Source\PSoC6\pdl\drivers/peripheral/gpio/cy_gpio.h **** /*******************************************************************************
 823:Generated_Source\PSoC6\pdl\drivers/peripheral/gpio/cy_gpio.h **** * Function Name: Cy_GPIO_ReadOut
 824:Generated_Source\PSoC6\pdl\drivers/peripheral/gpio/cy_gpio.h **** ****************************************************************************//**
 825:Generated_Source\PSoC6\pdl\drivers/peripheral/gpio/cy_gpio.h **** *
 826:Generated_Source\PSoC6\pdl\drivers/peripheral/gpio/cy_gpio.h **** * Reads the current logic level on the pin output driver.
 827:Generated_Source\PSoC6\pdl\drivers/peripheral/gpio/cy_gpio.h **** *
 828:Generated_Source\PSoC6\pdl\drivers/peripheral/gpio/cy_gpio.h **** * \param base
 829:Generated_Source\PSoC6\pdl\drivers/peripheral/gpio/cy_gpio.h **** * Pointer to the pin's port register base address
 830:Generated_Source\PSoC6\pdl\drivers/peripheral/gpio/cy_gpio.h **** *
 831:Generated_Source\PSoC6\pdl\drivers/peripheral/gpio/cy_gpio.h **** * \param pinNum
 832:Generated_Source\PSoC6\pdl\drivers/peripheral/gpio/cy_gpio.h **** * Position of the pin bit-field within the port register
 833:Generated_Source\PSoC6\pdl\drivers/peripheral/gpio/cy_gpio.h **** *
 834:Generated_Source\PSoC6\pdl\drivers/peripheral/gpio/cy_gpio.h **** * \return
 835:Generated_Source\PSoC6\pdl\drivers/peripheral/gpio/cy_gpio.h **** * Logic level on the pin output driver
 836:Generated_Source\PSoC6\pdl\drivers/peripheral/gpio/cy_gpio.h **** *
 837:Generated_Source\PSoC6\pdl\drivers/peripheral/gpio/cy_gpio.h **** * \funcusage
 838:Generated_Source\PSoC6\pdl\drivers/peripheral/gpio/cy_gpio.h **** * \snippet gpio/gpio_v1_10_sut_01.cydsn/main_cm4.c snippet_Cy_GPIO_ReadOut
 839:Generated_Source\PSoC6\pdl\drivers/peripheral/gpio/cy_gpio.h **** *
 840:Generated_Source\PSoC6\pdl\drivers/peripheral/gpio/cy_gpio.h **** *******************************************************************************/
 841:Generated_Source\PSoC6\pdl\drivers/peripheral/gpio/cy_gpio.h **** __STATIC_INLINE uint32_t Cy_GPIO_ReadOut(GPIO_PRT_Type* base, uint32_t pinNum)
 842:Generated_Source\PSoC6\pdl\drivers/peripheral/gpio/cy_gpio.h **** {
 843:Generated_Source\PSoC6\pdl\drivers/peripheral/gpio/cy_gpio.h ****     CY_ASSERT_L2(CY_GPIO_IS_PIN_VALID(pinNum));
 844:Generated_Source\PSoC6\pdl\drivers/peripheral/gpio/cy_gpio.h **** 
 845:Generated_Source\PSoC6\pdl\drivers/peripheral/gpio/cy_gpio.h ****     return (GPIO_PRT_OUT(base) >> pinNum) & CY_GPIO_OUT_MASK;
 846:Generated_Source\PSoC6\pdl\drivers/peripheral/gpio/cy_gpio.h **** }
 847:Generated_Source\PSoC6\pdl\drivers/peripheral/gpio/cy_gpio.h **** 
 848:Generated_Source\PSoC6\pdl\drivers/peripheral/gpio/cy_gpio.h **** 
 849:Generated_Source\PSoC6\pdl\drivers/peripheral/gpio/cy_gpio.h **** /*******************************************************************************
 850:Generated_Source\PSoC6\pdl\drivers/peripheral/gpio/cy_gpio.h **** * Function Name: Cy_GPIO_Set
 851:Generated_Source\PSoC6\pdl\drivers/peripheral/gpio/cy_gpio.h **** ****************************************************************************//**
 852:Generated_Source\PSoC6\pdl\drivers/peripheral/gpio/cy_gpio.h **** *
 853:Generated_Source\PSoC6\pdl\drivers/peripheral/gpio/cy_gpio.h **** * Set a pin output to logic state high.
 854:Generated_Source\PSoC6\pdl\drivers/peripheral/gpio/cy_gpio.h **** *
 855:Generated_Source\PSoC6\pdl\drivers/peripheral/gpio/cy_gpio.h **** * This function should be used only for software driven pins. It does not have
 856:Generated_Source\PSoC6\pdl\drivers/peripheral/gpio/cy_gpio.h **** * any effect on peripheral driven pins.
ARM GAS  C:\Users\dmr85\AppData\Local\Temp\ccbw5e1d.s 			page 30


 857:Generated_Source\PSoC6\pdl\drivers/peripheral/gpio/cy_gpio.h **** *
 858:Generated_Source\PSoC6\pdl\drivers/peripheral/gpio/cy_gpio.h **** * \param base
 859:Generated_Source\PSoC6\pdl\drivers/peripheral/gpio/cy_gpio.h **** * Pointer to the pin's port register base address
 860:Generated_Source\PSoC6\pdl\drivers/peripheral/gpio/cy_gpio.h **** *
 861:Generated_Source\PSoC6\pdl\drivers/peripheral/gpio/cy_gpio.h **** * \param pinNum
 862:Generated_Source\PSoC6\pdl\drivers/peripheral/gpio/cy_gpio.h **** * Position of the pin bit-field within the port register
 863:Generated_Source\PSoC6\pdl\drivers/peripheral/gpio/cy_gpio.h **** *
 864:Generated_Source\PSoC6\pdl\drivers/peripheral/gpio/cy_gpio.h **** * \funcusage
 865:Generated_Source\PSoC6\pdl\drivers/peripheral/gpio/cy_gpio.h **** * \snippet gpio/gpio_v1_10_sut_01.cydsn/main_cm4.c snippet_Cy_GPIO_Set
 866:Generated_Source\PSoC6\pdl\drivers/peripheral/gpio/cy_gpio.h **** *
 867:Generated_Source\PSoC6\pdl\drivers/peripheral/gpio/cy_gpio.h **** *******************************************************************************/
 868:Generated_Source\PSoC6\pdl\drivers/peripheral/gpio/cy_gpio.h **** __STATIC_INLINE void Cy_GPIO_Set(GPIO_PRT_Type* base, uint32_t pinNum)
 869:Generated_Source\PSoC6\pdl\drivers/peripheral/gpio/cy_gpio.h **** {
 870:Generated_Source\PSoC6\pdl\drivers/peripheral/gpio/cy_gpio.h ****     CY_ASSERT_L2(CY_GPIO_IS_PIN_VALID(pinNum));
 871:Generated_Source\PSoC6\pdl\drivers/peripheral/gpio/cy_gpio.h ****     
 872:Generated_Source\PSoC6\pdl\drivers/peripheral/gpio/cy_gpio.h ****     GPIO_PRT_OUT_SET(base) = CY_GPIO_OUT_MASK << pinNum;
 246              		.loc 3 872 0
 247 0010 1022     		movs	r2, #16
 248 0012 0B4B     		ldr	r3, .L24
 249 0014 9A60     		str	r2, [r3, #8]
 250 0016 7047     		bx	lr
 251              	.LVL23:
 252              	.L19:
 253              	.LBE48:
 254              	.LBE47:
 255              	.LBB49:
 256              	.LBB50:
 257 0018 1022     		movs	r2, #16
 258 001a 0A4B     		ldr	r3, .L24+4
 259 001c 9A60     		str	r2, [r3, #8]
 260 001e 7047     		bx	lr
 261              	.LVL24:
 262              	.L20:
 263              	.LBE50:
 264              	.LBE49:
 265              	.LBB51:
 266              	.LBB52:
 267 0020 4022     		movs	r2, #64
 268 0022 074B     		ldr	r3, .L24
 269 0024 9A60     		str	r2, [r3, #8]
 270 0026 7047     		bx	lr
 271              	.LVL25:
 272              	.L21:
 273              	.LBE52:
 274              	.LBE51:
 275              	.LBB53:
 276              	.LBB54:
 277 0028 2022     		movs	r2, #32
 278 002a 054B     		ldr	r3, .L24
 279 002c 9A60     		str	r2, [r3, #8]
 280 002e 7047     		bx	lr
 281              	.LVL26:
 282              	.L22:
 283              	.LBE54:
 284              	.LBE53:
 285              	.LBB55:
 286              	.LBB56:
ARM GAS  C:\Users\dmr85\AppData\Local\Temp\ccbw5e1d.s 			page 31


 287 0030 0822     		movs	r2, #8
 288 0032 054B     		ldr	r3, .L24+8
 289 0034 9A60     		str	r2, [r3, #8]
 290 0036 7047     		bx	lr
 291              	.LVL27:
 292              	.L23:
 293              	.LBE56:
 294              	.LBE55:
 295              	.LBB57:
 296              	.LBB58:
 297 0038 4022     		movs	r2, #64
 298 003a 024B     		ldr	r3, .L24+4
 299 003c 9A60     		str	r2, [r3, #8]
 300              	.LVL28:
 301              	.L15:
 302 003e 7047     		bx	lr
 303              	.L25:
 304              		.align	2
 305              	.L24:
 306 0040 00053240 		.word	1077019904
 307 0044 80023240 		.word	1077019264
 308 0048 80043240 		.word	1077019776
 309              	.LBE58:
 310              	.LBE57:
 311              		.cfi_endproc
 312              	.LFE544:
 313              		.size	gpio_set_gpio_pin, .-gpio_set_gpio_pin
 314              		.section	.text.spi_unselectChip,"ax",%progbits
 315              		.align	2
 316              		.global	spi_unselectChip
 317              		.thumb
 318              		.thumb_func
 319              		.type	spi_unselectChip, %function
 320              	spi_unselectChip:
 321              	.LFB540:
  82:ads1299_spi_adapt.c ****     // CyDelayUs(1);
 322              		.loc 1 82 0
 323              		.cfi_startproc
 324              		@ args = 0, pretend = 0, frame = 0
 325              		@ frame_needed = 0, uses_anonymous_args = 0
 326              	.LVL29:
 327 0000 08B5     		push	{r3, lr}
 328              		.cfi_def_cfa_offset 8
 329              		.cfi_offset 3, -8
 330              		.cfi_offset 14, -4
  84:ads1299_spi_adapt.c **** }
 331              		.loc 1 84 0
 332 0002 0520     		movs	r0, #5
 333              	.LVL30:
 334 0004 FFF7FEFF 		bl	gpio_set_gpio_pin
 335              	.LVL31:
 336 0008 08BD     		pop	{r3, pc}
 337              		.cfi_endproc
 338              	.LFE540:
 339              		.size	spi_unselectChip, .-spi_unselectChip
 340 000a 00BF     		.section	.text.gpio_clr_gpio_pin,"ax",%progbits
 341              		.align	2
ARM GAS  C:\Users\dmr85\AppData\Local\Temp\ccbw5e1d.s 			page 32


 342              		.global	gpio_clr_gpio_pin
 343              		.thumb
 344              		.thumb_func
 345              		.type	gpio_clr_gpio_pin, %function
 346              	gpio_clr_gpio_pin:
 347              	.LFB545:
 105:ads1299_spi_adapt.c ****     {
 106:ads1299_spi_adapt.c ****         case ADS1299_PIN_PWDN:
 107:ads1299_spi_adapt.c ****             Cy_GPIO_Set(PIN_ADS1299_PWDN_0_PORT, PIN_ADS1299_PWDN_0_NUM);
 108:ads1299_spi_adapt.c ****         break;
 109:ads1299_spi_adapt.c ****         case ADS1299_PIN_DRDY:
 110:ads1299_spi_adapt.c ****             Cy_GPIO_Set(PIN_ADS1299_DRDY_0_PORT, PIN_ADS1299_DRDY_0_NUM);
 111:ads1299_spi_adapt.c ****         break;
 112:ads1299_spi_adapt.c ****         case ADS1299_PIN_START:
 113:ads1299_spi_adapt.c ****             Cy_GPIO_Set(PIN_ADS1299_START_0_PORT, PIN_ADS1299_START_0_NUM);
 114:ads1299_spi_adapt.c ****         break;
 115:ads1299_spi_adapt.c ****         case ADS1299_PIN_RESET:
 116:ads1299_spi_adapt.c ****             Cy_GPIO_Set(PIN_ADS1299_RESET_0_PORT, PIN_ADS1299_RESET_0_NUM);
 117:ads1299_spi_adapt.c ****         break;
 118:ads1299_spi_adapt.c ****         case ADS1299_PIN_CS:
 119:ads1299_spi_adapt.c ****             Cy_GPIO_Set(SPI_ss0_m_0_PORT, SPI_ss0_m_0_NUM);
 120:ads1299_spi_adapt.c ****         break;
 121:ads1299_spi_adapt.c ****         case ADS1299_PIN_CLKSEL:
 122:ads1299_spi_adapt.c ****             Cy_GPIO_Set(PIN_ADS1299_CLKSEL_0_PORT, PIN_ADS1299_CLKSEL_0_NUM);
 123:ads1299_spi_adapt.c ****         break;
 124:ads1299_spi_adapt.c ****     }
 125:ads1299_spi_adapt.c **** }
 126:ads1299_spi_adapt.c **** 
 127:ads1299_spi_adapt.c **** void gpio_clr_gpio_pin(uint32_t pin)
 128:ads1299_spi_adapt.c **** {
 348              		.loc 1 128 0
 349              		.cfi_startproc
 350              		@ args = 0, pretend = 0, frame = 0
 351              		@ frame_needed = 0, uses_anonymous_args = 0
 352              		@ link register save eliminated.
 353              	.LVL32:
 129:ads1299_spi_adapt.c ****     switch (pin)
 354              		.loc 1 129 0
 355 0000 0138     		subs	r0, r0, #1
 356              	.LVL33:
 357 0002 0428     		cmp	r0, #4
 358 0004 17D8     		bhi	.L28
 359 0006 DFE800F0 		tbb	[pc, r0]
 360              	.L31:
 361 000a 03       		.byte	(.L30-.L31)/2
 362 000b 07       		.byte	(.L32-.L31)/2
 363 000c 0B       		.byte	(.L33-.L31)/2
 364 000d 0F       		.byte	(.L34-.L31)/2
 365 000e 13       		.byte	(.L35-.L31)/2
 366 000f 00       		.p2align 1
 367              	.L30:
 368              	.LVL34:
 369              	.LBB59:
 370              	.LBB60:
 873:Generated_Source\PSoC6\pdl\drivers/peripheral/gpio/cy_gpio.h **** }
 874:Generated_Source\PSoC6\pdl\drivers/peripheral/gpio/cy_gpio.h **** 
 875:Generated_Source\PSoC6\pdl\drivers/peripheral/gpio/cy_gpio.h **** 
ARM GAS  C:\Users\dmr85\AppData\Local\Temp\ccbw5e1d.s 			page 33


 876:Generated_Source\PSoC6\pdl\drivers/peripheral/gpio/cy_gpio.h **** /*******************************************************************************
 877:Generated_Source\PSoC6\pdl\drivers/peripheral/gpio/cy_gpio.h **** * Function Name: Cy_GPIO_Clr
 878:Generated_Source\PSoC6\pdl\drivers/peripheral/gpio/cy_gpio.h **** ****************************************************************************//**
 879:Generated_Source\PSoC6\pdl\drivers/peripheral/gpio/cy_gpio.h **** *
 880:Generated_Source\PSoC6\pdl\drivers/peripheral/gpio/cy_gpio.h **** * Set a pin output to logic state Low.
 881:Generated_Source\PSoC6\pdl\drivers/peripheral/gpio/cy_gpio.h **** *
 882:Generated_Source\PSoC6\pdl\drivers/peripheral/gpio/cy_gpio.h **** * This function should be used only for software driven pins. It does not have
 883:Generated_Source\PSoC6\pdl\drivers/peripheral/gpio/cy_gpio.h **** * any effect on peripheral driven pins.
 884:Generated_Source\PSoC6\pdl\drivers/peripheral/gpio/cy_gpio.h **** *
 885:Generated_Source\PSoC6\pdl\drivers/peripheral/gpio/cy_gpio.h **** * \param base
 886:Generated_Source\PSoC6\pdl\drivers/peripheral/gpio/cy_gpio.h **** * Pointer to the pin's port register base address
 887:Generated_Source\PSoC6\pdl\drivers/peripheral/gpio/cy_gpio.h **** *
 888:Generated_Source\PSoC6\pdl\drivers/peripheral/gpio/cy_gpio.h **** * \param pinNum
 889:Generated_Source\PSoC6\pdl\drivers/peripheral/gpio/cy_gpio.h **** * Position of the pin bit-field within the port register
 890:Generated_Source\PSoC6\pdl\drivers/peripheral/gpio/cy_gpio.h **** *
 891:Generated_Source\PSoC6\pdl\drivers/peripheral/gpio/cy_gpio.h **** * \funcusage
 892:Generated_Source\PSoC6\pdl\drivers/peripheral/gpio/cy_gpio.h **** * \snippet gpio/gpio_v1_10_sut_01.cydsn/main_cm4.c snippet_Cy_GPIO_Clr
 893:Generated_Source\PSoC6\pdl\drivers/peripheral/gpio/cy_gpio.h **** *
 894:Generated_Source\PSoC6\pdl\drivers/peripheral/gpio/cy_gpio.h **** *******************************************************************************/
 895:Generated_Source\PSoC6\pdl\drivers/peripheral/gpio/cy_gpio.h **** __STATIC_INLINE void Cy_GPIO_Clr(GPIO_PRT_Type* base, uint32_t pinNum)
 896:Generated_Source\PSoC6\pdl\drivers/peripheral/gpio/cy_gpio.h **** {
 897:Generated_Source\PSoC6\pdl\drivers/peripheral/gpio/cy_gpio.h ****     CY_ASSERT_L2(CY_GPIO_IS_PIN_VALID(pinNum));
 898:Generated_Source\PSoC6\pdl\drivers/peripheral/gpio/cy_gpio.h ****     
 899:Generated_Source\PSoC6\pdl\drivers/peripheral/gpio/cy_gpio.h ****     GPIO_PRT_OUT_CLR(base) = CY_GPIO_OUT_MASK << pinNum;
 371              		.loc 3 899 0
 372 0010 1022     		movs	r2, #16
 373 0012 094B     		ldr	r3, .L36
 374 0014 5A60     		str	r2, [r3, #4]
 375 0016 7047     		bx	lr
 376              	.LVL35:
 377              	.L32:
 378              	.LBE60:
 379              	.LBE59:
 380              	.LBB61:
 381              	.LBB62:
 382 0018 1022     		movs	r2, #16
 383 001a 084B     		ldr	r3, .L36+4
 384 001c 5A60     		str	r2, [r3, #4]
 385 001e 7047     		bx	lr
 386              	.LVL36:
 387              	.L33:
 388              	.LBE62:
 389              	.LBE61:
 390              	.LBB63:
 391              	.LBB64:
 392 0020 4022     		movs	r2, #64
 393 0022 054B     		ldr	r3, .L36
 394 0024 5A60     		str	r2, [r3, #4]
 395 0026 7047     		bx	lr
 396              	.LVL37:
 397              	.L34:
 398              	.LBE64:
 399              	.LBE63:
 400              	.LBB65:
 401              	.LBB66:
 402 0028 2022     		movs	r2, #32
 403 002a 034B     		ldr	r3, .L36
ARM GAS  C:\Users\dmr85\AppData\Local\Temp\ccbw5e1d.s 			page 34


 404 002c 5A60     		str	r2, [r3, #4]
 405 002e 7047     		bx	lr
 406              	.LVL38:
 407              	.L35:
 408              	.LBE66:
 409              	.LBE65:
 410              	.LBB67:
 411              	.LBB68:
 412 0030 0822     		movs	r2, #8
 413 0032 034B     		ldr	r3, .L36+8
 414 0034 5A60     		str	r2, [r3, #4]
 415              	.LVL39:
 416              	.L28:
 417 0036 7047     		bx	lr
 418              	.L37:
 419              		.align	2
 420              	.L36:
 421 0038 00053240 		.word	1077019904
 422 003c 80023240 		.word	1077019264
 423 0040 80043240 		.word	1077019776
 424              	.LBE68:
 425              	.LBE67:
 426              		.cfi_endproc
 427              	.LFE545:
 428              		.size	gpio_clr_gpio_pin, .-gpio_clr_gpio_pin
 429              		.section	.text.spi_selectChip,"ax",%progbits
 430              		.align	2
 431              		.global	spi_selectChip
 432              		.thumb
 433              		.thumb_func
 434              		.type	spi_selectChip, %function
 435              	spi_selectChip:
 436              	.LFB539:
  76:ads1299_spi_adapt.c ****     gpio_clr_gpio_pin(ADS1299_PIN_CS);
 437              		.loc 1 76 0
 438              		.cfi_startproc
 439              		@ args = 0, pretend = 0, frame = 0
 440              		@ frame_needed = 0, uses_anonymous_args = 0
 441              	.LVL40:
 442 0000 08B5     		push	{r3, lr}
 443              		.cfi_def_cfa_offset 8
 444              		.cfi_offset 3, -8
 445              		.cfi_offset 14, -4
  77:ads1299_spi_adapt.c ****     // CyDelayUs(1);
 446              		.loc 1 77 0
 447 0002 0520     		movs	r0, #5
 448              	.LVL41:
 449 0004 FFF7FEFF 		bl	gpio_clr_gpio_pin
 450              	.LVL42:
 451 0008 08BD     		pop	{r3, pc}
 452              		.cfi_endproc
 453              	.LFE539:
 454              		.size	spi_selectChip, .-spi_selectChip
 455 000a 00BF     		.section	.text.spi_write_packet,"ax",%progbits
 456              		.align	2
 457              		.global	spi_write_packet
 458              		.thumb
ARM GAS  C:\Users\dmr85\AppData\Local\Temp\ccbw5e1d.s 			page 35


 459              		.thumb_func
 460              		.type	spi_write_packet, %function
 461              	spi_write_packet:
 462              	.LFB546:
 130:ads1299_spi_adapt.c ****     {
 131:ads1299_spi_adapt.c ****         case ADS1299_PIN_PWDN:
 132:ads1299_spi_adapt.c ****             Cy_GPIO_Clr(PIN_ADS1299_PWDN_0_PORT, PIN_ADS1299_PWDN_0_NUM);
 133:ads1299_spi_adapt.c ****         break;
 134:ads1299_spi_adapt.c ****         case ADS1299_PIN_DRDY:
 135:ads1299_spi_adapt.c ****             Cy_GPIO_Clr(PIN_ADS1299_DRDY_0_PORT, PIN_ADS1299_DRDY_0_NUM);
 136:ads1299_spi_adapt.c ****         break;
 137:ads1299_spi_adapt.c ****         case ADS1299_PIN_START:
 138:ads1299_spi_adapt.c ****             Cy_GPIO_Clr(PIN_ADS1299_START_0_PORT, PIN_ADS1299_START_0_NUM);
 139:ads1299_spi_adapt.c ****         break;
 140:ads1299_spi_adapt.c ****         case ADS1299_PIN_RESET:
 141:ads1299_spi_adapt.c ****             Cy_GPIO_Clr(PIN_ADS1299_RESET_0_PORT, PIN_ADS1299_RESET_0_NUM);
 142:ads1299_spi_adapt.c ****         break;
 143:ads1299_spi_adapt.c ****         case ADS1299_PIN_CS:
 144:ads1299_spi_adapt.c ****             Cy_GPIO_Clr(SPI_ss0_m_0_PORT, SPI_ss0_m_0_NUM);
 145:ads1299_spi_adapt.c ****         break;
 146:ads1299_spi_adapt.c ****     }
 147:ads1299_spi_adapt.c **** }
 148:ads1299_spi_adapt.c **** 
 149:ads1299_spi_adapt.c **** 
 150:ads1299_spi_adapt.c **** uint32_t spi_write_packet(uint8_t txBuffer[], uint8_t packet_size)
 151:ads1299_spi_adapt.c **** {
 463              		.loc 1 151 0
 464              		.cfi_startproc
 465              		@ args = 0, pretend = 0, frame = 0
 466              		@ frame_needed = 1, uses_anonymous_args = 0
 467              	.LVL43:
 468 0000 2DE9F047 		push	{r4, r5, r6, r7, r8, r9, r10, lr}
 469              		.cfi_def_cfa_offset 32
 470              		.cfi_offset 4, -32
 471              		.cfi_offset 5, -28
 472              		.cfi_offset 6, -24
 473              		.cfi_offset 7, -20
 474              		.cfi_offset 8, -16
 475              		.cfi_offset 9, -12
 476              		.cfi_offset 10, -8
 477              		.cfi_offset 14, -4
 478 0004 82B0     		sub	sp, sp, #8
 479              		.cfi_def_cfa_offset 40
 480 0006 02AF     		add	r7, sp, #8
 481              		.cfi_def_cfa 7, 32
 482 0008 8246     		mov	r10, r0
 483 000a 0E46     		mov	r6, r1
 484              	.LVL44:
 152:ads1299_spi_adapt.c ****  
 153:ads1299_spi_adapt.c ****     uint32_t status = TRANSFER_ERROR;
 154:ads1299_spi_adapt.c ****     cy_en_scb_spi_status_t errorStatus;
 155:ads1299_spi_adapt.c ****     uint8_t statusRxBuf[packet_size];
 485              		.loc 1 155 0
 486 000c CB1D     		adds	r3, r1, #7
 487 000e 23F00703 		bic	r3, r3, #7
 488 0012 ADEB030D 		sub	sp, sp, r3
 489 0016 0DF10809 		add	r9, sp, #8
ARM GAS  C:\Users\dmr85\AppData\Local\Temp\ccbw5e1d.s 			page 36


 490              	.LVL45:
 153:ads1299_spi_adapt.c ****     cy_en_scb_spi_status_t errorStatus;
 491              		.loc 1 153 0
 492 001a 4FF0FF08 		mov	r8, #255
 493              	.LVL46:
 494              	.L45:
 495              	.LBB69:
 496              	.LBB70:
 497              		.loc 2 448 0
 498 001e 154B     		ldr	r3, .L48
 499 0020 0093     		str	r3, [sp]
 500 0022 3346     		mov	r3, r6
 501 0024 4A46     		mov	r2, r9
 502 0026 5146     		mov	r1, r10
 503 0028 1348     		ldr	r0, .L48+4
 504 002a FFF7FEFF 		bl	Cy_SCB_SPI_Transfer
 505              	.LVL47:
 506              	.LBE70:
 507              	.LBE69:
 156:ads1299_spi_adapt.c ****     
 157:ads1299_spi_adapt.c ****     do
 158:ads1299_spi_adapt.c ****     {
 159:ads1299_spi_adapt.c ****         
 160:ads1299_spi_adapt.c ****                 
 161:ads1299_spi_adapt.c ****         // Initiate SPI Master write and read transaction.
 162:ads1299_spi_adapt.c ****         //printf(" %x ", txBuffer[0]);
 163:ads1299_spi_adapt.c ****         errorStatus = SPI_Transfer(txBuffer, statusRxBuf, packet_size);
 164:ads1299_spi_adapt.c ****         
 165:ads1299_spi_adapt.c ****         /* If no error wait till master sends data in Tx FIFO */
 166:ads1299_spi_adapt.c ****         if(errorStatus == CY_SCB_SPI_SUCCESS)
 508              		.loc 1 166 0
 509 002e D0B9     		cbnz	r0, .L41
 510 0030 4FF47A74 		mov	r4, #1000
 511              	.L43:
 512              	.LVL48:
 513              	.LBB71:
 514              	.LBB72:
 515              	.LBB73:
 449:Generated_Source\PSoC6/SPI.h **** }
 450:Generated_Source\PSoC6/SPI.h **** 
 451:Generated_Source\PSoC6/SPI.h **** /*******************************************************************************
 452:Generated_Source\PSoC6/SPI.h **** * Function Name: SPI_AbortTransfer
 453:Generated_Source\PSoC6/SPI.h **** ****************************************************************************//**
 454:Generated_Source\PSoC6/SPI.h **** *
 455:Generated_Source\PSoC6/SPI.h **** * Invokes the Cy_SCB_SPI_AbortTransfer() PDL driver function.
 456:Generated_Source\PSoC6/SPI.h **** *
 457:Generated_Source\PSoC6/SPI.h **** *******************************************************************************/
 458:Generated_Source\PSoC6/SPI.h **** __STATIC_INLINE void SPI_AbortTransfer(void)
 459:Generated_Source\PSoC6/SPI.h **** {
 460:Generated_Source\PSoC6/SPI.h ****     Cy_SCB_SPI_AbortTransfer(SPI_HW, &SPI_context);
 461:Generated_Source\PSoC6/SPI.h **** }
 462:Generated_Source\PSoC6/SPI.h **** 
 463:Generated_Source\PSoC6/SPI.h **** 
 464:Generated_Source\PSoC6/SPI.h **** /*******************************************************************************
 465:Generated_Source\PSoC6/SPI.h **** * Function Name: SPI_GetTransferStatus
 466:Generated_Source\PSoC6/SPI.h **** ****************************************************************************//**
 467:Generated_Source\PSoC6/SPI.h **** *
ARM GAS  C:\Users\dmr85\AppData\Local\Temp\ccbw5e1d.s 			page 37


 468:Generated_Source\PSoC6/SPI.h **** * Invokes the Cy_SCB_SPI_GetTransferStatus() PDL driver function.
 469:Generated_Source\PSoC6/SPI.h **** *
 470:Generated_Source\PSoC6/SPI.h **** *******************************************************************************/
 471:Generated_Source\PSoC6/SPI.h **** __STATIC_INLINE uint32_t SPI_GetTransferStatus(void)
 472:Generated_Source\PSoC6/SPI.h **** {
 473:Generated_Source\PSoC6/SPI.h ****     return Cy_SCB_SPI_GetTransferStatus(SPI_HW, &SPI_context);
 516              		.loc 2 473 0 discriminator 2
 517 0034 0F49     		ldr	r1, .L48
 518 0036 1048     		ldr	r0, .L48+4
 519 0038 FFF7FEFF 		bl	Cy_SCB_SPI_GetTransferStatus
 520              	.LVL49:
 521 003c 0546     		mov	r5, r0
 522              	.LBE73:
 523              	.LBE72:
 167:ads1299_spi_adapt.c ****         {
 168:ads1299_spi_adapt.c ****             uint32_t masterStatus;        
 169:ads1299_spi_adapt.c ****             // Timeout 1 sec
 170:ads1299_spi_adapt.c ****             uint32_t timeOut = 1000UL;
 171:ads1299_spi_adapt.c ****             
 172:ads1299_spi_adapt.c ****             // Wait until master complete read transfer or time out has occured
 173:ads1299_spi_adapt.c ****             do
 174:ads1299_spi_adapt.c ****             {
 175:ads1299_spi_adapt.c ****                 masterStatus  = SPI_GetTransferStatus();
 176:ads1299_spi_adapt.c ****                 Cy_SysLib_Delay(CY_SCB_WAIT_1_UNIT);
 524              		.loc 1 176 0 discriminator 2
 525 003e 0120     		movs	r0, #1
 526 0040 FFF7FEFF 		bl	Cy_SysLib_Delay
 527              	.LVL50:
 177:ads1299_spi_adapt.c ****                 timeOut--;
 528              		.loc 1 177 0 discriminator 2
 529 0044 013C     		subs	r4, r4, #1
 530              	.LVL51:
 178:ads1299_spi_adapt.c ****                 
 179:ads1299_spi_adapt.c ****             } while ((0UL != (masterStatus & CY_SCB_SPI_TRANSFER_ACTIVE)) && (timeOut > 0UL));
 531              		.loc 1 179 0 discriminator 2
 532 0046 15F0010F 		tst	r5, #1
 533 004a 01D0     		beq	.L42
 534              		.loc 1 179 0 is_stmt 0 discriminator 1
 535 004c 002C     		cmp	r4, #0
 536 004e F1D1     		bne	.L43
 537              	.L42:
 180:ads1299_spi_adapt.c ****             
 181:ads1299_spi_adapt.c ****             if ((0UL == (MASTER_ERROR_MASK & masterStatus)) &&
 538              		.loc 1 181 0 is_stmt 1
 539 0050 15F4066F 		tst	r5, #2144
 540 0054 07D1     		bne	.L41
 541              	.LBB74:
 542              	.LBB75:
 474:Generated_Source\PSoC6/SPI.h **** }
 475:Generated_Source\PSoC6/SPI.h **** 
 476:Generated_Source\PSoC6/SPI.h **** 
 477:Generated_Source\PSoC6/SPI.h **** /*******************************************************************************
 478:Generated_Source\PSoC6/SPI.h **** * Function Name: SPI_GetNumTransfered
 479:Generated_Source\PSoC6/SPI.h **** ****************************************************************************//**
 480:Generated_Source\PSoC6/SPI.h **** *
 481:Generated_Source\PSoC6/SPI.h **** * Invokes the Cy_SCB_SPI_GetNumTransfered() PDL driver function.
 482:Generated_Source\PSoC6/SPI.h **** *
ARM GAS  C:\Users\dmr85\AppData\Local\Temp\ccbw5e1d.s 			page 38


 483:Generated_Source\PSoC6/SPI.h **** *******************************************************************************/
 484:Generated_Source\PSoC6/SPI.h **** __STATIC_INLINE uint32_t SPI_GetNumTransfered(void)
 485:Generated_Source\PSoC6/SPI.h **** {
 486:Generated_Source\PSoC6/SPI.h ****     return Cy_SCB_SPI_GetNumTransfered(SPI_HW, &SPI_context);
 543              		.loc 2 486 0 discriminator 1
 544 0056 0749     		ldr	r1, .L48
 545 0058 0748     		ldr	r0, .L48+4
 546 005a FFF7FEFF 		bl	Cy_SCB_SPI_GetNumTransfered
 547              	.LVL52:
 548              	.LBE75:
 549              	.LBE74:
 550              		.loc 1 181 0 discriminator 1
 551 005e 8642     		cmp	r6, r0
 552 0060 01D1     		bne	.L41
 182:ads1299_spi_adapt.c ****                 (packet_size == SPI_GetNumTransfered()))
 183:ads1299_spi_adapt.c ****             {
 184:ads1299_spi_adapt.c ****                 status = TRANSFER_CMPLT;
 553              		.loc 1 184 0
 554 0062 4FF00008 		mov	r8, #0
 555              	.LVL53:
 556              	.L41:
 557              	.LBE71:
 185:ads1299_spi_adapt.c ****                 
 186:ads1299_spi_adapt.c ****             }
 187:ads1299_spi_adapt.c ****             else 
 188:ads1299_spi_adapt.c ****             {
 189:ads1299_spi_adapt.c ****                 HandleError();
 190:ads1299_spi_adapt.c ****             } 
 191:ads1299_spi_adapt.c ****         }
 192:ads1299_spi_adapt.c ****         
 193:ads1299_spi_adapt.c ****     } while (status != TRANSFER_CMPLT);
 558              		.loc 1 193 0
 559 0066 B8F1000F 		cmp	r8, #0
 560 006a D8D1     		bne	.L45
 194:ads1299_spi_adapt.c ****     
 195:ads1299_spi_adapt.c ****     return (status);
 196:ads1299_spi_adapt.c **** }
 561              		.loc 1 196 0
 562 006c 4046     		mov	r0, r8
 563 006e BD46     		mov	sp, r7
 564              		.cfi_def_cfa_register 13
 565              		@ sp needed
 566 0070 BDE8F087 		pop	{r4, r5, r6, r7, r8, r9, r10, pc}
 567              	.LVL54:
 568              	.L49:
 569              		.align	2
 570              	.L48:
 571 0074 00000000 		.word	SPI_context
 572 0078 00006340 		.word	1080229888
 573              		.cfi_endproc
 574              	.LFE546:
 575              		.size	spi_write_packet, .-spi_write_packet
 576              		.section	.text.spi_read_packet,"ax",%progbits
 577              		.align	2
 578              		.global	spi_read_packet
 579              		.thumb
 580              		.thumb_func
ARM GAS  C:\Users\dmr85\AppData\Local\Temp\ccbw5e1d.s 			page 39


 581              		.type	spi_read_packet, %function
 582              	spi_read_packet:
 583              	.LFB547:
 197:ads1299_spi_adapt.c **** 
 198:ads1299_spi_adapt.c **** 
 199:ads1299_spi_adapt.c **** uint32_t spi_read_packet(uint8_t data[], uint8_t packet_size)
 200:ads1299_spi_adapt.c **** {
 584              		.loc 1 200 0
 585              		.cfi_startproc
 586              		@ args = 0, pretend = 0, frame = 8
 587              		@ frame_needed = 0, uses_anonymous_args = 0
 588              	.LVL55:
 589 0000 2DE9F047 		push	{r4, r5, r6, r7, r8, r9, r10, lr}
 590              		.cfi_def_cfa_offset 32
 591              		.cfi_offset 4, -32
 592              		.cfi_offset 5, -28
 593              		.cfi_offset 6, -24
 594              		.cfi_offset 7, -20
 595              		.cfi_offset 8, -16
 596              		.cfi_offset 9, -12
 597              		.cfi_offset 10, -8
 598              		.cfi_offset 14, -4
 599 0004 84B0     		sub	sp, sp, #16
 600              		.cfi_def_cfa_offset 48
 601 0006 8146     		mov	r9, r0
 602 0008 8846     		mov	r8, r1
 603              	.LVL56:
 201:ads1299_spi_adapt.c ****     uint32_t status = TRANSFER_ERROR;
 604              		.loc 1 201 0
 605 000a 4FF0FF0A 		mov	r10, #255
 606              	.LVL57:
 607              	.L56:
 608              	.LBB76:
 202:ads1299_spi_adapt.c ****     
 203:ads1299_spi_adapt.c ****     /*printf("in_s ");
 204:ads1299_spi_adapt.c ****     for (int i = 0; i<packet_size; i++) {
 205:ads1299_spi_adapt.c ****         printf("%x ", data[i]);
 206:ads1299_spi_adapt.c ****     }
 207:ads1299_spi_adapt.c ****     printf("in_end ");*/
 208:ads1299_spi_adapt.c ****     
 209:ads1299_spi_adapt.c ****     do
 210:ads1299_spi_adapt.c ****     {
 211:ads1299_spi_adapt.c ****     	uint8_t count = -1;
 212:ads1299_spi_adapt.c ****         uint8_t tempVar = 0;
 609              		.loc 1 212 0
 610 000e 0023     		movs	r3, #0
 611 0010 8DF80E30 		strb	r3, [sp, #14]
 612              	.LVL58:
 213:ads1299_spi_adapt.c ****         uint32_t timeOutStatusCheck = 1000UL; /* Timeout 1 sec */
 613              		.loc 1 213 0
 614 0014 4FF47A76 		mov	r6, #1000
 211:ads1299_spi_adapt.c ****         uint8_t tempVar = 0;
 615              		.loc 1 211 0
 616 0018 FF27     		movs	r7, #255
 617              	.LVL59:
 618              	.L55:
 619              	.LBB77:
ARM GAS  C:\Users\dmr85\AppData\Local\Temp\ccbw5e1d.s 			page 40


 214:ads1299_spi_adapt.c ****         cy_en_scb_spi_status_t errorStatus;
 215:ads1299_spi_adapt.c ****         
 216:ads1299_spi_adapt.c ****         
 217:ads1299_spi_adapt.c ****         /* Initiate SPI Master write and read transaction. Master will send one byte and receives o
 218:ads1299_spi_adapt.c ****            Received byte is checked whether valid status byte is received. Till valid 5 bytes are r
 219:ads1299_spi_adapt.c ****            occurs, master will be sending dummy byte to slave. Valid bytes received is checked and 
 220:ads1299_spi_adapt.c ****         do
 221:ads1299_spi_adapt.c ****         {
 222:ads1299_spi_adapt.c ****             /*uint8_t tx_buf[packet_size];
 223:ads1299_spi_adapt.c ****             for (int i=0;i<packet_size;i++){
 224:ads1299_spi_adapt.c ****                 tx_buf[i] = 0xFF;
 225:ads1299_spi_adapt.c ****             }
 226:ads1299_spi_adapt.c ****             errorStatus = SPI_Transfer(tx_buf, data, packet_size);*/
 227:ads1299_spi_adapt.c ****             uint8_t tx = 0x00;
 620              		.loc 1 227 0
 621 001a 0023     		movs	r3, #0
 622 001c 8DF80F30 		strb	r3, [sp, #15]
 623              	.LVL60:
 624              	.LBB78:
 625              	.LBB79:
 448:Generated_Source\PSoC6/SPI.h **** }
 626              		.loc 2 448 0
 627 0020 234B     		ldr	r3, .L61
 628 0022 0093     		str	r3, [sp]
 629 0024 0123     		movs	r3, #1
 630 0026 0DF10E02 		add	r2, sp, #14
 631              	.LVL61:
 632 002a 0DF10F01 		add	r1, sp, #15
 633              	.LVL62:
 634 002e 2148     		ldr	r0, .L61+4
 635 0030 FFF7FEFF 		bl	Cy_SCB_SPI_Transfer
 636              	.LVL63:
 637              	.LBE79:
 638              	.LBE78:
 228:ads1299_spi_adapt.c ****             //SPI_Transfer(NULL, NULL, ONE_PACKET_SIZE);
 229:ads1299_spi_adapt.c ****             errorStatus = SPI_Transfer(&tx, &tempVar, ONE_PACKET_SIZE);
 230:ads1299_spi_adapt.c ****             
 231:ads1299_spi_adapt.c ****             if(errorStatus == CY_SCB_SPI_SUCCESS)
 639              		.loc 1 231 0
 640 0034 E0B9     		cbnz	r0, .L51
 641 0036 4FF47A74 		mov	r4, #1000
 642              	.L53:
 643              	.LVL64:
 644              	.LBB80:
 645              	.LBB81:
 646              	.LBB82:
 473:Generated_Source\PSoC6/SPI.h **** }
 647              		.loc 2 473 0 discriminator 2
 648 003a 1D49     		ldr	r1, .L61
 649 003c 1D48     		ldr	r0, .L61+4
 650 003e FFF7FEFF 		bl	Cy_SCB_SPI_GetTransferStatus
 651              	.LVL65:
 652 0042 0546     		mov	r5, r0
 653              	.LBE82:
 654              	.LBE81:
 232:ads1299_spi_adapt.c ****             {
 233:ads1299_spi_adapt.c ****                 uint32_t masterStatus;         
ARM GAS  C:\Users\dmr85\AppData\Local\Temp\ccbw5e1d.s 			page 41


 234:ads1299_spi_adapt.c ****                 // Timeout 1 sec
 235:ads1299_spi_adapt.c ****                 uint32_t timeOut = 1000UL;
 236:ads1299_spi_adapt.c ****                 
 237:ads1299_spi_adapt.c ****                 // Wait until master complete read transfer or time out has occured
 238:ads1299_spi_adapt.c ****                 do
 239:ads1299_spi_adapt.c ****                 {
 240:ads1299_spi_adapt.c ****                     masterStatus  = SPI_GetTransferStatus();
 241:ads1299_spi_adapt.c ****                     Cy_SysLib_Delay(CY_SCB_WAIT_1_UNIT);
 655              		.loc 1 241 0 discriminator 2
 656 0044 0120     		movs	r0, #1
 657 0046 FFF7FEFF 		bl	Cy_SysLib_Delay
 658              	.LVL66:
 242:ads1299_spi_adapt.c ****                     timeOut--;
 659              		.loc 1 242 0 discriminator 2
 660 004a 013C     		subs	r4, r4, #1
 661              	.LVL67:
 243:ads1299_spi_adapt.c ****                     
 244:ads1299_spi_adapt.c ****                 } while ((0UL != (masterStatus & CY_SCB_SPI_TRANSFER_ACTIVE)) && (timeOut > 0UL) );
 662              		.loc 1 244 0 discriminator 2
 663 004c 15F0010F 		tst	r5, #1
 664 0050 01D0     		beq	.L52
 665              		.loc 1 244 0 is_stmt 0 discriminator 1
 666 0052 002C     		cmp	r4, #0
 667 0054 F1D1     		bne	.L53
 668              	.L52:
 245:ads1299_spi_adapt.c ****                 
 246:ads1299_spi_adapt.c ****                 //if ((0UL == (MASTER_ERROR_MASK & masterStatus)) && (tempVar != 0xFF) )
 247:ads1299_spi_adapt.c ****                 if ((0UL == (MASTER_ERROR_MASK & masterStatus)))
 669              		.loc 1 247 0 is_stmt 1
 670 0056 15F4066F 		tst	r5, #2144
 671 005a 09D1     		bne	.L51
 248:ads1299_spi_adapt.c ****                 {  
 249:ads1299_spi_adapt.c ****                     /*if (count == 0){
 250:ads1299_spi_adapt.c ****                         printf("out_s ");
 251:ads1299_spi_adapt.c ****                     }
 252:ads1299_spi_adapt.c ****                     printf("%x ", tempVar);*/
 253:ads1299_spi_adapt.c ****                     data[count] = tempVar;
 672              		.loc 1 253 0
 673 005c 9DF80E30 		ldrb	r3, [sp, #14]	@ zero_extendqisi2
 674 0060 09F80730 		strb	r3, [r9, r7]
 254:ads1299_spi_adapt.c ****                     count += 1;
 675              		.loc 1 254 0
 676 0064 0137     		adds	r7, r7, #1
 677              	.LVL68:
 678 0066 FFB2     		uxtb	r7, r7
 679              	.LVL69:
 255:ads1299_spi_adapt.c ****              
 256:ads1299_spi_adapt.c ****                     if(count == packet_size)
 680              		.loc 1 256 0
 681 0068 4745     		cmp	r7, r8
 682 006a 01D1     		bne	.L51
 257:ads1299_spi_adapt.c ****                     {  
 258:ads1299_spi_adapt.c ****                         status = TRANSFER_CMPLT; 
 683              		.loc 1 258 0
 684 006c 4FF0000A 		mov	r10, #0
 685              	.LVL70:
 686              	.L51:
ARM GAS  C:\Users\dmr85\AppData\Local\Temp\ccbw5e1d.s 			page 42


 687              	.LBE80:
 259:ads1299_spi_adapt.c ****                         //UART_PutString(" got it ");
 260:ads1299_spi_adapt.c ****                     }
 261:ads1299_spi_adapt.c ****                 }
 262:ads1299_spi_adapt.c ****                 else 
 263:ads1299_spi_adapt.c ****                 {
 264:ads1299_spi_adapt.c ****                     HandleError();
 265:ads1299_spi_adapt.c ****                 }
 266:ads1299_spi_adapt.c ****             }     
 267:ads1299_spi_adapt.c ****             
 268:ads1299_spi_adapt.c ****             Cy_SysLib_Delay(CY_SCB_WAIT_1_UNIT);
 688              		.loc 1 268 0
 689 0070 0120     		movs	r0, #1
 690 0072 FFF7FEFF 		bl	Cy_SysLib_Delay
 691              	.LVL71:
 269:ads1299_spi_adapt.c ****             timeOutStatusCheck--;
 692              		.loc 1 269 0
 693 0076 013E     		subs	r6, r6, #1
 694              	.LVL72:
 695              	.LBE77:
 270:ads1299_spi_adapt.c ****             
 271:ads1299_spi_adapt.c ****         }while((count < packet_size) && (timeOutStatusCheck > 0));
 696              		.loc 1 271 0
 697 0078 4745     		cmp	r7, r8
 698 007a 01D2     		bcs	.L54
 699              		.loc 1 271 0 is_stmt 0 discriminator 1
 700 007c 002E     		cmp	r6, #0
 701 007e CCD1     		bne	.L55
 702              	.L54:
 703              	.LBE76:
 272:ads1299_spi_adapt.c ****         
 273:ads1299_spi_adapt.c ****         /*if(timeOutStatusCheck == (0UL))
 274:ads1299_spi_adapt.c ****         {
 275:ads1299_spi_adapt.c ****             HandleError();       
 276:ads1299_spi_adapt.c ****         }*/
 277:ads1299_spi_adapt.c ****     } while (status != TRANSFER_CMPLT);
 704              		.loc 1 277 0 is_stmt 1
 705 0080 BAF1000F 		cmp	r10, #0
 706 0084 C3D1     		bne	.L56
 278:ads1299_spi_adapt.c ****     
 279:ads1299_spi_adapt.c ****     printf("out_s ");
 707              		.loc 1 279 0
 708 0086 0C48     		ldr	r0, .L61+8
 709 0088 FFF7FEFF 		bl	printf
 710              	.LVL73:
 711              	.LBB83:
 280:ads1299_spi_adapt.c ****     for (int i = 0; i<packet_size; i++) {
 712              		.loc 1 280 0
 713 008c 0024     		movs	r4, #0
 714 008e 05E0     		b	.L57
 715              	.LVL74:
 716              	.L58:
 281:ads1299_spi_adapt.c ****         printf("%x ", data[i]);
 717              		.loc 1 281 0 discriminator 3
 718 0090 19F80410 		ldrb	r1, [r9, r4]	@ zero_extendqisi2
 719 0094 0948     		ldr	r0, .L61+12
 720 0096 FFF7FEFF 		bl	printf
ARM GAS  C:\Users\dmr85\AppData\Local\Temp\ccbw5e1d.s 			page 43


 721              	.LVL75:
 280:ads1299_spi_adapt.c ****     for (int i = 0; i<packet_size; i++) {
 722              		.loc 1 280 0 discriminator 3
 723 009a 0134     		adds	r4, r4, #1
 724              	.LVL76:
 725              	.L57:
 280:ads1299_spi_adapt.c ****     for (int i = 0; i<packet_size; i++) {
 726              		.loc 1 280 0 is_stmt 0 discriminator 1
 727 009c 4445     		cmp	r4, r8
 728 009e F7DB     		blt	.L58
 729              	.LBE83:
 282:ads1299_spi_adapt.c ****     }
 283:ads1299_spi_adapt.c ****     printf("out_end     ");
 730              		.loc 1 283 0 is_stmt 1
 731 00a0 0748     		ldr	r0, .L61+16
 732 00a2 FFF7FEFF 		bl	printf
 733              	.LVL77:
 284:ads1299_spi_adapt.c ****     
 285:ads1299_spi_adapt.c ****     return status;
 286:ads1299_spi_adapt.c **** }
 734              		.loc 1 286 0
 735 00a6 5046     		mov	r0, r10
 736 00a8 04B0     		add	sp, sp, #16
 737              		.cfi_def_cfa_offset 32
 738              		@ sp needed
 739 00aa BDE8F087 		pop	{r4, r5, r6, r7, r8, r9, r10, pc}
 740              	.LVL78:
 741              	.L62:
 742 00ae 00BF     		.align	2
 743              	.L61:
 744 00b0 00000000 		.word	SPI_context
 745 00b4 00006340 		.word	1080229888
 746 00b8 04000000 		.word	.LC1
 747 00bc 00000000 		.word	.LC0
 748 00c0 0C000000 		.word	.LC2
 749              		.cfi_endproc
 750              	.LFE547:
 751              		.size	spi_read_packet, .-spi_read_packet
 752              		.section	.text.HandleError,"ax",%progbits
 753              		.align	2
 754              		.global	HandleError
 755              		.thumb
 756              		.thumb_func
 757              		.type	HandleError, %function
 758              	HandleError:
 759              	.LFB548:
 287:ads1299_spi_adapt.c **** 
 288:ads1299_spi_adapt.c **** 
 289:ads1299_spi_adapt.c **** void HandleError(void)
 290:ads1299_spi_adapt.c **** {   
 760              		.loc 1 290 0
 761              		.cfi_startproc
 762              		@ args = 0, pretend = 0, frame = 0
 763              		@ frame_needed = 0, uses_anonymous_args = 0
 764              		@ link register save eliminated.
 765 0000 7047     		bx	lr
 766              		.cfi_endproc
ARM GAS  C:\Users\dmr85\AppData\Local\Temp\ccbw5e1d.s 			page 44


 767              	.LFE548:
 768              		.size	HandleError, .-HandleError
 769              		.global	spi
 770 0002 00BF     		.data
 771              		.type	spi, %object
 772              		.size	spi, 1
 773              	spi:
 774 0000 FF       		.byte	-1
 775              		.section	.rodata.str1.4,"aMS",%progbits,1
 776              		.align	2
 777              	.LC0:
 778 0000 25782000 		.ascii	"%x \000"
 779              	.LC1:
 780 0004 6F75745F 		.ascii	"out_s \000"
 780      732000
 781 000b 00       		.space	1
 782              	.LC2:
 783 000c 6F75745F 		.ascii	"out_end     \000"
 783      656E6420 
 783      20202020 
 783      00
 784              		.text
 785              	.Letext0:
 786              		.file 4 "c:\\program files (x86)\\cypress\\psoc creator\\4.2\\psoc creator\\import\\gnu\\arm\\5.4.
 787              		.file 5 "c:\\program files (x86)\\cypress\\psoc creator\\4.2\\psoc creator\\import\\gnu\\arm\\5.4.
 788              		.file 6 "Generated_Source\\PSoC6\\pdl\\devices/psoc6/include/ip/cyip_gpio.h"
 789              		.file 7 "Generated_Source\\PSoC6\\pdl\\devices/psoc6/include/ip/cyip_scb.h"
 790              		.file 8 "Generated_Source\\PSoC6\\pdl\\devices/psoc6/include/psoc6_01_config.h"
 791              		.file 9 "Generated_Source\\PSoC6\\pdl\\drivers/peripheral/device/cy_device.h"
 792              		.file 10 "Generated_Source\\PSoC6\\pdl\\drivers/peripheral/syslib/cy_syslib.h"
 793              		.file 11 "Generated_Source\\PSoC6\\pdl\\drivers/peripheral/scb/cy_scb_spi.h"
 794              		.file 12 "Generated_Source\\PSoC6\\pdl\\drivers/peripheral/scb/cy_scb_uart.h"
 795              		.file 13 "Generated_Source\\PSoC6\\pdl\\middleware/ble/cy_ble_stack.h"
 796              		.file 14 "Generated_Source\\PSoC6\\pdl\\middleware/ble/cy_ble_stack_host_main.h"
 797              		.file 15 "Generated_Source\\PSoC6\\pdl\\middleware/ble/cy_ble_gap.h"
 798              		.file 16 "Generated_Source\\PSoC6\\pdl\\cmsis/include/core_cm4.h"
 799              		.file 17 "Generated_Source\\PSoC6/UART.h"
 800              		.file 18 "c:\\program files (x86)\\cypress\\psoc creator\\4.2\\psoc creator\\import\\gnu\\arm\\5.4
 801              		.section	.debug_info,"",%progbits
 802              	.Ldebug_info0:
 803 0000 931A0000 		.4byte	0x1a93
 804 0004 0400     		.2byte	0x4
 805 0006 00000000 		.4byte	.Ldebug_abbrev0
 806 000a 04       		.byte	0x4
 807 000b 01       		.uleb128 0x1
 808 000c 2A050000 		.4byte	.LASF416
 809 0010 0C       		.byte	0xc
 810 0011 AA200000 		.4byte	.LASF417
 811 0015 910A0000 		.4byte	.LASF418
 812 0019 00000000 		.4byte	.Ldebug_ranges0+0
 813 001d 00000000 		.4byte	0
 814 0021 00000000 		.4byte	.Ldebug_line0
 815 0025 02       		.uleb128 0x2
 816 0026 02       		.byte	0x2
 817 0027 05       		.byte	0x5
 818 0028 22040000 		.4byte	.LASF0
 819 002c 02       		.uleb128 0x2
ARM GAS  C:\Users\dmr85\AppData\Local\Temp\ccbw5e1d.s 			page 45


 820 002d 01       		.byte	0x1
 821 002e 06       		.byte	0x6
 822 002f CB1E0000 		.4byte	.LASF1
 823 0033 03       		.uleb128 0x3
 824 0034 E5190000 		.4byte	.LASF3
 825 0038 04       		.byte	0x4
 826 0039 1D       		.byte	0x1d
 827 003a 3E000000 		.4byte	0x3e
 828 003e 02       		.uleb128 0x2
 829 003f 01       		.byte	0x1
 830 0040 08       		.byte	0x8
 831 0041 281C0000 		.4byte	.LASF2
 832 0045 03       		.uleb128 0x3
 833 0046 E4110000 		.4byte	.LASF4
 834 004a 04       		.byte	0x4
 835 004b 29       		.byte	0x29
 836 004c 25000000 		.4byte	0x25
 837 0050 03       		.uleb128 0x3
 838 0051 3B0D0000 		.4byte	.LASF5
 839 0055 04       		.byte	0x4
 840 0056 2B       		.byte	0x2b
 841 0057 5B000000 		.4byte	0x5b
 842 005b 02       		.uleb128 0x2
 843 005c 02       		.byte	0x2
 844 005d 07       		.byte	0x7
 845 005e 07150000 		.4byte	.LASF6
 846 0062 03       		.uleb128 0x3
 847 0063 43030000 		.4byte	.LASF7
 848 0067 04       		.byte	0x4
 849 0068 3F       		.byte	0x3f
 850 0069 6D000000 		.4byte	0x6d
 851 006d 02       		.uleb128 0x2
 852 006e 04       		.byte	0x4
 853 006f 05       		.byte	0x5
 854 0070 BE170000 		.4byte	.LASF8
 855 0074 03       		.uleb128 0x3
 856 0075 701C0000 		.4byte	.LASF9
 857 0079 04       		.byte	0x4
 858 007a 41       		.byte	0x41
 859 007b 7F000000 		.4byte	0x7f
 860 007f 02       		.uleb128 0x2
 861 0080 04       		.byte	0x4
 862 0081 07       		.byte	0x7
 863 0082 561B0000 		.4byte	.LASF10
 864 0086 02       		.uleb128 0x2
 865 0087 08       		.byte	0x8
 866 0088 05       		.byte	0x5
 867 0089 01110000 		.4byte	.LASF11
 868 008d 02       		.uleb128 0x2
 869 008e 08       		.byte	0x8
 870 008f 07       		.byte	0x7
 871 0090 D4080000 		.4byte	.LASF12
 872 0094 04       		.uleb128 0x4
 873 0095 04       		.byte	0x4
 874 0096 05       		.byte	0x5
 875 0097 696E7400 		.ascii	"int\000"
 876 009b 02       		.uleb128 0x2
ARM GAS  C:\Users\dmr85\AppData\Local\Temp\ccbw5e1d.s 			page 46


 877 009c 04       		.byte	0x4
 878 009d 07       		.byte	0x7
 879 009e 96020000 		.4byte	.LASF13
 880 00a2 03       		.uleb128 0x3
 881 00a3 940F0000 		.4byte	.LASF14
 882 00a7 05       		.byte	0x5
 883 00a8 18       		.byte	0x18
 884 00a9 33000000 		.4byte	0x33
 885 00ad 03       		.uleb128 0x3
 886 00ae 80080000 		.4byte	.LASF15
 887 00b2 05       		.byte	0x5
 888 00b3 20       		.byte	0x20
 889 00b4 45000000 		.4byte	0x45
 890 00b8 03       		.uleb128 0x3
 891 00b9 6A150000 		.4byte	.LASF16
 892 00bd 05       		.byte	0x5
 893 00be 24       		.byte	0x24
 894 00bf 50000000 		.4byte	0x50
 895 00c3 03       		.uleb128 0x3
 896 00c4 881B0000 		.4byte	.LASF17
 897 00c8 05       		.byte	0x5
 898 00c9 2C       		.byte	0x2c
 899 00ca 62000000 		.4byte	0x62
 900 00ce 03       		.uleb128 0x3
 901 00cf 27070000 		.4byte	.LASF18
 902 00d3 05       		.byte	0x5
 903 00d4 30       		.byte	0x30
 904 00d5 74000000 		.4byte	0x74
 905 00d9 02       		.uleb128 0x2
 906 00da 04       		.byte	0x4
 907 00db 07       		.byte	0x7
 908 00dc C1160000 		.4byte	.LASF19
 909 00e0 05       		.uleb128 0x5
 910 00e1 CE000000 		.4byte	0xce
 911 00e5 05       		.uleb128 0x5
 912 00e6 A2000000 		.4byte	0xa2
 913 00ea 06       		.uleb128 0x6
 914 00eb E0000000 		.4byte	0xe0
 915 00ef 07       		.uleb128 0x7
 916 00f0 EA000000 		.4byte	0xea
 917 00f4 FF000000 		.4byte	0xff
 918 00f8 08       		.uleb128 0x8
 919 00f9 D9000000 		.4byte	0xd9
 920 00fd 03       		.byte	0x3
 921 00fe 00       		.byte	0
 922 00ff 07       		.uleb128 0x7
 923 0100 EA000000 		.4byte	0xea
 924 0104 0F010000 		.4byte	0x10f
 925 0108 08       		.uleb128 0x8
 926 0109 D9000000 		.4byte	0xd9
 927 010d 05       		.byte	0x5
 928 010e 00       		.byte	0
 929 010f 07       		.uleb128 0x7
 930 0110 EA000000 		.4byte	0xea
 931 0114 1F010000 		.4byte	0x11f
 932 0118 08       		.uleb128 0x8
 933 0119 D9000000 		.4byte	0xd9
ARM GAS  C:\Users\dmr85\AppData\Local\Temp\ccbw5e1d.s 			page 47


 934 011d 7F       		.byte	0x7f
 935 011e 00       		.byte	0
 936 011f 07       		.uleb128 0x7
 937 0120 EA000000 		.4byte	0xea
 938 0124 2F010000 		.4byte	0x12f
 939 0128 08       		.uleb128 0x8
 940 0129 D9000000 		.4byte	0xd9
 941 012d 0C       		.byte	0xc
 942 012e 00       		.byte	0
 943 012f 07       		.uleb128 0x7
 944 0130 EA000000 		.4byte	0xea
 945 0134 3F010000 		.4byte	0x13f
 946 0138 08       		.uleb128 0x8
 947 0139 D9000000 		.4byte	0xd9
 948 013d 0F       		.byte	0xf
 949 013e 00       		.byte	0
 950 013f 07       		.uleb128 0x7
 951 0140 EA000000 		.4byte	0xea
 952 0144 4F010000 		.4byte	0x14f
 953 0148 08       		.uleb128 0x8
 954 0149 D9000000 		.4byte	0xd9
 955 014d 1E       		.byte	0x1e
 956 014e 00       		.byte	0
 957 014f 07       		.uleb128 0x7
 958 0150 EA000000 		.4byte	0xea
 959 0154 5F010000 		.4byte	0x15f
 960 0158 08       		.uleb128 0x8
 961 0159 D9000000 		.4byte	0xd9
 962 015d 02       		.byte	0x2
 963 015e 00       		.byte	0
 964 015f 07       		.uleb128 0x7
 965 0160 EA000000 		.4byte	0xea
 966 0164 6F010000 		.4byte	0x16f
 967 0168 08       		.uleb128 0x8
 968 0169 D9000000 		.4byte	0xd9
 969 016d 0B       		.byte	0xb
 970 016e 00       		.byte	0
 971 016f 09       		.uleb128 0x9
 972 0170 80       		.byte	0x80
 973 0171 06       		.byte	0x6
 974 0172 22       		.byte	0x22
 975 0173 43020000 		.4byte	0x243
 976 0177 0A       		.uleb128 0xa
 977 0178 4F555400 		.ascii	"OUT\000"
 978 017c 06       		.byte	0x6
 979 017d 23       		.byte	0x23
 980 017e E0000000 		.4byte	0xe0
 981 0182 00       		.byte	0
 982 0183 0B       		.uleb128 0xb
 983 0184 78080000 		.4byte	.LASF20
 984 0188 06       		.byte	0x6
 985 0189 24       		.byte	0x24
 986 018a E0000000 		.4byte	0xe0
 987 018e 04       		.byte	0x4
 988 018f 0B       		.uleb128 0xb
 989 0190 450B0000 		.4byte	.LASF21
 990 0194 06       		.byte	0x6
ARM GAS  C:\Users\dmr85\AppData\Local\Temp\ccbw5e1d.s 			page 48


 991 0195 25       		.byte	0x25
 992 0196 E0000000 		.4byte	0xe0
 993 019a 08       		.byte	0x8
 994 019b 0B       		.uleb128 0xb
 995 019c C8190000 		.4byte	.LASF22
 996 01a0 06       		.byte	0x6
 997 01a1 26       		.byte	0x26
 998 01a2 E0000000 		.4byte	0xe0
 999 01a6 0C       		.byte	0xc
 1000 01a7 0A       		.uleb128 0xa
 1001 01a8 494E00   		.ascii	"IN\000"
 1002 01ab 06       		.byte	0x6
 1003 01ac 27       		.byte	0x27
 1004 01ad EA000000 		.4byte	0xea
 1005 01b1 10       		.byte	0x10
 1006 01b2 0B       		.uleb128 0xb
 1007 01b3 82120000 		.4byte	.LASF23
 1008 01b7 06       		.byte	0x6
 1009 01b8 28       		.byte	0x28
 1010 01b9 E0000000 		.4byte	0xe0
 1011 01bd 14       		.byte	0x14
 1012 01be 0B       		.uleb128 0xb
 1013 01bf 460D0000 		.4byte	.LASF24
 1014 01c3 06       		.byte	0x6
 1015 01c4 29       		.byte	0x29
 1016 01c5 E0000000 		.4byte	0xe0
 1017 01c9 18       		.byte	0x18
 1018 01ca 0B       		.uleb128 0xb
 1019 01cb DF1A0000 		.4byte	.LASF25
 1020 01cf 06       		.byte	0x6
 1021 01d0 2A       		.byte	0x2a
 1022 01d1 EA000000 		.4byte	0xea
 1023 01d5 1C       		.byte	0x1c
 1024 01d6 0B       		.uleb128 0xb
 1025 01d7 76040000 		.4byte	.LASF26
 1026 01db 06       		.byte	0x6
 1027 01dc 2B       		.byte	0x2b
 1028 01dd E0000000 		.4byte	0xe0
 1029 01e1 20       		.byte	0x20
 1030 01e2 0B       		.uleb128 0xb
 1031 01e3 991C0000 		.4byte	.LASF27
 1032 01e7 06       		.byte	0x6
 1033 01e8 2C       		.byte	0x2c
 1034 01e9 E0000000 		.4byte	0xe0
 1035 01ed 24       		.byte	0x24
 1036 01ee 0A       		.uleb128 0xa
 1037 01ef 43464700 		.ascii	"CFG\000"
 1038 01f3 06       		.byte	0x6
 1039 01f4 2D       		.byte	0x2d
 1040 01f5 E0000000 		.4byte	0xe0
 1041 01f9 28       		.byte	0x28
 1042 01fa 0B       		.uleb128 0xb
 1043 01fb AE060000 		.4byte	.LASF28
 1044 01ff 06       		.byte	0x6
 1045 0200 2E       		.byte	0x2e
 1046 0201 E0000000 		.4byte	0xe0
 1047 0205 2C       		.byte	0x2c
ARM GAS  C:\Users\dmr85\AppData\Local\Temp\ccbw5e1d.s 			page 49


 1048 0206 0B       		.uleb128 0xb
 1049 0207 7A0A0000 		.4byte	.LASF29
 1050 020b 06       		.byte	0x6
 1051 020c 2F       		.byte	0x2f
 1052 020d E0000000 		.4byte	0xe0
 1053 0211 30       		.byte	0x30
 1054 0212 0B       		.uleb128 0xb
 1055 0213 2E030000 		.4byte	.LASF30
 1056 0217 06       		.byte	0x6
 1057 0218 30       		.byte	0x30
 1058 0219 E0000000 		.4byte	0xe0
 1059 021d 34       		.byte	0x34
 1060 021e 0B       		.uleb128 0xb
 1061 021f 25000000 		.4byte	.LASF31
 1062 0223 06       		.byte	0x6
 1063 0224 31       		.byte	0x31
 1064 0225 EA000000 		.4byte	0xea
 1065 0229 38       		.byte	0x38
 1066 022a 0B       		.uleb128 0xb
 1067 022b 7B090000 		.4byte	.LASF32
 1068 022f 06       		.byte	0x6
 1069 0230 32       		.byte	0x32
 1070 0231 E0000000 		.4byte	0xe0
 1071 0235 3C       		.byte	0x3c
 1072 0236 0B       		.uleb128 0xb
 1073 0237 DC1F0000 		.4byte	.LASF33
 1074 023b 06       		.byte	0x6
 1075 023c 33       		.byte	0x33
 1076 023d 48020000 		.4byte	0x248
 1077 0241 40       		.byte	0x40
 1078 0242 00       		.byte	0
 1079 0243 05       		.uleb128 0x5
 1080 0244 2F010000 		.4byte	0x12f
 1081 0248 06       		.uleb128 0x6
 1082 0249 43020000 		.4byte	0x243
 1083 024d 03       		.uleb128 0x3
 1084 024e 8A180000 		.4byte	.LASF34
 1085 0252 06       		.byte	0x6
 1086 0253 34       		.byte	0x34
 1087 0254 6F010000 		.4byte	0x16f
 1088 0258 0C       		.uleb128 0xc
 1089 0259 2440     		.2byte	0x4024
 1090 025b 06       		.byte	0x6
 1091 025c 39       		.byte	0x39
 1092 025d E3020000 		.4byte	0x2e3
 1093 0261 0A       		.uleb128 0xa
 1094 0262 50525400 		.ascii	"PRT\000"
 1095 0266 06       		.byte	0x6
 1096 0267 3A       		.byte	0x3a
 1097 0268 E3020000 		.4byte	0x2e3
 1098 026c 00       		.byte	0
 1099 026d 0D       		.uleb128 0xd
 1100 026e 39000000 		.4byte	.LASF35
 1101 0272 06       		.byte	0x6
 1102 0273 3B       		.byte	0x3b
 1103 0274 EA000000 		.4byte	0xea
 1104 0278 0040     		.2byte	0x4000
ARM GAS  C:\Users\dmr85\AppData\Local\Temp\ccbw5e1d.s 			page 50


 1105 027a 0D       		.uleb128 0xd
 1106 027b 45000000 		.4byte	.LASF36
 1107 027f 06       		.byte	0x6
 1108 0280 3C       		.byte	0x3c
 1109 0281 EA000000 		.4byte	0xea
 1110 0285 0440     		.2byte	0x4004
 1111 0287 0D       		.uleb128 0xd
 1112 0288 EA0F0000 		.4byte	.LASF37
 1113 028c 06       		.byte	0x6
 1114 028d 3D       		.byte	0x3d
 1115 028e EA000000 		.4byte	0xea
 1116 0292 0840     		.2byte	0x4008
 1117 0294 0D       		.uleb128 0xd
 1118 0295 F60F0000 		.4byte	.LASF38
 1119 0299 06       		.byte	0x6
 1120 029a 3E       		.byte	0x3e
 1121 029b EA000000 		.4byte	0xea
 1122 029f 0C40     		.2byte	0x400c
 1123 02a1 0D       		.uleb128 0xd
 1124 02a2 2E000000 		.4byte	.LASF39
 1125 02a6 06       		.byte	0x6
 1126 02a7 3F       		.byte	0x3f
 1127 02a8 EA000000 		.4byte	0xea
 1128 02ac 1040     		.2byte	0x4010
 1129 02ae 0D       		.uleb128 0xd
 1130 02af 000C0000 		.4byte	.LASF40
 1131 02b3 06       		.byte	0x6
 1132 02b4 40       		.byte	0x40
 1133 02b5 E0000000 		.4byte	0xe0
 1134 02b9 1440     		.2byte	0x4014
 1135 02bb 0D       		.uleb128 0xd
 1136 02bc AE1E0000 		.4byte	.LASF41
 1137 02c0 06       		.byte	0x6
 1138 02c1 41       		.byte	0x41
 1139 02c2 E0000000 		.4byte	0xe0
 1140 02c6 1840     		.2byte	0x4018
 1141 02c8 0D       		.uleb128 0xd
 1142 02c9 AA140000 		.4byte	.LASF42
 1143 02cd 06       		.byte	0x6
 1144 02ce 42       		.byte	0x42
 1145 02cf EA000000 		.4byte	0xea
 1146 02d3 1C40     		.2byte	0x401c
 1147 02d5 0D       		.uleb128 0xd
 1148 02d6 8D150000 		.4byte	.LASF43
 1149 02da 06       		.byte	0x6
 1150 02db 43       		.byte	0x43
 1151 02dc E0000000 		.4byte	0xe0
 1152 02e0 2040     		.2byte	0x4020
 1153 02e2 00       		.byte	0
 1154 02e3 07       		.uleb128 0x7
 1155 02e4 4D020000 		.4byte	0x24d
 1156 02e8 F3020000 		.4byte	0x2f3
 1157 02ec 08       		.uleb128 0x8
 1158 02ed D9000000 		.4byte	0xd9
 1159 02f1 7F       		.byte	0x7f
 1160 02f2 00       		.byte	0
 1161 02f3 03       		.uleb128 0x3
ARM GAS  C:\Users\dmr85\AppData\Local\Temp\ccbw5e1d.s 			page 51


 1162 02f4 5E070000 		.4byte	.LASF44
 1163 02f8 06       		.byte	0x6
 1164 02f9 44       		.byte	0x44
 1165 02fa 58020000 		.4byte	0x258
 1166 02fe 07       		.uleb128 0x7
 1167 02ff EA000000 		.4byte	0xea
 1168 0303 0E030000 		.4byte	0x30e
 1169 0307 08       		.uleb128 0x8
 1170 0308 D9000000 		.4byte	0xd9
 1171 030c 0A       		.byte	0xa
 1172 030d 00       		.byte	0
 1173 030e 07       		.uleb128 0x7
 1174 030f EA000000 		.4byte	0xea
 1175 0313 1E030000 		.4byte	0x31e
 1176 0317 08       		.uleb128 0x8
 1177 0318 D9000000 		.4byte	0xd9
 1178 031c 2E       		.byte	0x2e
 1179 031d 00       		.byte	0
 1180 031e 07       		.uleb128 0x7
 1181 031f EA000000 		.4byte	0xea
 1182 0323 2E030000 		.4byte	0x32e
 1183 0327 08       		.uleb128 0x8
 1184 0328 D9000000 		.4byte	0xd9
 1185 032c 2D       		.byte	0x2d
 1186 032d 00       		.byte	0
 1187 032e 07       		.uleb128 0x7
 1188 032f E0000000 		.4byte	0xe0
 1189 0333 3F030000 		.4byte	0x33f
 1190 0337 0E       		.uleb128 0xe
 1191 0338 D9000000 		.4byte	0xd9
 1192 033c FF01     		.2byte	0x1ff
 1193 033e 00       		.byte	0
 1194 033f 07       		.uleb128 0x7
 1195 0340 EA000000 		.4byte	0xea
 1196 0344 4F030000 		.4byte	0x34f
 1197 0348 08       		.uleb128 0x8
 1198 0349 D9000000 		.4byte	0xd9
 1199 034d 62       		.byte	0x62
 1200 034e 00       		.byte	0
 1201 034f 0C       		.uleb128 0xc
 1202 0350 D00F     		.2byte	0xfd0
 1203 0352 07       		.byte	0x7
 1204 0353 21       		.byte	0x21
 1205 0354 B9060000 		.4byte	0x6b9
 1206 0358 0B       		.uleb128 0xb
 1207 0359 54210000 		.4byte	.LASF45
 1208 035d 07       		.byte	0x7
 1209 035e 22       		.byte	0x22
 1210 035f E0000000 		.4byte	0xe0
 1211 0363 00       		.byte	0
 1212 0364 0B       		.uleb128 0xb
 1213 0365 F51F0000 		.4byte	.LASF46
 1214 0369 07       		.byte	0x7
 1215 036a 23       		.byte	0x23
 1216 036b EA000000 		.4byte	0xea
 1217 036f 04       		.byte	0x4
 1218 0370 0B       		.uleb128 0xb
ARM GAS  C:\Users\dmr85\AppData\Local\Temp\ccbw5e1d.s 			page 52


 1219 0371 5F1F0000 		.4byte	.LASF47
 1220 0375 07       		.byte	0x7
 1221 0376 24       		.byte	0x24
 1222 0377 E0000000 		.4byte	0xe0
 1223 037b 08       		.byte	0x8
 1224 037c 0B       		.uleb128 0xb
 1225 037d C0010000 		.4byte	.LASF48
 1226 0381 07       		.byte	0x7
 1227 0382 25       		.byte	0x25
 1228 0383 EA000000 		.4byte	0xea
 1229 0387 0C       		.byte	0xc
 1230 0388 0B       		.uleb128 0xb
 1231 0389 25000000 		.4byte	.LASF31
 1232 038d 07       		.byte	0x7
 1233 038e 26       		.byte	0x26
 1234 038f BE060000 		.4byte	0x6be
 1235 0393 10       		.byte	0x10
 1236 0394 0B       		.uleb128 0xb
 1237 0395 2E1A0000 		.4byte	.LASF49
 1238 0399 07       		.byte	0x7
 1239 039a 27       		.byte	0x27
 1240 039b E0000000 		.4byte	0xe0
 1241 039f 20       		.byte	0x20
 1242 03a0 0B       		.uleb128 0xb
 1243 03a1 F31B0000 		.4byte	.LASF50
 1244 03a5 07       		.byte	0x7
 1245 03a6 28       		.byte	0x28
 1246 03a7 EA000000 		.4byte	0xea
 1247 03ab 24       		.byte	0x24
 1248 03ac 0B       		.uleb128 0xb
 1249 03ad DC1F0000 		.4byte	.LASF33
 1250 03b1 07       		.byte	0x7
 1251 03b2 29       		.byte	0x29
 1252 03b3 C8060000 		.4byte	0x6c8
 1253 03b7 28       		.byte	0x28
 1254 03b8 0B       		.uleb128 0xb
 1255 03b9 E21E0000 		.4byte	.LASF51
 1256 03bd 07       		.byte	0x7
 1257 03be 2A       		.byte	0x2a
 1258 03bf E0000000 		.4byte	0xe0
 1259 03c3 40       		.byte	0x40
 1260 03c4 0B       		.uleb128 0xb
 1261 03c5 510A0000 		.4byte	.LASF52
 1262 03c9 07       		.byte	0x7
 1263 03ca 2B       		.byte	0x2b
 1264 03cb E0000000 		.4byte	0xe0
 1265 03cf 44       		.byte	0x44
 1266 03d0 0B       		.uleb128 0xb
 1267 03d1 04060000 		.4byte	.LASF53
 1268 03d5 07       		.byte	0x7
 1269 03d6 2C       		.byte	0x2c
 1270 03d7 E0000000 		.4byte	0xe0
 1271 03db 48       		.byte	0x48
 1272 03dc 0B       		.uleb128 0xb
 1273 03dd F1180000 		.4byte	.LASF54
 1274 03e1 07       		.byte	0x7
 1275 03e2 2D       		.byte	0x2d
ARM GAS  C:\Users\dmr85\AppData\Local\Temp\ccbw5e1d.s 			page 53


 1276 03e3 EA000000 		.4byte	0xea
 1277 03e7 4C       		.byte	0x4c
 1278 03e8 0B       		.uleb128 0xb
 1279 03e9 EE110000 		.4byte	.LASF55
 1280 03ed 07       		.byte	0x7
 1281 03ee 2E       		.byte	0x2e
 1282 03ef E0000000 		.4byte	0xe0
 1283 03f3 50       		.byte	0x50
 1284 03f4 0B       		.uleb128 0xb
 1285 03f5 33170000 		.4byte	.LASF56
 1286 03f9 07       		.byte	0x7
 1287 03fa 2F       		.byte	0x2f
 1288 03fb D2060000 		.4byte	0x6d2
 1289 03ff 54       		.byte	0x54
 1290 0400 0B       		.uleb128 0xb
 1291 0401 401B0000 		.4byte	.LASF57
 1292 0405 07       		.byte	0x7
 1293 0406 30       		.byte	0x30
 1294 0407 E0000000 		.4byte	0xe0
 1295 040b 60       		.byte	0x60
 1296 040c 0B       		.uleb128 0xb
 1297 040d E1170000 		.4byte	.LASF58
 1298 0411 07       		.byte	0x7
 1299 0412 31       		.byte	0x31
 1300 0413 EA000000 		.4byte	0xea
 1301 0417 64       		.byte	0x64
 1302 0418 0B       		.uleb128 0xb
 1303 0419 FC190000 		.4byte	.LASF59
 1304 041d 07       		.byte	0x7
 1305 041e 32       		.byte	0x32
 1306 041f E0000000 		.4byte	0xe0
 1307 0423 68       		.byte	0x68
 1308 0424 0B       		.uleb128 0xb
 1309 0425 ED160000 		.4byte	.LASF60
 1310 0429 07       		.byte	0x7
 1311 042a 33       		.byte	0x33
 1312 042b E0000000 		.4byte	0xe0
 1313 042f 6C       		.byte	0x6c
 1314 0430 0B       		.uleb128 0xb
 1315 0431 D4060000 		.4byte	.LASF61
 1316 0435 07       		.byte	0x7
 1317 0436 34       		.byte	0x34
 1318 0437 E0000000 		.4byte	0xe0
 1319 043b 70       		.byte	0x70
 1320 043c 0B       		.uleb128 0xb
 1321 043d 3D170000 		.4byte	.LASF62
 1322 0441 07       		.byte	0x7
 1323 0442 35       		.byte	0x35
 1324 0443 DC060000 		.4byte	0x6dc
 1325 0447 74       		.byte	0x74
 1326 0448 0D       		.uleb128 0xd
 1327 0449 050A0000 		.4byte	.LASF63
 1328 044d 07       		.byte	0x7
 1329 044e 36       		.byte	0x36
 1330 044f E0000000 		.4byte	0xe0
 1331 0453 0002     		.2byte	0x200
 1332 0455 0D       		.uleb128 0xd
ARM GAS  C:\Users\dmr85\AppData\Local\Temp\ccbw5e1d.s 			page 54


 1333 0456 EF190000 		.4byte	.LASF64
 1334 045a 07       		.byte	0x7
 1335 045b 37       		.byte	0x37
 1336 045c E0000000 		.4byte	0xe0
 1337 0460 0402     		.2byte	0x204
 1338 0462 0D       		.uleb128 0xd
 1339 0463 47020000 		.4byte	.LASF65
 1340 0467 07       		.byte	0x7
 1341 0468 38       		.byte	0x38
 1342 0469 EA000000 		.4byte	0xea
 1343 046d 0802     		.2byte	0x208
 1344 046f 0D       		.uleb128 0xd
 1345 0470 47170000 		.4byte	.LASF66
 1346 0474 07       		.byte	0x7
 1347 0475 39       		.byte	0x39
 1348 0476 E6060000 		.4byte	0x6e6
 1349 047a 0C02     		.2byte	0x20c
 1350 047c 0D       		.uleb128 0xd
 1351 047d B21D0000 		.4byte	.LASF67
 1352 0481 07       		.byte	0x7
 1353 0482 3A       		.byte	0x3a
 1354 0483 E0000000 		.4byte	0xe0
 1355 0487 4002     		.2byte	0x240
 1356 0489 0D       		.uleb128 0xd
 1357 048a 51170000 		.4byte	.LASF68
 1358 048e 07       		.byte	0x7
 1359 048f 3B       		.byte	0x3b
 1360 0490 F0060000 		.4byte	0x6f0
 1361 0494 4402     		.2byte	0x244
 1362 0496 0D       		.uleb128 0xd
 1363 0497 EB1A0000 		.4byte	.LASF69
 1364 049b 07       		.byte	0x7
 1365 049c 3C       		.byte	0x3c
 1366 049d E0000000 		.4byte	0xe0
 1367 04a1 0003     		.2byte	0x300
 1368 04a3 0D       		.uleb128 0xd
 1369 04a4 36030000 		.4byte	.LASF70
 1370 04a8 07       		.byte	0x7
 1371 04a9 3D       		.byte	0x3d
 1372 04aa E0000000 		.4byte	0xe0
 1373 04ae 0403     		.2byte	0x304
 1374 04b0 0D       		.uleb128 0xd
 1375 04b1 891D0000 		.4byte	.LASF71
 1376 04b5 07       		.byte	0x7
 1377 04b6 3E       		.byte	0x3e
 1378 04b7 EA000000 		.4byte	0xea
 1379 04bb 0803     		.2byte	0x308
 1380 04bd 0D       		.uleb128 0xd
 1381 04be 5B170000 		.4byte	.LASF72
 1382 04c2 07       		.byte	0x7
 1383 04c3 3F       		.byte	0x3f
 1384 04c4 EA000000 		.4byte	0xea
 1385 04c8 0C03     		.2byte	0x30c
 1386 04ca 0D       		.uleb128 0xd
 1387 04cb B20B0000 		.4byte	.LASF73
 1388 04cf 07       		.byte	0x7
 1389 04d0 40       		.byte	0x40
ARM GAS  C:\Users\dmr85\AppData\Local\Temp\ccbw5e1d.s 			page 55


 1390 04d1 E0000000 		.4byte	0xe0
 1391 04d5 1003     		.2byte	0x310
 1392 04d7 0D       		.uleb128 0xd
 1393 04d8 65170000 		.4byte	.LASF74
 1394 04dc 07       		.byte	0x7
 1395 04dd 41       		.byte	0x41
 1396 04de FA060000 		.4byte	0x6fa
 1397 04e2 1403     		.2byte	0x314
 1398 04e4 0D       		.uleb128 0xd
 1399 04e5 C5100000 		.4byte	.LASF75
 1400 04e9 07       		.byte	0x7
 1401 04ea 42       		.byte	0x42
 1402 04eb EA000000 		.4byte	0xea
 1403 04ef 4003     		.2byte	0x340
 1404 04f1 0D       		.uleb128 0xd
 1405 04f2 F6060000 		.4byte	.LASF76
 1406 04f6 07       		.byte	0x7
 1407 04f7 43       		.byte	0x43
 1408 04f8 EA000000 		.4byte	0xea
 1409 04fc 4403     		.2byte	0x344
 1410 04fe 0D       		.uleb128 0xd
 1411 04ff 6F170000 		.4byte	.LASF77
 1412 0503 07       		.byte	0x7
 1413 0504 44       		.byte	0x44
 1414 0505 04070000 		.4byte	0x704
 1415 0509 4803     		.2byte	0x348
 1416 050b 0D       		.uleb128 0xd
 1417 050c DD200000 		.4byte	.LASF78
 1418 0510 07       		.byte	0x7
 1419 0511 45       		.byte	0x45
 1420 0512 09070000 		.4byte	0x709
 1421 0516 0004     		.2byte	0x400
 1422 0518 0D       		.uleb128 0xd
 1423 0519 79170000 		.4byte	.LASF79
 1424 051d 07       		.byte	0x7
 1425 051e 46       		.byte	0x46
 1426 051f 13070000 		.4byte	0x713
 1427 0523 000C     		.2byte	0xc00
 1428 0525 0D       		.uleb128 0xd
 1429 0526 F6020000 		.4byte	.LASF80
 1430 052a 07       		.byte	0x7
 1431 052b 47       		.byte	0x47
 1432 052c EA000000 		.4byte	0xea
 1433 0530 000E     		.2byte	0xe00
 1434 0532 0D       		.uleb128 0xd
 1435 0533 311D0000 		.4byte	.LASF81
 1436 0537 07       		.byte	0x7
 1437 0538 48       		.byte	0x48
 1438 0539 1D070000 		.4byte	0x71d
 1439 053d 040E     		.2byte	0xe04
 1440 053f 0D       		.uleb128 0xd
 1441 0540 520C0000 		.4byte	.LASF82
 1442 0544 07       		.byte	0x7
 1443 0545 49       		.byte	0x49
 1444 0546 E0000000 		.4byte	0xe0
 1445 054a 800E     		.2byte	0xe80
 1446 054c 0D       		.uleb128 0xd
ARM GAS  C:\Users\dmr85\AppData\Local\Temp\ccbw5e1d.s 			page 56


 1447 054d 3C1D0000 		.4byte	.LASF83
 1448 0551 07       		.byte	0x7
 1449 0552 4A       		.byte	0x4a
 1450 0553 EA000000 		.4byte	0xea
 1451 0557 840E     		.2byte	0xe84
 1452 0559 0D       		.uleb128 0xd
 1453 055a 73150000 		.4byte	.LASF84
 1454 055e 07       		.byte	0x7
 1455 055f 4B       		.byte	0x4b
 1456 0560 E0000000 		.4byte	0xe0
 1457 0564 880E     		.2byte	0xe88
 1458 0566 0D       		.uleb128 0xd
 1459 0567 B00E0000 		.4byte	.LASF85
 1460 056b 07       		.byte	0x7
 1461 056c 4C       		.byte	0x4c
 1462 056d EA000000 		.4byte	0xea
 1463 0571 8C0E     		.2byte	0xe8c
 1464 0573 0D       		.uleb128 0xd
 1465 0574 471D0000 		.4byte	.LASF86
 1466 0578 07       		.byte	0x7
 1467 0579 4D       		.byte	0x4d
 1468 057a 27070000 		.4byte	0x727
 1469 057e 900E     		.2byte	0xe90
 1470 0580 0D       		.uleb128 0xd
 1471 0581 7A0B0000 		.4byte	.LASF87
 1472 0585 07       		.byte	0x7
 1473 0586 4E       		.byte	0x4e
 1474 0587 E0000000 		.4byte	0xe0
 1475 058b C00E     		.2byte	0xec0
 1476 058d 0D       		.uleb128 0xd
 1477 058e 521D0000 		.4byte	.LASF88
 1478 0592 07       		.byte	0x7
 1479 0593 4F       		.byte	0x4f
 1480 0594 EA000000 		.4byte	0xea
 1481 0598 C40E     		.2byte	0xec4
 1482 059a 0D       		.uleb128 0xd
 1483 059b 05160000 		.4byte	.LASF89
 1484 059f 07       		.byte	0x7
 1485 05a0 50       		.byte	0x50
 1486 05a1 E0000000 		.4byte	0xe0
 1487 05a5 C80E     		.2byte	0xec8
 1488 05a7 0D       		.uleb128 0xd
 1489 05a8 061A0000 		.4byte	.LASF90
 1490 05ac 07       		.byte	0x7
 1491 05ad 51       		.byte	0x51
 1492 05ae EA000000 		.4byte	0xea
 1493 05b2 CC0E     		.2byte	0xecc
 1494 05b4 0D       		.uleb128 0xd
 1495 05b5 5D1D0000 		.4byte	.LASF91
 1496 05b9 07       		.byte	0x7
 1497 05ba 52       		.byte	0x52
 1498 05bb 31070000 		.4byte	0x731
 1499 05bf D00E     		.2byte	0xed0
 1500 05c1 0D       		.uleb128 0xd
 1501 05c2 681B0000 		.4byte	.LASF92
 1502 05c6 07       		.byte	0x7
 1503 05c7 53       		.byte	0x53
ARM GAS  C:\Users\dmr85\AppData\Local\Temp\ccbw5e1d.s 			page 57


 1504 05c8 E0000000 		.4byte	0xe0
 1505 05cc 000F     		.2byte	0xf00
 1506 05ce 0D       		.uleb128 0xd
 1507 05cf 53070000 		.4byte	.LASF93
 1508 05d3 07       		.byte	0x7
 1509 05d4 54       		.byte	0x54
 1510 05d5 E0000000 		.4byte	0xe0
 1511 05d9 040F     		.2byte	0xf04
 1512 05db 0D       		.uleb128 0xd
 1513 05dc B41B0000 		.4byte	.LASF94
 1514 05e0 07       		.byte	0x7
 1515 05e1 55       		.byte	0x55
 1516 05e2 E0000000 		.4byte	0xe0
 1517 05e6 080F     		.2byte	0xf08
 1518 05e8 0D       		.uleb128 0xd
 1519 05e9 12080000 		.4byte	.LASF95
 1520 05ed 07       		.byte	0x7
 1521 05ee 56       		.byte	0x56
 1522 05ef EA000000 		.4byte	0xea
 1523 05f3 0C0F     		.2byte	0xf0c
 1524 05f5 0D       		.uleb128 0xd
 1525 05f6 681D0000 		.4byte	.LASF96
 1526 05fa 07       		.byte	0x7
 1527 05fb 57       		.byte	0x57
 1528 05fc 3B070000 		.4byte	0x73b
 1529 0600 100F     		.2byte	0xf10
 1530 0602 0D       		.uleb128 0xd
 1531 0603 811B0000 		.4byte	.LASF97
 1532 0607 07       		.byte	0x7
 1533 0608 58       		.byte	0x58
 1534 0609 E0000000 		.4byte	0xe0
 1535 060d 400F     		.2byte	0xf40
 1536 060f 0D       		.uleb128 0xd
 1537 0610 BD030000 		.4byte	.LASF98
 1538 0614 07       		.byte	0x7
 1539 0615 59       		.byte	0x59
 1540 0616 E0000000 		.4byte	0xe0
 1541 061a 440F     		.2byte	0xf44
 1542 061c 0D       		.uleb128 0xd
 1543 061d 850E0000 		.4byte	.LASF99
 1544 0621 07       		.byte	0x7
 1545 0622 5A       		.byte	0x5a
 1546 0623 E0000000 		.4byte	0xe0
 1547 0627 480F     		.2byte	0xf48
 1548 0629 0D       		.uleb128 0xd
 1549 062a 9D0C0000 		.4byte	.LASF100
 1550 062e 07       		.byte	0x7
 1551 062f 5B       		.byte	0x5b
 1552 0630 EA000000 		.4byte	0xea
 1553 0634 4C0F     		.2byte	0xf4c
 1554 0636 0D       		.uleb128 0xd
 1555 0637 731D0000 		.4byte	.LASF101
 1556 063b 07       		.byte	0x7
 1557 063c 5C       		.byte	0x5c
 1558 063d 45070000 		.4byte	0x745
 1559 0641 500F     		.2byte	0xf50
 1560 0643 0D       		.uleb128 0xd
ARM GAS  C:\Users\dmr85\AppData\Local\Temp\ccbw5e1d.s 			page 58


 1561 0644 E9180000 		.4byte	.LASF102
 1562 0648 07       		.byte	0x7
 1563 0649 5D       		.byte	0x5d
 1564 064a E0000000 		.4byte	0xe0
 1565 064e 800F     		.2byte	0xf80
 1566 0650 0D       		.uleb128 0xd
 1567 0651 0D0A0000 		.4byte	.LASF103
 1568 0655 07       		.byte	0x7
 1569 0656 5E       		.byte	0x5e
 1570 0657 E0000000 		.4byte	0xe0
 1571 065b 840F     		.2byte	0xf84
 1572 065d 0D       		.uleb128 0xd
 1573 065e D0010000 		.4byte	.LASF104
 1574 0662 07       		.byte	0x7
 1575 0663 5F       		.byte	0x5f
 1576 0664 E0000000 		.4byte	0xe0
 1577 0668 880F     		.2byte	0xf88
 1578 066a 0D       		.uleb128 0xd
 1579 066b 1F180000 		.4byte	.LASF105
 1580 066f 07       		.byte	0x7
 1581 0670 60       		.byte	0x60
 1582 0671 EA000000 		.4byte	0xea
 1583 0675 8C0F     		.2byte	0xf8c
 1584 0677 0D       		.uleb128 0xd
 1585 0678 7E1D0000 		.4byte	.LASF106
 1586 067c 07       		.byte	0x7
 1587 067d 61       		.byte	0x61
 1588 067e 4F070000 		.4byte	0x74f
 1589 0682 900F     		.2byte	0xf90
 1590 0684 0D       		.uleb128 0xd
 1591 0685 0F140000 		.4byte	.LASF107
 1592 0689 07       		.byte	0x7
 1593 068a 62       		.byte	0x62
 1594 068b E0000000 		.4byte	0xe0
 1595 068f C00F     		.2byte	0xfc0
 1596 0691 0D       		.uleb128 0xd
 1597 0692 D01F0000 		.4byte	.LASF108
 1598 0696 07       		.byte	0x7
 1599 0697 63       		.byte	0x63
 1600 0698 E0000000 		.4byte	0xe0
 1601 069c C40F     		.2byte	0xfc4
 1602 069e 0D       		.uleb128 0xd
 1603 069f FA1E0000 		.4byte	.LASF109
 1604 06a3 07       		.byte	0x7
 1605 06a4 64       		.byte	0x64
 1606 06a5 E0000000 		.4byte	0xe0
 1607 06a9 C80F     		.2byte	0xfc8
 1608 06ab 0D       		.uleb128 0xd
 1609 06ac 13040000 		.4byte	.LASF110
 1610 06b0 07       		.byte	0x7
 1611 06b1 65       		.byte	0x65
 1612 06b2 EA000000 		.4byte	0xea
 1613 06b6 CC0F     		.2byte	0xfcc
 1614 06b8 00       		.byte	0
 1615 06b9 05       		.uleb128 0x5
 1616 06ba EF000000 		.4byte	0xef
 1617 06be 06       		.uleb128 0x6
ARM GAS  C:\Users\dmr85\AppData\Local\Temp\ccbw5e1d.s 			page 59


 1618 06bf B9060000 		.4byte	0x6b9
 1619 06c3 05       		.uleb128 0x5
 1620 06c4 FF000000 		.4byte	0xff
 1621 06c8 06       		.uleb128 0x6
 1622 06c9 C3060000 		.4byte	0x6c3
 1623 06cd 05       		.uleb128 0x5
 1624 06ce 4F010000 		.4byte	0x14f
 1625 06d2 06       		.uleb128 0x6
 1626 06d3 CD060000 		.4byte	0x6cd
 1627 06d7 05       		.uleb128 0x5
 1628 06d8 3F030000 		.4byte	0x33f
 1629 06dc 06       		.uleb128 0x6
 1630 06dd D7060000 		.4byte	0x6d7
 1631 06e1 05       		.uleb128 0x5
 1632 06e2 1F010000 		.4byte	0x11f
 1633 06e6 06       		.uleb128 0x6
 1634 06e7 E1060000 		.4byte	0x6e1
 1635 06eb 05       		.uleb128 0x5
 1636 06ec 0E030000 		.4byte	0x30e
 1637 06f0 06       		.uleb128 0x6
 1638 06f1 EB060000 		.4byte	0x6eb
 1639 06f5 05       		.uleb128 0x5
 1640 06f6 FE020000 		.4byte	0x2fe
 1641 06fa 06       		.uleb128 0x6
 1642 06fb F5060000 		.4byte	0x6f5
 1643 06ff 05       		.uleb128 0x5
 1644 0700 1E030000 		.4byte	0x31e
 1645 0704 06       		.uleb128 0x6
 1646 0705 FF060000 		.4byte	0x6ff
 1647 0709 05       		.uleb128 0x5
 1648 070a 2E030000 		.4byte	0x32e
 1649 070e 05       		.uleb128 0x5
 1650 070f 0F010000 		.4byte	0x10f
 1651 0713 06       		.uleb128 0x6
 1652 0714 0E070000 		.4byte	0x70e
 1653 0718 05       		.uleb128 0x5
 1654 0719 3F010000 		.4byte	0x13f
 1655 071d 06       		.uleb128 0x6
 1656 071e 18070000 		.4byte	0x718
 1657 0722 05       		.uleb128 0x5
 1658 0723 5F010000 		.4byte	0x15f
 1659 0727 06       		.uleb128 0x6
 1660 0728 22070000 		.4byte	0x722
 1661 072c 05       		.uleb128 0x5
 1662 072d 5F010000 		.4byte	0x15f
 1663 0731 06       		.uleb128 0x6
 1664 0732 2C070000 		.4byte	0x72c
 1665 0736 05       		.uleb128 0x5
 1666 0737 5F010000 		.4byte	0x15f
 1667 073b 06       		.uleb128 0x6
 1668 073c 36070000 		.4byte	0x736
 1669 0740 05       		.uleb128 0x5
 1670 0741 5F010000 		.4byte	0x15f
 1671 0745 06       		.uleb128 0x6
 1672 0746 40070000 		.4byte	0x740
 1673 074a 05       		.uleb128 0x5
 1674 074b 5F010000 		.4byte	0x15f
ARM GAS  C:\Users\dmr85\AppData\Local\Temp\ccbw5e1d.s 			page 60


 1675 074f 06       		.uleb128 0x6
 1676 0750 4A070000 		.4byte	0x74a
 1677 0754 03       		.uleb128 0x3
 1678 0755 3F0E0000 		.4byte	.LASF111
 1679 0759 07       		.byte	0x7
 1680 075a 66       		.byte	0x66
 1681 075b 4F030000 		.4byte	0x34f
 1682 075f 0F       		.uleb128 0xf
 1683 0760 F80C0000 		.4byte	.LASF112
 1684 0764 08       		.byte	0x8
 1685 0765 3106     		.2byte	0x631
 1686 0767 4D020000 		.4byte	0x24d
 1687 076b 0F       		.uleb128 0xf
 1688 076c 7B1C0000 		.4byte	.LASF113
 1689 0770 08       		.byte	0x8
 1690 0771 3206     		.2byte	0x632
 1691 0773 F3020000 		.4byte	0x2f3
 1692 0777 0F       		.uleb128 0xf
 1693 0778 980B0000 		.4byte	.LASF114
 1694 077c 08       		.byte	0x8
 1695 077d 4F06     		.2byte	0x64f
 1696 077f 54070000 		.4byte	0x754
 1697 0783 02       		.uleb128 0x2
 1698 0784 08       		.byte	0x8
 1699 0785 04       		.byte	0x4
 1700 0786 35150000 		.4byte	.LASF115
 1701 078a 09       		.uleb128 0x9
 1702 078b B8       		.byte	0xb8
 1703 078c 09       		.byte	0x9
 1704 078d 34       		.byte	0x34
 1705 078e 9B0B0000 		.4byte	0xb9b
 1706 0792 0B       		.uleb128 0xb
 1707 0793 67030000 		.4byte	.LASF116
 1708 0797 09       		.byte	0x9
 1709 0798 37       		.byte	0x37
 1710 0799 CE000000 		.4byte	0xce
 1711 079d 00       		.byte	0
 1712 079e 0B       		.uleb128 0xb
 1713 079f EB0D0000 		.4byte	.LASF117
 1714 07a3 09       		.byte	0x9
 1715 07a4 38       		.byte	0x38
 1716 07a5 CE000000 		.4byte	0xce
 1717 07a9 04       		.byte	0x4
 1718 07aa 0B       		.uleb128 0xb
 1719 07ab DD010000 		.4byte	.LASF118
 1720 07af 09       		.byte	0x9
 1721 07b0 39       		.byte	0x39
 1722 07b1 CE000000 		.4byte	0xce
 1723 07b5 08       		.byte	0x8
 1724 07b6 0B       		.uleb128 0xb
 1725 07b7 73090000 		.4byte	.LASF119
 1726 07bb 09       		.byte	0x9
 1727 07bc 3A       		.byte	0x3a
 1728 07bd CE000000 		.4byte	0xce
 1729 07c1 0C       		.byte	0xc
 1730 07c2 0B       		.uleb128 0xb
 1731 07c3 84150000 		.4byte	.LASF120
ARM GAS  C:\Users\dmr85\AppData\Local\Temp\ccbw5e1d.s 			page 61


 1732 07c7 09       		.byte	0x9
 1733 07c8 3B       		.byte	0x3b
 1734 07c9 CE000000 		.4byte	0xce
 1735 07cd 10       		.byte	0x10
 1736 07ce 0B       		.uleb128 0xb
 1737 07cf 2C120000 		.4byte	.LASF121
 1738 07d3 09       		.byte	0x9
 1739 07d4 3C       		.byte	0x3c
 1740 07d5 CE000000 		.4byte	0xce
 1741 07d9 14       		.byte	0x14
 1742 07da 0B       		.uleb128 0xb
 1743 07db 2C0C0000 		.4byte	.LASF122
 1744 07df 09       		.byte	0x9
 1745 07e0 3D       		.byte	0x3d
 1746 07e1 CE000000 		.4byte	0xce
 1747 07e5 18       		.byte	0x18
 1748 07e6 0B       		.uleb128 0xb
 1749 07e7 B71F0000 		.4byte	.LASF123
 1750 07eb 09       		.byte	0x9
 1751 07ec 3E       		.byte	0x3e
 1752 07ed CE000000 		.4byte	0xce
 1753 07f1 1C       		.byte	0x1c
 1754 07f2 0B       		.uleb128 0xb
 1755 07f3 0F110000 		.4byte	.LASF124
 1756 07f7 09       		.byte	0x9
 1757 07f8 3F       		.byte	0x3f
 1758 07f9 CE000000 		.4byte	0xce
 1759 07fd 20       		.byte	0x20
 1760 07fe 0B       		.uleb128 0xb
 1761 07ff 26110000 		.4byte	.LASF125
 1762 0803 09       		.byte	0x9
 1763 0804 40       		.byte	0x40
 1764 0805 CE000000 		.4byte	0xce
 1765 0809 24       		.byte	0x24
 1766 080a 0B       		.uleb128 0xb
 1767 080b D4170000 		.4byte	.LASF126
 1768 080f 09       		.byte	0x9
 1769 0810 43       		.byte	0x43
 1770 0811 A2000000 		.4byte	0xa2
 1771 0815 28       		.byte	0x28
 1772 0816 0B       		.uleb128 0xb
 1773 0817 04080000 		.4byte	.LASF127
 1774 081b 09       		.byte	0x9
 1775 081c 44       		.byte	0x44
 1776 081d A2000000 		.4byte	0xa2
 1777 0821 29       		.byte	0x29
 1778 0822 0B       		.uleb128 0xb
 1779 0823 1E1C0000 		.4byte	.LASF128
 1780 0827 09       		.byte	0x9
 1781 0828 45       		.byte	0x45
 1782 0829 A2000000 		.4byte	0xa2
 1783 082d 2A       		.byte	0x2a
 1784 082e 0B       		.uleb128 0xb
 1785 082f 2E180000 		.4byte	.LASF129
 1786 0833 09       		.byte	0x9
 1787 0834 46       		.byte	0x46
 1788 0835 A2000000 		.4byte	0xa2
ARM GAS  C:\Users\dmr85\AppData\Local\Temp\ccbw5e1d.s 			page 62


 1789 0839 2B       		.byte	0x2b
 1790 083a 0B       		.uleb128 0xb
 1791 083b F2170000 		.4byte	.LASF130
 1792 083f 09       		.byte	0x9
 1793 0840 47       		.byte	0x47
 1794 0841 A2000000 		.4byte	0xa2
 1795 0845 2C       		.byte	0x2c
 1796 0846 0B       		.uleb128 0xb
 1797 0847 491B0000 		.4byte	.LASF131
 1798 084b 09       		.byte	0x9
 1799 084c 48       		.byte	0x48
 1800 084d A2000000 		.4byte	0xa2
 1801 0851 2D       		.byte	0x2d
 1802 0852 0B       		.uleb128 0xb
 1803 0853 EC200000 		.4byte	.LASF132
 1804 0857 09       		.byte	0x9
 1805 0858 49       		.byte	0x49
 1806 0859 A2000000 		.4byte	0xa2
 1807 085d 2E       		.byte	0x2e
 1808 085e 0B       		.uleb128 0xb
 1809 085f 7D1F0000 		.4byte	.LASF133
 1810 0863 09       		.byte	0x9
 1811 0864 4A       		.byte	0x4a
 1812 0865 A2000000 		.4byte	0xa2
 1813 0869 2F       		.byte	0x2f
 1814 086a 0B       		.uleb128 0xb
 1815 086b AB0C0000 		.4byte	.LASF134
 1816 086f 09       		.byte	0x9
 1817 0870 4B       		.byte	0x4b
 1818 0871 A2000000 		.4byte	0xa2
 1819 0875 30       		.byte	0x30
 1820 0876 0B       		.uleb128 0xb
 1821 0877 1B130000 		.4byte	.LASF135
 1822 087b 09       		.byte	0x9
 1823 087c 4E       		.byte	0x4e
 1824 087d A2000000 		.4byte	0xa2
 1825 0881 31       		.byte	0x31
 1826 0882 0B       		.uleb128 0xb
 1827 0883 EC1E0000 		.4byte	.LASF136
 1828 0887 09       		.byte	0x9
 1829 0888 4F       		.byte	0x4f
 1830 0889 A2000000 		.4byte	0xa2
 1831 088d 32       		.byte	0x32
 1832 088e 0B       		.uleb128 0xb
 1833 088f AE120000 		.4byte	.LASF137
 1834 0893 09       		.byte	0x9
 1835 0894 50       		.byte	0x50
 1836 0895 A2000000 		.4byte	0xa2
 1837 0899 33       		.byte	0x33
 1838 089a 0B       		.uleb128 0xb
 1839 089b B00D0000 		.4byte	.LASF138
 1840 089f 09       		.byte	0x9
 1841 08a0 51       		.byte	0x51
 1842 08a1 A2000000 		.4byte	0xa2
 1843 08a5 34       		.byte	0x34
 1844 08a6 0B       		.uleb128 0xb
 1845 08a7 47090000 		.4byte	.LASF139
ARM GAS  C:\Users\dmr85\AppData\Local\Temp\ccbw5e1d.s 			page 63


 1846 08ab 09       		.byte	0x9
 1847 08ac 52       		.byte	0x52
 1848 08ad AD000000 		.4byte	0xad
 1849 08b1 36       		.byte	0x36
 1850 08b2 0B       		.uleb128 0xb
 1851 08b3 B2030000 		.4byte	.LASF140
 1852 08b7 09       		.byte	0x9
 1853 08b8 53       		.byte	0x53
 1854 08b9 AD000000 		.4byte	0xad
 1855 08bd 38       		.byte	0x38
 1856 08be 0B       		.uleb128 0xb
 1857 08bf ED030000 		.4byte	.LASF141
 1858 08c3 09       		.byte	0x9
 1859 08c4 54       		.byte	0x54
 1860 08c5 AD000000 		.4byte	0xad
 1861 08c9 3A       		.byte	0x3a
 1862 08ca 0B       		.uleb128 0xb
 1863 08cb E61F0000 		.4byte	.LASF142
 1864 08cf 09       		.byte	0x9
 1865 08d0 55       		.byte	0x55
 1866 08d1 A2000000 		.4byte	0xa2
 1867 08d5 3C       		.byte	0x3c
 1868 08d6 0B       		.uleb128 0xb
 1869 08d7 1B0B0000 		.4byte	.LASF143
 1870 08db 09       		.byte	0x9
 1871 08dc 56       		.byte	0x56
 1872 08dd A2000000 		.4byte	0xa2
 1873 08e1 3D       		.byte	0x3d
 1874 08e2 0B       		.uleb128 0xb
 1875 08e3 EE150000 		.4byte	.LASF144
 1876 08e7 09       		.byte	0x9
 1877 08e8 57       		.byte	0x57
 1878 08e9 A2000000 		.4byte	0xa2
 1879 08ed 3E       		.byte	0x3e
 1880 08ee 0B       		.uleb128 0xb
 1881 08ef 47010000 		.4byte	.LASF145
 1882 08f3 09       		.byte	0x9
 1883 08f4 58       		.byte	0x58
 1884 08f5 A2000000 		.4byte	0xa2
 1885 08f9 3F       		.byte	0x3f
 1886 08fa 0B       		.uleb128 0xb
 1887 08fb 01030000 		.4byte	.LASF146
 1888 08ff 09       		.byte	0x9
 1889 0900 59       		.byte	0x59
 1890 0901 A2000000 		.4byte	0xa2
 1891 0905 40       		.byte	0x40
 1892 0906 0B       		.uleb128 0xb
 1893 0907 76130000 		.4byte	.LASF147
 1894 090b 09       		.byte	0x9
 1895 090c 5A       		.byte	0x5a
 1896 090d A2000000 		.4byte	0xa2
 1897 0911 41       		.byte	0x41
 1898 0912 0B       		.uleb128 0xb
 1899 0913 20080000 		.4byte	.LASF148
 1900 0917 09       		.byte	0x9
 1901 0918 5B       		.byte	0x5b
 1902 0919 A2000000 		.4byte	0xa2
ARM GAS  C:\Users\dmr85\AppData\Local\Temp\ccbw5e1d.s 			page 64


 1903 091d 42       		.byte	0x42
 1904 091e 0B       		.uleb128 0xb
 1905 091f ED0C0000 		.4byte	.LASF149
 1906 0923 09       		.byte	0x9
 1907 0924 5C       		.byte	0x5c
 1908 0925 A2000000 		.4byte	0xa2
 1909 0929 43       		.byte	0x43
 1910 092a 0B       		.uleb128 0xb
 1911 092b 910E0000 		.4byte	.LASF150
 1912 092f 09       		.byte	0x9
 1913 0930 5D       		.byte	0x5d
 1914 0931 A2000000 		.4byte	0xa2
 1915 0935 44       		.byte	0x44
 1916 0936 0B       		.uleb128 0xb
 1917 0937 F41D0000 		.4byte	.LASF151
 1918 093b 09       		.byte	0x9
 1919 093c 5E       		.byte	0x5e
 1920 093d CE000000 		.4byte	0xce
 1921 0941 48       		.byte	0x48
 1922 0942 0B       		.uleb128 0xb
 1923 0943 A20E0000 		.4byte	.LASF152
 1924 0947 09       		.byte	0x9
 1925 0948 5F       		.byte	0x5f
 1926 0949 CE000000 		.4byte	0xce
 1927 094d 4C       		.byte	0x4c
 1928 094e 0B       		.uleb128 0xb
 1929 094f 481E0000 		.4byte	.LASF153
 1930 0953 09       		.byte	0x9
 1931 0954 60       		.byte	0x60
 1932 0955 A2000000 		.4byte	0xa2
 1933 0959 50       		.byte	0x50
 1934 095a 0B       		.uleb128 0xb
 1935 095b 860B0000 		.4byte	.LASF154
 1936 095f 09       		.byte	0x9
 1937 0960 61       		.byte	0x61
 1938 0961 A2000000 		.4byte	0xa2
 1939 0965 51       		.byte	0x51
 1940 0966 0B       		.uleb128 0xb
 1941 0967 B70C0000 		.4byte	.LASF155
 1942 096b 09       		.byte	0x9
 1943 096c 62       		.byte	0x62
 1944 096d A2000000 		.4byte	0xa2
 1945 0971 52       		.byte	0x52
 1946 0972 0B       		.uleb128 0xb
 1947 0973 BA140000 		.4byte	.LASF156
 1948 0977 09       		.byte	0x9
 1949 0978 63       		.byte	0x63
 1950 0979 A2000000 		.4byte	0xa2
 1951 097d 53       		.byte	0x53
 1952 097e 0B       		.uleb128 0xb
 1953 097f 52190000 		.4byte	.LASF157
 1954 0983 09       		.byte	0x9
 1955 0984 64       		.byte	0x64
 1956 0985 A2000000 		.4byte	0xa2
 1957 0989 54       		.byte	0x54
 1958 098a 0B       		.uleb128 0xb
 1959 098b CA0B0000 		.4byte	.LASF158
ARM GAS  C:\Users\dmr85\AppData\Local\Temp\ccbw5e1d.s 			page 65


 1960 098f 09       		.byte	0x9
 1961 0990 65       		.byte	0x65
 1962 0991 A2000000 		.4byte	0xa2
 1963 0995 55       		.byte	0x55
 1964 0996 0B       		.uleb128 0xb
 1965 0997 00000000 		.4byte	.LASF159
 1966 099b 09       		.byte	0x9
 1967 099c 66       		.byte	0x66
 1968 099d A2000000 		.4byte	0xa2
 1969 09a1 56       		.byte	0x56
 1970 09a2 0B       		.uleb128 0xb
 1971 09a3 9B080000 		.4byte	.LASF160
 1972 09a7 09       		.byte	0x9
 1973 09a8 67       		.byte	0x67
 1974 09a9 A2000000 		.4byte	0xa2
 1975 09ad 57       		.byte	0x57
 1976 09ae 0B       		.uleb128 0xb
 1977 09af E70A0000 		.4byte	.LASF161
 1978 09b3 09       		.byte	0x9
 1979 09b4 68       		.byte	0x68
 1980 09b5 A2000000 		.4byte	0xa2
 1981 09b9 58       		.byte	0x58
 1982 09ba 0B       		.uleb128 0xb
 1983 09bb FC1F0000 		.4byte	.LASF162
 1984 09bf 09       		.byte	0x9
 1985 09c0 69       		.byte	0x69
 1986 09c1 A2000000 		.4byte	0xa2
 1987 09c5 59       		.byte	0x59
 1988 09c6 0B       		.uleb128 0xb
 1989 09c7 D71E0000 		.4byte	.LASF163
 1990 09cb 09       		.byte	0x9
 1991 09cc 6E       		.byte	0x6e
 1992 09cd B8000000 		.4byte	0xb8
 1993 09d1 5A       		.byte	0x5a
 1994 09d2 0B       		.uleb128 0xb
 1995 09d3 3E020000 		.4byte	.LASF164
 1996 09d7 09       		.byte	0x9
 1997 09d8 6F       		.byte	0x6f
 1998 09d9 B8000000 		.4byte	0xb8
 1999 09dd 5C       		.byte	0x5c
 2000 09de 0B       		.uleb128 0xb
 2001 09df 17110000 		.4byte	.LASF165
 2002 09e3 09       		.byte	0x9
 2003 09e4 70       		.byte	0x70
 2004 09e5 A2000000 		.4byte	0xa2
 2005 09e9 5E       		.byte	0x5e
 2006 09ea 0B       		.uleb128 0xb
 2007 09eb 071F0000 		.4byte	.LASF166
 2008 09ef 09       		.byte	0x9
 2009 09f0 71       		.byte	0x71
 2010 09f1 A2000000 		.4byte	0xa2
 2011 09f5 5F       		.byte	0x5f
 2012 09f6 0B       		.uleb128 0xb
 2013 09f7 2A0D0000 		.4byte	.LASF167
 2014 09fb 09       		.byte	0x9
 2015 09fc 72       		.byte	0x72
 2016 09fd A2000000 		.4byte	0xa2
ARM GAS  C:\Users\dmr85\AppData\Local\Temp\ccbw5e1d.s 			page 66


 2017 0a01 60       		.byte	0x60
 2018 0a02 0B       		.uleb128 0xb
 2019 0a03 700F0000 		.4byte	.LASF168
 2020 0a07 09       		.byte	0x9
 2021 0a08 73       		.byte	0x73
 2022 0a09 CE000000 		.4byte	0xce
 2023 0a0d 64       		.byte	0x64
 2024 0a0e 0B       		.uleb128 0xb
 2025 0a0f 21210000 		.4byte	.LASF169
 2026 0a13 09       		.byte	0x9
 2027 0a14 76       		.byte	0x76
 2028 0a15 B8000000 		.4byte	0xb8
 2029 0a19 68       		.byte	0x68
 2030 0a1a 0B       		.uleb128 0xb
 2031 0a1b A3150000 		.4byte	.LASF170
 2032 0a1f 09       		.byte	0x9
 2033 0a20 77       		.byte	0x77
 2034 0a21 B8000000 		.4byte	0xb8
 2035 0a25 6A       		.byte	0x6a
 2036 0a26 0B       		.uleb128 0xb
 2037 0a27 73120000 		.4byte	.LASF171
 2038 0a2b 09       		.byte	0x9
 2039 0a2c 78       		.byte	0x78
 2040 0a2d B8000000 		.4byte	0xb8
 2041 0a31 6C       		.byte	0x6c
 2042 0a32 0B       		.uleb128 0xb
 2043 0a33 3A040000 		.4byte	.LASF172
 2044 0a37 09       		.byte	0x9
 2045 0a38 79       		.byte	0x79
 2046 0a39 B8000000 		.4byte	0xb8
 2047 0a3d 6E       		.byte	0x6e
 2048 0a3e 0B       		.uleb128 0xb
 2049 0a3f D60F0000 		.4byte	.LASF173
 2050 0a43 09       		.byte	0x9
 2051 0a44 7B       		.byte	0x7b
 2052 0a45 A2000000 		.4byte	0xa2
 2053 0a49 70       		.byte	0x70
 2054 0a4a 0B       		.uleb128 0xb
 2055 0a4b 42060000 		.4byte	.LASF174
 2056 0a4f 09       		.byte	0x9
 2057 0a50 7C       		.byte	0x7c
 2058 0a51 A2000000 		.4byte	0xa2
 2059 0a55 71       		.byte	0x71
 2060 0a56 0B       		.uleb128 0xb
 2061 0a57 A7090000 		.4byte	.LASF175
 2062 0a5b 09       		.byte	0x9
 2063 0a5c 7D       		.byte	0x7d
 2064 0a5d A2000000 		.4byte	0xa2
 2065 0a61 72       		.byte	0x72
 2066 0a62 0B       		.uleb128 0xb
 2067 0a63 0E030000 		.4byte	.LASF176
 2068 0a67 09       		.byte	0x9
 2069 0a68 7E       		.byte	0x7e
 2070 0a69 A2000000 		.4byte	0xa2
 2071 0a6d 73       		.byte	0x73
 2072 0a6e 0B       		.uleb128 0xb
 2073 0a6f 21170000 		.4byte	.LASF177
ARM GAS  C:\Users\dmr85\AppData\Local\Temp\ccbw5e1d.s 			page 67


 2074 0a73 09       		.byte	0x9
 2075 0a74 80       		.byte	0x80
 2076 0a75 B8000000 		.4byte	0xb8
 2077 0a79 74       		.byte	0x74
 2078 0a7a 0B       		.uleb128 0xb
 2079 0a7b CC140000 		.4byte	.LASF178
 2080 0a7f 09       		.byte	0x9
 2081 0a80 81       		.byte	0x81
 2082 0a81 B8000000 		.4byte	0xb8
 2083 0a85 76       		.byte	0x76
 2084 0a86 0B       		.uleb128 0xb
 2085 0a87 43100000 		.4byte	.LASF179
 2086 0a8b 09       		.byte	0x9
 2087 0a8c 82       		.byte	0x82
 2088 0a8d B8000000 		.4byte	0xb8
 2089 0a91 78       		.byte	0x78
 2090 0a92 0B       		.uleb128 0xb
 2091 0a93 EB080000 		.4byte	.LASF180
 2092 0a97 09       		.byte	0x9
 2093 0a98 83       		.byte	0x83
 2094 0a99 B8000000 		.4byte	0xb8
 2095 0a9d 7A       		.byte	0x7a
 2096 0a9e 0B       		.uleb128 0xb
 2097 0a9f 191A0000 		.4byte	.LASF181
 2098 0aa3 09       		.byte	0x9
 2099 0aa4 86       		.byte	0x86
 2100 0aa5 A2000000 		.4byte	0xa2
 2101 0aa9 7C       		.byte	0x7c
 2102 0aaa 0B       		.uleb128 0xb
 2103 0aab 7E1E0000 		.4byte	.LASF182
 2104 0aaf 09       		.byte	0x9
 2105 0ab0 87       		.byte	0x87
 2106 0ab1 A2000000 		.4byte	0xa2
 2107 0ab5 7D       		.byte	0x7d
 2108 0ab6 0B       		.uleb128 0xb
 2109 0ab7 88080000 		.4byte	.LASF183
 2110 0abb 09       		.byte	0x9
 2111 0abc 88       		.byte	0x88
 2112 0abd A2000000 		.4byte	0xa2
 2113 0ac1 7E       		.byte	0x7e
 2114 0ac2 0B       		.uleb128 0xb
 2115 0ac3 95070000 		.4byte	.LASF184
 2116 0ac7 09       		.byte	0x9
 2117 0ac8 89       		.byte	0x89
 2118 0ac9 A2000000 		.4byte	0xa2
 2119 0acd 7F       		.byte	0x7f
 2120 0ace 0B       		.uleb128 0xb
 2121 0acf 00090000 		.4byte	.LASF185
 2122 0ad3 09       		.byte	0x9
 2123 0ad4 8A       		.byte	0x8a
 2124 0ad5 A2000000 		.4byte	0xa2
 2125 0ad9 80       		.byte	0x80
 2126 0ada 0B       		.uleb128 0xb
 2127 0adb 30010000 		.4byte	.LASF186
 2128 0adf 09       		.byte	0x9
 2129 0ae0 8D       		.byte	0x8d
 2130 0ae1 CE000000 		.4byte	0xce
ARM GAS  C:\Users\dmr85\AppData\Local\Temp\ccbw5e1d.s 			page 68


 2131 0ae5 84       		.byte	0x84
 2132 0ae6 0B       		.uleb128 0xb
 2133 0ae7 A91A0000 		.4byte	.LASF187
 2134 0aeb 09       		.byte	0x9
 2135 0aec 8E       		.byte	0x8e
 2136 0aed CE000000 		.4byte	0xce
 2137 0af1 88       		.byte	0x88
 2138 0af2 0B       		.uleb128 0xb
 2139 0af3 61130000 		.4byte	.LASF188
 2140 0af7 09       		.byte	0x9
 2141 0af8 8F       		.byte	0x8f
 2142 0af9 CE000000 		.4byte	0xce
 2143 0afd 8C       		.byte	0x8c
 2144 0afe 0B       		.uleb128 0xb
 2145 0aff 0C170000 		.4byte	.LASF189
 2146 0b03 09       		.byte	0x9
 2147 0b04 90       		.byte	0x90
 2148 0b05 CE000000 		.4byte	0xce
 2149 0b09 90       		.byte	0x90
 2150 0b0a 0B       		.uleb128 0xb
 2151 0b0b D0190000 		.4byte	.LASF190
 2152 0b0f 09       		.byte	0x9
 2153 0b10 91       		.byte	0x91
 2154 0b11 CE000000 		.4byte	0xce
 2155 0b15 94       		.byte	0x94
 2156 0b16 0B       		.uleb128 0xb
 2157 0b17 57060000 		.4byte	.LASF191
 2158 0b1b 09       		.byte	0x9
 2159 0b1c 92       		.byte	0x92
 2160 0b1d CE000000 		.4byte	0xce
 2161 0b21 98       		.byte	0x98
 2162 0b22 0B       		.uleb128 0xb
 2163 0b23 F31A0000 		.4byte	.LASF192
 2164 0b27 09       		.byte	0x9
 2165 0b28 93       		.byte	0x93
 2166 0b29 CE000000 		.4byte	0xce
 2167 0b2d 9C       		.byte	0x9c
 2168 0b2e 0B       		.uleb128 0xb
 2169 0b2f A3020000 		.4byte	.LASF193
 2170 0b33 09       		.byte	0x9
 2171 0b34 94       		.byte	0x94
 2172 0b35 CE000000 		.4byte	0xce
 2173 0b39 A0       		.byte	0xa0
 2174 0b3a 0B       		.uleb128 0xb
 2175 0b3b 29020000 		.4byte	.LASF194
 2176 0b3f 09       		.byte	0x9
 2177 0b40 95       		.byte	0x95
 2178 0b41 B8000000 		.4byte	0xb8
 2179 0b45 A4       		.byte	0xa4
 2180 0b46 0B       		.uleb128 0xb
 2181 0b47 F7160000 		.4byte	.LASF195
 2182 0b4b 09       		.byte	0x9
 2183 0b4c 96       		.byte	0x96
 2184 0b4d B8000000 		.4byte	0xb8
 2185 0b51 A6       		.byte	0xa6
 2186 0b52 0B       		.uleb128 0xb
 2187 0b53 6F1B0000 		.4byte	.LASF196
ARM GAS  C:\Users\dmr85\AppData\Local\Temp\ccbw5e1d.s 			page 69


 2188 0b57 09       		.byte	0x9
 2189 0b58 97       		.byte	0x97
 2190 0b59 B8000000 		.4byte	0xb8
 2191 0b5d A8       		.byte	0xa8
 2192 0b5e 0B       		.uleb128 0xb
 2193 0b5f F3100000 		.4byte	.LASF197
 2194 0b63 09       		.byte	0x9
 2195 0b64 98       		.byte	0x98
 2196 0b65 B8000000 		.4byte	0xb8
 2197 0b69 AA       		.byte	0xaa
 2198 0b6a 0B       		.uleb128 0xb
 2199 0b6b 98040000 		.4byte	.LASF198
 2200 0b6f 09       		.byte	0x9
 2201 0b70 99       		.byte	0x99
 2202 0b71 B8000000 		.4byte	0xb8
 2203 0b75 AC       		.byte	0xac
 2204 0b76 0B       		.uleb128 0xb
 2205 0b77 86130000 		.4byte	.LASF199
 2206 0b7b 09       		.byte	0x9
 2207 0b7c 9A       		.byte	0x9a
 2208 0b7d B8000000 		.4byte	0xb8
 2209 0b81 AE       		.byte	0xae
 2210 0b82 0B       		.uleb128 0xb
 2211 0b83 CE040000 		.4byte	.LASF200
 2212 0b87 09       		.byte	0x9
 2213 0b88 9D       		.byte	0x9d
 2214 0b89 B8000000 		.4byte	0xb8
 2215 0b8d B0       		.byte	0xb0
 2216 0b8e 0B       		.uleb128 0xb
 2217 0b8f 851C0000 		.4byte	.LASF201
 2218 0b93 09       		.byte	0x9
 2219 0b94 9E       		.byte	0x9e
 2220 0b95 CE000000 		.4byte	0xce
 2221 0b99 B4       		.byte	0xb4
 2222 0b9a 00       		.byte	0
 2223 0b9b 03       		.uleb128 0x3
 2224 0b9c 6D1F0000 		.4byte	.LASF202
 2225 0ba0 09       		.byte	0x9
 2226 0ba1 9F       		.byte	0x9f
 2227 0ba2 8A070000 		.4byte	0x78a
 2228 0ba6 0F       		.uleb128 0xf
 2229 0ba7 BA180000 		.4byte	.LASF203
 2230 0bab 0A       		.byte	0xa
 2231 0bac F601     		.2byte	0x1f6
 2232 0bae B20B0000 		.4byte	0xbb2
 2233 0bb2 02       		.uleb128 0x2
 2234 0bb3 01       		.byte	0x1
 2235 0bb4 08       		.byte	0x8
 2236 0bb5 F60D0000 		.4byte	.LASF204
 2237 0bb9 02       		.uleb128 0x2
 2238 0bba 04       		.byte	0x4
 2239 0bbb 04       		.byte	0x4
 2240 0bbc 7B1B0000 		.4byte	.LASF205
 2241 0bc0 02       		.uleb128 0x2
 2242 0bc1 08       		.byte	0x8
 2243 0bc2 04       		.byte	0x4
 2244 0bc3 B01F0000 		.4byte	.LASF206
ARM GAS  C:\Users\dmr85\AppData\Local\Temp\ccbw5e1d.s 			page 70


 2245 0bc7 10       		.uleb128 0x10
 2246 0bc8 04       		.byte	0x4
 2247 0bc9 02       		.uleb128 0x2
 2248 0bca 01       		.byte	0x1
 2249 0bcb 02       		.byte	0x2
 2250 0bcc AC0B0000 		.4byte	.LASF207
 2251 0bd0 11       		.uleb128 0x11
 2252 0bd1 04       		.byte	0x4
 2253 0bd2 D60B0000 		.4byte	0xbd6
 2254 0bd6 12       		.uleb128 0x12
 2255 0bd7 E10B0000 		.4byte	0xbe1
 2256 0bdb 13       		.uleb128 0x13
 2257 0bdc CE000000 		.4byte	0xce
 2258 0be0 00       		.byte	0
 2259 0be1 11       		.uleb128 0x11
 2260 0be2 04       		.byte	0x4
 2261 0be3 A2000000 		.4byte	0xa2
 2262 0be7 14       		.uleb128 0x14
 2263 0be8 04       		.byte	0x4
 2264 0be9 9B000000 		.4byte	0x9b
 2265 0bed 0B       		.byte	0xb
 2266 0bee 9B01     		.2byte	0x19b
 2267 0bf0 0D0C0000 		.4byte	0xc0d
 2268 0bf4 15       		.uleb128 0x15
 2269 0bf5 810F0000 		.4byte	.LASF208
 2270 0bf9 00       		.byte	0
 2271 0bfa 16       		.uleb128 0x16
 2272 0bfb 361C0000 		.4byte	.LASF209
 2273 0bff 0140AA00 		.4byte	0xaa4001
 2274 0c03 16       		.uleb128 0x16
 2275 0c04 47080000 		.4byte	.LASF210
 2276 0c08 0240AA00 		.4byte	0xaa4002
 2277 0c0c 00       		.byte	0
 2278 0c0d 0F       		.uleb128 0xf
 2279 0c0e DD1D0000 		.4byte	.LASF211
 2280 0c12 0B       		.byte	0xb
 2281 0c13 A601     		.2byte	0x1a6
 2282 0c15 E70B0000 		.4byte	0xbe7
 2283 0c19 0F       		.uleb128 0xf
 2284 0c1a 71000000 		.4byte	.LASF212
 2285 0c1e 0B       		.byte	0xb
 2286 0c1f F201     		.2byte	0x1f2
 2287 0c21 D00B0000 		.4byte	0xbd0
 2288 0c25 17       		.uleb128 0x17
 2289 0c26 1A1D0000 		.4byte	.LASF224
 2290 0c2a 24       		.byte	0x24
 2291 0c2b 0B       		.byte	0xb
 2292 0c2c 7402     		.2byte	0x274
 2293 0c2e A80C0000 		.4byte	0xca8
 2294 0c32 18       		.uleb128 0x18
 2295 0c33 9C0F0000 		.4byte	.LASF213
 2296 0c37 0B       		.byte	0xb
 2297 0c38 7702     		.2byte	0x277
 2298 0c3a E0000000 		.4byte	0xe0
 2299 0c3e 00       		.byte	0
 2300 0c3f 18       		.uleb128 0x18
 2301 0c40 8B0A0000 		.4byte	.LASF214
ARM GAS  C:\Users\dmr85\AppData\Local\Temp\ccbw5e1d.s 			page 71


 2302 0c44 0B       		.byte	0xb
 2303 0c45 7902     		.2byte	0x279
 2304 0c47 C70B0000 		.4byte	0xbc7
 2305 0c4b 04       		.byte	0x4
 2306 0c4c 18       		.uleb128 0x18
 2307 0c4d 31210000 		.4byte	.LASF215
 2308 0c51 0B       		.byte	0xb
 2309 0c52 7A02     		.2byte	0x27a
 2310 0c54 CE000000 		.4byte	0xce
 2311 0c58 08       		.byte	0x8
 2312 0c59 18       		.uleb128 0x18
 2313 0c5a 350F0000 		.4byte	.LASF216
 2314 0c5e 0B       		.byte	0xb
 2315 0c5f 7B02     		.2byte	0x27b
 2316 0c61 E0000000 		.4byte	0xe0
 2317 0c65 0C       		.byte	0xc
 2318 0c66 18       		.uleb128 0x18
 2319 0c67 83140000 		.4byte	.LASF217
 2320 0c6b 0B       		.byte	0xb
 2321 0c6c 7D02     		.2byte	0x27d
 2322 0c6e C70B0000 		.4byte	0xbc7
 2323 0c72 10       		.byte	0x10
 2324 0c73 18       		.uleb128 0x18
 2325 0c74 11130000 		.4byte	.LASF218
 2326 0c78 0B       		.byte	0xb
 2327 0c79 7E02     		.2byte	0x27e
 2328 0c7b CE000000 		.4byte	0xce
 2329 0c7f 14       		.byte	0x14
 2330 0c80 18       		.uleb128 0x18
 2331 0c81 25030000 		.4byte	.LASF219
 2332 0c85 0B       		.byte	0xb
 2333 0c86 7F02     		.2byte	0x27f
 2334 0c88 E0000000 		.4byte	0xe0
 2335 0c8c 18       		.byte	0x18
 2336 0c8d 18       		.uleb128 0x18
 2337 0c8e A30B0000 		.4byte	.LASF220
 2338 0c92 0B       		.byte	0xb
 2339 0c93 8502     		.2byte	0x285
 2340 0c95 190C0000 		.4byte	0xc19
 2341 0c99 1C       		.byte	0x1c
 2342 0c9a 18       		.uleb128 0x18
 2343 0c9b 680F0000 		.4byte	.LASF221
 2344 0c9f 0B       		.byte	0xb
 2345 0ca0 8802     		.2byte	0x288
 2346 0ca2 CE000000 		.4byte	0xce
 2347 0ca6 20       		.byte	0x20
 2348 0ca7 00       		.byte	0
 2349 0ca8 0F       		.uleb128 0xf
 2350 0ca9 87120000 		.4byte	.LASF222
 2351 0cad 0B       		.byte	0xb
 2352 0cae 8B02     		.2byte	0x28b
 2353 0cb0 250C0000 		.4byte	0xc25
 2354 0cb4 0F       		.uleb128 0xf
 2355 0cb5 68100000 		.4byte	.LASF223
 2356 0cb9 0C       		.byte	0xc
 2357 0cba D901     		.2byte	0x1d9
 2358 0cbc D00B0000 		.4byte	0xbd0
ARM GAS  C:\Users\dmr85\AppData\Local\Temp\ccbw5e1d.s 			page 72


 2359 0cc0 17       		.uleb128 0x17
 2360 0cc1 60080000 		.4byte	.LASF225
 2361 0cc5 38       		.byte	0x38
 2362 0cc6 0C       		.byte	0xc
 2363 0cc7 7502     		.2byte	0x275
 2364 0cc9 840D0000 		.4byte	0xd84
 2365 0ccd 18       		.uleb128 0x18
 2366 0cce 08010000 		.4byte	.LASF226
 2367 0cd2 0C       		.byte	0xc
 2368 0cd3 7802     		.2byte	0x278
 2369 0cd5 E0000000 		.4byte	0xe0
 2370 0cd9 00       		.byte	0
 2371 0cda 18       		.uleb128 0x18
 2372 0cdb 820A0000 		.4byte	.LASF227
 2373 0cdf 0C       		.byte	0xc
 2374 0ce0 7902     		.2byte	0x279
 2375 0ce2 E0000000 		.4byte	0xe0
 2376 0ce6 04       		.byte	0x4
 2377 0ce7 18       		.uleb128 0x18
 2378 0ce8 2B150000 		.4byte	.LASF228
 2379 0cec 0C       		.byte	0xc
 2380 0ced 7B02     		.2byte	0x27b
 2381 0cef C70B0000 		.4byte	0xbc7
 2382 0cf3 08       		.byte	0x8
 2383 0cf4 18       		.uleb128 0x18
 2384 0cf5 2C040000 		.4byte	.LASF229
 2385 0cf9 0C       		.byte	0xc
 2386 0cfa 7C02     		.2byte	0x27c
 2387 0cfc CE000000 		.4byte	0xce
 2388 0d00 0C       		.byte	0xc
 2389 0d01 18       		.uleb128 0x18
 2390 0d02 A0120000 		.4byte	.LASF230
 2391 0d06 0C       		.byte	0xc
 2392 0d07 7D02     		.2byte	0x27d
 2393 0d09 E0000000 		.4byte	0xe0
 2394 0d0d 10       		.byte	0x10
 2395 0d0e 18       		.uleb128 0x18
 2396 0d0f 770E0000 		.4byte	.LASF231
 2397 0d13 0C       		.byte	0xc
 2398 0d14 7E02     		.2byte	0x27e
 2399 0d16 E0000000 		.4byte	0xe0
 2400 0d1a 14       		.byte	0x14
 2401 0d1b 18       		.uleb128 0x18
 2402 0d1c 8B0A0000 		.4byte	.LASF214
 2403 0d20 0C       		.byte	0xc
 2404 0d21 8002     		.2byte	0x280
 2405 0d23 C70B0000 		.4byte	0xbc7
 2406 0d27 18       		.byte	0x18
 2407 0d28 18       		.uleb128 0x18
 2408 0d29 31210000 		.4byte	.LASF215
 2409 0d2d 0C       		.byte	0xc
 2410 0d2e 8102     		.2byte	0x281
 2411 0d30 CE000000 		.4byte	0xce
 2412 0d34 1C       		.byte	0x1c
 2413 0d35 18       		.uleb128 0x18
 2414 0d36 350F0000 		.4byte	.LASF216
 2415 0d3a 0C       		.byte	0xc
ARM GAS  C:\Users\dmr85\AppData\Local\Temp\ccbw5e1d.s 			page 73


 2416 0d3b 8202     		.2byte	0x282
 2417 0d3d E0000000 		.4byte	0xe0
 2418 0d41 20       		.byte	0x20
 2419 0d42 18       		.uleb128 0x18
 2420 0d43 83140000 		.4byte	.LASF217
 2421 0d47 0C       		.byte	0xc
 2422 0d48 8402     		.2byte	0x284
 2423 0d4a C70B0000 		.4byte	0xbc7
 2424 0d4e 24       		.byte	0x24
 2425 0d4f 18       		.uleb128 0x18
 2426 0d50 11130000 		.4byte	.LASF218
 2427 0d54 0C       		.byte	0xc
 2428 0d55 8502     		.2byte	0x285
 2429 0d57 CE000000 		.4byte	0xce
 2430 0d5b 28       		.byte	0x28
 2431 0d5c 18       		.uleb128 0x18
 2432 0d5d 41190000 		.4byte	.LASF232
 2433 0d61 0C       		.byte	0xc
 2434 0d62 8602     		.2byte	0x286
 2435 0d64 E0000000 		.4byte	0xe0
 2436 0d68 2C       		.byte	0x2c
 2437 0d69 18       		.uleb128 0x18
 2438 0d6a A30B0000 		.4byte	.LASF220
 2439 0d6e 0C       		.byte	0xc
 2440 0d6f 8B02     		.2byte	0x28b
 2441 0d71 B40C0000 		.4byte	0xcb4
 2442 0d75 30       		.byte	0x30
 2443 0d76 18       		.uleb128 0x18
 2444 0d77 680F0000 		.4byte	.LASF221
 2445 0d7b 0C       		.byte	0xc
 2446 0d7c 8E02     		.2byte	0x28e
 2447 0d7e CE000000 		.4byte	0xce
 2448 0d82 34       		.byte	0x34
 2449 0d83 00       		.byte	0
 2450 0d84 0F       		.uleb128 0xf
 2451 0d85 4D030000 		.4byte	.LASF233
 2452 0d89 0C       		.byte	0xc
 2453 0d8a 9102     		.2byte	0x291
 2454 0d8c C00C0000 		.4byte	0xcc0
 2455 0d90 14       		.uleb128 0x14
 2456 0d91 02       		.byte	0x2
 2457 0d92 5B000000 		.4byte	0x5b
 2458 0d96 0D       		.byte	0xd
 2459 0d97 5401     		.2byte	0x154
 2460 0d99 D0100000 		.4byte	0x10d0
 2461 0d9d 15       		.uleb128 0x15
 2462 0d9e 63040000 		.4byte	.LASF234
 2463 0da2 00       		.byte	0
 2464 0da3 19       		.uleb128 0x19
 2465 0da4 05020000 		.4byte	.LASF235
 2466 0da8 0010     		.2byte	0x1000
 2467 0daa 19       		.uleb128 0x19
 2468 0dab 2D1B0000 		.4byte	.LASF236
 2469 0daf 0110     		.2byte	0x1001
 2470 0db1 19       		.uleb128 0x19
 2471 0db2 D00C0000 		.4byte	.LASF237
 2472 0db6 0210     		.2byte	0x1002
ARM GAS  C:\Users\dmr85\AppData\Local\Temp\ccbw5e1d.s 			page 74


 2473 0db8 19       		.uleb128 0x19
 2474 0db9 500D0000 		.4byte	.LASF238
 2475 0dbd 0310     		.2byte	0x1003
 2476 0dbf 19       		.uleb128 0x19
 2477 0dc0 11010000 		.4byte	.LASF239
 2478 0dc4 0410     		.2byte	0x1004
 2479 0dc6 19       		.uleb128 0x19
 2480 0dc7 3A200000 		.4byte	.LASF240
 2481 0dcb 0510     		.2byte	0x1005
 2482 0dcd 19       		.uleb128 0x19
 2483 0dce D4150000 		.4byte	.LASF241
 2484 0dd2 0020     		.2byte	0x2000
 2485 0dd4 19       		.uleb128 0x19
 2486 0dd5 7F190000 		.4byte	.LASF242
 2487 0dd9 0120     		.2byte	0x2001
 2488 0ddb 19       		.uleb128 0x19
 2489 0ddc 41150000 		.4byte	.LASF243
 2490 0de0 0220     		.2byte	0x2002
 2491 0de2 19       		.uleb128 0x19
 2492 0de3 060D0000 		.4byte	.LASF244
 2493 0de7 0320     		.2byte	0x2003
 2494 0de9 19       		.uleb128 0x19
 2495 0dea 0F0F0000 		.4byte	.LASF245
 2496 0dee 0420     		.2byte	0x2004
 2497 0df0 19       		.uleb128 0x19
 2498 0df1 A6110000 		.4byte	.LASF246
 2499 0df5 0520     		.2byte	0x2005
 2500 0df7 19       		.uleb128 0x19
 2501 0df8 5E0C0000 		.4byte	.LASF247
 2502 0dfc 0620     		.2byte	0x2006
 2503 0dfe 19       		.uleb128 0x19
 2504 0dff 371A0000 		.4byte	.LASF248
 2505 0e03 0720     		.2byte	0x2007
 2506 0e05 19       		.uleb128 0x19
 2507 0e06 D41C0000 		.4byte	.LASF249
 2508 0e0a 0820     		.2byte	0x2008
 2509 0e0c 19       		.uleb128 0x19
 2510 0e0d E7090000 		.4byte	.LASF250
 2511 0e11 0920     		.2byte	0x2009
 2512 0e13 19       		.uleb128 0x19
 2513 0e14 D7070000 		.4byte	.LASF251
 2514 0e18 0A20     		.2byte	0x200a
 2515 0e1a 19       		.uleb128 0x19
 2516 0e1b 71030000 		.4byte	.LASF252
 2517 0e1f 0B20     		.2byte	0x200b
 2518 0e21 19       		.uleb128 0x19
 2519 0e22 B5150000 		.4byte	.LASF253
 2520 0e26 0C20     		.2byte	0x200c
 2521 0e28 19       		.uleb128 0x19
 2522 0e29 30070000 		.4byte	.LASF254
 2523 0e2d 0D20     		.2byte	0x200d
 2524 0e2f 19       		.uleb128 0x19
 2525 0e30 E50E0000 		.4byte	.LASF255
 2526 0e34 0E20     		.2byte	0x200e
 2527 0e36 19       		.uleb128 0x19
 2528 0e37 7B160000 		.4byte	.LASF256
 2529 0e3b 0F20     		.2byte	0x200f
ARM GAS  C:\Users\dmr85\AppData\Local\Temp\ccbw5e1d.s 			page 75


 2530 0e3d 19       		.uleb128 0x19
 2531 0e3e 76110000 		.4byte	.LASF257
 2532 0e42 1020     		.2byte	0x2010
 2533 0e44 19       		.uleb128 0x19
 2534 0e45 E4120000 		.4byte	.LASF258
 2535 0e49 1120     		.2byte	0x2011
 2536 0e4b 19       		.uleb128 0x19
 2537 0e4c A21C0000 		.4byte	.LASF259
 2538 0e50 1220     		.2byte	0x2012
 2539 0e52 19       		.uleb128 0x19
 2540 0e53 5E0A0000 		.4byte	.LASF260
 2541 0e57 1320     		.2byte	0x2013
 2542 0e59 19       		.uleb128 0x19
 2543 0e5a 1F100000 		.4byte	.LASF261
 2544 0e5e 1420     		.2byte	0x2014
 2545 0e60 19       		.uleb128 0x19
 2546 0e61 DC040000 		.4byte	.LASF262
 2547 0e65 1520     		.2byte	0x2015
 2548 0e67 19       		.uleb128 0x19
 2549 0e68 B5060000 		.4byte	.LASF263
 2550 0e6c 1620     		.2byte	0x2016
 2551 0e6e 19       		.uleb128 0x19
 2552 0e6f C8030000 		.4byte	.LASF264
 2553 0e73 1720     		.2byte	0x2017
 2554 0e75 19       		.uleb128 0x19
 2555 0e76 6B070000 		.4byte	.LASF265
 2556 0e7a 0030     		.2byte	0x3000
 2557 0e7c 19       		.uleb128 0x19
 2558 0e7d 260B0000 		.4byte	.LASF266
 2559 0e81 0130     		.2byte	0x3001
 2560 0e83 19       		.uleb128 0x19
 2561 0e84 BD090000 		.4byte	.LASF267
 2562 0e88 0230     		.2byte	0x3002
 2563 0e8a 19       		.uleb128 0x19
 2564 0e8b 651A0000 		.4byte	.LASF268
 2565 0e8f 0330     		.2byte	0x3003
 2566 0e91 19       		.uleb128 0x19
 2567 0e92 2A090000 		.4byte	.LASF269
 2568 0e96 0430     		.2byte	0x3004
 2569 0e98 19       		.uleb128 0x19
 2570 0e99 C01A0000 		.4byte	.LASF270
 2571 0e9d 0530     		.2byte	0x3005
 2572 0e9f 19       		.uleb128 0x19
 2573 0ea0 E6010000 		.4byte	.LASF271
 2574 0ea4 0630     		.2byte	0x3006
 2575 0ea6 19       		.uleb128 0x19
 2576 0ea7 3C1F0000 		.4byte	.LASF272
 2577 0eab 0730     		.2byte	0x3007
 2578 0ead 19       		.uleb128 0x19
 2579 0eae 09120000 		.4byte	.LASF273
 2580 0eb2 0830     		.2byte	0x3008
 2581 0eb4 19       		.uleb128 0x19
 2582 0eb5 090C0000 		.4byte	.LASF274
 2583 0eb9 0930     		.2byte	0x3009
 2584 0ebb 19       		.uleb128 0x19
 2585 0ebc 891A0000 		.4byte	.LASF275
 2586 0ec0 0A30     		.2byte	0x300a
ARM GAS  C:\Users\dmr85\AppData\Local\Temp\ccbw5e1d.s 			page 76


 2587 0ec2 19       		.uleb128 0x19
 2588 0ec3 FB0D0000 		.4byte	.LASF276
 2589 0ec7 0B30     		.2byte	0x300b
 2590 0ec9 19       		.uleb128 0x19
 2591 0eca 091B0000 		.4byte	.LASF277
 2592 0ece 0C30     		.2byte	0x300c
 2593 0ed0 19       		.uleb128 0x19
 2594 0ed1 AB0F0000 		.4byte	.LASF278
 2595 0ed5 1130     		.2byte	0x3011
 2596 0ed7 19       		.uleb128 0x19
 2597 0ed8 CA160000 		.4byte	.LASF279
 2598 0edc 1230     		.2byte	0x3012
 2599 0ede 19       		.uleb128 0x19
 2600 0edf 901B0000 		.4byte	.LASF280
 2601 0ee3 1330     		.2byte	0x3013
 2602 0ee5 19       		.uleb128 0x19
 2603 0ee6 A9190000 		.4byte	.LASF281
 2604 0eea 1430     		.2byte	0x3014
 2605 0eec 19       		.uleb128 0x19
 2606 0eed FE170000 		.4byte	.LASF282
 2607 0ef1 1530     		.2byte	0x3015
 2608 0ef3 19       		.uleb128 0x19
 2609 0ef4 D0100000 		.4byte	.LASF283
 2610 0ef8 1630     		.2byte	0x3016
 2611 0efa 19       		.uleb128 0x19
 2612 0efb A9130000 		.4byte	.LASF284
 2613 0eff 1730     		.2byte	0x3017
 2614 0f01 19       		.uleb128 0x19
 2615 0f02 6A0D0000 		.4byte	.LASF285
 2616 0f06 1830     		.2byte	0x3018
 2617 0f08 19       		.uleb128 0x19
 2618 0f09 83170000 		.4byte	.LASF286
 2619 0f0d 1930     		.2byte	0x3019
 2620 0f0f 19       		.uleb128 0x19
 2621 0f10 CB130000 		.4byte	.LASF287
 2622 0f14 0040     		.2byte	0x4000
 2623 0f16 19       		.uleb128 0x19
 2624 0f17 390A0000 		.4byte	.LASF288
 2625 0f1b 0140     		.2byte	0x4001
 2626 0f1d 19       		.uleb128 0x19
 2627 0f1e 591E0000 		.4byte	.LASF289
 2628 0f22 0240     		.2byte	0x4002
 2629 0f24 19       		.uleb128 0x19
 2630 0f25 C01B0000 		.4byte	.LASF290
 2631 0f29 0340     		.2byte	0x4003
 2632 0f2b 19       		.uleb128 0x19
 2633 0f2c 02100000 		.4byte	.LASF291
 2634 0f30 0440     		.2byte	0x4004
 2635 0f32 19       		.uleb128 0x19
 2636 0f33 8F200000 		.4byte	.LASF292
 2637 0f37 0540     		.2byte	0x4005
 2638 0f39 19       		.uleb128 0x19
 2639 0f3a 9B000000 		.4byte	.LASF293
 2640 0f3e 0640     		.2byte	0x4006
 2641 0f40 19       		.uleb128 0x19
 2642 0f41 FB0A0000 		.4byte	.LASF294
 2643 0f45 0740     		.2byte	0x4007
ARM GAS  C:\Users\dmr85\AppData\Local\Temp\ccbw5e1d.s 			page 77


 2644 0f47 19       		.uleb128 0x19
 2645 0f48 9B170000 		.4byte	.LASF295
 2646 0f4c 0840     		.2byte	0x4008
 2647 0f4e 19       		.uleb128 0x19
 2648 0f4f 89090000 		.4byte	.LASF296
 2649 0f53 0940     		.2byte	0x4009
 2650 0f55 19       		.uleb128 0x19
 2651 0f56 59210000 		.4byte	.LASF297
 2652 0f5a 0A40     		.2byte	0x400a
 2653 0f5c 19       		.uleb128 0x19
 2654 0f5d 1F0E0000 		.4byte	.LASF298
 2655 0f61 0B40     		.2byte	0x400b
 2656 0f63 19       		.uleb128 0x19
 2657 0f64 BF120000 		.4byte	.LASF299
 2658 0f68 0C40     		.2byte	0x400c
 2659 0f6a 19       		.uleb128 0x19
 2660 0f6b 3E0F0000 		.4byte	.LASF300
 2661 0f6f 0D40     		.2byte	0x400d
 2662 0f71 19       		.uleb128 0x19
 2663 0f72 17140000 		.4byte	.LASF301
 2664 0f76 0E40     		.2byte	0x400e
 2665 0f78 19       		.uleb128 0x19
 2666 0f79 4D0E0000 		.4byte	.LASF302
 2667 0f7d 0F40     		.2byte	0x400f
 2668 0f7f 19       		.uleb128 0x19
 2669 0f80 AF080000 		.4byte	.LASF303
 2670 0f84 1040     		.2byte	0x4010
 2671 0f86 19       		.uleb128 0x19
 2672 0f87 F81C0000 		.4byte	.LASF304
 2673 0f8b 1140     		.2byte	0x4011
 2674 0f8d 19       		.uleb128 0x19
 2675 0f8e DF140000 		.4byte	.LASF305
 2676 0f92 1240     		.2byte	0x4012
 2677 0f94 19       		.uleb128 0x19
 2678 0f95 C1180000 		.4byte	.LASF306
 2679 0f99 1340     		.2byte	0x4013
 2680 0f9b 19       		.uleb128 0x19
 2681 0f9c 89140000 		.4byte	.LASF307
 2682 0fa0 1440     		.2byte	0x4014
 2683 0fa2 19       		.uleb128 0x19
 2684 0fa3 DD050000 		.4byte	.LASF308
 2685 0fa7 1540     		.2byte	0x4015
 2686 0fa9 19       		.uleb128 0x19
 2687 0faa 53200000 		.4byte	.LASF309
 2688 0fae 1640     		.2byte	0x4016
 2689 0fb0 19       		.uleb128 0x19
 2690 0fb1 CB020000 		.4byte	.LASF310
 2691 0fb5 1740     		.2byte	0x4017
 2692 0fb7 19       		.uleb128 0x19
 2693 0fb8 55110000 		.4byte	.LASF311
 2694 0fbc 1840     		.2byte	0x4018
 2695 0fbe 19       		.uleb128 0x19
 2696 0fbf 3C180000 		.4byte	.LASF312
 2697 0fc3 1940     		.2byte	0x4019
 2698 0fc5 19       		.uleb128 0x19
 2699 0fc6 26130000 		.4byte	.LASF313
 2700 0fca 1A40     		.2byte	0x401a
ARM GAS  C:\Users\dmr85\AppData\Local\Temp\ccbw5e1d.s 			page 78


 2701 0fcc 19       		.uleb128 0x19
 2702 0fcd 38160000 		.4byte	.LASF314
 2703 0fd1 0050     		.2byte	0x5000
 2704 0fd3 19       		.uleb128 0x19
 2705 0fd4 47040000 		.4byte	.LASF315
 2706 0fd8 0150     		.2byte	0x5001
 2707 0fda 19       		.uleb128 0x19
 2708 0fdb 22190000 		.4byte	.LASF316
 2709 0fdf 0250     		.2byte	0x5002
 2710 0fe1 19       		.uleb128 0x19
 2711 0fe2 061E0000 		.4byte	.LASF317
 2712 0fe6 0350     		.2byte	0x5003
 2713 0fe8 19       		.uleb128 0x19
 2714 0fe9 6D060000 		.4byte	.LASF318
 2715 0fed 0450     		.2byte	0x5004
 2716 0fef 19       		.uleb128 0x19
 2717 0ff0 53160000 		.4byte	.LASF319
 2718 0ff4 0550     		.2byte	0x5005
 2719 0ff6 19       		.uleb128 0x19
 2720 0ff7 C30E0000 		.4byte	.LASF320
 2721 0ffb 0650     		.2byte	0x5006
 2722 0ffd 19       		.uleb128 0x19
 2723 0ffe 93030000 		.4byte	.LASF321
 2724 1002 0750     		.2byte	0x5007
 2725 1004 19       		.uleb128 0x19
 2726 1005 A6040000 		.4byte	.LASF322
 2727 1009 0850     		.2byte	0x5008
 2728 100b 19       		.uleb128 0x19
 2729 100c DC060000 		.4byte	.LASF323
 2730 1010 0950     		.2byte	0x5009
 2731 1012 19       		.uleb128 0x19
 2732 1013 08070000 		.4byte	.LASF324
 2733 1017 0A50     		.2byte	0x500a
 2734 1019 19       		.uleb128 0x19
 2735 101a 6A180000 		.4byte	.LASF325
 2736 101e 0B50     		.2byte	0x500b
 2737 1020 19       		.uleb128 0x19
 2738 1021 A6160000 		.4byte	.LASF326
 2739 1025 0C50     		.2byte	0x500c
 2740 1027 19       		.uleb128 0x19
 2741 1028 820C0000 		.4byte	.LASF327
 2742 102c 0D50     		.2byte	0x500d
 2743 102e 19       		.uleb128 0x19
 2744 102f 1D1F0000 		.4byte	.LASF328
 2745 1033 0E50     		.2byte	0x500e
 2746 1035 19       		.uleb128 0x19
 2747 1036 4D0B0000 		.4byte	.LASF329
 2748 103a 0F50     		.2byte	0x500f
 2749 103c 19       		.uleb128 0x19
 2750 103d 190A0000 		.4byte	.LASF330
 2751 1041 1050     		.2byte	0x5010
 2752 1043 19       		.uleb128 0x19
 2753 1044 BD1D0000 		.4byte	.LASF331
 2754 1048 1150     		.2byte	0x5011
 2755 104a 19       		.uleb128 0x19
 2756 104b 60010000 		.4byte	.LASF332
 2757 104f 1250     		.2byte	0x5012
ARM GAS  C:\Users\dmr85\AppData\Local\Temp\ccbw5e1d.s 			page 79


 2758 1051 19       		.uleb128 0x19
 2759 1052 16160000 		.4byte	.LASF333
 2760 1056 1350     		.2byte	0x5013
 2761 1058 19       		.uleb128 0x19
 2762 1059 8C060000 		.4byte	.LASF334
 2763 105d 1450     		.2byte	0x5014
 2764 105f 19       		.uleb128 0x19
 2765 1060 4B1C0000 		.4byte	.LASF335
 2766 1064 1550     		.2byte	0x5015
 2767 1066 19       		.uleb128 0x19
 2768 1067 251E0000 		.4byte	.LASF336
 2769 106b 1650     		.2byte	0x5016
 2770 106d 19       		.uleb128 0x19
 2771 106e F8040000 		.4byte	.LASF337
 2772 1072 1750     		.2byte	0x5017
 2773 1074 19       		.uleb128 0x19
 2774 1075 36120000 		.4byte	.LASF338
 2775 1079 1850     		.2byte	0x5018
 2776 107b 19       		.uleb128 0x19
 2777 107c 891F0000 		.4byte	.LASF339
 2778 1080 0060     		.2byte	0x6000
 2779 1082 19       		.uleb128 0x19
 2780 1083 9E100000 		.4byte	.LASF340
 2781 1087 0160     		.2byte	0x6001
 2782 1089 19       		.uleb128 0x19
 2783 108a 38110000 		.4byte	.LASF341
 2784 108e 0260     		.2byte	0x6002
 2785 1090 19       		.uleb128 0x19
 2786 1091 F0130000 		.4byte	.LASF342
 2787 1095 0360     		.2byte	0x6003
 2788 1097 19       		.uleb128 0x19
 2789 1098 B8070000 		.4byte	.LASF343
 2790 109c 0460     		.2byte	0x6004
 2791 109e 19       		.uleb128 0x19
 2792 109f 00190000 		.4byte	.LASF344
 2793 10a3 0560     		.2byte	0x6005
 2794 10a5 19       		.uleb128 0x19
 2795 10a6 DE0B0000 		.4byte	.LASF345
 2796 10aa 0660     		.2byte	0x6006
 2797 10ac 19       		.uleb128 0x19
 2798 10ad 51000000 		.4byte	.LASF346
 2799 10b1 0760     		.2byte	0x6007
 2800 10b3 19       		.uleb128 0x19
 2801 10b4 56020000 		.4byte	.LASF347
 2802 10b8 0860     		.2byte	0x6008
 2803 10ba 19       		.uleb128 0x19
 2804 10bb E4000000 		.4byte	.LASF348
 2805 10bf 0960     		.2byte	0x6009
 2806 10c1 19       		.uleb128 0x19
 2807 10c2 3C130000 		.4byte	.LASF349
 2808 10c6 0A60     		.2byte	0x600a
 2809 10c8 19       		.uleb128 0x19
 2810 10c9 BB0B0000 		.4byte	.LASF350
 2811 10cd FFFF     		.2byte	0xffff
 2812 10cf 00       		.byte	0
 2813 10d0 1A       		.uleb128 0x1a
 2814 10d1 02       		.byte	0x2
ARM GAS  C:\Users\dmr85\AppData\Local\Temp\ccbw5e1d.s 			page 80


 2815 10d2 0E       		.byte	0xe
 2816 10d3 6001     		.2byte	0x160
 2817 10d5 F4100000 		.4byte	0x10f4
 2818 10d9 18       		.uleb128 0x18
 2819 10da 8F1E0000 		.4byte	.LASF351
 2820 10de 0E       		.byte	0xe
 2821 10df 6A01     		.2byte	0x16a
 2822 10e1 A2000000 		.4byte	0xa2
 2823 10e5 00       		.byte	0
 2824 10e6 18       		.uleb128 0x18
 2825 10e7 E1090000 		.4byte	.LASF352
 2826 10eb 0E       		.byte	0xe
 2827 10ec 6E01     		.2byte	0x16e
 2828 10ee A2000000 		.4byte	0xa2
 2829 10f2 01       		.byte	0x1
 2830 10f3 00       		.byte	0
 2831 10f4 0F       		.uleb128 0xf
 2832 10f5 5A120000 		.4byte	.LASF353
 2833 10f9 0E       		.byte	0xe
 2834 10fa 7001     		.2byte	0x170
 2835 10fc D0100000 		.4byte	0x10d0
 2836 1100 1B       		.uleb128 0x1b
 2837 1101 01       		.byte	0x1
 2838 1102 3E000000 		.4byte	0x3e
 2839 1106 0F       		.byte	0xf
 2840 1107 7E       		.byte	0x7e
 2841 1108 25110000 		.4byte	0x1125
 2842 110c 15       		.uleb128 0x15
 2843 110d 7F040000 		.4byte	.LASF354
 2844 1111 00       		.byte	0
 2845 1112 15       		.uleb128 0x15
 2846 1113 54090000 		.4byte	.LASF355
 2847 1117 01       		.byte	0x1
 2848 1118 15       		.uleb128 0x15
 2849 1119 350C0000 		.4byte	.LASF356
 2850 111d 02       		.byte	0x2
 2851 111e 15       		.uleb128 0x15
 2852 111f 900D0000 		.4byte	.LASF357
 2853 1123 03       		.byte	0x3
 2854 1124 00       		.byte	0
 2855 1125 03       		.uleb128 0x3
 2856 1126 14090000 		.4byte	.LASF358
 2857 112a 0F       		.byte	0xf
 2858 112b 83       		.byte	0x83
 2859 112c 00110000 		.4byte	0x1100
 2860 1130 1B       		.uleb128 0x1b
 2861 1131 01       		.byte	0x1
 2862 1132 3E000000 		.4byte	0x3e
 2863 1136 0F       		.byte	0xf
 2864 1137 87       		.byte	0x87
 2865 1138 6D110000 		.4byte	0x116d
 2866 113c 15       		.uleb128 0x15
 2867 113d BE200000 		.4byte	.LASF359
 2868 1141 00       		.byte	0
 2869 1142 15       		.uleb128 0x15
 2870 1143 11060000 		.4byte	.LASF360
 2871 1147 01       		.byte	0x1
ARM GAS  C:\Users\dmr85\AppData\Local\Temp\ccbw5e1d.s 			page 81


 2872 1148 15       		.uleb128 0x15
 2873 1149 67140000 		.4byte	.LASF361
 2874 114d 02       		.byte	0x2
 2875 114e 15       		.uleb128 0x15
 2876 114f F7200000 		.4byte	.LASF362
 2877 1153 03       		.byte	0x3
 2878 1154 15       		.uleb128 0x15
 2879 1155 10200000 		.4byte	.LASF363
 2880 1159 04       		.byte	0x4
 2881 115a 15       		.uleb128 0x15
 2882 115b C10D0000 		.4byte	.LASF364
 2883 115f 05       		.byte	0x5
 2884 1160 15       		.uleb128 0x15
 2885 1161 3C140000 		.4byte	.LASF365
 2886 1165 06       		.byte	0x6
 2887 1166 15       		.uleb128 0x15
 2888 1167 9C010000 		.4byte	.LASF366
 2889 116b 07       		.byte	0x7
 2890 116c 00       		.byte	0
 2891 116d 03       		.uleb128 0x3
 2892 116e 87100000 		.4byte	.LASF367
 2893 1172 0F       		.byte	0xf
 2894 1173 90       		.byte	0x90
 2895 1174 30110000 		.4byte	0x1130
 2896 1178 05       		.uleb128 0x5
 2897 1179 C3000000 		.4byte	0xc3
 2898 117d 1C       		.uleb128 0x1c
 2899 117e 6D0B0000 		.4byte	.LASF419
 2900 1182 02       		.byte	0x2
 2901 1183 BE01     		.2byte	0x1be
 2902 1185 0D0C0000 		.4byte	0xc0d
 2903 1189 03       		.byte	0x3
 2904 118a B3110000 		.4byte	0x11b3
 2905 118e 1D       		.uleb128 0x1d
 2906 118f FC150000 		.4byte	.LASF368
 2907 1193 02       		.byte	0x2
 2908 1194 BE01     		.2byte	0x1be
 2909 1196 C70B0000 		.4byte	0xbc7
 2910 119a 1D       		.uleb128 0x1d
 2911 119b 9A150000 		.4byte	.LASF369
 2912 119f 02       		.byte	0x2
 2913 11a0 BE01     		.2byte	0x1be
 2914 11a2 C70B0000 		.4byte	0xbc7
 2915 11a6 1D       		.uleb128 0x1d
 2916 11a7 BA120000 		.4byte	.LASF370
 2917 11ab 02       		.byte	0x2
 2918 11ac BE01     		.2byte	0x1be
 2919 11ae CE000000 		.4byte	0xce
 2920 11b2 00       		.byte	0
 2921 11b3 1E       		.uleb128 0x1e
 2922 11b4 9B180000 		.4byte	.LASF373
 2923 11b8 03       		.byte	0x3
 2924 11b9 6403     		.2byte	0x364
 2925 11bb 03       		.byte	0x3
 2926 11bc D9110000 		.4byte	0x11d9
 2927 11c0 1D       		.uleb128 0x1d
 2928 11c1 2C080000 		.4byte	.LASF371
ARM GAS  C:\Users\dmr85\AppData\Local\Temp\ccbw5e1d.s 			page 82


 2929 11c5 03       		.byte	0x3
 2930 11c6 6403     		.2byte	0x364
 2931 11c8 D9110000 		.4byte	0x11d9
 2932 11cc 1D       		.uleb128 0x1d
 2933 11cd AD1B0000 		.4byte	.LASF372
 2934 11d1 03       		.byte	0x3
 2935 11d2 6403     		.2byte	0x364
 2936 11d4 CE000000 		.4byte	0xce
 2937 11d8 00       		.byte	0
 2938 11d9 11       		.uleb128 0x11
 2939 11da 04       		.byte	0x4
 2940 11db 5F070000 		.4byte	0x75f
 2941 11df 1E       		.uleb128 0x1e
 2942 11e0 FE1B0000 		.4byte	.LASF374
 2943 11e4 03       		.byte	0x3
 2944 11e5 7F03     		.2byte	0x37f
 2945 11e7 03       		.byte	0x3
 2946 11e8 05120000 		.4byte	0x1205
 2947 11ec 1D       		.uleb128 0x1d
 2948 11ed 2C080000 		.4byte	.LASF371
 2949 11f1 03       		.byte	0x3
 2950 11f2 7F03     		.2byte	0x37f
 2951 11f4 D9110000 		.4byte	0x11d9
 2952 11f8 1D       		.uleb128 0x1d
 2953 11f9 AD1B0000 		.4byte	.LASF372
 2954 11fd 03       		.byte	0x3
 2955 11fe 7F03     		.2byte	0x37f
 2956 1200 CE000000 		.4byte	0xce
 2957 1204 00       		.byte	0
 2958 1205 1F       		.uleb128 0x1f
 2959 1206 C4000000 		.4byte	.LASF375
 2960 120a 02       		.byte	0x2
 2961 120b D701     		.2byte	0x1d7
 2962 120d CE000000 		.4byte	0xce
 2963 1211 03       		.byte	0x3
 2964 1212 1F       		.uleb128 0x1f
 2965 1213 94130000 		.4byte	.LASF376
 2966 1217 02       		.byte	0x2
 2967 1218 E401     		.2byte	0x1e4
 2968 121a CE000000 		.4byte	0xce
 2969 121e 03       		.byte	0x3
 2970 121f 20       		.uleb128 0x20
 2971 1220 981D0000 		.4byte	.LASF378
 2972 1224 01       		.byte	0x1
 2973 1225 37       		.byte	0x37
 2974 1226 0D0C0000 		.4byte	0xc0d
 2975 122a 00000000 		.4byte	.LFB537
 2976 122e 30000000 		.4byte	.LFE537-.LFB537
 2977 1232 01       		.uleb128 0x1
 2978 1233 9C       		.byte	0x9c
 2979 1234 D5120000 		.4byte	0x12d5
 2980 1238 21       		.uleb128 0x21
 2981 1239 73706900 		.ascii	"spi\000"
 2982 123d 01       		.byte	0x1
 2983 123e 37       		.byte	0x37
 2984 123f D5120000 		.4byte	0x12d5
 2985 1243 00000000 		.4byte	.LLST0
ARM GAS  C:\Users\dmr85\AppData\Local\Temp\ccbw5e1d.s 			page 83


 2986 1247 22       		.uleb128 0x22
 2987 1248 E5200000 		.4byte	.LASF377
 2988 124c 01       		.byte	0x1
 2989 124d 37       		.byte	0x37
 2990 124e A2000000 		.4byte	0xa2
 2991 1252 21000000 		.4byte	.LLST1
 2992 1256 23       		.uleb128 0x23
 2993 1257 FC150000 		.4byte	.LASF368
 2994 125b 01       		.byte	0x1
 2995 125c 39       		.byte	0x39
 2996 125d DB120000 		.4byte	0x12db
 2997 1261 02       		.uleb128 0x2
 2998 1262 91       		.byte	0x91
 2999 1263 74       		.sleb128 -12
 3000 1264 24       		.uleb128 0x24
 3001 1265 37080000 		.4byte	.LASF380
 3002 1269 01       		.byte	0x1
 3003 126a 3C       		.byte	0x3c
 3004 126b 0D0C0000 		.4byte	0xc0d
 3005 126f 25       		.uleb128 0x25
 3006 1270 7D110000 		.4byte	0x117d
 3007 1274 10000000 		.4byte	.LBB43
 3008 1278 10000000 		.4byte	.LBE43-.LBB43
 3009 127c 01       		.byte	0x1
 3010 127d 3D       		.byte	0x3d
 3011 127e C1120000 		.4byte	0x12c1
 3012 1282 26       		.uleb128 0x26
 3013 1283 A6110000 		.4byte	0x11a6
 3014 1287 42000000 		.4byte	.LLST2
 3015 128b 26       		.uleb128 0x26
 3016 128c 9A110000 		.4byte	0x119a
 3017 1290 56000000 		.4byte	.LLST3
 3018 1294 26       		.uleb128 0x26
 3019 1295 8E110000 		.4byte	0x118e
 3020 1299 6A000000 		.4byte	.LLST4
 3021 129d 27       		.uleb128 0x27
 3022 129e 20000000 		.4byte	.LVL3
 3023 12a2 4F1A0000 		.4byte	0x1a4f
 3024 12a6 28       		.uleb128 0x28
 3025 12a7 01       		.uleb128 0x1
 3026 12a8 50       		.byte	0x50
 3027 12a9 05       		.uleb128 0x5
 3028 12aa 0C       		.byte	0xc
 3029 12ab 00006340 		.4byte	0x40630000
 3030 12af 28       		.uleb128 0x28
 3031 12b0 01       		.uleb128 0x1
 3032 12b1 51       		.byte	0x51
 3033 12b2 02       		.uleb128 0x2
 3034 12b3 74       		.byte	0x74
 3035 12b4 00       		.sleb128 0
 3036 12b5 28       		.uleb128 0x28
 3037 12b6 01       		.uleb128 0x1
 3038 12b7 52       		.byte	0x52
 3039 12b8 01       		.uleb128 0x1
 3040 12b9 30       		.byte	0x30
 3041 12ba 28       		.uleb128 0x28
 3042 12bb 01       		.uleb128 0x1
ARM GAS  C:\Users\dmr85\AppData\Local\Temp\ccbw5e1d.s 			page 84


 3043 12bc 53       		.byte	0x53
 3044 12bd 01       		.uleb128 0x1
 3045 12be 31       		.byte	0x31
 3046 12bf 00       		.byte	0
 3047 12c0 00       		.byte	0
 3048 12c1 27       		.uleb128 0x27
 3049 12c2 10000000 		.4byte	.LVL2
 3050 12c6 5B1A0000 		.4byte	0x1a5b
 3051 12ca 28       		.uleb128 0x28
 3052 12cb 01       		.uleb128 0x1
 3053 12cc 50       		.byte	0x50
 3054 12cd 05       		.uleb128 0x5
 3055 12ce 03       		.byte	0x3
 3056 12cf 00000000 		.4byte	.LC0
 3057 12d3 00       		.byte	0
 3058 12d4 00       		.byte	0
 3059 12d5 11       		.uleb128 0x11
 3060 12d6 04       		.byte	0x4
 3061 12d7 E5000000 		.4byte	0xe5
 3062 12db 07       		.uleb128 0x7
 3063 12dc A2000000 		.4byte	0xa2
 3064 12e0 EB120000 		.4byte	0x12eb
 3065 12e4 08       		.uleb128 0x8
 3066 12e5 D9000000 		.4byte	0xd9
 3067 12e9 00       		.byte	0
 3068 12ea 00       		.byte	0
 3069 12eb 20       		.uleb128 0x20
 3070 12ec A30F0000 		.4byte	.LASF379
 3071 12f0 01       		.byte	0x1
 3072 12f1 42       		.byte	0x42
 3073 12f2 0D0C0000 		.4byte	0xc0d
 3074 12f6 00000000 		.4byte	.LFB538
 3075 12fa 34000000 		.4byte	.LFE538-.LFB538
 3076 12fe 01       		.uleb128 0x1
 3077 12ff 9C       		.byte	0x9c
 3078 1300 93130000 		.4byte	0x1393
 3079 1304 21       		.uleb128 0x21
 3080 1305 73706900 		.ascii	"spi\000"
 3081 1309 01       		.byte	0x1
 3082 130a 42       		.byte	0x42
 3083 130b D5120000 		.4byte	0x12d5
 3084 130f 7F000000 		.4byte	.LLST5
 3085 1313 22       		.uleb128 0x22
 3086 1314 9A150000 		.4byte	.LASF369
 3087 1318 01       		.byte	0x1
 3088 1319 42       		.byte	0x42
 3089 131a E10B0000 		.4byte	0xbe1
 3090 131e A0000000 		.4byte	.LLST6
 3091 1322 24       		.uleb128 0x24
 3092 1323 BC1E0000 		.4byte	.LASF381
 3093 1327 01       		.byte	0x1
 3094 1328 44       		.byte	0x44
 3095 1329 0D0C0000 		.4byte	0xc0d
 3096 132d 25       		.uleb128 0x25
 3097 132e 7D110000 		.4byte	0x117d
 3098 1332 06000000 		.4byte	.LBB45
 3099 1336 12000000 		.4byte	.LBE45-.LBB45
ARM GAS  C:\Users\dmr85\AppData\Local\Temp\ccbw5e1d.s 			page 85


 3100 133a 01       		.byte	0x1
 3101 133b 45       		.byte	0x45
 3102 133c 7F130000 		.4byte	0x137f
 3103 1340 26       		.uleb128 0x26
 3104 1341 A6110000 		.4byte	0x11a6
 3105 1345 D7000000 		.4byte	.LLST7
 3106 1349 26       		.uleb128 0x26
 3107 134a 9A110000 		.4byte	0x119a
 3108 134e EB000000 		.4byte	.LLST8
 3109 1352 26       		.uleb128 0x26
 3110 1353 8E110000 		.4byte	0x118e
 3111 1357 14010000 		.4byte	.LLST9
 3112 135b 27       		.uleb128 0x27
 3113 135c 16000000 		.4byte	.LVL8
 3114 1360 4F1A0000 		.4byte	0x1a4f
 3115 1364 28       		.uleb128 0x28
 3116 1365 01       		.uleb128 0x1
 3117 1366 50       		.byte	0x50
 3118 1367 05       		.uleb128 0x5
 3119 1368 0C       		.byte	0xc
 3120 1369 00006340 		.4byte	0x40630000
 3121 136d 28       		.uleb128 0x28
 3122 136e 01       		.uleb128 0x1
 3123 136f 51       		.byte	0x51
 3124 1370 01       		.uleb128 0x1
 3125 1371 30       		.byte	0x30
 3126 1372 28       		.uleb128 0x28
 3127 1373 01       		.uleb128 0x1
 3128 1374 52       		.byte	0x52
 3129 1375 02       		.uleb128 0x2
 3130 1376 74       		.byte	0x74
 3131 1377 00       		.sleb128 0
 3132 1378 28       		.uleb128 0x28
 3133 1379 01       		.uleb128 0x1
 3134 137a 53       		.byte	0x53
 3135 137b 01       		.uleb128 0x1
 3136 137c 31       		.byte	0x31
 3137 137d 00       		.byte	0
 3138 137e 00       		.byte	0
 3139 137f 27       		.uleb128 0x27
 3140 1380 20000000 		.4byte	.LVL10
 3141 1384 5B1A0000 		.4byte	0x1a5b
 3142 1388 28       		.uleb128 0x28
 3143 1389 01       		.uleb128 0x1
 3144 138a 50       		.byte	0x50
 3145 138b 05       		.uleb128 0x5
 3146 138c 03       		.byte	0x3
 3147 138d 00000000 		.4byte	.LC0
 3148 1391 00       		.byte	0
 3149 1392 00       		.byte	0
 3150 1393 29       		.uleb128 0x29
 3151 1394 94010000 		.4byte	.LASF383
 3152 1398 01       		.byte	0x1
 3153 1399 57       		.byte	0x57
 3154 139a 00000000 		.4byte	.LFB541
 3155 139e 10000000 		.4byte	.LFE541-.LFB541
 3156 13a2 01       		.uleb128 0x1
ARM GAS  C:\Users\dmr85\AppData\Local\Temp\ccbw5e1d.s 			page 86


 3157 13a3 9C       		.byte	0x9c
 3158 13a4 CD130000 		.4byte	0x13cd
 3159 13a8 22       		.uleb128 0x22
 3160 13a9 EC170000 		.4byte	.LASF382
 3161 13ad 01       		.byte	0x1
 3162 13ae 57       		.byte	0x57
 3163 13af 94000000 		.4byte	0x94
 3164 13b3 28010000 		.4byte	.LLST10
 3165 13b7 27       		.uleb128 0x27
 3166 13b8 0E000000 		.4byte	.LVL14
 3167 13bc 661A0000 		.4byte	0x1a66
 3168 13c0 28       		.uleb128 0x28
 3169 13c1 01       		.uleb128 0x1
 3170 13c2 50       		.byte	0x50
 3171 13c3 07       		.uleb128 0x7
 3172 13c4 F3       		.byte	0xf3
 3173 13c5 01       		.uleb128 0x1
 3174 13c6 50       		.byte	0x50
 3175 13c7 0A       		.byte	0xa
 3176 13c8 E803     		.2byte	0x3e8
 3177 13ca 1E       		.byte	0x1e
 3178 13cb 00       		.byte	0
 3179 13cc 00       		.byte	0
 3180 13cd 29       		.uleb128 0x29
 3181 13ce C70C0000 		.4byte	.LASF384
 3182 13d2 01       		.byte	0x1
 3183 13d3 5C       		.byte	0x5c
 3184 13d4 00000000 		.4byte	.LFB542
 3185 13d8 08000000 		.4byte	.LFE542-.LFB542
 3186 13dc 01       		.uleb128 0x1
 3187 13dd 9C       		.byte	0x9c
 3188 13de 03140000 		.4byte	0x1403
 3189 13e2 22       		.uleb128 0x22
 3190 13e3 EC170000 		.4byte	.LASF382
 3191 13e7 01       		.byte	0x1
 3192 13e8 5C       		.byte	0x5c
 3193 13e9 94000000 		.4byte	0x94
 3194 13ed 49010000 		.4byte	.LLST11
 3195 13f1 27       		.uleb128 0x27
 3196 13f2 06000000 		.4byte	.LVL16
 3197 13f6 661A0000 		.4byte	0x1a66
 3198 13fa 28       		.uleb128 0x28
 3199 13fb 01       		.uleb128 0x1
 3200 13fc 50       		.byte	0x50
 3201 13fd 03       		.uleb128 0x3
 3202 13fe F3       		.byte	0xf3
 3203 13ff 01       		.uleb128 0x1
 3204 1400 50       		.byte	0x50
 3205 1401 00       		.byte	0
 3206 1402 00       		.byte	0
 3207 1403 29       		.uleb128 0x29
 3208 1404 981E0000 		.4byte	.LASF385
 3209 1408 01       		.byte	0x1
 3210 1409 61       		.byte	0x61
 3211 140a 00000000 		.4byte	.LFB543
 3212 140e 0A000000 		.4byte	.LFE543-.LFB543
 3213 1412 01       		.uleb128 0x1
ARM GAS  C:\Users\dmr85\AppData\Local\Temp\ccbw5e1d.s 			page 87


 3214 1413 9C       		.byte	0x9c
 3215 1414 39140000 		.4byte	0x1439
 3216 1418 22       		.uleb128 0x22
 3217 1419 EC170000 		.4byte	.LASF382
 3218 141d 01       		.byte	0x1
 3219 141e 61       		.byte	0x61
 3220 141f 94000000 		.4byte	0x94
 3221 1423 6A010000 		.4byte	.LLST12
 3222 1427 27       		.uleb128 0x27
 3223 1428 08000000 		.4byte	.LVL19
 3224 142c 721A0000 		.4byte	0x1a72
 3225 1430 28       		.uleb128 0x28
 3226 1431 01       		.uleb128 0x1
 3227 1432 50       		.byte	0x50
 3228 1433 03       		.uleb128 0x3
 3229 1434 F3       		.byte	0xf3
 3230 1435 01       		.uleb128 0x1
 3231 1436 50       		.byte	0x50
 3232 1437 00       		.byte	0
 3233 1438 00       		.byte	0
 3234 1439 29       		.uleb128 0x29
 3235 143a 82010000 		.4byte	.LASF386
 3236 143e 01       		.byte	0x1
 3237 143f 66       		.byte	0x66
 3238 1440 00000000 		.4byte	.LFB544
 3239 1444 4C000000 		.4byte	.LFE544-.LFB544
 3240 1448 01       		.uleb128 0x1
 3241 1449 9C       		.byte	0x9c
 3242 144a 3E150000 		.4byte	0x153e
 3243 144e 21       		.uleb128 0x21
 3244 144f 70696E00 		.ascii	"pin\000"
 3245 1453 01       		.byte	0x1
 3246 1454 66       		.byte	0x66
 3247 1455 CE000000 		.4byte	0xce
 3248 1459 8B010000 		.4byte	.LLST13
 3249 145d 25       		.uleb128 0x25
 3250 145e B3110000 		.4byte	0x11b3
 3251 1462 10000000 		.4byte	.LBB47
 3252 1466 08000000 		.4byte	.LBE47-.LBB47
 3253 146a 01       		.byte	0x1
 3254 146b 6B       		.byte	0x6b
 3255 146c 83140000 		.4byte	0x1483
 3256 1470 26       		.uleb128 0x26
 3257 1471 CC110000 		.4byte	0x11cc
 3258 1475 AB010000 		.4byte	.LLST14
 3259 1479 26       		.uleb128 0x26
 3260 147a C0110000 		.4byte	0x11c0
 3261 147e BF010000 		.4byte	.LLST15
 3262 1482 00       		.byte	0
 3263 1483 25       		.uleb128 0x25
 3264 1484 B3110000 		.4byte	0x11b3
 3265 1488 18000000 		.4byte	.LBB49
 3266 148c 08000000 		.4byte	.LBE49-.LBB49
 3267 1490 01       		.byte	0x1
 3268 1491 6E       		.byte	0x6e
 3269 1492 A9140000 		.4byte	0x14a9
 3270 1496 26       		.uleb128 0x26
ARM GAS  C:\Users\dmr85\AppData\Local\Temp\ccbw5e1d.s 			page 88


 3271 1497 CC110000 		.4byte	0x11cc
 3272 149b D7010000 		.4byte	.LLST16
 3273 149f 26       		.uleb128 0x26
 3274 14a0 C0110000 		.4byte	0x11c0
 3275 14a4 EB010000 		.4byte	.LLST17
 3276 14a8 00       		.byte	0
 3277 14a9 25       		.uleb128 0x25
 3278 14aa B3110000 		.4byte	0x11b3
 3279 14ae 20000000 		.4byte	.LBB51
 3280 14b2 08000000 		.4byte	.LBE51-.LBB51
 3281 14b6 01       		.byte	0x1
 3282 14b7 71       		.byte	0x71
 3283 14b8 CF140000 		.4byte	0x14cf
 3284 14bc 26       		.uleb128 0x26
 3285 14bd CC110000 		.4byte	0x11cc
 3286 14c1 03020000 		.4byte	.LLST18
 3287 14c5 26       		.uleb128 0x26
 3288 14c6 C0110000 		.4byte	0x11c0
 3289 14ca 17020000 		.4byte	.LLST19
 3290 14ce 00       		.byte	0
 3291 14cf 25       		.uleb128 0x25
 3292 14d0 B3110000 		.4byte	0x11b3
 3293 14d4 28000000 		.4byte	.LBB53
 3294 14d8 08000000 		.4byte	.LBE53-.LBB53
 3295 14dc 01       		.byte	0x1
 3296 14dd 74       		.byte	0x74
 3297 14de F5140000 		.4byte	0x14f5
 3298 14e2 26       		.uleb128 0x26
 3299 14e3 CC110000 		.4byte	0x11cc
 3300 14e7 2F020000 		.4byte	.LLST20
 3301 14eb 26       		.uleb128 0x26
 3302 14ec C0110000 		.4byte	0x11c0
 3303 14f0 43020000 		.4byte	.LLST21
 3304 14f4 00       		.byte	0
 3305 14f5 25       		.uleb128 0x25
 3306 14f6 B3110000 		.4byte	0x11b3
 3307 14fa 30000000 		.4byte	.LBB55
 3308 14fe 08000000 		.4byte	.LBE55-.LBB55
 3309 1502 01       		.byte	0x1
 3310 1503 77       		.byte	0x77
 3311 1504 1B150000 		.4byte	0x151b
 3312 1508 26       		.uleb128 0x26
 3313 1509 CC110000 		.4byte	0x11cc
 3314 150d 5B020000 		.4byte	.LLST22
 3315 1511 26       		.uleb128 0x26
 3316 1512 C0110000 		.4byte	0x11c0
 3317 1516 6F020000 		.4byte	.LLST23
 3318 151a 00       		.byte	0
 3319 151b 2A       		.uleb128 0x2a
 3320 151c B3110000 		.4byte	0x11b3
 3321 1520 38000000 		.4byte	.LBB57
 3322 1524 14000000 		.4byte	.LBE57-.LBB57
 3323 1528 01       		.byte	0x1
 3324 1529 7A       		.byte	0x7a
 3325 152a 26       		.uleb128 0x26
 3326 152b CC110000 		.4byte	0x11cc
 3327 152f 87020000 		.4byte	.LLST24
ARM GAS  C:\Users\dmr85\AppData\Local\Temp\ccbw5e1d.s 			page 89


 3328 1533 26       		.uleb128 0x26
 3329 1534 C0110000 		.4byte	0x11c0
 3330 1538 9B020000 		.4byte	.LLST25
 3331 153c 00       		.byte	0
 3332 153d 00       		.byte	0
 3333 153e 29       		.uleb128 0x29
 3334 153f 1A150000 		.4byte	.LASF387
 3335 1543 01       		.byte	0x1
 3336 1544 51       		.byte	0x51
 3337 1545 00000000 		.4byte	.LFB540
 3338 1549 0A000000 		.4byte	.LFE540-.LFB540
 3339 154d 01       		.uleb128 0x1
 3340 154e 9C       		.byte	0x9c
 3341 154f 81150000 		.4byte	0x1581
 3342 1553 21       		.uleb128 0x21
 3343 1554 73706900 		.ascii	"spi\000"
 3344 1558 01       		.byte	0x1
 3345 1559 51       		.byte	0x51
 3346 155a D5120000 		.4byte	0x12d5
 3347 155e B3020000 		.4byte	.LLST26
 3348 1562 22       		.uleb128 0x22
 3349 1563 FD110000 		.4byte	.LASF388
 3350 1567 01       		.byte	0x1
 3351 1568 51       		.byte	0x51
 3352 1569 A2000000 		.4byte	0xa2
 3353 156d D4020000 		.4byte	.LLST27
 3354 1571 27       		.uleb128 0x27
 3355 1572 08000000 		.4byte	.LVL31
 3356 1576 39140000 		.4byte	0x1439
 3357 157a 28       		.uleb128 0x28
 3358 157b 01       		.uleb128 0x1
 3359 157c 50       		.byte	0x50
 3360 157d 01       		.uleb128 0x1
 3361 157e 35       		.byte	0x35
 3362 157f 00       		.byte	0
 3363 1580 00       		.byte	0
 3364 1581 29       		.uleb128 0x29
 3365 1582 C6110000 		.4byte	.LASF389
 3366 1586 01       		.byte	0x1
 3367 1587 7F       		.byte	0x7f
 3368 1588 00000000 		.4byte	.LFB545
 3369 158c 44000000 		.4byte	.LFE545-.LFB545
 3370 1590 01       		.uleb128 0x1
 3371 1591 9C       		.byte	0x9c
 3372 1592 60160000 		.4byte	0x1660
 3373 1596 21       		.uleb128 0x21
 3374 1597 70696E00 		.ascii	"pin\000"
 3375 159b 01       		.byte	0x1
 3376 159c 7F       		.byte	0x7f
 3377 159d CE000000 		.4byte	0xce
 3378 15a1 F5020000 		.4byte	.LLST28
 3379 15a5 25       		.uleb128 0x25
 3380 15a6 DF110000 		.4byte	0x11df
 3381 15aa 10000000 		.4byte	.LBB59
 3382 15ae 08000000 		.4byte	.LBE59-.LBB59
 3383 15b2 01       		.byte	0x1
 3384 15b3 84       		.byte	0x84
ARM GAS  C:\Users\dmr85\AppData\Local\Temp\ccbw5e1d.s 			page 90


 3385 15b4 CB150000 		.4byte	0x15cb
 3386 15b8 26       		.uleb128 0x26
 3387 15b9 F8110000 		.4byte	0x11f8
 3388 15bd 15030000 		.4byte	.LLST29
 3389 15c1 26       		.uleb128 0x26
 3390 15c2 EC110000 		.4byte	0x11ec
 3391 15c6 29030000 		.4byte	.LLST30
 3392 15ca 00       		.byte	0
 3393 15cb 25       		.uleb128 0x25
 3394 15cc DF110000 		.4byte	0x11df
 3395 15d0 18000000 		.4byte	.LBB61
 3396 15d4 08000000 		.4byte	.LBE61-.LBB61
 3397 15d8 01       		.byte	0x1
 3398 15d9 87       		.byte	0x87
 3399 15da F1150000 		.4byte	0x15f1
 3400 15de 26       		.uleb128 0x26
 3401 15df F8110000 		.4byte	0x11f8
 3402 15e3 41030000 		.4byte	.LLST31
 3403 15e7 26       		.uleb128 0x26
 3404 15e8 EC110000 		.4byte	0x11ec
 3405 15ec 55030000 		.4byte	.LLST32
 3406 15f0 00       		.byte	0
 3407 15f1 25       		.uleb128 0x25
 3408 15f2 DF110000 		.4byte	0x11df
 3409 15f6 20000000 		.4byte	.LBB63
 3410 15fa 08000000 		.4byte	.LBE63-.LBB63
 3411 15fe 01       		.byte	0x1
 3412 15ff 8A       		.byte	0x8a
 3413 1600 17160000 		.4byte	0x1617
 3414 1604 26       		.uleb128 0x26
 3415 1605 F8110000 		.4byte	0x11f8
 3416 1609 6D030000 		.4byte	.LLST33
 3417 160d 26       		.uleb128 0x26
 3418 160e EC110000 		.4byte	0x11ec
 3419 1612 81030000 		.4byte	.LLST34
 3420 1616 00       		.byte	0
 3421 1617 25       		.uleb128 0x25
 3422 1618 DF110000 		.4byte	0x11df
 3423 161c 28000000 		.4byte	.LBB65
 3424 1620 08000000 		.4byte	.LBE65-.LBB65
 3425 1624 01       		.byte	0x1
 3426 1625 8D       		.byte	0x8d
 3427 1626 3D160000 		.4byte	0x163d
 3428 162a 26       		.uleb128 0x26
 3429 162b F8110000 		.4byte	0x11f8
 3430 162f 99030000 		.4byte	.LLST35
 3431 1633 26       		.uleb128 0x26
 3432 1634 EC110000 		.4byte	0x11ec
 3433 1638 AD030000 		.4byte	.LLST36
 3434 163c 00       		.byte	0
 3435 163d 2A       		.uleb128 0x2a
 3436 163e DF110000 		.4byte	0x11df
 3437 1642 30000000 		.4byte	.LBB67
 3438 1646 14000000 		.4byte	.LBE67-.LBB67
 3439 164a 01       		.byte	0x1
 3440 164b 90       		.byte	0x90
 3441 164c 26       		.uleb128 0x26
ARM GAS  C:\Users\dmr85\AppData\Local\Temp\ccbw5e1d.s 			page 91


 3442 164d F8110000 		.4byte	0x11f8
 3443 1651 C5030000 		.4byte	.LLST37
 3444 1655 26       		.uleb128 0x26
 3445 1656 EC110000 		.4byte	0x11ec
 3446 165a D9030000 		.4byte	.LLST38
 3447 165e 00       		.byte	0
 3448 165f 00       		.byte	0
 3449 1660 29       		.uleb128 0x29
 3450 1661 A9070000 		.4byte	.LASF390
 3451 1665 01       		.byte	0x1
 3452 1666 4B       		.byte	0x4b
 3453 1667 00000000 		.4byte	.LFB539
 3454 166b 0A000000 		.4byte	.LFE539-.LFB539
 3455 166f 01       		.uleb128 0x1
 3456 1670 9C       		.byte	0x9c
 3457 1671 A3160000 		.4byte	0x16a3
 3458 1675 21       		.uleb128 0x21
 3459 1676 73706900 		.ascii	"spi\000"
 3460 167a 01       		.byte	0x1
 3461 167b 4B       		.byte	0x4b
 3462 167c D5120000 		.4byte	0x12d5
 3463 1680 F1030000 		.4byte	.LLST39
 3464 1684 22       		.uleb128 0x22
 3465 1685 FD110000 		.4byte	.LASF388
 3466 1689 01       		.byte	0x1
 3467 168a 4B       		.byte	0x4b
 3468 168b A2000000 		.4byte	0xa2
 3469 168f 12040000 		.4byte	.LLST40
 3470 1693 27       		.uleb128 0x27
 3471 1694 08000000 		.4byte	.LVL42
 3472 1698 81150000 		.4byte	0x1581
 3473 169c 28       		.uleb128 0x28
 3474 169d 01       		.uleb128 0x1
 3475 169e 50       		.byte	0x50
 3476 169f 01       		.uleb128 0x1
 3477 16a0 35       		.byte	0x35
 3478 16a1 00       		.byte	0
 3479 16a2 00       		.byte	0
 3480 16a3 20       		.uleb128 0x20
 3481 16a4 02040000 		.4byte	.LASF391
 3482 16a8 01       		.byte	0x1
 3483 16a9 96       		.byte	0x96
 3484 16aa CE000000 		.4byte	0xce
 3485 16ae 00000000 		.4byte	.LFB546
 3486 16b2 7C000000 		.4byte	.LFE546-.LFB546
 3487 16b6 01       		.uleb128 0x1
 3488 16b7 9C       		.byte	0x9c
 3489 16b8 D9170000 		.4byte	0x17d9
 3490 16bc 22       		.uleb128 0x22
 3491 16bd FC150000 		.4byte	.LASF368
 3492 16c1 01       		.byte	0x1
 3493 16c2 96       		.byte	0x96
 3494 16c3 E10B0000 		.4byte	0xbe1
 3495 16c7 33040000 		.4byte	.LLST41
 3496 16cb 22       		.uleb128 0x22
 3497 16cc F8070000 		.4byte	.LASF392
 3498 16d0 01       		.byte	0x1
ARM GAS  C:\Users\dmr85\AppData\Local\Temp\ccbw5e1d.s 			page 92


 3499 16d1 96       		.byte	0x96
 3500 16d2 A2000000 		.4byte	0xa2
 3501 16d6 5F040000 		.4byte	.LLST42
 3502 16da 2B       		.uleb128 0x2b
 3503 16db 9C0F0000 		.4byte	.LASF213
 3504 16df 01       		.byte	0x1
 3505 16e0 99       		.byte	0x99
 3506 16e1 CE000000 		.4byte	0xce
 3507 16e5 80040000 		.4byte	.LLST43
 3508 16e9 24       		.uleb128 0x24
 3509 16ea D8110000 		.4byte	.LASF393
 3510 16ee 01       		.byte	0x1
 3511 16ef 9A       		.byte	0x9a
 3512 16f0 0D0C0000 		.4byte	0xc0d
 3513 16f4 2B       		.uleb128 0x2b
 3514 16f5 E71B0000 		.4byte	.LASF394
 3515 16f9 01       		.byte	0x1
 3516 16fa 9B       		.byte	0x9b
 3517 16fb D9170000 		.4byte	0x17d9
 3518 16ff AB040000 		.4byte	.LLST44
 3519 1703 25       		.uleb128 0x25
 3520 1704 7D110000 		.4byte	0x117d
 3521 1708 1E000000 		.4byte	.LBB69
 3522 170c 10000000 		.4byte	.LBE69-.LBB69
 3523 1710 01       		.byte	0x1
 3524 1711 A3       		.byte	0xa3
 3525 1712 57170000 		.4byte	0x1757
 3526 1716 26       		.uleb128 0x26
 3527 1717 A6110000 		.4byte	0x11a6
 3528 171b BF040000 		.4byte	.LLST45
 3529 171f 26       		.uleb128 0x26
 3530 1720 9A110000 		.4byte	0x119a
 3531 1724 D2040000 		.4byte	.LLST46
 3532 1728 26       		.uleb128 0x26
 3533 1729 8E110000 		.4byte	0x118e
 3534 172d E5040000 		.4byte	.LLST47
 3535 1731 27       		.uleb128 0x27
 3536 1732 2E000000 		.4byte	.LVL47
 3537 1736 4F1A0000 		.4byte	0x1a4f
 3538 173a 28       		.uleb128 0x28
 3539 173b 01       		.uleb128 0x1
 3540 173c 50       		.byte	0x50
 3541 173d 05       		.uleb128 0x5
 3542 173e 0C       		.byte	0xc
 3543 173f 00006340 		.4byte	0x40630000
 3544 1743 28       		.uleb128 0x28
 3545 1744 01       		.uleb128 0x1
 3546 1745 51       		.byte	0x51
 3547 1746 02       		.uleb128 0x2
 3548 1747 7A       		.byte	0x7a
 3549 1748 00       		.sleb128 0
 3550 1749 28       		.uleb128 0x28
 3551 174a 01       		.uleb128 0x1
 3552 174b 52       		.byte	0x52
 3553 174c 02       		.uleb128 0x2
 3554 174d 79       		.byte	0x79
 3555 174e 00       		.sleb128 0
ARM GAS  C:\Users\dmr85\AppData\Local\Temp\ccbw5e1d.s 			page 93


 3556 174f 28       		.uleb128 0x28
 3557 1750 01       		.uleb128 0x1
 3558 1751 53       		.byte	0x53
 3559 1752 02       		.uleb128 0x2
 3560 1753 76       		.byte	0x76
 3561 1754 00       		.sleb128 0
 3562 1755 00       		.byte	0
 3563 1756 00       		.byte	0
 3564 1757 2C       		.uleb128 0x2c
 3565 1758 34000000 		.4byte	.LBB71
 3566 175c 32000000 		.4byte	.LBE71-.LBB71
 3567 1760 24       		.uleb128 0x24
 3568 1761 53010000 		.4byte	.LASF395
 3569 1765 01       		.byte	0x1
 3570 1766 A8       		.byte	0xa8
 3571 1767 CE000000 		.4byte	0xce
 3572 176b 2B       		.uleb128 0x2b
 3573 176c 22050000 		.4byte	.LASF396
 3574 1770 01       		.byte	0x1
 3575 1771 AA       		.byte	0xaa
 3576 1772 CE000000 		.4byte	0xce
 3577 1776 F8040000 		.4byte	.LLST48
 3578 177a 25       		.uleb128 0x25
 3579 177b 05120000 		.4byte	0x1205
 3580 177f 34000000 		.4byte	.LBB72
 3581 1783 0A000000 		.4byte	.LBE72-.LBB72
 3582 1787 01       		.byte	0x1
 3583 1788 AF       		.byte	0xaf
 3584 1789 A1170000 		.4byte	0x17a1
 3585 178d 27       		.uleb128 0x27
 3586 178e 3C000000 		.4byte	.LVL49
 3587 1792 7E1A0000 		.4byte	0x1a7e
 3588 1796 28       		.uleb128 0x28
 3589 1797 01       		.uleb128 0x1
 3590 1798 50       		.byte	0x50
 3591 1799 05       		.uleb128 0x5
 3592 179a 0C       		.byte	0xc
 3593 179b 00006340 		.4byte	0x40630000
 3594 179f 00       		.byte	0
 3595 17a0 00       		.byte	0
 3596 17a1 25       		.uleb128 0x25
 3597 17a2 12120000 		.4byte	0x1212
 3598 17a6 56000000 		.4byte	.LBB74
 3599 17aa 08000000 		.4byte	.LBE74-.LBB74
 3600 17ae 01       		.byte	0x1
 3601 17af B6       		.byte	0xb6
 3602 17b0 C8170000 		.4byte	0x17c8
 3603 17b4 27       		.uleb128 0x27
 3604 17b5 5E000000 		.4byte	.LVL52
 3605 17b9 8A1A0000 		.4byte	0x1a8a
 3606 17bd 28       		.uleb128 0x28
 3607 17be 01       		.uleb128 0x1
 3608 17bf 50       		.byte	0x50
 3609 17c0 05       		.uleb128 0x5
 3610 17c1 0C       		.byte	0xc
 3611 17c2 00006340 		.4byte	0x40630000
 3612 17c6 00       		.byte	0
ARM GAS  C:\Users\dmr85\AppData\Local\Temp\ccbw5e1d.s 			page 94


 3613 17c7 00       		.byte	0
 3614 17c8 27       		.uleb128 0x27
 3615 17c9 44000000 		.4byte	.LVL50
 3616 17cd 661A0000 		.4byte	0x1a66
 3617 17d1 28       		.uleb128 0x28
 3618 17d2 01       		.uleb128 0x1
 3619 17d3 50       		.byte	0x50
 3620 17d4 01       		.uleb128 0x1
 3621 17d5 31       		.byte	0x31
 3622 17d6 00       		.byte	0
 3623 17d7 00       		.byte	0
 3624 17d8 00       		.byte	0
 3625 17d9 07       		.uleb128 0x7
 3626 17da A2000000 		.4byte	0xa2
 3627 17de E8170000 		.4byte	0x17e8
 3628 17e2 2D       		.uleb128 0x2d
 3629 17e3 D9000000 		.4byte	0xd9
 3630 17e7 00       		.byte	0
 3631 17e8 20       		.uleb128 0x20
 3632 17e9 19020000 		.4byte	.LASF397
 3633 17ed 01       		.byte	0x1
 3634 17ee C7       		.byte	0xc7
 3635 17ef CE000000 		.4byte	0xce
 3636 17f3 00000000 		.4byte	.LFB547
 3637 17f7 C4000000 		.4byte	.LFE547-.LFB547
 3638 17fb 01       		.uleb128 0x1
 3639 17fc 9C       		.byte	0x9c
 3640 17fd A4190000 		.4byte	0x19a4
 3641 1801 22       		.uleb128 0x22
 3642 1802 0A0F0000 		.4byte	.LASF398
 3643 1806 01       		.byte	0x1
 3644 1807 C7       		.byte	0xc7
 3645 1808 E10B0000 		.4byte	0xbe1
 3646 180c 0B050000 		.4byte	.LLST49
 3647 1810 22       		.uleb128 0x22
 3648 1811 F8070000 		.4byte	.LASF392
 3649 1815 01       		.byte	0x1
 3650 1816 C7       		.byte	0xc7
 3651 1817 A2000000 		.4byte	0xa2
 3652 181b 37050000 		.4byte	.LLST50
 3653 181f 2B       		.uleb128 0x2b
 3654 1820 9C0F0000 		.4byte	.LASF213
 3655 1824 01       		.byte	0x1
 3656 1825 C9       		.byte	0xc9
 3657 1826 CE000000 		.4byte	0xce
 3658 182a 58050000 		.4byte	.LLST51
 3659 182e 2E       		.uleb128 0x2e
 3660 182f 0E000000 		.4byte	.LBB76
 3661 1833 72000000 		.4byte	.LBE76-.LBB76
 3662 1837 4A190000 		.4byte	0x194a
 3663 183b 2B       		.uleb128 0x2b
 3664 183c 31080000 		.4byte	.LASF399
 3665 1840 01       		.byte	0x1
 3666 1841 D3       		.byte	0xd3
 3667 1842 A2000000 		.4byte	0xa2
 3668 1846 83050000 		.4byte	.LLST52
 3669 184a 23       		.uleb128 0x23
ARM GAS  C:\Users\dmr85\AppData\Local\Temp\ccbw5e1d.s 			page 95


 3670 184b 6E110000 		.4byte	.LASF400
 3671 184f 01       		.byte	0x1
 3672 1850 D4       		.byte	0xd4
 3673 1851 A2000000 		.4byte	0xa2
 3674 1855 02       		.uleb128 0x2
 3675 1856 91       		.byte	0x91
 3676 1857 5E       		.sleb128 -34
 3677 1858 2B       		.uleb128 0x2b
 3678 1859 A7180000 		.4byte	.LASF401
 3679 185d 01       		.byte	0x1
 3680 185e D5       		.byte	0xd5
 3681 185f CE000000 		.4byte	0xce
 3682 1863 AE050000 		.4byte	.LLST53
 3683 1867 24       		.uleb128 0x24
 3684 1868 D8110000 		.4byte	.LASF393
 3685 186c 01       		.byte	0x1
 3686 186d D6       		.byte	0xd6
 3687 186e 0D0C0000 		.4byte	0xc0d
 3688 1872 2C       		.uleb128 0x2c
 3689 1873 1A000000 		.4byte	.LBB77
 3690 1877 5E000000 		.4byte	.LBE77-.LBB77
 3691 187b 2F       		.uleb128 0x2f
 3692 187c 747800   		.ascii	"tx\000"
 3693 187f 01       		.byte	0x1
 3694 1880 E3       		.byte	0xe3
 3695 1881 A2000000 		.4byte	0xa2
 3696 1885 02       		.uleb128 0x2
 3697 1886 91       		.byte	0x91
 3698 1887 5F       		.sleb128 -33
 3699 1888 25       		.uleb128 0x25
 3700 1889 7D110000 		.4byte	0x117d
 3701 188d 20000000 		.4byte	.LBB78
 3702 1891 14000000 		.4byte	.LBE78-.LBB78
 3703 1895 01       		.byte	0x1
 3704 1896 E5       		.byte	0xe5
 3705 1897 DB180000 		.4byte	0x18db
 3706 189b 26       		.uleb128 0x26
 3707 189c A6110000 		.4byte	0x11a6
 3708 18a0 CF050000 		.4byte	.LLST54
 3709 18a4 26       		.uleb128 0x26
 3710 18a5 9A110000 		.4byte	0x119a
 3711 18a9 E3050000 		.4byte	.LLST55
 3712 18ad 26       		.uleb128 0x26
 3713 18ae 8E110000 		.4byte	0x118e
 3714 18b2 10060000 		.4byte	.LLST56
 3715 18b6 27       		.uleb128 0x27
 3716 18b7 34000000 		.4byte	.LVL63
 3717 18bb 4F1A0000 		.4byte	0x1a4f
 3718 18bf 28       		.uleb128 0x28
 3719 18c0 01       		.uleb128 0x1
 3720 18c1 50       		.byte	0x50
 3721 18c2 05       		.uleb128 0x5
 3722 18c3 0C       		.byte	0xc
 3723 18c4 00006340 		.4byte	0x40630000
 3724 18c8 28       		.uleb128 0x28
 3725 18c9 01       		.uleb128 0x1
 3726 18ca 51       		.byte	0x51
ARM GAS  C:\Users\dmr85\AppData\Local\Temp\ccbw5e1d.s 			page 96


 3727 18cb 02       		.uleb128 0x2
 3728 18cc 91       		.byte	0x91
 3729 18cd 5F       		.sleb128 -33
 3730 18ce 28       		.uleb128 0x28
 3731 18cf 01       		.uleb128 0x1
 3732 18d0 52       		.byte	0x52
 3733 18d1 02       		.uleb128 0x2
 3734 18d2 91       		.byte	0x91
 3735 18d3 5E       		.sleb128 -34
 3736 18d4 28       		.uleb128 0x28
 3737 18d5 01       		.uleb128 0x1
 3738 18d6 53       		.byte	0x53
 3739 18d7 01       		.uleb128 0x1
 3740 18d8 31       		.byte	0x31
 3741 18d9 00       		.byte	0
 3742 18da 00       		.byte	0
 3743 18db 2E       		.uleb128 0x2e
 3744 18dc 3A000000 		.4byte	.LBB80
 3745 18e0 36000000 		.4byte	.LBE80-.LBB80
 3746 18e4 39190000 		.4byte	0x1939
 3747 18e8 24       		.uleb128 0x24
 3748 18e9 53010000 		.4byte	.LASF395
 3749 18ed 01       		.byte	0x1
 3750 18ee E9       		.byte	0xe9
 3751 18ef CE000000 		.4byte	0xce
 3752 18f3 2B       		.uleb128 0x2b
 3753 18f4 22050000 		.4byte	.LASF396
 3754 18f8 01       		.byte	0x1
 3755 18f9 EB       		.byte	0xeb
 3756 18fa CE000000 		.4byte	0xce
 3757 18fe 3D060000 		.4byte	.LLST57
 3758 1902 25       		.uleb128 0x25
 3759 1903 05120000 		.4byte	0x1205
 3760 1907 3A000000 		.4byte	.LBB81
 3761 190b 0A000000 		.4byte	.LBE81-.LBB81
 3762 190f 01       		.byte	0x1
 3763 1910 F0       		.byte	0xf0
 3764 1911 29190000 		.4byte	0x1929
 3765 1915 27       		.uleb128 0x27
 3766 1916 42000000 		.4byte	.LVL65
 3767 191a 7E1A0000 		.4byte	0x1a7e
 3768 191e 28       		.uleb128 0x28
 3769 191f 01       		.uleb128 0x1
 3770 1920 50       		.byte	0x50
 3771 1921 05       		.uleb128 0x5
 3772 1922 0C       		.byte	0xc
 3773 1923 00006340 		.4byte	0x40630000
 3774 1927 00       		.byte	0
 3775 1928 00       		.byte	0
 3776 1929 27       		.uleb128 0x27
 3777 192a 4A000000 		.4byte	.LVL66
 3778 192e 661A0000 		.4byte	0x1a66
 3779 1932 28       		.uleb128 0x28
 3780 1933 01       		.uleb128 0x1
 3781 1934 50       		.byte	0x50
 3782 1935 01       		.uleb128 0x1
 3783 1936 31       		.byte	0x31
ARM GAS  C:\Users\dmr85\AppData\Local\Temp\ccbw5e1d.s 			page 97


 3784 1937 00       		.byte	0
 3785 1938 00       		.byte	0
 3786 1939 27       		.uleb128 0x27
 3787 193a 76000000 		.4byte	.LVL71
 3788 193e 661A0000 		.4byte	0x1a66
 3789 1942 28       		.uleb128 0x28
 3790 1943 01       		.uleb128 0x1
 3791 1944 50       		.byte	0x50
 3792 1945 01       		.uleb128 0x1
 3793 1946 31       		.byte	0x31
 3794 1947 00       		.byte	0
 3795 1948 00       		.byte	0
 3796 1949 00       		.byte	0
 3797 194a 2E       		.uleb128 0x2e
 3798 194b 8C000000 		.4byte	.LBB83
 3799 194f 14000000 		.4byte	.LBE83-.LBB83
 3800 1953 79190000 		.4byte	0x1979
 3801 1957 30       		.uleb128 0x30
 3802 1958 6900     		.ascii	"i\000"
 3803 195a 01       		.byte	0x1
 3804 195b 1801     		.2byte	0x118
 3805 195d 94000000 		.4byte	0x94
 3806 1961 50060000 		.4byte	.LLST58
 3807 1965 27       		.uleb128 0x27
 3808 1966 9A000000 		.4byte	.LVL75
 3809 196a 5B1A0000 		.4byte	0x1a5b
 3810 196e 28       		.uleb128 0x28
 3811 196f 01       		.uleb128 0x1
 3812 1970 50       		.byte	0x50
 3813 1971 05       		.uleb128 0x5
 3814 1972 03       		.byte	0x3
 3815 1973 00000000 		.4byte	.LC0
 3816 1977 00       		.byte	0
 3817 1978 00       		.byte	0
 3818 1979 31       		.uleb128 0x31
 3819 197a 8C000000 		.4byte	.LVL73
 3820 197e 5B1A0000 		.4byte	0x1a5b
 3821 1982 90190000 		.4byte	0x1990
 3822 1986 28       		.uleb128 0x28
 3823 1987 01       		.uleb128 0x1
 3824 1988 50       		.byte	0x50
 3825 1989 05       		.uleb128 0x5
 3826 198a 03       		.byte	0x3
 3827 198b 04000000 		.4byte	.LC1
 3828 198f 00       		.byte	0
 3829 1990 27       		.uleb128 0x27
 3830 1991 A6000000 		.4byte	.LVL77
 3831 1995 5B1A0000 		.4byte	0x1a5b
 3832 1999 28       		.uleb128 0x28
 3833 199a 01       		.uleb128 0x1
 3834 199b 50       		.byte	0x50
 3835 199c 05       		.uleb128 0x5
 3836 199d 03       		.byte	0x3
 3837 199e 0C000000 		.4byte	.LC2
 3838 19a2 00       		.byte	0
 3839 19a3 00       		.byte	0
 3840 19a4 32       		.uleb128 0x32
ARM GAS  C:\Users\dmr85\AppData\Local\Temp\ccbw5e1d.s 			page 98


 3841 19a5 8F000000 		.4byte	.LASF420
 3842 19a9 01       		.byte	0x1
 3843 19aa 2101     		.2byte	0x121
 3844 19ac 00000000 		.4byte	.LFB548
 3845 19b0 02000000 		.4byte	.LFE548-.LFB548
 3846 19b4 01       		.uleb128 0x1
 3847 19b5 9C       		.byte	0x9c
 3848 19b6 33       		.uleb128 0x33
 3849 19b7 C7170000 		.4byte	.LASF402
 3850 19bb 10       		.byte	0x10
 3851 19bc F907     		.2byte	0x7f9
 3852 19be 78110000 		.4byte	0x1178
 3853 19c2 34       		.uleb128 0x34
 3854 19c3 DA000000 		.4byte	.LASF403
 3855 19c7 09       		.byte	0x9
 3856 19c8 A7       		.byte	0xa7
 3857 19c9 CD190000 		.4byte	0x19cd
 3858 19cd 11       		.uleb128 0x11
 3859 19ce 04       		.byte	0x4
 3860 19cf D3190000 		.4byte	0x19d3
 3861 19d3 06       		.uleb128 0x6
 3862 19d4 9B0B0000 		.4byte	0xb9b
 3863 19d8 33       		.uleb128 0x33
 3864 19d9 58100000 		.4byte	.LASF404
 3865 19dd 0F       		.byte	0xf
 3866 19de 2202     		.2byte	0x222
 3867 19e0 25110000 		.4byte	0x1125
 3868 19e4 07       		.uleb128 0x7
 3869 19e5 F4100000 		.4byte	0x10f4
 3870 19e9 F4190000 		.4byte	0x19f4
 3871 19ed 08       		.uleb128 0x8
 3872 19ee D9000000 		.4byte	0xd9
 3873 19f2 00       		.byte	0
 3874 19f3 00       		.byte	0
 3875 19f4 33       		.uleb128 0x33
 3876 19f5 B9020000 		.4byte	.LASF405
 3877 19f9 0F       		.byte	0xf
 3878 19fa 2C02     		.2byte	0x22c
 3879 19fc E4190000 		.4byte	0x19e4
 3880 1a00 07       		.uleb128 0x7
 3881 1a01 6D110000 		.4byte	0x116d
 3882 1a05 101A0000 		.4byte	0x1a10
 3883 1a09 08       		.uleb128 0x8
 3884 1a0a D9000000 		.4byte	0xd9
 3885 1a0e 00       		.byte	0
 3886 1a0f 00       		.byte	0
 3887 1a10 33       		.uleb128 0x33
 3888 1a11 14000000 		.4byte	.LASF406
 3889 1a15 0F       		.byte	0xf
 3890 1a16 2D02     		.2byte	0x22d
 3891 1a18 001A0000 		.4byte	0x1a00
 3892 1a1c 33       		.uleb128 0x33
 3893 1a1d 3B210000 		.4byte	.LASF407
 3894 1a21 0F       		.byte	0xf
 3895 1a22 5202     		.2byte	0x252
 3896 1a24 A2000000 		.4byte	0xa2
 3897 1a28 34       		.uleb128 0x34
ARM GAS  C:\Users\dmr85\AppData\Local\Temp\ccbw5e1d.s 			page 99


 3898 1a29 83200000 		.4byte	.LASF408
 3899 1a2d 02       		.byte	0x2
 3900 1a2e 5E       		.byte	0x5e
 3901 1a2f A80C0000 		.4byte	0xca8
 3902 1a33 34       		.uleb128 0x34
 3903 1a34 A11E0000 		.4byte	.LASF409
 3904 1a38 11       		.byte	0x11
 3905 1a39 87       		.byte	0x87
 3906 1a3a 840D0000 		.4byte	0xd84
 3907 1a3e 35       		.uleb128 0x35
 3908 1a3f 73706900 		.ascii	"spi\000"
 3909 1a43 01       		.byte	0x1
 3910 1a44 34       		.byte	0x34
 3911 1a45 A2000000 		.4byte	0xa2
 3912 1a49 05       		.uleb128 0x5
 3913 1a4a 03       		.byte	0x3
 3914 1a4b 00000000 		.4byte	spi
 3915 1a4f 36       		.uleb128 0x36
 3916 1a50 0A1C0000 		.4byte	.LASF410
 3917 1a54 0A1C0000 		.4byte	.LASF410
 3918 1a58 0B       		.byte	0xb
 3919 1a59 AB02     		.2byte	0x2ab
 3920 1a5b 37       		.uleb128 0x37
 3921 1a5c 31110000 		.4byte	.LASF411
 3922 1a60 31110000 		.4byte	.LASF411
 3923 1a64 12       		.byte	0x12
 3924 1a65 BB       		.byte	0xbb
 3925 1a66 36       		.uleb128 0x36
 3926 1a67 C01F0000 		.4byte	.LASF412
 3927 1a6b C01F0000 		.4byte	.LASF412
 3928 1a6f 0A       		.byte	0xa
 3929 1a70 8903     		.2byte	0x389
 3930 1a72 36       		.uleb128 0x36
 3931 1a73 A01D0000 		.4byte	.LASF413
 3932 1a77 A01D0000 		.4byte	.LASF413
 3933 1a7b 0A       		.byte	0xa
 3934 1a7c 8A03     		.2byte	0x38a
 3935 1a7e 36       		.uleb128 0x36
 3936 1a7f 62190000 		.4byte	.LASF414
 3937 1a83 62190000 		.4byte	.LASF414
 3938 1a87 0B       		.byte	0xb
 3939 1a88 AE02     		.2byte	0x2ae
 3940 1a8a 36       		.uleb128 0x36
 3941 1a8b 7A020000 		.4byte	.LASF415
 3942 1a8f 7A020000 		.4byte	.LASF415
 3943 1a93 0B       		.byte	0xb
 3944 1a94 AF02     		.2byte	0x2af
 3945 1a96 00       		.byte	0
 3946              		.section	.debug_abbrev,"",%progbits
 3947              	.Ldebug_abbrev0:
 3948 0000 01       		.uleb128 0x1
 3949 0001 11       		.uleb128 0x11
 3950 0002 01       		.byte	0x1
 3951 0003 25       		.uleb128 0x25
 3952 0004 0E       		.uleb128 0xe
 3953 0005 13       		.uleb128 0x13
 3954 0006 0B       		.uleb128 0xb
ARM GAS  C:\Users\dmr85\AppData\Local\Temp\ccbw5e1d.s 			page 100


 3955 0007 03       		.uleb128 0x3
 3956 0008 0E       		.uleb128 0xe
 3957 0009 1B       		.uleb128 0x1b
 3958 000a 0E       		.uleb128 0xe
 3959 000b 55       		.uleb128 0x55
 3960 000c 17       		.uleb128 0x17
 3961 000d 11       		.uleb128 0x11
 3962 000e 01       		.uleb128 0x1
 3963 000f 10       		.uleb128 0x10
 3964 0010 17       		.uleb128 0x17
 3965 0011 00       		.byte	0
 3966 0012 00       		.byte	0
 3967 0013 02       		.uleb128 0x2
 3968 0014 24       		.uleb128 0x24
 3969 0015 00       		.byte	0
 3970 0016 0B       		.uleb128 0xb
 3971 0017 0B       		.uleb128 0xb
 3972 0018 3E       		.uleb128 0x3e
 3973 0019 0B       		.uleb128 0xb
 3974 001a 03       		.uleb128 0x3
 3975 001b 0E       		.uleb128 0xe
 3976 001c 00       		.byte	0
 3977 001d 00       		.byte	0
 3978 001e 03       		.uleb128 0x3
 3979 001f 16       		.uleb128 0x16
 3980 0020 00       		.byte	0
 3981 0021 03       		.uleb128 0x3
 3982 0022 0E       		.uleb128 0xe
 3983 0023 3A       		.uleb128 0x3a
 3984 0024 0B       		.uleb128 0xb
 3985 0025 3B       		.uleb128 0x3b
 3986 0026 0B       		.uleb128 0xb
 3987 0027 49       		.uleb128 0x49
 3988 0028 13       		.uleb128 0x13
 3989 0029 00       		.byte	0
 3990 002a 00       		.byte	0
 3991 002b 04       		.uleb128 0x4
 3992 002c 24       		.uleb128 0x24
 3993 002d 00       		.byte	0
 3994 002e 0B       		.uleb128 0xb
 3995 002f 0B       		.uleb128 0xb
 3996 0030 3E       		.uleb128 0x3e
 3997 0031 0B       		.uleb128 0xb
 3998 0032 03       		.uleb128 0x3
 3999 0033 08       		.uleb128 0x8
 4000 0034 00       		.byte	0
 4001 0035 00       		.byte	0
 4002 0036 05       		.uleb128 0x5
 4003 0037 35       		.uleb128 0x35
 4004 0038 00       		.byte	0
 4005 0039 49       		.uleb128 0x49
 4006 003a 13       		.uleb128 0x13
 4007 003b 00       		.byte	0
 4008 003c 00       		.byte	0
 4009 003d 06       		.uleb128 0x6
 4010 003e 26       		.uleb128 0x26
 4011 003f 00       		.byte	0
ARM GAS  C:\Users\dmr85\AppData\Local\Temp\ccbw5e1d.s 			page 101


 4012 0040 49       		.uleb128 0x49
 4013 0041 13       		.uleb128 0x13
 4014 0042 00       		.byte	0
 4015 0043 00       		.byte	0
 4016 0044 07       		.uleb128 0x7
 4017 0045 01       		.uleb128 0x1
 4018 0046 01       		.byte	0x1
 4019 0047 49       		.uleb128 0x49
 4020 0048 13       		.uleb128 0x13
 4021 0049 01       		.uleb128 0x1
 4022 004a 13       		.uleb128 0x13
 4023 004b 00       		.byte	0
 4024 004c 00       		.byte	0
 4025 004d 08       		.uleb128 0x8
 4026 004e 21       		.uleb128 0x21
 4027 004f 00       		.byte	0
 4028 0050 49       		.uleb128 0x49
 4029 0051 13       		.uleb128 0x13
 4030 0052 2F       		.uleb128 0x2f
 4031 0053 0B       		.uleb128 0xb
 4032 0054 00       		.byte	0
 4033 0055 00       		.byte	0
 4034 0056 09       		.uleb128 0x9
 4035 0057 13       		.uleb128 0x13
 4036 0058 01       		.byte	0x1
 4037 0059 0B       		.uleb128 0xb
 4038 005a 0B       		.uleb128 0xb
 4039 005b 3A       		.uleb128 0x3a
 4040 005c 0B       		.uleb128 0xb
 4041 005d 3B       		.uleb128 0x3b
 4042 005e 0B       		.uleb128 0xb
 4043 005f 01       		.uleb128 0x1
 4044 0060 13       		.uleb128 0x13
 4045 0061 00       		.byte	0
 4046 0062 00       		.byte	0
 4047 0063 0A       		.uleb128 0xa
 4048 0064 0D       		.uleb128 0xd
 4049 0065 00       		.byte	0
 4050 0066 03       		.uleb128 0x3
 4051 0067 08       		.uleb128 0x8
 4052 0068 3A       		.uleb128 0x3a
 4053 0069 0B       		.uleb128 0xb
 4054 006a 3B       		.uleb128 0x3b
 4055 006b 0B       		.uleb128 0xb
 4056 006c 49       		.uleb128 0x49
 4057 006d 13       		.uleb128 0x13
 4058 006e 38       		.uleb128 0x38
 4059 006f 0B       		.uleb128 0xb
 4060 0070 00       		.byte	0
 4061 0071 00       		.byte	0
 4062 0072 0B       		.uleb128 0xb
 4063 0073 0D       		.uleb128 0xd
 4064 0074 00       		.byte	0
 4065 0075 03       		.uleb128 0x3
 4066 0076 0E       		.uleb128 0xe
 4067 0077 3A       		.uleb128 0x3a
 4068 0078 0B       		.uleb128 0xb
ARM GAS  C:\Users\dmr85\AppData\Local\Temp\ccbw5e1d.s 			page 102


 4069 0079 3B       		.uleb128 0x3b
 4070 007a 0B       		.uleb128 0xb
 4071 007b 49       		.uleb128 0x49
 4072 007c 13       		.uleb128 0x13
 4073 007d 38       		.uleb128 0x38
 4074 007e 0B       		.uleb128 0xb
 4075 007f 00       		.byte	0
 4076 0080 00       		.byte	0
 4077 0081 0C       		.uleb128 0xc
 4078 0082 13       		.uleb128 0x13
 4079 0083 01       		.byte	0x1
 4080 0084 0B       		.uleb128 0xb
 4081 0085 05       		.uleb128 0x5
 4082 0086 3A       		.uleb128 0x3a
 4083 0087 0B       		.uleb128 0xb
 4084 0088 3B       		.uleb128 0x3b
 4085 0089 0B       		.uleb128 0xb
 4086 008a 01       		.uleb128 0x1
 4087 008b 13       		.uleb128 0x13
 4088 008c 00       		.byte	0
 4089 008d 00       		.byte	0
 4090 008e 0D       		.uleb128 0xd
 4091 008f 0D       		.uleb128 0xd
 4092 0090 00       		.byte	0
 4093 0091 03       		.uleb128 0x3
 4094 0092 0E       		.uleb128 0xe
 4095 0093 3A       		.uleb128 0x3a
 4096 0094 0B       		.uleb128 0xb
 4097 0095 3B       		.uleb128 0x3b
 4098 0096 0B       		.uleb128 0xb
 4099 0097 49       		.uleb128 0x49
 4100 0098 13       		.uleb128 0x13
 4101 0099 38       		.uleb128 0x38
 4102 009a 05       		.uleb128 0x5
 4103 009b 00       		.byte	0
 4104 009c 00       		.byte	0
 4105 009d 0E       		.uleb128 0xe
 4106 009e 21       		.uleb128 0x21
 4107 009f 00       		.byte	0
 4108 00a0 49       		.uleb128 0x49
 4109 00a1 13       		.uleb128 0x13
 4110 00a2 2F       		.uleb128 0x2f
 4111 00a3 05       		.uleb128 0x5
 4112 00a4 00       		.byte	0
 4113 00a5 00       		.byte	0
 4114 00a6 0F       		.uleb128 0xf
 4115 00a7 16       		.uleb128 0x16
 4116 00a8 00       		.byte	0
 4117 00a9 03       		.uleb128 0x3
 4118 00aa 0E       		.uleb128 0xe
 4119 00ab 3A       		.uleb128 0x3a
 4120 00ac 0B       		.uleb128 0xb
 4121 00ad 3B       		.uleb128 0x3b
 4122 00ae 05       		.uleb128 0x5
 4123 00af 49       		.uleb128 0x49
 4124 00b0 13       		.uleb128 0x13
 4125 00b1 00       		.byte	0
ARM GAS  C:\Users\dmr85\AppData\Local\Temp\ccbw5e1d.s 			page 103


 4126 00b2 00       		.byte	0
 4127 00b3 10       		.uleb128 0x10
 4128 00b4 0F       		.uleb128 0xf
 4129 00b5 00       		.byte	0
 4130 00b6 0B       		.uleb128 0xb
 4131 00b7 0B       		.uleb128 0xb
 4132 00b8 00       		.byte	0
 4133 00b9 00       		.byte	0
 4134 00ba 11       		.uleb128 0x11
 4135 00bb 0F       		.uleb128 0xf
 4136 00bc 00       		.byte	0
 4137 00bd 0B       		.uleb128 0xb
 4138 00be 0B       		.uleb128 0xb
 4139 00bf 49       		.uleb128 0x49
 4140 00c0 13       		.uleb128 0x13
 4141 00c1 00       		.byte	0
 4142 00c2 00       		.byte	0
 4143 00c3 12       		.uleb128 0x12
 4144 00c4 15       		.uleb128 0x15
 4145 00c5 01       		.byte	0x1
 4146 00c6 27       		.uleb128 0x27
 4147 00c7 19       		.uleb128 0x19
 4148 00c8 01       		.uleb128 0x1
 4149 00c9 13       		.uleb128 0x13
 4150 00ca 00       		.byte	0
 4151 00cb 00       		.byte	0
 4152 00cc 13       		.uleb128 0x13
 4153 00cd 05       		.uleb128 0x5
 4154 00ce 00       		.byte	0
 4155 00cf 49       		.uleb128 0x49
 4156 00d0 13       		.uleb128 0x13
 4157 00d1 00       		.byte	0
 4158 00d2 00       		.byte	0
 4159 00d3 14       		.uleb128 0x14
 4160 00d4 04       		.uleb128 0x4
 4161 00d5 01       		.byte	0x1
 4162 00d6 0B       		.uleb128 0xb
 4163 00d7 0B       		.uleb128 0xb
 4164 00d8 49       		.uleb128 0x49
 4165 00d9 13       		.uleb128 0x13
 4166 00da 3A       		.uleb128 0x3a
 4167 00db 0B       		.uleb128 0xb
 4168 00dc 3B       		.uleb128 0x3b
 4169 00dd 05       		.uleb128 0x5
 4170 00de 01       		.uleb128 0x1
 4171 00df 13       		.uleb128 0x13
 4172 00e0 00       		.byte	0
 4173 00e1 00       		.byte	0
 4174 00e2 15       		.uleb128 0x15
 4175 00e3 28       		.uleb128 0x28
 4176 00e4 00       		.byte	0
 4177 00e5 03       		.uleb128 0x3
 4178 00e6 0E       		.uleb128 0xe
 4179 00e7 1C       		.uleb128 0x1c
 4180 00e8 0B       		.uleb128 0xb
 4181 00e9 00       		.byte	0
 4182 00ea 00       		.byte	0
ARM GAS  C:\Users\dmr85\AppData\Local\Temp\ccbw5e1d.s 			page 104


 4183 00eb 16       		.uleb128 0x16
 4184 00ec 28       		.uleb128 0x28
 4185 00ed 00       		.byte	0
 4186 00ee 03       		.uleb128 0x3
 4187 00ef 0E       		.uleb128 0xe
 4188 00f0 1C       		.uleb128 0x1c
 4189 00f1 06       		.uleb128 0x6
 4190 00f2 00       		.byte	0
 4191 00f3 00       		.byte	0
 4192 00f4 17       		.uleb128 0x17
 4193 00f5 13       		.uleb128 0x13
 4194 00f6 01       		.byte	0x1
 4195 00f7 03       		.uleb128 0x3
 4196 00f8 0E       		.uleb128 0xe
 4197 00f9 0B       		.uleb128 0xb
 4198 00fa 0B       		.uleb128 0xb
 4199 00fb 3A       		.uleb128 0x3a
 4200 00fc 0B       		.uleb128 0xb
 4201 00fd 3B       		.uleb128 0x3b
 4202 00fe 05       		.uleb128 0x5
 4203 00ff 01       		.uleb128 0x1
 4204 0100 13       		.uleb128 0x13
 4205 0101 00       		.byte	0
 4206 0102 00       		.byte	0
 4207 0103 18       		.uleb128 0x18
 4208 0104 0D       		.uleb128 0xd
 4209 0105 00       		.byte	0
 4210 0106 03       		.uleb128 0x3
 4211 0107 0E       		.uleb128 0xe
 4212 0108 3A       		.uleb128 0x3a
 4213 0109 0B       		.uleb128 0xb
 4214 010a 3B       		.uleb128 0x3b
 4215 010b 05       		.uleb128 0x5
 4216 010c 49       		.uleb128 0x49
 4217 010d 13       		.uleb128 0x13
 4218 010e 38       		.uleb128 0x38
 4219 010f 0B       		.uleb128 0xb
 4220 0110 00       		.byte	0
 4221 0111 00       		.byte	0
 4222 0112 19       		.uleb128 0x19
 4223 0113 28       		.uleb128 0x28
 4224 0114 00       		.byte	0
 4225 0115 03       		.uleb128 0x3
 4226 0116 0E       		.uleb128 0xe
 4227 0117 1C       		.uleb128 0x1c
 4228 0118 05       		.uleb128 0x5
 4229 0119 00       		.byte	0
 4230 011a 00       		.byte	0
 4231 011b 1A       		.uleb128 0x1a
 4232 011c 13       		.uleb128 0x13
 4233 011d 01       		.byte	0x1
 4234 011e 0B       		.uleb128 0xb
 4235 011f 0B       		.uleb128 0xb
 4236 0120 3A       		.uleb128 0x3a
 4237 0121 0B       		.uleb128 0xb
 4238 0122 3B       		.uleb128 0x3b
 4239 0123 05       		.uleb128 0x5
ARM GAS  C:\Users\dmr85\AppData\Local\Temp\ccbw5e1d.s 			page 105


 4240 0124 01       		.uleb128 0x1
 4241 0125 13       		.uleb128 0x13
 4242 0126 00       		.byte	0
 4243 0127 00       		.byte	0
 4244 0128 1B       		.uleb128 0x1b
 4245 0129 04       		.uleb128 0x4
 4246 012a 01       		.byte	0x1
 4247 012b 0B       		.uleb128 0xb
 4248 012c 0B       		.uleb128 0xb
 4249 012d 49       		.uleb128 0x49
 4250 012e 13       		.uleb128 0x13
 4251 012f 3A       		.uleb128 0x3a
 4252 0130 0B       		.uleb128 0xb
 4253 0131 3B       		.uleb128 0x3b
 4254 0132 0B       		.uleb128 0xb
 4255 0133 01       		.uleb128 0x1
 4256 0134 13       		.uleb128 0x13
 4257 0135 00       		.byte	0
 4258 0136 00       		.byte	0
 4259 0137 1C       		.uleb128 0x1c
 4260 0138 2E       		.uleb128 0x2e
 4261 0139 01       		.byte	0x1
 4262 013a 03       		.uleb128 0x3
 4263 013b 0E       		.uleb128 0xe
 4264 013c 3A       		.uleb128 0x3a
 4265 013d 0B       		.uleb128 0xb
 4266 013e 3B       		.uleb128 0x3b
 4267 013f 05       		.uleb128 0x5
 4268 0140 27       		.uleb128 0x27
 4269 0141 19       		.uleb128 0x19
 4270 0142 49       		.uleb128 0x49
 4271 0143 13       		.uleb128 0x13
 4272 0144 20       		.uleb128 0x20
 4273 0145 0B       		.uleb128 0xb
 4274 0146 01       		.uleb128 0x1
 4275 0147 13       		.uleb128 0x13
 4276 0148 00       		.byte	0
 4277 0149 00       		.byte	0
 4278 014a 1D       		.uleb128 0x1d
 4279 014b 05       		.uleb128 0x5
 4280 014c 00       		.byte	0
 4281 014d 03       		.uleb128 0x3
 4282 014e 0E       		.uleb128 0xe
 4283 014f 3A       		.uleb128 0x3a
 4284 0150 0B       		.uleb128 0xb
 4285 0151 3B       		.uleb128 0x3b
 4286 0152 05       		.uleb128 0x5
 4287 0153 49       		.uleb128 0x49
 4288 0154 13       		.uleb128 0x13
 4289 0155 00       		.byte	0
 4290 0156 00       		.byte	0
 4291 0157 1E       		.uleb128 0x1e
 4292 0158 2E       		.uleb128 0x2e
 4293 0159 01       		.byte	0x1
 4294 015a 03       		.uleb128 0x3
 4295 015b 0E       		.uleb128 0xe
 4296 015c 3A       		.uleb128 0x3a
ARM GAS  C:\Users\dmr85\AppData\Local\Temp\ccbw5e1d.s 			page 106


 4297 015d 0B       		.uleb128 0xb
 4298 015e 3B       		.uleb128 0x3b
 4299 015f 05       		.uleb128 0x5
 4300 0160 27       		.uleb128 0x27
 4301 0161 19       		.uleb128 0x19
 4302 0162 20       		.uleb128 0x20
 4303 0163 0B       		.uleb128 0xb
 4304 0164 01       		.uleb128 0x1
 4305 0165 13       		.uleb128 0x13
 4306 0166 00       		.byte	0
 4307 0167 00       		.byte	0
 4308 0168 1F       		.uleb128 0x1f
 4309 0169 2E       		.uleb128 0x2e
 4310 016a 00       		.byte	0
 4311 016b 03       		.uleb128 0x3
 4312 016c 0E       		.uleb128 0xe
 4313 016d 3A       		.uleb128 0x3a
 4314 016e 0B       		.uleb128 0xb
 4315 016f 3B       		.uleb128 0x3b
 4316 0170 05       		.uleb128 0x5
 4317 0171 27       		.uleb128 0x27
 4318 0172 19       		.uleb128 0x19
 4319 0173 49       		.uleb128 0x49
 4320 0174 13       		.uleb128 0x13
 4321 0175 20       		.uleb128 0x20
 4322 0176 0B       		.uleb128 0xb
 4323 0177 00       		.byte	0
 4324 0178 00       		.byte	0
 4325 0179 20       		.uleb128 0x20
 4326 017a 2E       		.uleb128 0x2e
 4327 017b 01       		.byte	0x1
 4328 017c 3F       		.uleb128 0x3f
 4329 017d 19       		.uleb128 0x19
 4330 017e 03       		.uleb128 0x3
 4331 017f 0E       		.uleb128 0xe
 4332 0180 3A       		.uleb128 0x3a
 4333 0181 0B       		.uleb128 0xb
 4334 0182 3B       		.uleb128 0x3b
 4335 0183 0B       		.uleb128 0xb
 4336 0184 27       		.uleb128 0x27
 4337 0185 19       		.uleb128 0x19
 4338 0186 49       		.uleb128 0x49
 4339 0187 13       		.uleb128 0x13
 4340 0188 11       		.uleb128 0x11
 4341 0189 01       		.uleb128 0x1
 4342 018a 12       		.uleb128 0x12
 4343 018b 06       		.uleb128 0x6
 4344 018c 40       		.uleb128 0x40
 4345 018d 18       		.uleb128 0x18
 4346 018e 9742     		.uleb128 0x2117
 4347 0190 19       		.uleb128 0x19
 4348 0191 01       		.uleb128 0x1
 4349 0192 13       		.uleb128 0x13
 4350 0193 00       		.byte	0
 4351 0194 00       		.byte	0
 4352 0195 21       		.uleb128 0x21
 4353 0196 05       		.uleb128 0x5
ARM GAS  C:\Users\dmr85\AppData\Local\Temp\ccbw5e1d.s 			page 107


 4354 0197 00       		.byte	0
 4355 0198 03       		.uleb128 0x3
 4356 0199 08       		.uleb128 0x8
 4357 019a 3A       		.uleb128 0x3a
 4358 019b 0B       		.uleb128 0xb
 4359 019c 3B       		.uleb128 0x3b
 4360 019d 0B       		.uleb128 0xb
 4361 019e 49       		.uleb128 0x49
 4362 019f 13       		.uleb128 0x13
 4363 01a0 02       		.uleb128 0x2
 4364 01a1 17       		.uleb128 0x17
 4365 01a2 00       		.byte	0
 4366 01a3 00       		.byte	0
 4367 01a4 22       		.uleb128 0x22
 4368 01a5 05       		.uleb128 0x5
 4369 01a6 00       		.byte	0
 4370 01a7 03       		.uleb128 0x3
 4371 01a8 0E       		.uleb128 0xe
 4372 01a9 3A       		.uleb128 0x3a
 4373 01aa 0B       		.uleb128 0xb
 4374 01ab 3B       		.uleb128 0x3b
 4375 01ac 0B       		.uleb128 0xb
 4376 01ad 49       		.uleb128 0x49
 4377 01ae 13       		.uleb128 0x13
 4378 01af 02       		.uleb128 0x2
 4379 01b0 17       		.uleb128 0x17
 4380 01b1 00       		.byte	0
 4381 01b2 00       		.byte	0
 4382 01b3 23       		.uleb128 0x23
 4383 01b4 34       		.uleb128 0x34
 4384 01b5 00       		.byte	0
 4385 01b6 03       		.uleb128 0x3
 4386 01b7 0E       		.uleb128 0xe
 4387 01b8 3A       		.uleb128 0x3a
 4388 01b9 0B       		.uleb128 0xb
 4389 01ba 3B       		.uleb128 0x3b
 4390 01bb 0B       		.uleb128 0xb
 4391 01bc 49       		.uleb128 0x49
 4392 01bd 13       		.uleb128 0x13
 4393 01be 02       		.uleb128 0x2
 4394 01bf 18       		.uleb128 0x18
 4395 01c0 00       		.byte	0
 4396 01c1 00       		.byte	0
 4397 01c2 24       		.uleb128 0x24
 4398 01c3 34       		.uleb128 0x34
 4399 01c4 00       		.byte	0
 4400 01c5 03       		.uleb128 0x3
 4401 01c6 0E       		.uleb128 0xe
 4402 01c7 3A       		.uleb128 0x3a
 4403 01c8 0B       		.uleb128 0xb
 4404 01c9 3B       		.uleb128 0x3b
 4405 01ca 0B       		.uleb128 0xb
 4406 01cb 49       		.uleb128 0x49
 4407 01cc 13       		.uleb128 0x13
 4408 01cd 00       		.byte	0
 4409 01ce 00       		.byte	0
 4410 01cf 25       		.uleb128 0x25
ARM GAS  C:\Users\dmr85\AppData\Local\Temp\ccbw5e1d.s 			page 108


 4411 01d0 1D       		.uleb128 0x1d
 4412 01d1 01       		.byte	0x1
 4413 01d2 31       		.uleb128 0x31
 4414 01d3 13       		.uleb128 0x13
 4415 01d4 11       		.uleb128 0x11
 4416 01d5 01       		.uleb128 0x1
 4417 01d6 12       		.uleb128 0x12
 4418 01d7 06       		.uleb128 0x6
 4419 01d8 58       		.uleb128 0x58
 4420 01d9 0B       		.uleb128 0xb
 4421 01da 59       		.uleb128 0x59
 4422 01db 0B       		.uleb128 0xb
 4423 01dc 01       		.uleb128 0x1
 4424 01dd 13       		.uleb128 0x13
 4425 01de 00       		.byte	0
 4426 01df 00       		.byte	0
 4427 01e0 26       		.uleb128 0x26
 4428 01e1 05       		.uleb128 0x5
 4429 01e2 00       		.byte	0
 4430 01e3 31       		.uleb128 0x31
 4431 01e4 13       		.uleb128 0x13
 4432 01e5 02       		.uleb128 0x2
 4433 01e6 17       		.uleb128 0x17
 4434 01e7 00       		.byte	0
 4435 01e8 00       		.byte	0
 4436 01e9 27       		.uleb128 0x27
 4437 01ea 898201   		.uleb128 0x4109
 4438 01ed 01       		.byte	0x1
 4439 01ee 11       		.uleb128 0x11
 4440 01ef 01       		.uleb128 0x1
 4441 01f0 31       		.uleb128 0x31
 4442 01f1 13       		.uleb128 0x13
 4443 01f2 00       		.byte	0
 4444 01f3 00       		.byte	0
 4445 01f4 28       		.uleb128 0x28
 4446 01f5 8A8201   		.uleb128 0x410a
 4447 01f8 00       		.byte	0
 4448 01f9 02       		.uleb128 0x2
 4449 01fa 18       		.uleb128 0x18
 4450 01fb 9142     		.uleb128 0x2111
 4451 01fd 18       		.uleb128 0x18
 4452 01fe 00       		.byte	0
 4453 01ff 00       		.byte	0
 4454 0200 29       		.uleb128 0x29
 4455 0201 2E       		.uleb128 0x2e
 4456 0202 01       		.byte	0x1
 4457 0203 3F       		.uleb128 0x3f
 4458 0204 19       		.uleb128 0x19
 4459 0205 03       		.uleb128 0x3
 4460 0206 0E       		.uleb128 0xe
 4461 0207 3A       		.uleb128 0x3a
 4462 0208 0B       		.uleb128 0xb
 4463 0209 3B       		.uleb128 0x3b
 4464 020a 0B       		.uleb128 0xb
 4465 020b 27       		.uleb128 0x27
 4466 020c 19       		.uleb128 0x19
 4467 020d 11       		.uleb128 0x11
ARM GAS  C:\Users\dmr85\AppData\Local\Temp\ccbw5e1d.s 			page 109


 4468 020e 01       		.uleb128 0x1
 4469 020f 12       		.uleb128 0x12
 4470 0210 06       		.uleb128 0x6
 4471 0211 40       		.uleb128 0x40
 4472 0212 18       		.uleb128 0x18
 4473 0213 9742     		.uleb128 0x2117
 4474 0215 19       		.uleb128 0x19
 4475 0216 01       		.uleb128 0x1
 4476 0217 13       		.uleb128 0x13
 4477 0218 00       		.byte	0
 4478 0219 00       		.byte	0
 4479 021a 2A       		.uleb128 0x2a
 4480 021b 1D       		.uleb128 0x1d
 4481 021c 01       		.byte	0x1
 4482 021d 31       		.uleb128 0x31
 4483 021e 13       		.uleb128 0x13
 4484 021f 11       		.uleb128 0x11
 4485 0220 01       		.uleb128 0x1
 4486 0221 12       		.uleb128 0x12
 4487 0222 06       		.uleb128 0x6
 4488 0223 58       		.uleb128 0x58
 4489 0224 0B       		.uleb128 0xb
 4490 0225 59       		.uleb128 0x59
 4491 0226 0B       		.uleb128 0xb
 4492 0227 00       		.byte	0
 4493 0228 00       		.byte	0
 4494 0229 2B       		.uleb128 0x2b
 4495 022a 34       		.uleb128 0x34
 4496 022b 00       		.byte	0
 4497 022c 03       		.uleb128 0x3
 4498 022d 0E       		.uleb128 0xe
 4499 022e 3A       		.uleb128 0x3a
 4500 022f 0B       		.uleb128 0xb
 4501 0230 3B       		.uleb128 0x3b
 4502 0231 0B       		.uleb128 0xb
 4503 0232 49       		.uleb128 0x49
 4504 0233 13       		.uleb128 0x13
 4505 0234 02       		.uleb128 0x2
 4506 0235 17       		.uleb128 0x17
 4507 0236 00       		.byte	0
 4508 0237 00       		.byte	0
 4509 0238 2C       		.uleb128 0x2c
 4510 0239 0B       		.uleb128 0xb
 4511 023a 01       		.byte	0x1
 4512 023b 11       		.uleb128 0x11
 4513 023c 01       		.uleb128 0x1
 4514 023d 12       		.uleb128 0x12
 4515 023e 06       		.uleb128 0x6
 4516 023f 00       		.byte	0
 4517 0240 00       		.byte	0
 4518 0241 2D       		.uleb128 0x2d
 4519 0242 21       		.uleb128 0x21
 4520 0243 00       		.byte	0
 4521 0244 49       		.uleb128 0x49
 4522 0245 13       		.uleb128 0x13
 4523 0246 00       		.byte	0
 4524 0247 00       		.byte	0
ARM GAS  C:\Users\dmr85\AppData\Local\Temp\ccbw5e1d.s 			page 110


 4525 0248 2E       		.uleb128 0x2e
 4526 0249 0B       		.uleb128 0xb
 4527 024a 01       		.byte	0x1
 4528 024b 11       		.uleb128 0x11
 4529 024c 01       		.uleb128 0x1
 4530 024d 12       		.uleb128 0x12
 4531 024e 06       		.uleb128 0x6
 4532 024f 01       		.uleb128 0x1
 4533 0250 13       		.uleb128 0x13
 4534 0251 00       		.byte	0
 4535 0252 00       		.byte	0
 4536 0253 2F       		.uleb128 0x2f
 4537 0254 34       		.uleb128 0x34
 4538 0255 00       		.byte	0
 4539 0256 03       		.uleb128 0x3
 4540 0257 08       		.uleb128 0x8
 4541 0258 3A       		.uleb128 0x3a
 4542 0259 0B       		.uleb128 0xb
 4543 025a 3B       		.uleb128 0x3b
 4544 025b 0B       		.uleb128 0xb
 4545 025c 49       		.uleb128 0x49
 4546 025d 13       		.uleb128 0x13
 4547 025e 02       		.uleb128 0x2
 4548 025f 18       		.uleb128 0x18
 4549 0260 00       		.byte	0
 4550 0261 00       		.byte	0
 4551 0262 30       		.uleb128 0x30
 4552 0263 34       		.uleb128 0x34
 4553 0264 00       		.byte	0
 4554 0265 03       		.uleb128 0x3
 4555 0266 08       		.uleb128 0x8
 4556 0267 3A       		.uleb128 0x3a
 4557 0268 0B       		.uleb128 0xb
 4558 0269 3B       		.uleb128 0x3b
 4559 026a 05       		.uleb128 0x5
 4560 026b 49       		.uleb128 0x49
 4561 026c 13       		.uleb128 0x13
 4562 026d 02       		.uleb128 0x2
 4563 026e 17       		.uleb128 0x17
 4564 026f 00       		.byte	0
 4565 0270 00       		.byte	0
 4566 0271 31       		.uleb128 0x31
 4567 0272 898201   		.uleb128 0x4109
 4568 0275 01       		.byte	0x1
 4569 0276 11       		.uleb128 0x11
 4570 0277 01       		.uleb128 0x1
 4571 0278 31       		.uleb128 0x31
 4572 0279 13       		.uleb128 0x13
 4573 027a 01       		.uleb128 0x1
 4574 027b 13       		.uleb128 0x13
 4575 027c 00       		.byte	0
 4576 027d 00       		.byte	0
 4577 027e 32       		.uleb128 0x32
 4578 027f 2E       		.uleb128 0x2e
 4579 0280 00       		.byte	0
 4580 0281 3F       		.uleb128 0x3f
 4581 0282 19       		.uleb128 0x19
ARM GAS  C:\Users\dmr85\AppData\Local\Temp\ccbw5e1d.s 			page 111


 4582 0283 03       		.uleb128 0x3
 4583 0284 0E       		.uleb128 0xe
 4584 0285 3A       		.uleb128 0x3a
 4585 0286 0B       		.uleb128 0xb
 4586 0287 3B       		.uleb128 0x3b
 4587 0288 05       		.uleb128 0x5
 4588 0289 27       		.uleb128 0x27
 4589 028a 19       		.uleb128 0x19
 4590 028b 11       		.uleb128 0x11
 4591 028c 01       		.uleb128 0x1
 4592 028d 12       		.uleb128 0x12
 4593 028e 06       		.uleb128 0x6
 4594 028f 40       		.uleb128 0x40
 4595 0290 18       		.uleb128 0x18
 4596 0291 9742     		.uleb128 0x2117
 4597 0293 19       		.uleb128 0x19
 4598 0294 00       		.byte	0
 4599 0295 00       		.byte	0
 4600 0296 33       		.uleb128 0x33
 4601 0297 34       		.uleb128 0x34
 4602 0298 00       		.byte	0
 4603 0299 03       		.uleb128 0x3
 4604 029a 0E       		.uleb128 0xe
 4605 029b 3A       		.uleb128 0x3a
 4606 029c 0B       		.uleb128 0xb
 4607 029d 3B       		.uleb128 0x3b
 4608 029e 05       		.uleb128 0x5
 4609 029f 49       		.uleb128 0x49
 4610 02a0 13       		.uleb128 0x13
 4611 02a1 3F       		.uleb128 0x3f
 4612 02a2 19       		.uleb128 0x19
 4613 02a3 3C       		.uleb128 0x3c
 4614 02a4 19       		.uleb128 0x19
 4615 02a5 00       		.byte	0
 4616 02a6 00       		.byte	0
 4617 02a7 34       		.uleb128 0x34
 4618 02a8 34       		.uleb128 0x34
 4619 02a9 00       		.byte	0
 4620 02aa 03       		.uleb128 0x3
 4621 02ab 0E       		.uleb128 0xe
 4622 02ac 3A       		.uleb128 0x3a
 4623 02ad 0B       		.uleb128 0xb
 4624 02ae 3B       		.uleb128 0x3b
 4625 02af 0B       		.uleb128 0xb
 4626 02b0 49       		.uleb128 0x49
 4627 02b1 13       		.uleb128 0x13
 4628 02b2 3F       		.uleb128 0x3f
 4629 02b3 19       		.uleb128 0x19
 4630 02b4 3C       		.uleb128 0x3c
 4631 02b5 19       		.uleb128 0x19
 4632 02b6 00       		.byte	0
 4633 02b7 00       		.byte	0
 4634 02b8 35       		.uleb128 0x35
 4635 02b9 34       		.uleb128 0x34
 4636 02ba 00       		.byte	0
 4637 02bb 03       		.uleb128 0x3
 4638 02bc 08       		.uleb128 0x8
ARM GAS  C:\Users\dmr85\AppData\Local\Temp\ccbw5e1d.s 			page 112


 4639 02bd 3A       		.uleb128 0x3a
 4640 02be 0B       		.uleb128 0xb
 4641 02bf 3B       		.uleb128 0x3b
 4642 02c0 0B       		.uleb128 0xb
 4643 02c1 49       		.uleb128 0x49
 4644 02c2 13       		.uleb128 0x13
 4645 02c3 3F       		.uleb128 0x3f
 4646 02c4 19       		.uleb128 0x19
 4647 02c5 02       		.uleb128 0x2
 4648 02c6 18       		.uleb128 0x18
 4649 02c7 00       		.byte	0
 4650 02c8 00       		.byte	0
 4651 02c9 36       		.uleb128 0x36
 4652 02ca 2E       		.uleb128 0x2e
 4653 02cb 00       		.byte	0
 4654 02cc 3F       		.uleb128 0x3f
 4655 02cd 19       		.uleb128 0x19
 4656 02ce 3C       		.uleb128 0x3c
 4657 02cf 19       		.uleb128 0x19
 4658 02d0 6E       		.uleb128 0x6e
 4659 02d1 0E       		.uleb128 0xe
 4660 02d2 03       		.uleb128 0x3
 4661 02d3 0E       		.uleb128 0xe
 4662 02d4 3A       		.uleb128 0x3a
 4663 02d5 0B       		.uleb128 0xb
 4664 02d6 3B       		.uleb128 0x3b
 4665 02d7 05       		.uleb128 0x5
 4666 02d8 00       		.byte	0
 4667 02d9 00       		.byte	0
 4668 02da 37       		.uleb128 0x37
 4669 02db 2E       		.uleb128 0x2e
 4670 02dc 00       		.byte	0
 4671 02dd 3F       		.uleb128 0x3f
 4672 02de 19       		.uleb128 0x19
 4673 02df 3C       		.uleb128 0x3c
 4674 02e0 19       		.uleb128 0x19
 4675 02e1 6E       		.uleb128 0x6e
 4676 02e2 0E       		.uleb128 0xe
 4677 02e3 03       		.uleb128 0x3
 4678 02e4 0E       		.uleb128 0xe
 4679 02e5 3A       		.uleb128 0x3a
 4680 02e6 0B       		.uleb128 0xb
 4681 02e7 3B       		.uleb128 0x3b
 4682 02e8 0B       		.uleb128 0xb
 4683 02e9 00       		.byte	0
 4684 02ea 00       		.byte	0
 4685 02eb 00       		.byte	0
 4686              		.section	.debug_loc,"",%progbits
 4687              	.Ldebug_loc0:
 4688              	.LLST0:
 4689 0000 00000000 		.4byte	.LVL0
 4690 0004 0C000000 		.4byte	.LVL1
 4691 0008 0100     		.2byte	0x1
 4692 000a 50       		.byte	0x50
 4693 000b 0C000000 		.4byte	.LVL1
 4694 000f 30000000 		.4byte	.LFE537
 4695 0013 0400     		.2byte	0x4
ARM GAS  C:\Users\dmr85\AppData\Local\Temp\ccbw5e1d.s 			page 113


 4696 0015 F3       		.byte	0xf3
 4697 0016 01       		.uleb128 0x1
 4698 0017 50       		.byte	0x50
 4699 0018 9F       		.byte	0x9f
 4700 0019 00000000 		.4byte	0
 4701 001d 00000000 		.4byte	0
 4702              	.LLST1:
 4703 0021 00000000 		.4byte	.LVL0
 4704 0025 0F000000 		.4byte	.LVL2-1
 4705 0029 0100     		.2byte	0x1
 4706 002b 51       		.byte	0x51
 4707 002c 0F000000 		.4byte	.LVL2-1
 4708 0030 30000000 		.4byte	.LFE537
 4709 0034 0400     		.2byte	0x4
 4710 0036 F3       		.byte	0xf3
 4711 0037 01       		.uleb128 0x1
 4712 0038 51       		.byte	0x51
 4713 0039 9F       		.byte	0x9f
 4714 003a 00000000 		.4byte	0
 4715 003e 00000000 		.4byte	0
 4716              	.LLST2:
 4717 0042 10000000 		.4byte	.LVL2
 4718 0046 20000000 		.4byte	.LVL3
 4719 004a 0200     		.2byte	0x2
 4720 004c 31       		.byte	0x31
 4721 004d 9F       		.byte	0x9f
 4722 004e 00000000 		.4byte	0
 4723 0052 00000000 		.4byte	0
 4724              	.LLST3:
 4725 0056 10000000 		.4byte	.LVL2
 4726 005a 20000000 		.4byte	.LVL3
 4727 005e 0200     		.2byte	0x2
 4728 0060 30       		.byte	0x30
 4729 0061 9F       		.byte	0x9f
 4730 0062 00000000 		.4byte	0
 4731 0066 00000000 		.4byte	0
 4732              	.LLST4:
 4733 006a 10000000 		.4byte	.LVL2
 4734 006e 20000000 		.4byte	.LVL3
 4735 0072 0300     		.2byte	0x3
 4736 0074 91       		.byte	0x91
 4737 0075 74       		.sleb128 -12
 4738 0076 9F       		.byte	0x9f
 4739 0077 00000000 		.4byte	0
 4740 007b 00000000 		.4byte	0
 4741              	.LLST5:
 4742 007f 00000000 		.4byte	.LVL4
 4743 0083 12000000 		.4byte	.LVL7
 4744 0087 0100     		.2byte	0x1
 4745 0089 50       		.byte	0x50
 4746 008a 12000000 		.4byte	.LVL7
 4747 008e 34000000 		.4byte	.LFE538
 4748 0092 0400     		.2byte	0x4
 4749 0094 F3       		.byte	0xf3
 4750 0095 01       		.uleb128 0x1
 4751 0096 50       		.byte	0x50
 4752 0097 9F       		.byte	0x9f
ARM GAS  C:\Users\dmr85\AppData\Local\Temp\ccbw5e1d.s 			page 114


 4753 0098 00000000 		.4byte	0
 4754 009c 00000000 		.4byte	0
 4755              	.LLST6:
 4756 00a0 00000000 		.4byte	.LVL4
 4757 00a4 10000000 		.4byte	.LVL6
 4758 00a8 0100     		.2byte	0x1
 4759 00aa 51       		.byte	0x51
 4760 00ab 10000000 		.4byte	.LVL6
 4761 00af 15000000 		.4byte	.LVL8-1
 4762 00b3 0100     		.2byte	0x1
 4763 00b5 52       		.byte	0x52
 4764 00b6 15000000 		.4byte	.LVL8-1
 4765 00ba 26000000 		.4byte	.LVL11
 4766 00be 0100     		.2byte	0x1
 4767 00c0 54       		.byte	0x54
 4768 00c1 26000000 		.4byte	.LVL11
 4769 00c5 34000000 		.4byte	.LFE538
 4770 00c9 0400     		.2byte	0x4
 4771 00cb F3       		.byte	0xf3
 4772 00cc 01       		.uleb128 0x1
 4773 00cd 51       		.byte	0x51
 4774 00ce 9F       		.byte	0x9f
 4775 00cf 00000000 		.4byte	0
 4776 00d3 00000000 		.4byte	0
 4777              	.LLST7:
 4778 00d7 06000000 		.4byte	.LVL5
 4779 00db 18000000 		.4byte	.LVL9
 4780 00df 0200     		.2byte	0x2
 4781 00e1 31       		.byte	0x31
 4782 00e2 9F       		.byte	0x9f
 4783 00e3 00000000 		.4byte	0
 4784 00e7 00000000 		.4byte	0
 4785              	.LLST8:
 4786 00eb 06000000 		.4byte	.LVL5
 4787 00ef 10000000 		.4byte	.LVL6
 4788 00f3 0100     		.2byte	0x1
 4789 00f5 51       		.byte	0x51
 4790 00f6 10000000 		.4byte	.LVL6
 4791 00fa 15000000 		.4byte	.LVL8-1
 4792 00fe 0100     		.2byte	0x1
 4793 0100 52       		.byte	0x52
 4794 0101 15000000 		.4byte	.LVL8-1
 4795 0105 18000000 		.4byte	.LVL9
 4796 0109 0100     		.2byte	0x1
 4797 010b 54       		.byte	0x54
 4798 010c 00000000 		.4byte	0
 4799 0110 00000000 		.4byte	0
 4800              	.LLST9:
 4801 0114 06000000 		.4byte	.LVL5
 4802 0118 18000000 		.4byte	.LVL9
 4803 011c 0200     		.2byte	0x2
 4804 011e 30       		.byte	0x30
 4805 011f 9F       		.byte	0x9f
 4806 0120 00000000 		.4byte	0
 4807 0124 00000000 		.4byte	0
 4808              	.LLST10:
 4809 0128 00000000 		.4byte	.LVL12
ARM GAS  C:\Users\dmr85\AppData\Local\Temp\ccbw5e1d.s 			page 115


 4810 012c 0A000000 		.4byte	.LVL13
 4811 0130 0100     		.2byte	0x1
 4812 0132 50       		.byte	0x50
 4813 0133 0A000000 		.4byte	.LVL13
 4814 0137 10000000 		.4byte	.LFE541
 4815 013b 0400     		.2byte	0x4
 4816 013d F3       		.byte	0xf3
 4817 013e 01       		.uleb128 0x1
 4818 013f 50       		.byte	0x50
 4819 0140 9F       		.byte	0x9f
 4820 0141 00000000 		.4byte	0
 4821 0145 00000000 		.4byte	0
 4822              	.LLST11:
 4823 0149 00000000 		.4byte	.LVL15
 4824 014d 05000000 		.4byte	.LVL16-1
 4825 0151 0100     		.2byte	0x1
 4826 0153 50       		.byte	0x50
 4827 0154 05000000 		.4byte	.LVL16-1
 4828 0158 08000000 		.4byte	.LFE542
 4829 015c 0400     		.2byte	0x4
 4830 015e F3       		.byte	0xf3
 4831 015f 01       		.uleb128 0x1
 4832 0160 50       		.byte	0x50
 4833 0161 9F       		.byte	0x9f
 4834 0162 00000000 		.4byte	0
 4835 0166 00000000 		.4byte	0
 4836              	.LLST12:
 4837 016a 00000000 		.4byte	.LVL17
 4838 016e 04000000 		.4byte	.LVL18
 4839 0172 0100     		.2byte	0x1
 4840 0174 50       		.byte	0x50
 4841 0175 04000000 		.4byte	.LVL18
 4842 0179 0A000000 		.4byte	.LFE543
 4843 017d 0400     		.2byte	0x4
 4844 017f F3       		.byte	0xf3
 4845 0180 01       		.uleb128 0x1
 4846 0181 50       		.byte	0x50
 4847 0182 9F       		.byte	0x9f
 4848 0183 00000000 		.4byte	0
 4849 0187 00000000 		.4byte	0
 4850              	.LLST13:
 4851 018b 00000000 		.4byte	.LVL20
 4852 018f 02000000 		.4byte	.LVL21
 4853 0193 0100     		.2byte	0x1
 4854 0195 50       		.byte	0x50
 4855 0196 02000000 		.4byte	.LVL21
 4856 019a 4C000000 		.4byte	.LFE544
 4857 019e 0300     		.2byte	0x3
 4858 01a0 70       		.byte	0x70
 4859 01a1 01       		.sleb128 1
 4860 01a2 9F       		.byte	0x9f
 4861 01a3 00000000 		.4byte	0
 4862 01a7 00000000 		.4byte	0
 4863              	.LLST14:
 4864 01ab 10000000 		.4byte	.LVL22
 4865 01af 18000000 		.4byte	.LVL23
 4866 01b3 0200     		.2byte	0x2
ARM GAS  C:\Users\dmr85\AppData\Local\Temp\ccbw5e1d.s 			page 116


 4867 01b5 34       		.byte	0x34
 4868 01b6 9F       		.byte	0x9f
 4869 01b7 00000000 		.4byte	0
 4870 01bb 00000000 		.4byte	0
 4871              	.LLST15:
 4872 01bf 10000000 		.4byte	.LVL22
 4873 01c3 18000000 		.4byte	.LVL23
 4874 01c7 0600     		.2byte	0x6
 4875 01c9 0C       		.byte	0xc
 4876 01ca 00053240 		.4byte	0x40320500
 4877 01ce 9F       		.byte	0x9f
 4878 01cf 00000000 		.4byte	0
 4879 01d3 00000000 		.4byte	0
 4880              	.LLST16:
 4881 01d7 18000000 		.4byte	.LVL23
 4882 01db 20000000 		.4byte	.LVL24
 4883 01df 0200     		.2byte	0x2
 4884 01e1 34       		.byte	0x34
 4885 01e2 9F       		.byte	0x9f
 4886 01e3 00000000 		.4byte	0
 4887 01e7 00000000 		.4byte	0
 4888              	.LLST17:
 4889 01eb 18000000 		.4byte	.LVL23
 4890 01ef 20000000 		.4byte	.LVL24
 4891 01f3 0600     		.2byte	0x6
 4892 01f5 0C       		.byte	0xc
 4893 01f6 80023240 		.4byte	0x40320280
 4894 01fa 9F       		.byte	0x9f
 4895 01fb 00000000 		.4byte	0
 4896 01ff 00000000 		.4byte	0
 4897              	.LLST18:
 4898 0203 20000000 		.4byte	.LVL24
 4899 0207 28000000 		.4byte	.LVL25
 4900 020b 0200     		.2byte	0x2
 4901 020d 36       		.byte	0x36
 4902 020e 9F       		.byte	0x9f
 4903 020f 00000000 		.4byte	0
 4904 0213 00000000 		.4byte	0
 4905              	.LLST19:
 4906 0217 20000000 		.4byte	.LVL24
 4907 021b 28000000 		.4byte	.LVL25
 4908 021f 0600     		.2byte	0x6
 4909 0221 0C       		.byte	0xc
 4910 0222 00053240 		.4byte	0x40320500
 4911 0226 9F       		.byte	0x9f
 4912 0227 00000000 		.4byte	0
 4913 022b 00000000 		.4byte	0
 4914              	.LLST20:
 4915 022f 28000000 		.4byte	.LVL25
 4916 0233 30000000 		.4byte	.LVL26
 4917 0237 0200     		.2byte	0x2
 4918 0239 35       		.byte	0x35
 4919 023a 9F       		.byte	0x9f
 4920 023b 00000000 		.4byte	0
 4921 023f 00000000 		.4byte	0
 4922              	.LLST21:
 4923 0243 28000000 		.4byte	.LVL25
ARM GAS  C:\Users\dmr85\AppData\Local\Temp\ccbw5e1d.s 			page 117


 4924 0247 30000000 		.4byte	.LVL26
 4925 024b 0600     		.2byte	0x6
 4926 024d 0C       		.byte	0xc
 4927 024e 00053240 		.4byte	0x40320500
 4928 0252 9F       		.byte	0x9f
 4929 0253 00000000 		.4byte	0
 4930 0257 00000000 		.4byte	0
 4931              	.LLST22:
 4932 025b 30000000 		.4byte	.LVL26
 4933 025f 38000000 		.4byte	.LVL27
 4934 0263 0200     		.2byte	0x2
 4935 0265 33       		.byte	0x33
 4936 0266 9F       		.byte	0x9f
 4937 0267 00000000 		.4byte	0
 4938 026b 00000000 		.4byte	0
 4939              	.LLST23:
 4940 026f 30000000 		.4byte	.LVL26
 4941 0273 38000000 		.4byte	.LVL27
 4942 0277 0600     		.2byte	0x6
 4943 0279 0C       		.byte	0xc
 4944 027a 80043240 		.4byte	0x40320480
 4945 027e 9F       		.byte	0x9f
 4946 027f 00000000 		.4byte	0
 4947 0283 00000000 		.4byte	0
 4948              	.LLST24:
 4949 0287 38000000 		.4byte	.LVL27
 4950 028b 3E000000 		.4byte	.LVL28
 4951 028f 0200     		.2byte	0x2
 4952 0291 36       		.byte	0x36
 4953 0292 9F       		.byte	0x9f
 4954 0293 00000000 		.4byte	0
 4955 0297 00000000 		.4byte	0
 4956              	.LLST25:
 4957 029b 38000000 		.4byte	.LVL27
 4958 029f 3E000000 		.4byte	.LVL28
 4959 02a3 0600     		.2byte	0x6
 4960 02a5 0C       		.byte	0xc
 4961 02a6 80023240 		.4byte	0x40320280
 4962 02aa 9F       		.byte	0x9f
 4963 02ab 00000000 		.4byte	0
 4964 02af 00000000 		.4byte	0
 4965              	.LLST26:
 4966 02b3 00000000 		.4byte	.LVL29
 4967 02b7 04000000 		.4byte	.LVL30
 4968 02bb 0100     		.2byte	0x1
 4969 02bd 50       		.byte	0x50
 4970 02be 04000000 		.4byte	.LVL30
 4971 02c2 0A000000 		.4byte	.LFE540
 4972 02c6 0400     		.2byte	0x4
 4973 02c8 F3       		.byte	0xf3
 4974 02c9 01       		.uleb128 0x1
 4975 02ca 50       		.byte	0x50
 4976 02cb 9F       		.byte	0x9f
 4977 02cc 00000000 		.4byte	0
 4978 02d0 00000000 		.4byte	0
 4979              	.LLST27:
 4980 02d4 00000000 		.4byte	.LVL29
ARM GAS  C:\Users\dmr85\AppData\Local\Temp\ccbw5e1d.s 			page 118


 4981 02d8 07000000 		.4byte	.LVL31-1
 4982 02dc 0100     		.2byte	0x1
 4983 02de 51       		.byte	0x51
 4984 02df 07000000 		.4byte	.LVL31-1
 4985 02e3 0A000000 		.4byte	.LFE540
 4986 02e7 0400     		.2byte	0x4
 4987 02e9 F3       		.byte	0xf3
 4988 02ea 01       		.uleb128 0x1
 4989 02eb 51       		.byte	0x51
 4990 02ec 9F       		.byte	0x9f
 4991 02ed 00000000 		.4byte	0
 4992 02f1 00000000 		.4byte	0
 4993              	.LLST28:
 4994 02f5 00000000 		.4byte	.LVL32
 4995 02f9 02000000 		.4byte	.LVL33
 4996 02fd 0100     		.2byte	0x1
 4997 02ff 50       		.byte	0x50
 4998 0300 02000000 		.4byte	.LVL33
 4999 0304 44000000 		.4byte	.LFE545
 5000 0308 0300     		.2byte	0x3
 5001 030a 70       		.byte	0x70
 5002 030b 01       		.sleb128 1
 5003 030c 9F       		.byte	0x9f
 5004 030d 00000000 		.4byte	0
 5005 0311 00000000 		.4byte	0
 5006              	.LLST29:
 5007 0315 10000000 		.4byte	.LVL34
 5008 0319 18000000 		.4byte	.LVL35
 5009 031d 0200     		.2byte	0x2
 5010 031f 34       		.byte	0x34
 5011 0320 9F       		.byte	0x9f
 5012 0321 00000000 		.4byte	0
 5013 0325 00000000 		.4byte	0
 5014              	.LLST30:
 5015 0329 10000000 		.4byte	.LVL34
 5016 032d 18000000 		.4byte	.LVL35
 5017 0331 0600     		.2byte	0x6
 5018 0333 0C       		.byte	0xc
 5019 0334 00053240 		.4byte	0x40320500
 5020 0338 9F       		.byte	0x9f
 5021 0339 00000000 		.4byte	0
 5022 033d 00000000 		.4byte	0
 5023              	.LLST31:
 5024 0341 18000000 		.4byte	.LVL35
 5025 0345 20000000 		.4byte	.LVL36
 5026 0349 0200     		.2byte	0x2
 5027 034b 34       		.byte	0x34
 5028 034c 9F       		.byte	0x9f
 5029 034d 00000000 		.4byte	0
 5030 0351 00000000 		.4byte	0
 5031              	.LLST32:
 5032 0355 18000000 		.4byte	.LVL35
 5033 0359 20000000 		.4byte	.LVL36
 5034 035d 0600     		.2byte	0x6
 5035 035f 0C       		.byte	0xc
 5036 0360 80023240 		.4byte	0x40320280
 5037 0364 9F       		.byte	0x9f
ARM GAS  C:\Users\dmr85\AppData\Local\Temp\ccbw5e1d.s 			page 119


 5038 0365 00000000 		.4byte	0
 5039 0369 00000000 		.4byte	0
 5040              	.LLST33:
 5041 036d 20000000 		.4byte	.LVL36
 5042 0371 28000000 		.4byte	.LVL37
 5043 0375 0200     		.2byte	0x2
 5044 0377 36       		.byte	0x36
 5045 0378 9F       		.byte	0x9f
 5046 0379 00000000 		.4byte	0
 5047 037d 00000000 		.4byte	0
 5048              	.LLST34:
 5049 0381 20000000 		.4byte	.LVL36
 5050 0385 28000000 		.4byte	.LVL37
 5051 0389 0600     		.2byte	0x6
 5052 038b 0C       		.byte	0xc
 5053 038c 00053240 		.4byte	0x40320500
 5054 0390 9F       		.byte	0x9f
 5055 0391 00000000 		.4byte	0
 5056 0395 00000000 		.4byte	0
 5057              	.LLST35:
 5058 0399 28000000 		.4byte	.LVL37
 5059 039d 30000000 		.4byte	.LVL38
 5060 03a1 0200     		.2byte	0x2
 5061 03a3 35       		.byte	0x35
 5062 03a4 9F       		.byte	0x9f
 5063 03a5 00000000 		.4byte	0
 5064 03a9 00000000 		.4byte	0
 5065              	.LLST36:
 5066 03ad 28000000 		.4byte	.LVL37
 5067 03b1 30000000 		.4byte	.LVL38
 5068 03b5 0600     		.2byte	0x6
 5069 03b7 0C       		.byte	0xc
 5070 03b8 00053240 		.4byte	0x40320500
 5071 03bc 9F       		.byte	0x9f
 5072 03bd 00000000 		.4byte	0
 5073 03c1 00000000 		.4byte	0
 5074              	.LLST37:
 5075 03c5 30000000 		.4byte	.LVL38
 5076 03c9 36000000 		.4byte	.LVL39
 5077 03cd 0200     		.2byte	0x2
 5078 03cf 33       		.byte	0x33
 5079 03d0 9F       		.byte	0x9f
 5080 03d1 00000000 		.4byte	0
 5081 03d5 00000000 		.4byte	0
 5082              	.LLST38:
 5083 03d9 30000000 		.4byte	.LVL38
 5084 03dd 36000000 		.4byte	.LVL39
 5085 03e1 0600     		.2byte	0x6
 5086 03e3 0C       		.byte	0xc
 5087 03e4 80043240 		.4byte	0x40320480
 5088 03e8 9F       		.byte	0x9f
 5089 03e9 00000000 		.4byte	0
 5090 03ed 00000000 		.4byte	0
 5091              	.LLST39:
 5092 03f1 00000000 		.4byte	.LVL40
 5093 03f5 04000000 		.4byte	.LVL41
 5094 03f9 0100     		.2byte	0x1
ARM GAS  C:\Users\dmr85\AppData\Local\Temp\ccbw5e1d.s 			page 120


 5095 03fb 50       		.byte	0x50
 5096 03fc 04000000 		.4byte	.LVL41
 5097 0400 0A000000 		.4byte	.LFE539
 5098 0404 0400     		.2byte	0x4
 5099 0406 F3       		.byte	0xf3
 5100 0407 01       		.uleb128 0x1
 5101 0408 50       		.byte	0x50
 5102 0409 9F       		.byte	0x9f
 5103 040a 00000000 		.4byte	0
 5104 040e 00000000 		.4byte	0
 5105              	.LLST40:
 5106 0412 00000000 		.4byte	.LVL40
 5107 0416 07000000 		.4byte	.LVL42-1
 5108 041a 0100     		.2byte	0x1
 5109 041c 51       		.byte	0x51
 5110 041d 07000000 		.4byte	.LVL42-1
 5111 0421 0A000000 		.4byte	.LFE539
 5112 0425 0400     		.2byte	0x4
 5113 0427 F3       		.byte	0xf3
 5114 0428 01       		.uleb128 0x1
 5115 0429 51       		.byte	0x51
 5116 042a 9F       		.byte	0x9f
 5117 042b 00000000 		.4byte	0
 5118 042f 00000000 		.4byte	0
 5119              	.LLST41:
 5120 0433 00000000 		.4byte	.LVL43
 5121 0437 1E000000 		.4byte	.LVL46
 5122 043b 0100     		.2byte	0x1
 5123 043d 50       		.byte	0x50
 5124 043e 1E000000 		.4byte	.LVL46
 5125 0442 74000000 		.4byte	.LVL54
 5126 0446 0100     		.2byte	0x1
 5127 0448 5A       		.byte	0x5a
 5128 0449 74000000 		.4byte	.LVL54
 5129 044d 7C000000 		.4byte	.LFE546
 5130 0451 0400     		.2byte	0x4
 5131 0453 F3       		.byte	0xf3
 5132 0454 01       		.uleb128 0x1
 5133 0455 50       		.byte	0x50
 5134 0456 9F       		.byte	0x9f
 5135 0457 00000000 		.4byte	0
 5136 045b 00000000 		.4byte	0
 5137              	.LLST42:
 5138 045f 00000000 		.4byte	.LVL43
 5139 0463 1E000000 		.4byte	.LVL46
 5140 0467 0100     		.2byte	0x1
 5141 0469 51       		.byte	0x51
 5142 046a 1E000000 		.4byte	.LVL46
 5143 046e 7C000000 		.4byte	.LFE546
 5144 0472 0400     		.2byte	0x4
 5145 0474 F3       		.byte	0xf3
 5146 0475 01       		.uleb128 0x1
 5147 0476 51       		.byte	0x51
 5148 0477 9F       		.byte	0x9f
 5149 0478 00000000 		.4byte	0
 5150 047c 00000000 		.4byte	0
 5151              	.LLST43:
ARM GAS  C:\Users\dmr85\AppData\Local\Temp\ccbw5e1d.s 			page 121


 5152 0480 0C000000 		.4byte	.LVL44
 5153 0484 1E000000 		.4byte	.LVL46
 5154 0488 0300     		.2byte	0x3
 5155 048a 08       		.byte	0x8
 5156 048b FF       		.byte	0xff
 5157 048c 9F       		.byte	0x9f
 5158 048d 1E000000 		.4byte	.LVL46
 5159 0491 74000000 		.4byte	.LVL54
 5160 0495 0100     		.2byte	0x1
 5161 0497 58       		.byte	0x58
 5162 0498 74000000 		.4byte	.LVL54
 5163 049c 7C000000 		.4byte	.LFE546
 5164 04a0 0100     		.2byte	0x1
 5165 04a2 50       		.byte	0x50
 5166 04a3 00000000 		.4byte	0
 5167 04a7 00000000 		.4byte	0
 5168              	.LLST44:
 5169 04ab 1A000000 		.4byte	.LVL45
 5170 04af 74000000 		.4byte	.LVL54
 5171 04b3 0200     		.2byte	0x2
 5172 04b5 79       		.byte	0x79
 5173 04b6 00       		.sleb128 0
 5174 04b7 00000000 		.4byte	0
 5175 04bb 00000000 		.4byte	0
 5176              	.LLST45:
 5177 04bf 1E000000 		.4byte	.LVL46
 5178 04c3 2E000000 		.4byte	.LVL47
 5179 04c7 0100     		.2byte	0x1
 5180 04c9 56       		.byte	0x56
 5181 04ca 00000000 		.4byte	0
 5182 04ce 00000000 		.4byte	0
 5183              	.LLST46:
 5184 04d2 1E000000 		.4byte	.LVL46
 5185 04d6 2E000000 		.4byte	.LVL47
 5186 04da 0100     		.2byte	0x1
 5187 04dc 59       		.byte	0x59
 5188 04dd 00000000 		.4byte	0
 5189 04e1 00000000 		.4byte	0
 5190              	.LLST47:
 5191 04e5 1E000000 		.4byte	.LVL46
 5192 04e9 2E000000 		.4byte	.LVL47
 5193 04ed 0100     		.2byte	0x1
 5194 04ef 5A       		.byte	0x5a
 5195 04f0 00000000 		.4byte	0
 5196 04f4 00000000 		.4byte	0
 5197              	.LLST48:
 5198 04f8 34000000 		.4byte	.LVL48
 5199 04fc 66000000 		.4byte	.LVL53
 5200 0500 0100     		.2byte	0x1
 5201 0502 54       		.byte	0x54
 5202 0503 00000000 		.4byte	0
 5203 0507 00000000 		.4byte	0
 5204              	.LLST49:
 5205 050b 00000000 		.4byte	.LVL55
 5206 050f 0E000000 		.4byte	.LVL57
 5207 0513 0100     		.2byte	0x1
 5208 0515 50       		.byte	0x50
ARM GAS  C:\Users\dmr85\AppData\Local\Temp\ccbw5e1d.s 			page 122


 5209 0516 0E000000 		.4byte	.LVL57
 5210 051a AE000000 		.4byte	.LVL78
 5211 051e 0100     		.2byte	0x1
 5212 0520 59       		.byte	0x59
 5213 0521 AE000000 		.4byte	.LVL78
 5214 0525 C4000000 		.4byte	.LFE547
 5215 0529 0400     		.2byte	0x4
 5216 052b F3       		.byte	0xf3
 5217 052c 01       		.uleb128 0x1
 5218 052d 50       		.byte	0x50
 5219 052e 9F       		.byte	0x9f
 5220 052f 00000000 		.4byte	0
 5221 0533 00000000 		.4byte	0
 5222              	.LLST50:
 5223 0537 00000000 		.4byte	.LVL55
 5224 053b 0E000000 		.4byte	.LVL57
 5225 053f 0100     		.2byte	0x1
 5226 0541 51       		.byte	0x51
 5227 0542 0E000000 		.4byte	.LVL57
 5228 0546 C4000000 		.4byte	.LFE547
 5229 054a 0400     		.2byte	0x4
 5230 054c F3       		.byte	0xf3
 5231 054d 01       		.uleb128 0x1
 5232 054e 51       		.byte	0x51
 5233 054f 9F       		.byte	0x9f
 5234 0550 00000000 		.4byte	0
 5235 0554 00000000 		.4byte	0
 5236              	.LLST51:
 5237 0558 0A000000 		.4byte	.LVL56
 5238 055c 0E000000 		.4byte	.LVL57
 5239 0560 0300     		.2byte	0x3
 5240 0562 08       		.byte	0x8
 5241 0563 FF       		.byte	0xff
 5242 0564 9F       		.byte	0x9f
 5243 0565 0E000000 		.4byte	.LVL57
 5244 0569 AE000000 		.4byte	.LVL78
 5245 056d 0100     		.2byte	0x1
 5246 056f 5A       		.byte	0x5a
 5247 0570 AE000000 		.4byte	.LVL78
 5248 0574 C4000000 		.4byte	.LFE547
 5249 0578 0100     		.2byte	0x1
 5250 057a 50       		.byte	0x50
 5251 057b 00000000 		.4byte	0
 5252 057f 00000000 		.4byte	0
 5253              	.LLST52:
 5254 0583 0E000000 		.4byte	.LVL57
 5255 0587 1A000000 		.4byte	.LVL59
 5256 058b 0300     		.2byte	0x3
 5257 058d 09       		.byte	0x9
 5258 058e FF       		.byte	0xff
 5259 058f 9F       		.byte	0x9f
 5260 0590 1A000000 		.4byte	.LVL59
 5261 0594 66000000 		.4byte	.LVL68
 5262 0598 0100     		.2byte	0x1
 5263 059a 57       		.byte	0x57
 5264 059b 68000000 		.4byte	.LVL69
 5265 059f AE000000 		.4byte	.LVL78
ARM GAS  C:\Users\dmr85\AppData\Local\Temp\ccbw5e1d.s 			page 123


 5266 05a3 0100     		.2byte	0x1
 5267 05a5 57       		.byte	0x57
 5268 05a6 00000000 		.4byte	0
 5269 05aa 00000000 		.4byte	0
 5270              	.LLST53:
 5271 05ae 14000000 		.4byte	.LVL58
 5272 05b2 1A000000 		.4byte	.LVL59
 5273 05b6 0400     		.2byte	0x4
 5274 05b8 0A       		.byte	0xa
 5275 05b9 E803     		.2byte	0x3e8
 5276 05bb 9F       		.byte	0x9f
 5277 05bc 1A000000 		.4byte	.LVL59
 5278 05c0 AE000000 		.4byte	.LVL78
 5279 05c4 0100     		.2byte	0x1
 5280 05c6 56       		.byte	0x56
 5281 05c7 00000000 		.4byte	0
 5282 05cb 00000000 		.4byte	0
 5283              	.LLST54:
 5284 05cf 20000000 		.4byte	.LVL60
 5285 05d3 34000000 		.4byte	.LVL63
 5286 05d7 0200     		.2byte	0x2
 5287 05d9 31       		.byte	0x31
 5288 05da 9F       		.byte	0x9f
 5289 05db 00000000 		.4byte	0
 5290 05df 00000000 		.4byte	0
 5291              	.LLST55:
 5292 05e3 20000000 		.4byte	.LVL60
 5293 05e7 2A000000 		.4byte	.LVL61
 5294 05eb 0300     		.2byte	0x3
 5295 05ed 91       		.byte	0x91
 5296 05ee 5E       		.sleb128 -34
 5297 05ef 9F       		.byte	0x9f
 5298 05f0 2A000000 		.4byte	.LVL61
 5299 05f4 33000000 		.4byte	.LVL63-1
 5300 05f8 0100     		.2byte	0x1
 5301 05fa 52       		.byte	0x52
 5302 05fb 33000000 		.4byte	.LVL63-1
 5303 05ff 34000000 		.4byte	.LVL63
 5304 0603 0300     		.2byte	0x3
 5305 0605 91       		.byte	0x91
 5306 0606 5E       		.sleb128 -34
 5307 0607 9F       		.byte	0x9f
 5308 0608 00000000 		.4byte	0
 5309 060c 00000000 		.4byte	0
 5310              	.LLST56:
 5311 0610 20000000 		.4byte	.LVL60
 5312 0614 2E000000 		.4byte	.LVL62
 5313 0618 0300     		.2byte	0x3
 5314 061a 91       		.byte	0x91
 5315 061b 5F       		.sleb128 -33
 5316 061c 9F       		.byte	0x9f
 5317 061d 2E000000 		.4byte	.LVL62
 5318 0621 33000000 		.4byte	.LVL63-1
 5319 0625 0100     		.2byte	0x1
 5320 0627 51       		.byte	0x51
 5321 0628 33000000 		.4byte	.LVL63-1
 5322 062c 34000000 		.4byte	.LVL63
ARM GAS  C:\Users\dmr85\AppData\Local\Temp\ccbw5e1d.s 			page 124


 5323 0630 0300     		.2byte	0x3
 5324 0632 91       		.byte	0x91
 5325 0633 5F       		.sleb128 -33
 5326 0634 9F       		.byte	0x9f
 5327 0635 00000000 		.4byte	0
 5328 0639 00000000 		.4byte	0
 5329              	.LLST57:
 5330 063d 3A000000 		.4byte	.LVL64
 5331 0641 70000000 		.4byte	.LVL70
 5332 0645 0100     		.2byte	0x1
 5333 0647 54       		.byte	0x54
 5334 0648 00000000 		.4byte	0
 5335 064c 00000000 		.4byte	0
 5336              	.LLST58:
 5337 0650 8C000000 		.4byte	.LVL73
 5338 0654 90000000 		.4byte	.LVL74
 5339 0658 0200     		.2byte	0x2
 5340 065a 30       		.byte	0x30
 5341 065b 9F       		.byte	0x9f
 5342 065c 90000000 		.4byte	.LVL74
 5343 0660 AE000000 		.4byte	.LVL78
 5344 0664 0100     		.2byte	0x1
 5345 0666 54       		.byte	0x54
 5346 0667 00000000 		.4byte	0
 5347 066b 00000000 		.4byte	0
 5348              		.section	.debug_aranges,"",%progbits
 5349 0000 74000000 		.4byte	0x74
 5350 0004 0200     		.2byte	0x2
 5351 0006 00000000 		.4byte	.Ldebug_info0
 5352 000a 04       		.byte	0x4
 5353 000b 00       		.byte	0
 5354 000c 0000     		.2byte	0
 5355 000e 0000     		.2byte	0
 5356 0010 00000000 		.4byte	.LFB537
 5357 0014 30000000 		.4byte	.LFE537-.LFB537
 5358 0018 00000000 		.4byte	.LFB538
 5359 001c 34000000 		.4byte	.LFE538-.LFB538
 5360 0020 00000000 		.4byte	.LFB541
 5361 0024 10000000 		.4byte	.LFE541-.LFB541
 5362 0028 00000000 		.4byte	.LFB542
 5363 002c 08000000 		.4byte	.LFE542-.LFB542
 5364 0030 00000000 		.4byte	.LFB543
 5365 0034 0A000000 		.4byte	.LFE543-.LFB543
 5366 0038 00000000 		.4byte	.LFB544
 5367 003c 4C000000 		.4byte	.LFE544-.LFB544
 5368 0040 00000000 		.4byte	.LFB540
 5369 0044 0A000000 		.4byte	.LFE540-.LFB540
 5370 0048 00000000 		.4byte	.LFB545
 5371 004c 44000000 		.4byte	.LFE545-.LFB545
 5372 0050 00000000 		.4byte	.LFB539
 5373 0054 0A000000 		.4byte	.LFE539-.LFB539
 5374 0058 00000000 		.4byte	.LFB546
 5375 005c 7C000000 		.4byte	.LFE546-.LFB546
 5376 0060 00000000 		.4byte	.LFB547
 5377 0064 C4000000 		.4byte	.LFE547-.LFB547
 5378 0068 00000000 		.4byte	.LFB548
 5379 006c 02000000 		.4byte	.LFE548-.LFB548
ARM GAS  C:\Users\dmr85\AppData\Local\Temp\ccbw5e1d.s 			page 125


 5380 0070 00000000 		.4byte	0
 5381 0074 00000000 		.4byte	0
 5382              		.section	.debug_ranges,"",%progbits
 5383              	.Ldebug_ranges0:
 5384 0000 00000000 		.4byte	.LFB537
 5385 0004 30000000 		.4byte	.LFE537
 5386 0008 00000000 		.4byte	.LFB538
 5387 000c 34000000 		.4byte	.LFE538
 5388 0010 00000000 		.4byte	.LFB541
 5389 0014 10000000 		.4byte	.LFE541
 5390 0018 00000000 		.4byte	.LFB542
 5391 001c 08000000 		.4byte	.LFE542
 5392 0020 00000000 		.4byte	.LFB543
 5393 0024 0A000000 		.4byte	.LFE543
 5394 0028 00000000 		.4byte	.LFB544
 5395 002c 4C000000 		.4byte	.LFE544
 5396 0030 00000000 		.4byte	.LFB540
 5397 0034 0A000000 		.4byte	.LFE540
 5398 0038 00000000 		.4byte	.LFB545
 5399 003c 44000000 		.4byte	.LFE545
 5400 0040 00000000 		.4byte	.LFB539
 5401 0044 0A000000 		.4byte	.LFE539
 5402 0048 00000000 		.4byte	.LFB546
 5403 004c 7C000000 		.4byte	.LFE546
 5404 0050 00000000 		.4byte	.LFB547
 5405 0054 C4000000 		.4byte	.LFE547
 5406 0058 00000000 		.4byte	.LFB548
 5407 005c 02000000 		.4byte	.LFE548
 5408 0060 00000000 		.4byte	0
 5409 0064 00000000 		.4byte	0
 5410              		.section	.debug_line,"",%progbits
 5411              	.Ldebug_line0:
 5412 0000 B6050000 		.section	.debug_str,"MS",%progbits,1
 5412      02001504 
 5412      00000201 
 5412      FB0E0D00 
 5412      01010101 
 5413              	.LASF159:
 5414 0000 666C6173 		.ascii	"flashCtlMainWs1Freq\000"
 5414      6843746C 
 5414      4D61696E 
 5414      57733146 
 5414      72657100 
 5415              	.LASF406:
 5416 0014 63795F62 		.ascii	"cy_ble_connState\000"
 5416      6C655F63 
 5416      6F6E6E53 
 5416      74617465 
 5416      00
 5417              	.LASF31:
 5418 0025 52455345 		.ascii	"RESERVED\000"
 5418      52564544 
 5418      00
 5419              	.LASF39:
 5420 002e 5644445F 		.ascii	"VDD_ACTIVE\000"
 5420      41435449 
 5420      564500
ARM GAS  C:\Users\dmr85\AppData\Local\Temp\ccbw5e1d.s 			page 126


 5421              	.LASF35:
 5422 0039 494E5452 		.ascii	"INTR_CAUSE0\000"
 5422      5F434155 
 5422      53453000 
 5423              	.LASF36:
 5424 0045 494E5452 		.ascii	"INTR_CAUSE1\000"
 5424      5F434155 
 5424      53453100 
 5425              	.LASF346:
 5426 0051 43595F42 		.ascii	"CY_BLE_EVT_L2CAP_CBFC_DATA_READ\000"
 5426      4C455F45 
 5426      56545F4C 
 5426      32434150 
 5426      5F434246 
 5427              	.LASF212:
 5428 0071 63795F63 		.ascii	"cy_cb_scb_spi_handle_events_t\000"
 5428      625F7363 
 5428      625F7370 
 5428      695F6861 
 5428      6E646C65 
 5429              	.LASF420:
 5430 008f 48616E64 		.ascii	"HandleError\000"
 5430      6C654572 
 5430      726F7200 
 5431              	.LASF293:
 5432 009b 43595F42 		.ascii	"CY_BLE_EVT_GAPP_ADVERTISEMENT_START_STOP\000"
 5432      4C455F45 
 5432      56545F47 
 5432      4150505F 
 5432      41445645 
 5433              	.LASF375:
 5434 00c4 5350495F 		.ascii	"SPI_GetTransferStatus\000"
 5434      47657454 
 5434      72616E73 
 5434      66657253 
 5434      74617475 
 5435              	.LASF403:
 5436 00da 63795F64 		.ascii	"cy_device\000"
 5436      65766963 
 5436      6500
 5437              	.LASF348:
 5438 00e4 43595F42 		.ascii	"CY_BLE_EVT_L2CAP_CBFC_TX_CREDIT_IND\000"
 5438      4C455F45 
 5438      56545F4C 
 5438      32434150 
 5438      5F434246 
 5439              	.LASF226:
 5440 0108 74785374 		.ascii	"txStatus\000"
 5440      61747573 
 5440      00
 5441              	.LASF239:
 5442 0111 43595F42 		.ascii	"CY_BLE_EVT_PENDING_FLASH_WRITE\000"
 5442      4C455F45 
 5442      56545F50 
 5442      454E4449 
 5442      4E475F46 
 5443              	.LASF186:
ARM GAS  C:\Users\dmr85\AppData\Local\Temp\ccbw5e1d.s 			page 127


 5444 0130 63707573 		.ascii	"cpussCm0ClockCtlOffset\000"
 5444      73436D30 
 5444      436C6F63 
 5444      6B43746C 
 5444      4F666673 
 5445              	.LASF145:
 5446 0147 70657269 		.ascii	"periClockNr\000"
 5446      436C6F63 
 5446      6B4E7200 
 5447              	.LASF395:
 5448 0153 6D617374 		.ascii	"masterStatus\000"
 5448      65725374 
 5448      61747573 
 5448      00
 5449              	.LASF332:
 5450 0160 43595F42 		.ascii	"CY_BLE_EVT_GATTC_HANDLE_VALUE_NTF\000"
 5450      4C455F45 
 5450      56545F47 
 5450      41545443 
 5450      5F48414E 
 5451              	.LASF386:
 5452 0182 6770696F 		.ascii	"gpio_set_gpio_pin\000"
 5452      5F736574 
 5452      5F677069 
 5452      6F5F7069 
 5452      6E00
 5453              	.LASF383:
 5454 0194 64656C61 		.ascii	"delay_s\000"
 5454      795F7300 
 5455              	.LASF366:
 5456 019c 43595F42 		.ascii	"CY_BLE_CONN_STATE_CLIENT_DISCOVERED\000"
 5456      4C455F43 
 5456      4F4E4E5F 
 5456      53544154 
 5456      455F434C 
 5457              	.LASF48:
 5458 01c0 434D445F 		.ascii	"CMD_RESP_STATUS\000"
 5458      52455350 
 5458      5F535441 
 5458      54555300 
 5459              	.LASF104:
 5460 01d0 494E5452 		.ascii	"INTR_TX_MASK\000"
 5460      5F54585F 
 5460      4D41534B 
 5460      00
 5461              	.LASF118:
 5462 01dd 70657269 		.ascii	"periBase\000"
 5462      42617365 
 5462      00
 5463              	.LASF271:
 5464 01e6 43595F42 		.ascii	"CY_BLE_EVT_SET_TX_PWR_COMPLETE\000"
 5464      4C455F45 
 5464      56545F53 
 5464      45545F54 
 5464      585F5057 
 5465              	.LASF235:
 5466 0205 43595F42 		.ascii	"CY_BLE_EVT_STACK_ON\000"
ARM GAS  C:\Users\dmr85\AppData\Local\Temp\ccbw5e1d.s 			page 128


 5466      4C455F45 
 5466      56545F53 
 5466      5441434B 
 5466      5F4F4E00 
 5467              	.LASF397:
 5468 0219 7370695F 		.ascii	"spi_read_packet\000"
 5468      72656164 
 5468      5F706163 
 5468      6B657400 
 5469              	.LASF194:
 5470 0229 63707573 		.ascii	"cpussCm0NmiCtlOffset\000"
 5470      73436D30 
 5470      4E6D6943 
 5470      746C4F66 
 5470      66736574 
 5471              	.LASF164:
 5472 023e 64774368 		.ascii	"dwChSize\000"
 5472      53697A65 
 5472      00
 5473              	.LASF65:
 5474 0247 54585F46 		.ascii	"TX_FIFO_STATUS\000"
 5474      49464F5F 
 5474      53544154 
 5474      555300
 5475              	.LASF347:
 5476 0256 43595F42 		.ascii	"CY_BLE_EVT_L2CAP_CBFC_RX_CREDIT_IND\000"
 5476      4C455F45 
 5476      56545F4C 
 5476      32434150 
 5476      5F434246 
 5477              	.LASF415:
 5478 027a 43795F53 		.ascii	"Cy_SCB_SPI_GetNumTransfered\000"
 5478      43425F53 
 5478      50495F47 
 5478      65744E75 
 5478      6D547261 
 5479              	.LASF13:
 5480 0296 756E7369 		.ascii	"unsigned int\000"
 5480      676E6564 
 5480      20696E74 
 5480      00
 5481              	.LASF193:
 5482 02a3 63707573 		.ascii	"cpussSysTickCtlOffset\000"
 5482      73537973 
 5482      5469636B 
 5482      43746C4F 
 5482      66667365 
 5483              	.LASF405:
 5484 02b9 63795F62 		.ascii	"cy_ble_connHandle\000"
 5484      6C655F63 
 5484      6F6E6E48 
 5484      616E646C 
 5484      6500
 5485              	.LASF310:
 5486 02cb 43595F42 		.ascii	"CY_BLE_EVT_GAP_CREATE_CONN_CANCEL_COMPLETE\000"
 5486      4C455F45 
 5486      56545F47 
ARM GAS  C:\Users\dmr85\AppData\Local\Temp\ccbw5e1d.s 			page 129


 5486      41505F43 
 5486      52454154 
 5487              	.LASF80:
 5488 02f6 494E5452 		.ascii	"INTR_CAUSE\000"
 5488      5F434155 
 5488      534500
 5489              	.LASF146:
 5490 0301 736D6966 		.ascii	"smifDeviceNr\000"
 5490      44657669 
 5490      63654E72 
 5490      00
 5491              	.LASF176:
 5492 030e 70657269 		.ascii	"periDivCmdPaTypeSelPos\000"
 5492      44697643 
 5492      6D645061 
 5492      54797065 
 5492      53656C50 
 5493              	.LASF219:
 5494 0325 74784275 		.ascii	"txBufIdx\000"
 5494      66496478 
 5494      00
 5495              	.LASF30:
 5496 032e 4346475F 		.ascii	"CFG_SIO\000"
 5496      53494F00 
 5497              	.LASF70:
 5498 0336 52585F46 		.ascii	"RX_FIFO_CTRL\000"
 5498      49464F5F 
 5498      4354524C 
 5498      00
 5499              	.LASF7:
 5500 0343 5F5F696E 		.ascii	"__int32_t\000"
 5500      7433325F 
 5500      7400
 5501              	.LASF233:
 5502 034d 63795F73 		.ascii	"cy_stc_scb_uart_context_t\000"
 5502      74635F73 
 5502      63625F75 
 5502      6172745F 
 5502      636F6E74 
 5503              	.LASF116:
 5504 0367 63707573 		.ascii	"cpussBase\000"
 5504      73426173 
 5504      6500
 5505              	.LASF252:
 5506 0371 43595F42 		.ascii	"CY_BLE_EVT_GET_LOCAL_RPA_COMPLETE\000"
 5506      4C455F45 
 5506      56545F47 
 5506      45545F4C 
 5506      4F43414C 
 5507              	.LASF321:
 5508 0393 43595F42 		.ascii	"CY_BLE_EVT_GATTC_FIND_INFO_RSP\000"
 5508      4C455F45 
 5508      56545F47 
 5508      41545443 
 5508      5F46494E 
 5509              	.LASF140:
 5510 03b2 63707573 		.ascii	"cpussFmIrq\000"
ARM GAS  C:\Users\dmr85\AppData\Local\Temp\ccbw5e1d.s 			page 130


 5510      73466D49 
 5510      727100
 5511              	.LASF98:
 5512 03bd 494E5452 		.ascii	"INTR_S_SET\000"
 5512      5F535F53 
 5512      455400
 5513              	.LASF264:
 5514 03c8 43595F42 		.ascii	"CY_BLE_EVT_SET_PRIVACY_MODE_COMPLETE\000"
 5514      4C455F45 
 5514      56545F53 
 5514      45545F50 
 5514      52495641 
 5515              	.LASF141:
 5516 03ed 63707573 		.ascii	"cpussNotConnectedIrq\000"
 5516      734E6F74 
 5516      436F6E6E 
 5516      65637465 
 5516      64497271 
 5517              	.LASF391:
 5518 0402 7370695F 		.ascii	"spi_write_packet\000"
 5518      77726974 
 5518      655F7061 
 5518      636B6574 
 5518      00
 5519              	.LASF110:
 5520 0413 494E5452 		.ascii	"INTR_RX_MASKED\000"
 5520      5F52585F 
 5520      4D41534B 
 5520      454400
 5521              	.LASF0:
 5522 0422 73686F72 		.ascii	"short int\000"
 5522      7420696E 
 5522      7400
 5523              	.LASF229:
 5524 042c 72785269 		.ascii	"rxRingBufSize\000"
 5524      6E674275 
 5524      6653697A 
 5524      6500
 5525              	.LASF172:
 5526 043a 70657269 		.ascii	"periTrGrSize\000"
 5526      54724772 
 5526      53697A65 
 5526      00
 5527              	.LASF315:
 5528 0447 43595F42 		.ascii	"CY_BLE_EVT_GATT_CONNECT_IND\000"
 5528      4C455F45 
 5528      56545F47 
 5528      4154545F 
 5528      434F4E4E 
 5529              	.LASF234:
 5530 0463 43595F42 		.ascii	"CY_BLE_EVT_INVALID\000"
 5530      4C455F45 
 5530      56545F49 
 5530      4E56414C 
 5530      494400
 5531              	.LASF26:
 5532 0476 494E5452 		.ascii	"INTR_SET\000"
ARM GAS  C:\Users\dmr85\AppData\Local\Temp\ccbw5e1d.s 			page 131


 5532      5F534554 
 5532      00
 5533              	.LASF354:
 5534 047f 43595F42 		.ascii	"CY_BLE_ADV_STATE_STOPPED\000"
 5534      4C455F41 
 5534      44565F53 
 5534      54415445 
 5534      5F53544F 
 5535              	.LASF198:
 5536 0498 63707573 		.ascii	"cpussRam1Ctl0\000"
 5536      7352616D 
 5536      3143746C 
 5536      3000
 5537              	.LASF322:
 5538 04a6 43595F42 		.ascii	"CY_BLE_EVT_GATTC_FIND_BY_TYPE_VALUE_RSP\000"
 5538      4C455F45 
 5538      56545F47 
 5538      41545443 
 5538      5F46494E 
 5539              	.LASF200:
 5540 04ce 69706353 		.ascii	"ipcStructSize\000"
 5540      74727563 
 5540      7453697A 
 5540      6500
 5541              	.LASF262:
 5542 04dc 43595F42 		.ascii	"CY_BLE_EVT_SET_PHY_COMPLETE\000"
 5542      4C455F45 
 5542      56545F53 
 5542      45545F50 
 5542      48595F43 
 5543              	.LASF337:
 5544 04f8 43595F42 		.ascii	"CY_BLE_EVT_GATTS_READ_CHAR_VAL_ACCESS_REQ\000"
 5544      4C455F45 
 5544      56545F47 
 5544      41545453 
 5544      5F524541 
 5545              	.LASF396:
 5546 0522 74696D65 		.ascii	"timeOut\000"
 5546      4F757400 
 5547              	.LASF416:
 5548 052a 474E5520 		.ascii	"GNU C11 5.4.1 20160609 (release) [ARM/embedded-5-br"
 5548      43313120 
 5548      352E342E 
 5548      31203230 
 5548      31363036 
 5549 055d 616E6368 		.ascii	"anch revision 237715] -mcpu=cortex-m4 -mfloat-abi=s"
 5549      20726576 
 5549      6973696F 
 5549      6E203233 
 5549      37373135 
 5550 0590 6F667466 		.ascii	"oftfp -mfpu=fpv4-sp-d16 -mthumb -g -Og -ffunction-s"
 5550      70202D6D 
 5550      6670753D 
 5550      66707634 
 5550      2D73702D 
 5551 05c3 65637469 		.ascii	"ections -ffat-lto-objects\000"
 5551      6F6E7320 
ARM GAS  C:\Users\dmr85\AppData\Local\Temp\ccbw5e1d.s 			page 132


 5551      2D666661 
 5551      742D6C74 
 5551      6F2D6F62 
 5552              	.LASF308:
 5553 05dd 43595F42 		.ascii	"CY_BLE_EVT_GAP_RESOLVE_DEVICE_COMPLETE\000"
 5553      4C455F45 
 5553      56545F47 
 5553      41505F52 
 5553      45534F4C 
 5554              	.LASF53:
 5555 0604 55415254 		.ascii	"UART_RX_CTRL\000"
 5555      5F52585F 
 5555      4354524C 
 5555      00
 5556              	.LASF360:
 5557 0611 43595F42 		.ascii	"CY_BLE_CONN_STATE_CLIENT_DISCONNECTED_DISCOVERED\000"
 5557      4C455F43 
 5557      4F4E4E5F 
 5557      53544154 
 5557      455F434C 
 5558              	.LASF174:
 5559 0642 70657269 		.ascii	"periDivCmdTypeSelPos\000"
 5559      44697643 
 5559      6D645479 
 5559      70655365 
 5559      6C506F73 
 5560              	.LASF191:
 5561 0657 63707573 		.ascii	"cpussTrimRamCtlOffset\000"
 5561      73547269 
 5561      6D52616D 
 5561      43746C4F 
 5561      66667365 
 5562              	.LASF318:
 5563 066d 43595F42 		.ascii	"CY_BLE_EVT_GATTC_XCHNG_MTU_RSP\000"
 5563      4C455F45 
 5563      56545F47 
 5563      41545443 
 5563      5F584348 
 5564              	.LASF334:
 5565 068c 43595F42 		.ascii	"CY_BLE_EVT_GATTS_HANDLE_VALUE_CNF\000"
 5565      4C455F45 
 5565      56545F47 
 5565      41545453 
 5565      5F48414E 
 5566              	.LASF28:
 5567 06ae 4346475F 		.ascii	"CFG_IN\000"
 5567      494E00
 5568              	.LASF263:
 5569 06b5 43595F42 		.ascii	"CY_BLE_EVT_PHY_UPDATE_COMPLETE\000"
 5569      4C455F45 
 5569      56545F50 
 5569      48595F55 
 5569      50444154 
 5570              	.LASF61:
 5571 06d4 4932435F 		.ascii	"I2C_CFG\000"
 5571      43464700 
 5572              	.LASF323:
ARM GAS  C:\Users\dmr85\AppData\Local\Temp\ccbw5e1d.s 			page 133


 5573 06dc 43595F42 		.ascii	"CY_BLE_EVT_GATTC_READ_RSP\000"
 5573      4C455F45 
 5573      56545F47 
 5573      41545443 
 5573      5F524541 
 5574              	.LASF76:
 5575 06f6 52585F46 		.ascii	"RX_FIFO_RD_SILENT\000"
 5575      49464F5F 
 5575      52445F53 
 5575      494C454E 
 5575      5400
 5576              	.LASF324:
 5577 0708 43595F42 		.ascii	"CY_BLE_EVT_GATTC_READ_BLOB_RSP\000"
 5577      4C455F45 
 5577      56545F47 
 5577      41545443 
 5577      5F524541 
 5578              	.LASF18:
 5579 0727 75696E74 		.ascii	"uint32_t\000"
 5579      33325F74 
 5579      00
 5580              	.LASF254:
 5581 0730 43595F42 		.ascii	"CY_BLE_EVT_SET_RPA_ENABLE_COMPLETE\000"
 5581      4C455F45 
 5581      56545F53 
 5581      45545F52 
 5581      50415F45 
 5582              	.LASF93:
 5583 0753 494E5452 		.ascii	"INTR_M_SET\000"
 5583      5F4D5F53 
 5583      455400
 5584              	.LASF44:
 5585 075e 4750494F 		.ascii	"GPIO_V1_Type\000"
 5585      5F56315F 
 5585      54797065 
 5585      00
 5586              	.LASF265:
 5587 076b 43595F42 		.ascii	"CY_BLE_EVT_LL_CNTRL_PROC_PENDING_COMPLETE\000"
 5587      4C455F45 
 5587      56545F4C 
 5587      4C5F434E 
 5587      54524C5F 
 5588              	.LASF184:
 5589 0795 6770696F 		.ascii	"gpioPrtCfgOutOffset\000"
 5589      50727443 
 5589      66674F75 
 5589      744F6666 
 5589      73657400 
 5590              	.LASF390:
 5591 07a9 7370695F 		.ascii	"spi_selectChip\000"
 5591      73656C65 
 5591      63744368 
 5591      697000
 5592              	.LASF343:
 5593 07b8 43595F42 		.ascii	"CY_BLE_EVT_L2CAP_CBFC_CONN_CNF\000"
 5593      4C455F45 
 5593      56545F4C 
ARM GAS  C:\Users\dmr85\AppData\Local\Temp\ccbw5e1d.s 			page 134


 5593      32434150 
 5593      5F434246 
 5594              	.LASF251:
 5595 07d7 43595F42 		.ascii	"CY_BLE_EVT_GET_PEER_RPA_COMPLETE\000"
 5595      4C455F45 
 5595      56545F47 
 5595      45545F50 
 5595      4545525F 
 5596              	.LASF392:
 5597 07f8 7061636B 		.ascii	"packet_size\000"
 5597      65745F73 
 5597      697A6500 
 5598              	.LASF127:
 5599 0804 63727970 		.ascii	"cryptoVersion\000"
 5599      746F5665 
 5599      7273696F 
 5599      6E00
 5600              	.LASF95:
 5601 0812 494E5452 		.ascii	"INTR_M_MASKED\000"
 5601      5F4D5F4D 
 5601      41534B45 
 5601      4400
 5602              	.LASF148:
 5603 0820 65704D6F 		.ascii	"epMonitorNr\000"
 5603      6E69746F 
 5603      724E7200 
 5604              	.LASF371:
 5605 082c 62617365 		.ascii	"base\000"
 5605      00
 5606              	.LASF399:
 5607 0831 636F756E 		.ascii	"count\000"
 5607      7400
 5608              	.LASF380:
 5609 0837 7472616E 		.ascii	"transfer_status\000"
 5609      73666572 
 5609      5F737461 
 5609      74757300 
 5610              	.LASF210:
 5611 0847 43595F53 		.ascii	"CY_SCB_SPI_TRANSFER_BUSY\000"
 5611      43425F53 
 5611      50495F54 
 5611      52414E53 
 5611      4645525F 
 5612              	.LASF225:
 5613 0860 63795F73 		.ascii	"cy_stc_scb_uart_context\000"
 5613      74635F73 
 5613      63625F75 
 5613      6172745F 
 5613      636F6E74 
 5614              	.LASF20:
 5615 0878 4F55545F 		.ascii	"OUT_CLR\000"
 5615      434C5200 
 5616              	.LASF15:
 5617 0880 696E7431 		.ascii	"int16_t\000"
 5617      365F7400 
 5618              	.LASF183:
 5619 0888 6770696F 		.ascii	"gpioPrtCfgInOffset\000"
ARM GAS  C:\Users\dmr85\AppData\Local\Temp\ccbw5e1d.s 			page 135


 5619      50727443 
 5619      6667496E 
 5619      4F666673 
 5619      657400
 5620              	.LASF160:
 5621 089b 666C6173 		.ascii	"flashCtlMainWs2Freq\000"
 5621      6843746C 
 5621      4D61696E 
 5621      57733246 
 5621      72657100 
 5622              	.LASF303:
 5623 08af 43595F42 		.ascii	"CY_BLE_EVT_GAP_ENHANCE_CONN_COMPLETE\000"
 5623      4C455F45 
 5623      56545F47 
 5623      41505F45 
 5623      4E48414E 
 5624              	.LASF12:
 5625 08d4 6C6F6E67 		.ascii	"long long unsigned int\000"
 5625      206C6F6E 
 5625      6720756E 
 5625      7369676E 
 5625      65642069 
 5626              	.LASF180:
 5627 08eb 70657269 		.ascii	"periDiv24_5CtlOffset\000"
 5627      44697632 
 5627      345F3543 
 5627      746C4F66 
 5627      66736574 
 5628              	.LASF185:
 5629 0900 6770696F 		.ascii	"gpioPrtCfgSioOffset\000"
 5629      50727443 
 5629      66675369 
 5629      6F4F6666 
 5629      73657400 
 5630              	.LASF358:
 5631 0914 63795F65 		.ascii	"cy_en_ble_adv_state_t\000"
 5631      6E5F626C 
 5631      655F6164 
 5631      765F7374 
 5631      6174655F 
 5632              	.LASF269:
 5633 092a 43595F42 		.ascii	"CY_BLE_EVT_GET_RSSI_COMPLETE\000"
 5633      4C455F45 
 5633      56545F47 
 5633      45545F52 
 5633      5353495F 
 5634              	.LASF139:
 5635 0947 63707573 		.ascii	"cpussIpc0Irq\000"
 5635      73497063 
 5635      30497271 
 5635      00
 5636              	.LASF355:
 5637 0954 43595F42 		.ascii	"CY_BLE_ADV_STATE_ADV_INITIATED\000"
 5637      4C455F41 
 5637      44565F53 
 5637      54415445 
 5637      5F414456 
ARM GAS  C:\Users\dmr85\AppData\Local\Temp\ccbw5e1d.s 			page 136


 5638              	.LASF119:
 5639 0973 75646242 		.ascii	"udbBase\000"
 5639      61736500 
 5640              	.LASF32:
 5641 097b 4346475F 		.ascii	"CFG_IN_GPIO5V\000"
 5641      494E5F47 
 5641      50494F35 
 5641      5600
 5642              	.LASF296:
 5643 0989 43595F42 		.ascii	"CY_BLE_EVT_GAP_ENCRYPT_CHANGE\000"
 5643      4C455F45 
 5643      56545F47 
 5643      41505F45 
 5643      4E435259 
 5644              	.LASF175:
 5645 09a7 70657269 		.ascii	"periDivCmdPaDivSelPos\000"
 5645      44697643 
 5645      6D645061 
 5645      44697653 
 5645      656C506F 
 5646              	.LASF267:
 5647 09bd 43595F42 		.ascii	"CY_BLE_EVT_SET_DEVICE_ADDR_COMPLETE\000"
 5647      4C455F45 
 5647      56545F53 
 5647      45545F44 
 5647      45564943 
 5648              	.LASF352:
 5649 09e1 61747449 		.ascii	"attId\000"
 5649      6400
 5650              	.LASF250:
 5651 09e7 43595F42 		.ascii	"CY_BLE_EVT_DATA_LENGTH_CHANGE\000"
 5651      4C455F45 
 5651      56545F44 
 5651      4154415F 
 5651      4C454E47 
 5652              	.LASF63:
 5653 0a05 54585F43 		.ascii	"TX_CTRL\000"
 5653      54524C00 
 5654              	.LASF103:
 5655 0a0d 494E5452 		.ascii	"INTR_TX_SET\000"
 5655      5F54585F 
 5655      53455400 
 5656              	.LASF330:
 5657 0a19 43595F42 		.ascii	"CY_BLE_EVT_GATTS_EXEC_WRITE_REQ\000"
 5657      4C455F45 
 5657      56545F47 
 5657      41545453 
 5657      5F455845 
 5658              	.LASF288:
 5659 0a39 43595F42 		.ascii	"CY_BLE_EVT_GAP_AUTH_REQ\000"
 5659      4C455F45 
 5659      56545F47 
 5659      41505F41 
 5659      5554485F 
 5660              	.LASF52:
 5661 0a51 55415254 		.ascii	"UART_TX_CTRL\000"
 5661      5F54585F 
ARM GAS  C:\Users\dmr85\AppData\Local\Temp\ccbw5e1d.s 			page 137


 5661      4354524C 
 5661      00
 5662              	.LASF260:
 5663 0a5e 43595F42 		.ascii	"CY_BLE_EVT_GET_PHY_COMPLETE\000"
 5663      4C455F45 
 5663      56545F47 
 5663      45545F50 
 5663      48595F43 
 5664              	.LASF29:
 5665 0a7a 4346475F 		.ascii	"CFG_OUT\000"
 5665      4F555400 
 5666              	.LASF227:
 5667 0a82 72785374 		.ascii	"rxStatus\000"
 5667      61747573 
 5667      00
 5668              	.LASF214:
 5669 0a8b 72784275 		.ascii	"rxBuf\000"
 5669      6600
 5670              	.LASF418:
 5671 0a91 433A5C55 		.ascii	"C:\\Users\\dmr85\\Documents\\PSoC Creator\\EEG\\EEG"
 5671      73657273 
 5671      5C646D72 
 5671      38355C44 
 5671      6F63756D 
 5672 0abe 6669726D 		.ascii	"firmware\\src\\Sleep Quality Monitor.cydsn\000"
 5672      77617265 
 5672      5C737263 
 5672      5C536C65 
 5672      65702051 
 5673              	.LASF161:
 5674 0ae7 666C6173 		.ascii	"flashCtlMainWs3Freq\000"
 5674      6843746C 
 5674      4D61696E 
 5674      57733346 
 5674      72657100 
 5675              	.LASF294:
 5676 0afb 43595F42 		.ascii	"CY_BLE_EVT_GAP_DEVICE_CONNECTED\000"
 5676      4C455F45 
 5676      56545F47 
 5676      41505F44 
 5676      45564943 
 5677              	.LASF143:
 5678 0b1b 73727373 		.ascii	"srssNumPll\000"
 5678      4E756D50 
 5678      6C6C00
 5679              	.LASF266:
 5680 0b26 43595F42 		.ascii	"CY_BLE_EVT_SOFT_RESET_COMPLETE\000"
 5680      4C455F45 
 5680      56545F53 
 5680      4F46545F 
 5680      52455345 
 5681              	.LASF21:
 5682 0b45 4F55545F 		.ascii	"OUT_SET\000"
 5682      53455400 
 5683              	.LASF329:
 5684 0b4d 43595F42 		.ascii	"CY_BLE_EVT_GATTS_PREP_WRITE_REQ\000"
 5684      4C455F45 
ARM GAS  C:\Users\dmr85\AppData\Local\Temp\ccbw5e1d.s 			page 138


 5684      56545F47 
 5684      41545453 
 5684      5F505245 
 5685              	.LASF419:
 5686 0b6d 5350495F 		.ascii	"SPI_Transfer\000"
 5686      5472616E 
 5686      73666572 
 5686      00
 5687              	.LASF87:
 5688 0b7a 494E5452 		.ascii	"INTR_SPI_EC\000"
 5688      5F535049 
 5688      5F454300 
 5689              	.LASF154:
 5690 0b86 666C6173 		.ascii	"flashPipeRequired\000"
 5690      68506970 
 5690      65526571 
 5690      75697265 
 5690      6400
 5691              	.LASF114:
 5692 0b98 43795343 		.ascii	"CySCB_Type\000"
 5692      425F5479 
 5692      706500
 5693              	.LASF220:
 5694 0ba3 63624576 		.ascii	"cbEvents\000"
 5694      656E7473 
 5694      00
 5695              	.LASF207:
 5696 0bac 5F426F6F 		.ascii	"_Bool\000"
 5696      6C00
 5697              	.LASF73:
 5698 0bb2 52585F4D 		.ascii	"RX_MATCH\000"
 5698      41544348 
 5698      00
 5699              	.LASF350:
 5700 0bbb 43595F42 		.ascii	"CY_BLE_EVT_MAX\000"
 5700      4C455F45 
 5700      56545F4D 
 5700      415800
 5701              	.LASF158:
 5702 0bca 666C6173 		.ascii	"flashCtlMainWs0Freq\000"
 5702      6843746C 
 5702      4D61696E 
 5702      57733046 
 5702      72657100 
 5703              	.LASF345:
 5704 0bde 43595F42 		.ascii	"CY_BLE_EVT_L2CAP_CBFC_DISCONN_CNF\000"
 5704      4C455F45 
 5704      56545F4C 
 5704      32434150 
 5704      5F434246 
 5705              	.LASF40:
 5706 0c00 5644445F 		.ascii	"VDD_INTR\000"
 5706      494E5452 
 5706      00
 5707              	.LASF274:
 5708 0c09 43595F42 		.ascii	"CY_BLE_EVT_RANDOM_NUM_GEN_COMPLETE\000"
 5708      4C455F45 
ARM GAS  C:\Users\dmr85\AppData\Local\Temp\ccbw5e1d.s 			page 139


 5708      56545F52 
 5708      414E444F 
 5708      4D5F4E55 
 5709              	.LASF122:
 5710 0c2c 6770696F 		.ascii	"gpioBase\000"
 5710      42617365 
 5710      00
 5711              	.LASF356:
 5712 0c35 43595F42 		.ascii	"CY_BLE_ADV_STATE_ADVERTISING\000"
 5712      4C455F41 
 5712      44565F53 
 5712      54415445 
 5712      5F414456 
 5713              	.LASF82:
 5714 0c52 494E5452 		.ascii	"INTR_I2C_EC\000"
 5714      5F493243 
 5714      5F454300 
 5715              	.LASF247:
 5716 0c5e 43595F42 		.ascii	"CY_BLE_EVT_SET_DATA_LENGTH_COMPLETE\000"
 5716      4C455F45 
 5716      56545F53 
 5716      45545F44 
 5716      4154415F 
 5717              	.LASF327:
 5718 0c82 43595F42 		.ascii	"CY_BLE_EVT_GATTC_WRITE_RSP\000"
 5718      4C455F45 
 5718      56545F47 
 5718      41545443 
 5718      5F575249 
 5719              	.LASF100:
 5720 0c9d 494E5452 		.ascii	"INTR_S_MASKED\000"
 5720      5F535F4D 
 5720      41534B45 
 5720      4400
 5721              	.LASF134:
 5722 0cab 70726F74 		.ascii	"protVersion\000"
 5722      56657273 
 5722      696F6E00 
 5723              	.LASF155:
 5724 0cb7 666C6173 		.ascii	"flashWriteDelay\000"
 5724      68577269 
 5724      74654465 
 5724      6C617900 
 5725              	.LASF384:
 5726 0cc7 64656C61 		.ascii	"delay_ms\000"
 5726      795F6D73 
 5726      00
 5727              	.LASF237:
 5728 0cd0 43595F42 		.ascii	"CY_BLE_EVT_STACK_BUSY_STATUS\000"
 5728      4C455F45 
 5728      56545F53 
 5728      5441434B 
 5728      5F425553 
 5729              	.LASF149:
 5730 0ced 75646250 		.ascii	"udbPresent\000"
 5730      72657365 
 5730      6E7400
ARM GAS  C:\Users\dmr85\AppData\Local\Temp\ccbw5e1d.s 			page 140


 5731              	.LASF112:
 5732 0cf8 4750494F 		.ascii	"GPIO_PRT_Type\000"
 5732      5F505254 
 5732      5F547970 
 5732      6500
 5733              	.LASF244:
 5734 0d06 43595F42 		.ascii	"CY_BLE_EVT_GET_CHANNEL_MAP_COMPLETE\000"
 5734      4C455F45 
 5734      56545F47 
 5734      45545F43 
 5734      48414E4E 
 5735              	.LASF167:
 5736 0d2a 64775374 		.ascii	"dwStatusChIdxPos\000"
 5736      61747573 
 5736      43684964 
 5736      78506F73 
 5736      00
 5737              	.LASF5:
 5738 0d3b 5F5F7569 		.ascii	"__uint16_t\000"
 5738      6E743136 
 5738      5F7400
 5739              	.LASF24:
 5740 0d46 494E5452 		.ascii	"INTR_MASK\000"
 5740      5F4D4153 
 5740      4B00
 5741              	.LASF238:
 5742 0d50 43595F42 		.ascii	"CY_BLE_EVT_MEMORY_REQUEST\000"
 5742      4C455F45 
 5742      56545F4D 
 5742      454D4F52 
 5742      595F5245 
 5743              	.LASF285:
 5744 0d6a 43595F42 		.ascii	"CY_BLE_EVT_SET_CONN_PRIORITY_COMPLETE\000"
 5744      4C455F45 
 5744      56545F53 
 5744      45545F43 
 5744      4F4E4E5F 
 5745              	.LASF357:
 5746 0d90 43595F42 		.ascii	"CY_BLE_ADV_STATE_STOP_INITIATED\000"
 5746      4C455F41 
 5746      44565F53 
 5746      54415445 
 5746      5F53544F 
 5747              	.LASF138:
 5748 0db0 63707573 		.ascii	"cpussFlashPaSize\000"
 5748      73466C61 
 5748      73685061 
 5748      53697A65 
 5748      00
 5749              	.LASF364:
 5750 0dc1 43595F42 		.ascii	"CY_BLE_CONN_STATE_CLIENT_CHAR_DISCOVERING\000"
 5750      4C455F43 
 5750      4F4E4E5F 
 5750      53544154 
 5750      455F434C 
 5751              	.LASF117:
 5752 0deb 666C6173 		.ascii	"flashcBase\000"
ARM GAS  C:\Users\dmr85\AppData\Local\Temp\ccbw5e1d.s 			page 141


 5752      68634261 
 5752      736500
 5753              	.LASF204:
 5754 0df6 63686172 		.ascii	"char\000"
 5754      00
 5755              	.LASF276:
 5756 0dfb 43595F42 		.ascii	"CY_BLE_EVT_AES_CCM_ENCRYPT_COMPLETE\000"
 5756      4C455F45 
 5756      56545F41 
 5756      45535F43 
 5756      434D5F45 
 5757              	.LASF298:
 5758 0e1f 43595F42 		.ascii	"CY_BLE_EVT_GAPC_SCAN_START_STOP\000"
 5758      4C455F45 
 5758      56545F47 
 5758      4150435F 
 5758      5343414E 
 5759              	.LASF111:
 5760 0e3f 43795343 		.ascii	"CySCB_V1_Type\000"
 5760      425F5631 
 5760      5F547970 
 5760      6500
 5761              	.LASF302:
 5762 0e4d 43595F42 		.ascii	"CY_BLE_EVT_GAP_OOB_GENERATED_NOTIFICATION\000"
 5762      4C455F45 
 5762      56545F47 
 5762      41505F4F 
 5762      4F425F47 
 5763              	.LASF231:
 5764 0e77 72785269 		.ascii	"rxRingBufTail\000"
 5764      6E674275 
 5764      66546169 
 5764      6C00
 5765              	.LASF99:
 5766 0e85 494E5452 		.ascii	"INTR_S_MASK\000"
 5766      5F535F4D 
 5766      41534B00 
 5767              	.LASF150:
 5768 0e91 73797350 		.ascii	"sysPmSimoPresent\000"
 5768      6D53696D 
 5768      6F507265 
 5768      73656E74 
 5768      00
 5769              	.LASF152:
 5770 0ea2 63727970 		.ascii	"cryptoMemSize\000"
 5770      746F4D65 
 5770      6D53697A 
 5770      6500
 5771              	.LASF85:
 5772 0eb0 494E5452 		.ascii	"INTR_I2C_EC_MASKED\000"
 5772      5F493243 
 5772      5F45435F 
 5772      4D41534B 
 5772      454400
 5773              	.LASF320:
 5774 0ec3 43595F42 		.ascii	"CY_BLE_EVT_GATTC_READ_BY_TYPE_RSP\000"
 5774      4C455F45 
ARM GAS  C:\Users\dmr85\AppData\Local\Temp\ccbw5e1d.s 			page 142


 5774      56545F47 
 5774      41545443 
 5774      5F524541 
 5775              	.LASF255:
 5776 0ee5 43595F42 		.ascii	"CY_BLE_EVT_SET_HOST_CHANNEL_COMPLETE\000"
 5776      4C455F45 
 5776      56545F53 
 5776      45545F48 
 5776      4F53545F 
 5777              	.LASF398:
 5778 0f0a 64617461 		.ascii	"data\000"
 5778      00
 5779              	.LASF245:
 5780 0f0f 43595F42 		.ascii	"CY_BLE_EVT_LE_SET_EVENT_MASK_COMPLETE\000"
 5780      4C455F45 
 5780      56545F4C 
 5780      455F5345 
 5780      545F4556 
 5781              	.LASF216:
 5782 0f35 72784275 		.ascii	"rxBufIdx\000"
 5782      66496478 
 5782      00
 5783              	.LASF300:
 5784 0f3e 43595F42 		.ascii	"CY_BLE_EVT_GAP_NUMERIC_COMPARISON_REQUEST\000"
 5784      4C455F45 
 5784      56545F47 
 5784      41505F4E 
 5784      554D4552 
 5785              	.LASF221:
 5786 0f68 696E6974 		.ascii	"initKey\000"
 5786      4B657900 
 5787              	.LASF168:
 5788 0f70 64775374 		.ascii	"dwStatusChIdxMsk\000"
 5788      61747573 
 5788      43684964 
 5788      784D736B 
 5788      00
 5789              	.LASF208:
 5790 0f81 43595F53 		.ascii	"CY_SCB_SPI_SUCCESS\000"
 5790      43425F53 
 5790      50495F53 
 5790      55434345 
 5790      535300
 5791              	.LASF14:
 5792 0f94 75696E74 		.ascii	"uint8_t\000"
 5792      385F7400 
 5793              	.LASF213:
 5794 0f9c 73746174 		.ascii	"status\000"
 5794      757300
 5795              	.LASF379:
 5796 0fa3 7370695F 		.ascii	"spi_get\000"
 5796      67657400 
 5797              	.LASF278:
 5798 0fab 43595F42 		.ascii	"CY_BLE_EVT_SET_SLAVE_LATENCY_MODE_COMPLETE\000"
 5798      4C455F45 
 5798      56545F53 
 5798      45545F53 
ARM GAS  C:\Users\dmr85\AppData\Local\Temp\ccbw5e1d.s 			page 143


 5798      4C415645 
 5799              	.LASF173:
 5800 0fd6 70657269 		.ascii	"periDivCmdDivSelMsk\000"
 5800      44697643 
 5800      6D644469 
 5800      7653656C 
 5800      4D736B00 
 5801              	.LASF37:
 5802 0fea 494E5452 		.ascii	"INTR_CAUSE2\000"
 5802      5F434155 
 5802      53453200 
 5803              	.LASF38:
 5804 0ff6 494E5452 		.ascii	"INTR_CAUSE3\000"
 5804      5F434155 
 5804      53453300 
 5805              	.LASF291:
 5806 1002 43595F42 		.ascii	"CY_BLE_EVT_GAP_AUTH_COMPLETE\000"
 5806      4C455F45 
 5806      56545F47 
 5806      41505F41 
 5806      5554485F 
 5807              	.LASF261:
 5808 101f 43595F42 		.ascii	"CY_BLE_EVT_SET_DEFAULT_PHY_COMPLETE\000"
 5808      4C455F45 
 5808      56545F53 
 5808      45545F44 
 5808      45464155 
 5809              	.LASF179:
 5810 1043 70657269 		.ascii	"periDiv16_5CtlOffset\000"
 5810      44697631 
 5810      365F3543 
 5810      746C4F66 
 5810      66736574 
 5811              	.LASF404:
 5812 1058 63795F62 		.ascii	"cy_ble_advState\000"
 5812      6C655F61 
 5812      64765374 
 5812      61746500 
 5813              	.LASF223:
 5814 1068 63795F63 		.ascii	"cy_cb_scb_uart_handle_events_t\000"
 5814      625F7363 
 5814      625F7561 
 5814      72745F68 
 5814      616E646C 
 5815              	.LASF367:
 5816 1087 63795F65 		.ascii	"cy_en_ble_conn_state_t\000"
 5816      6E5F626C 
 5816      655F636F 
 5816      6E6E5F73 
 5816      74617465 
 5817              	.LASF340:
 5818 109e 43595F42 		.ascii	"CY_BLE_EVT_L2CAP_CONN_PARAM_UPDATE_RSP\000"
 5818      4C455F45 
 5818      56545F4C 
 5818      32434150 
 5818      5F434F4E 
 5819              	.LASF75:
ARM GAS  C:\Users\dmr85\AppData\Local\Temp\ccbw5e1d.s 			page 144


 5820 10c5 52585F46 		.ascii	"RX_FIFO_RD\000"
 5820      49464F5F 
 5820      524400
 5821              	.LASF283:
 5822 10d0 43595F42 		.ascii	"CY_BLE_EVT_SET_EVENT_MASK_COMPLETE\000"
 5822      4C455F45 
 5822      56545F53 
 5822      45545F45 
 5822      56454E54 
 5823              	.LASF197:
 5824 10f3 63707573 		.ascii	"cpussRam0Ctl0\000"
 5824      7352616D 
 5824      3043746C 
 5824      3000
 5825              	.LASF11:
 5826 1101 6C6F6E67 		.ascii	"long long int\000"
 5826      206C6F6E 
 5826      6720696E 
 5826      7400
 5827              	.LASF124:
 5828 110f 69706342 		.ascii	"ipcBase\000"
 5828      61736500 
 5829              	.LASF165:
 5830 1117 64774368 		.ascii	"dwChCtlPrioPos\000"
 5830      43746C50 
 5830      72696F50 
 5830      6F7300
 5831              	.LASF125:
 5832 1126 63727970 		.ascii	"cryptoBase\000"
 5832      746F4261 
 5832      736500
 5833              	.LASF411:
 5834 1131 7072696E 		.ascii	"printf\000"
 5834      746600
 5835              	.LASF341:
 5836 1138 43595F42 		.ascii	"CY_BLE_EVT_L2CAP_COMMAND_REJ\000"
 5836      4C455F45 
 5836      56545F4C 
 5836      32434150 
 5836      5F434F4D 
 5837              	.LASF311:
 5838 1155 43595F42 		.ascii	"CY_BLE_EVT_GAP_CONN_ESTB\000"
 5838      4C455F45 
 5838      56545F47 
 5838      41505F43 
 5838      4F4E4E5F 
 5839              	.LASF400:
 5840 116e 74656D70 		.ascii	"tempVar\000"
 5840      56617200 
 5841              	.LASF257:
 5842 1176 43595F42 		.ascii	"CY_BLE_EVT_REMOVE_DEVICE_FROM_RPA_LIST_COMPLETE\000"
 5842      4C455F45 
 5842      56545F52 
 5842      454D4F56 
 5842      455F4445 
 5843              	.LASF246:
 5844 11a6 43595F42 		.ascii	"CY_BLE_EVT_LE_PING_AUTH_TIMEOUT\000"
ARM GAS  C:\Users\dmr85\AppData\Local\Temp\ccbw5e1d.s 			page 145


 5844      4C455F45 
 5844      56545F4C 
 5844      455F5049 
 5844      4E475F41 
 5845              	.LASF389:
 5846 11c6 6770696F 		.ascii	"gpio_clr_gpio_pin\000"
 5846      5F636C72 
 5846      5F677069 
 5846      6F5F7069 
 5846      6E00
 5847              	.LASF393:
 5848 11d8 6572726F 		.ascii	"errorStatus\000"
 5848      72537461 
 5848      74757300 
 5849              	.LASF4:
 5850 11e4 5F5F696E 		.ascii	"__int16_t\000"
 5850      7431365F 
 5850      7400
 5851              	.LASF55:
 5852 11ee 55415254 		.ascii	"UART_FLOW_CTRL\000"
 5852      5F464C4F 
 5852      575F4354 
 5852      524C00
 5853              	.LASF388:
 5854 11fd 63686970 		.ascii	"chip_select\000"
 5854      5F73656C 
 5854      65637400 
 5855              	.LASF273:
 5856 1209 43595F42 		.ascii	"CY_BLE_EVT_SET_CLK_CONFIG_COMPLETE\000"
 5856      4C455F45 
 5856      56545F53 
 5856      45545F43 
 5856      4C4B5F43 
 5857              	.LASF121:
 5858 122c 6873696F 		.ascii	"hsiomBase\000"
 5858      6D426173 
 5858      6500
 5859              	.LASF338:
 5860 1236 43595F42 		.ascii	"CY_BLE_EVT_GATTC_LONG_PROCEDURE_END\000"
 5860      4C455F45 
 5860      56545F47 
 5860      41545443 
 5860      5F4C4F4E 
 5861              	.LASF353:
 5862 125a 63795F73 		.ascii	"cy_stc_ble_conn_handle_t\000"
 5862      74635F62 
 5862      6C655F63 
 5862      6F6E6E5F 
 5862      68616E64 
 5863              	.LASF171:
 5864 1273 70657269 		.ascii	"periTrGrOffset\000"
 5864      54724772 
 5864      4F666673 
 5864      657400
 5865              	.LASF23:
 5866 1282 494E5452 		.ascii	"INTR\000"
 5866      00
ARM GAS  C:\Users\dmr85\AppData\Local\Temp\ccbw5e1d.s 			page 146


 5867              	.LASF222:
 5868 1287 63795F73 		.ascii	"cy_stc_scb_spi_context_t\000"
 5868      74635F73 
 5868      63625F73 
 5868      70695F63 
 5868      6F6E7465 
 5869              	.LASF230:
 5870 12a0 72785269 		.ascii	"rxRingBufHead\000"
 5870      6E674275 
 5870      66486561 
 5870      6400
 5871              	.LASF137:
 5872 12ae 63707573 		.ascii	"cpussDwChNr\000"
 5872      73447743 
 5872      684E7200 
 5873              	.LASF370:
 5874 12ba 73697A65 		.ascii	"size\000"
 5874      00
 5875              	.LASF299:
 5876 12bf 43595F42 		.ascii	"CY_BLE_EVT_GAP_KEYINFO_EXCHNGE_CMPLT\000"
 5876      4C455F45 
 5876      56545F47 
 5876      41505F4B 
 5876      4559494E 
 5877              	.LASF258:
 5878 12e4 43595F42 		.ascii	"CY_BLE_EVT_ADD_DEVICE_TO_WHITE_LIST_COMPLETE\000"
 5878      4C455F45 
 5878      56545F41 
 5878      44445F44 
 5878      45564943 
 5879              	.LASF218:
 5880 1311 74784275 		.ascii	"txBufSize\000"
 5880      6653697A 
 5880      6500
 5881              	.LASF135:
 5882 131b 63707573 		.ascii	"cpussIpcNr\000"
 5882      73497063 
 5882      4E7200
 5883              	.LASF313:
 5884 1326 43595F42 		.ascii	"CY_BLE_EVT_GAP_ADV_TX\000"
 5884      4C455F45 
 5884      56545F47 
 5884      41505F41 
 5884      44565F54 
 5885              	.LASF349:
 5886 133c 43595F42 		.ascii	"CY_BLE_EVT_L2CAP_CBFC_DATA_WRITE_IND\000"
 5886      4C455F45 
 5886      56545F4C 
 5886      32434150 
 5886      5F434246 
 5887              	.LASF188:
 5888 1361 63707573 		.ascii	"cpussCm4StatusOffset\000"
 5888      73436D34 
 5888      53746174 
 5888      75734F66 
 5888      66736574 
 5889              	.LASF147:
ARM GAS  C:\Users\dmr85\AppData\Local\Temp\ccbw5e1d.s 			page 147


 5890 1376 70617373 		.ascii	"passSarChannels\000"
 5890      53617243 
 5890      68616E6E 
 5890      656C7300 
 5891              	.LASF199:
 5892 1386 63707573 		.ascii	"cpussRam2Ctl0\000"
 5892      7352616D 
 5892      3243746C 
 5892      3000
 5893              	.LASF376:
 5894 1394 5350495F 		.ascii	"SPI_GetNumTransfered\000"
 5894      4765744E 
 5894      756D5472 
 5894      616E7366 
 5894      65726564 
 5895              	.LASF284:
 5896 13a9 43595F42 		.ascii	"CY_BLE_EVT_SET_CE_LENGTH_COMPLETE\000"
 5896      4C455F45 
 5896      56545F53 
 5896      45545F43 
 5896      455F4C45 
 5897              	.LASF287:
 5898 13cb 43595F42 		.ascii	"CY_BLE_EVT_GAPC_SCAN_PROGRESS_RESULT\000"
 5898      4C455F45 
 5898      56545F47 
 5898      4150435F 
 5898      5343414E 
 5899              	.LASF342:
 5900 13f0 43595F42 		.ascii	"CY_BLE_EVT_L2CAP_CBFC_CONN_IND\000"
 5900      4C455F45 
 5900      56545F4C 
 5900      32434150 
 5900      5F434246 
 5901              	.LASF107:
 5902 140f 494E5452 		.ascii	"INTR_RX\000"
 5902      5F525800 
 5903              	.LASF301:
 5904 1417 43595F42 		.ascii	"CY_BLE_EVT_GAP_KEYPRESS_NOTIFICATION\000"
 5904      4C455F45 
 5904      56545F47 
 5904      41505F4B 
 5904      45595052 
 5905              	.LASF365:
 5906 143c 43595F42 		.ascii	"CY_BLE_CONN_STATE_CLIENT_DESCR_DISCOVERING\000"
 5906      4C455F43 
 5906      4F4E4E5F 
 5906      53544154 
 5906      455F434C 
 5907              	.LASF361:
 5908 1467 43595F42 		.ascii	"CY_BLE_CONN_STATE_CONNECTED\000"
 5908      4C455F43 
 5908      4F4E4E5F 
 5908      53544154 
 5908      455F434F 
 5909              	.LASF217:
 5910 1483 74784275 		.ascii	"txBuf\000"
 5910      6600
ARM GAS  C:\Users\dmr85\AppData\Local\Temp\ccbw5e1d.s 			page 148


 5911              	.LASF307:
 5912 1489 43595F42 		.ascii	"CY_BLE_EVT_GAP_KEYS_GEN_COMPLETE\000"
 5912      4C455F45 
 5912      56545F47 
 5912      41505F4B 
 5912      4559535F 
 5913              	.LASF42:
 5914 14aa 5644445F 		.ascii	"VDD_INTR_MASKED\000"
 5914      494E5452 
 5914      5F4D4153 
 5914      4B454400 
 5915              	.LASF156:
 5916 14ba 666C6173 		.ascii	"flashProgramDelay\000"
 5916      6850726F 
 5916      6772616D 
 5916      44656C61 
 5916      7900
 5917              	.LASF178:
 5918 14cc 70657269 		.ascii	"periDiv16CtlOffset\000"
 5918      44697631 
 5918      3643746C 
 5918      4F666673 
 5918      657400
 5919              	.LASF305:
 5920 14df 43595F42 		.ascii	"CY_BLE_EVT_GAP_SMP_NEGOTIATED_AUTH_INFO\000"
 5920      4C455F45 
 5920      56545F47 
 5920      41505F53 
 5920      4D505F4E 
 5921              	.LASF6:
 5922 1507 73686F72 		.ascii	"short unsigned int\000"
 5922      7420756E 
 5922      7369676E 
 5922      65642069 
 5922      6E7400
 5923              	.LASF387:
 5924 151a 7370695F 		.ascii	"spi_unselectChip\000"
 5924      756E7365 
 5924      6C656374 
 5924      43686970 
 5924      00
 5925              	.LASF228:
 5926 152b 72785269 		.ascii	"rxRingBuf\000"
 5926      6E674275 
 5926      6600
 5927              	.LASF115:
 5928 1535 6C6F6E67 		.ascii	"long double\000"
 5928      20646F75 
 5928      626C6500 
 5929              	.LASF243:
 5930 1541 43595F42 		.ascii	"CY_BLE_EVT_READ_AUTH_PAYLOAD_TO_COMPLETE\000"
 5930      4C455F45 
 5930      56545F52 
 5930      4541445F 
 5930      41555448 
 5931              	.LASF16:
 5932 156a 75696E74 		.ascii	"uint16_t\000"
ARM GAS  C:\Users\dmr85\AppData\Local\Temp\ccbw5e1d.s 			page 149


 5932      31365F74 
 5932      00
 5933              	.LASF84:
 5934 1573 494E5452 		.ascii	"INTR_I2C_EC_MASK\000"
 5934      5F493243 
 5934      5F45435F 
 5934      4D41534B 
 5934      00
 5935              	.LASF120:
 5936 1584 70726F74 		.ascii	"protBase\000"
 5936      42617365 
 5936      00
 5937              	.LASF43:
 5938 158d 5644445F 		.ascii	"VDD_INTR_SET\000"
 5938      494E5452 
 5938      5F534554 
 5938      00
 5939              	.LASF369:
 5940 159a 72784275 		.ascii	"rxBuffer\000"
 5940      66666572 
 5940      00
 5941              	.LASF170:
 5942 15a3 70657269 		.ascii	"periTrCmdGrSelMsk\000"
 5942      5472436D 
 5942      64477253 
 5942      656C4D73 
 5942      6B00
 5943              	.LASF253:
 5944 15b5 43595F42 		.ascii	"CY_BLE_EVT_SET_RPA_TO_COMPLETE\000"
 5944      4C455F45 
 5944      56545F53 
 5944      45545F52 
 5944      50415F54 
 5945              	.LASF241:
 5946 15d4 43595F42 		.ascii	"CY_BLE_EVT_HARDWARE_ERROR\000"
 5946      4C455F45 
 5946      56545F48 
 5946      41524457 
 5946      4152455F 
 5947              	.LASF144:
 5948 15ee 73727373 		.ascii	"srssNumHfroot\000"
 5948      4E756D48 
 5948      66726F6F 
 5948      7400
 5949              	.LASF368:
 5950 15fc 74784275 		.ascii	"txBuffer\000"
 5950      66666572 
 5950      00
 5951              	.LASF89:
 5952 1605 494E5452 		.ascii	"INTR_SPI_EC_MASK\000"
 5952      5F535049 
 5952      5F45435F 
 5952      4D41534B 
 5952      00
 5953              	.LASF333:
 5954 1616 43595F42 		.ascii	"CY_BLE_EVT_GATTC_HANDLE_VALUE_IND\000"
 5954      4C455F45 
ARM GAS  C:\Users\dmr85\AppData\Local\Temp\ccbw5e1d.s 			page 150


 5954      56545F47 
 5954      41545443 
 5954      5F48414E 
 5955              	.LASF314:
 5956 1638 43595F42 		.ascii	"CY_BLE_EVT_GATTC_ERROR_RSP\000"
 5956      4C455F45 
 5956      56545F47 
 5956      41545443 
 5956      5F455252 
 5957              	.LASF319:
 5958 1653 43595F42 		.ascii	"CY_BLE_EVT_GATTC_READ_BY_GROUP_TYPE_RSP\000"
 5958      4C455F45 
 5958      56545F47 
 5958      41545443 
 5958      5F524541 
 5959              	.LASF256:
 5960 167b 43595F42 		.ascii	"CY_BLE_EVT_ADD_DEVICE_TO_RPA_LIST_COMPLETE\000"
 5960      4C455F45 
 5960      56545F41 
 5960      44445F44 
 5960      45564943 
 5961              	.LASF326:
 5962 16a6 43595F42 		.ascii	"CY_BLE_EVT_GATTS_WRITE_REQ\000"
 5962      4C455F45 
 5962      56545F47 
 5962      41545453 
 5962      5F575249 
 5963              	.LASF19:
 5964 16c1 73697A65 		.ascii	"sizetype\000"
 5964      74797065 
 5964      00
 5965              	.LASF279:
 5966 16ca 43595F42 		.ascii	"CY_BLE_EVT_STACK_SHUTDOWN_COMPLETE\000"
 5966      4C455F45 
 5966      56545F53 
 5966      5441434B 
 5966      5F534855 
 5967              	.LASF60:
 5968 16ed 4932435F 		.ascii	"I2C_S_CMD\000"
 5968      535F434D 
 5968      4400
 5969              	.LASF195:
 5970 16f7 63707573 		.ascii	"cpussCm4NmiCtlOffset\000"
 5970      73436D34 
 5970      4E6D6943 
 5970      746C4F66 
 5970      66736574 
 5971              	.LASF189:
 5972 170c 63707573 		.ascii	"cpussCm0StatusOffset\000"
 5972      73436D30 
 5972      53746174 
 5972      75734F66 
 5972      66736574 
 5973              	.LASF177:
 5974 1721 70657269 		.ascii	"periDiv8CtlOffset\000"
 5974      44697638 
 5974      43746C4F 
ARM GAS  C:\Users\dmr85\AppData\Local\Temp\ccbw5e1d.s 			page 151


 5974      66667365 
 5974      7400
 5975              	.LASF56:
 5976 1733 52455345 		.ascii	"RESERVED2\000"
 5976      52564544 
 5976      3200
 5977              	.LASF62:
 5978 173d 52455345 		.ascii	"RESERVED3\000"
 5978      52564544 
 5978      3300
 5979              	.LASF66:
 5980 1747 52455345 		.ascii	"RESERVED4\000"
 5980      52564544 
 5980      3400
 5981              	.LASF68:
 5982 1751 52455345 		.ascii	"RESERVED5\000"
 5982      52564544 
 5982      3500
 5983              	.LASF72:
 5984 175b 52455345 		.ascii	"RESERVED6\000"
 5984      52564544 
 5984      3600
 5985              	.LASF74:
 5986 1765 52455345 		.ascii	"RESERVED7\000"
 5986      52564544 
 5986      3700
 5987              	.LASF77:
 5988 176f 52455345 		.ascii	"RESERVED8\000"
 5988      52564544 
 5988      3800
 5989              	.LASF79:
 5990 1779 52455345 		.ascii	"RESERVED9\000"
 5990      52564544 
 5990      3900
 5991              	.LASF286:
 5992 1783 43595F42 		.ascii	"CY_BLE_EVT_HCI_PKT_RCVD\000"
 5992      4C455F45 
 5992      56545F48 
 5992      43495F50 
 5992      4B545F52 
 5993              	.LASF295:
 5994 179b 43595F42 		.ascii	"CY_BLE_EVT_GAP_DEVICE_DISCONNECTED\000"
 5994      4C455F45 
 5994      56545F47 
 5994      41505F44 
 5994      45564943 
 5995              	.LASF8:
 5996 17be 6C6F6E67 		.ascii	"long int\000"
 5996      20696E74 
 5996      00
 5997              	.LASF402:
 5998 17c7 49544D5F 		.ascii	"ITM_RxBuffer\000"
 5998      52784275 
 5998      66666572 
 5998      00
 5999              	.LASF126:
 6000 17d4 63707573 		.ascii	"cpussVersion\000"
ARM GAS  C:\Users\dmr85\AppData\Local\Temp\ccbw5e1d.s 			page 152


 6000      73566572 
 6000      73696F6E 
 6000      00
 6001              	.LASF58:
 6002 17e1 4932435F 		.ascii	"I2C_STATUS\000"
 6002      53544154 
 6002      555300
 6003              	.LASF382:
 6004 17ec 64656C61 		.ascii	"delay\000"
 6004      7900
 6005              	.LASF130:
 6006 17f2 6770696F 		.ascii	"gpioVersion\000"
 6006      56657273 
 6006      696F6E00 
 6007              	.LASF282:
 6008 17fe 43595F42 		.ascii	"CY_BLE_EVT_AES_CMAC_GEN_COMPLETE\000"
 6008      4C455F45 
 6008      56545F41 
 6008      45535F43 
 6008      4D41435F 
 6009              	.LASF105:
 6010 181f 494E5452 		.ascii	"INTR_TX_MASKED\000"
 6010      5F54585F 
 6010      4D41534B 
 6010      454400
 6011              	.LASF129:
 6012 182e 666C6173 		.ascii	"flashcVersion\000"
 6012      68635665 
 6012      7273696F 
 6012      6E00
 6013              	.LASF312:
 6014 183c 43595F42 		.ascii	"CY_BLE_EVT_GAPP_UPDATE_ADV_SCAN_DATA_COMPLETE\000"
 6014      4C455F45 
 6014      56545F47 
 6014      4150505F 
 6014      55504441 
 6015              	.LASF325:
 6016 186a 43595F42 		.ascii	"CY_BLE_EVT_GATTC_READ_MULTI_RSP\000"
 6016      4C455F45 
 6016      56545F47 
 6016      41545443 
 6016      5F524541 
 6017              	.LASF34:
 6018 188a 4750494F 		.ascii	"GPIO_PRT_V1_Type\000"
 6018      5F505254 
 6018      5F56315F 
 6018      54797065 
 6018      00
 6019              	.LASF373:
 6020 189b 43795F47 		.ascii	"Cy_GPIO_Set\000"
 6020      50494F5F 
 6020      53657400 
 6021              	.LASF401:
 6022 18a7 74696D65 		.ascii	"timeOutStatusCheck\000"
 6022      4F757453 
 6022      74617475 
 6022      73436865 
ARM GAS  C:\Users\dmr85\AppData\Local\Temp\ccbw5e1d.s 			page 153


 6022      636B00
 6023              	.LASF203:
 6024 18ba 63686172 		.ascii	"char_t\000"
 6024      5F7400
 6025              	.LASF306:
 6026 18c1 43595F42 		.ascii	"CY_BLE_EVT_GAP_DEVICE_ADDR_GEN_COMPLETE\000"
 6026      4C455F45 
 6026      56545F47 
 6026      41505F44 
 6026      45564943 
 6027              	.LASF102:
 6028 18e9 494E5452 		.ascii	"INTR_TX\000"
 6028      5F545800 
 6029              	.LASF54:
 6030 18f1 55415254 		.ascii	"UART_RX_STATUS\000"
 6030      5F52585F 
 6030      53544154 
 6030      555300
 6031              	.LASF344:
 6032 1900 43595F42 		.ascii	"CY_BLE_EVT_L2CAP_CBFC_DISCONN_IND\000"
 6032      4C455F45 
 6032      56545F4C 
 6032      32434150 
 6032      5F434246 
 6033              	.LASF316:
 6034 1922 43595F42 		.ascii	"CY_BLE_EVT_GATT_DISCONNECT_IND\000"
 6034      4C455F45 
 6034      56545F47 
 6034      4154545F 
 6034      44495343 
 6035              	.LASF232:
 6036 1941 74784C65 		.ascii	"txLeftToTransmit\000"
 6036      6674546F 
 6036      5472616E 
 6036      736D6974 
 6036      00
 6037              	.LASF157:
 6038 1952 666C6173 		.ascii	"flashEraseDelay\000"
 6038      68457261 
 6038      73654465 
 6038      6C617900 
 6039              	.LASF414:
 6040 1962 43795F53 		.ascii	"Cy_SCB_SPI_GetTransferStatus\000"
 6040      43425F53 
 6040      50495F47 
 6040      65745472 
 6040      616E7366 
 6041              	.LASF242:
 6042 197f 43595F42 		.ascii	"CY_BLE_EVT_WRITE_AUTH_PAYLOAD_TO_COMPLETE\000"
 6042      4C455F45 
 6042      56545F57 
 6042      52495445 
 6042      5F415554 
 6043              	.LASF281:
 6044 19a9 43595F42 		.ascii	"CY_BLE_EVT_RADIO_VOLTAGE_LEVEL\000"
 6044      4C455F45 
 6044      56545F52 
ARM GAS  C:\Users\dmr85\AppData\Local\Temp\ccbw5e1d.s 			page 154


 6044      4144494F 
 6044      5F564F4C 
 6045              	.LASF22:
 6046 19c8 4F55545F 		.ascii	"OUT_INV\000"
 6046      494E5600 
 6047              	.LASF190:
 6048 19d0 63707573 		.ascii	"cpussCm4PwrCtlOffset\000"
 6048      73436D34 
 6048      50777243 
 6048      746C4F66 
 6048      66736574 
 6049              	.LASF3:
 6050 19e5 5F5F7569 		.ascii	"__uint8_t\000"
 6050      6E74385F 
 6050      7400
 6051              	.LASF64:
 6052 19ef 54585F46 		.ascii	"TX_FIFO_CTRL\000"
 6052      49464F5F 
 6052      4354524C 
 6052      00
 6053              	.LASF59:
 6054 19fc 4932435F 		.ascii	"I2C_M_CMD\000"
 6054      4D5F434D 
 6054      4400
 6055              	.LASF90:
 6056 1a06 494E5452 		.ascii	"INTR_SPI_EC_MASKED\000"
 6056      5F535049 
 6056      5F45435F 
 6056      4D41534B 
 6056      454400
 6057              	.LASF181:
 6058 1a19 6770696F 		.ascii	"gpioPrtIntrCfgOffset\000"
 6058      50727449 
 6058      6E747243 
 6058      66674F66 
 6058      66736574 
 6059              	.LASF49:
 6060 1a2e 5350495F 		.ascii	"SPI_CTRL\000"
 6060      4354524C 
 6060      00
 6061              	.LASF248:
 6062 1a37 43595F42 		.ascii	"CY_BLE_EVT_SET_SUGGESTED_DATA_LENGTH_COMPLETE\000"
 6062      4C455F45 
 6062      56545F53 
 6062      45545F53 
 6062      55474745 
 6063              	.LASF268:
 6064 1a65 43595F42 		.ascii	"CY_BLE_EVT_GET_DEVICE_ADDR_COMPLETE\000"
 6064      4C455F45 
 6064      56545F47 
 6064      45545F44 
 6064      45564943 
 6065              	.LASF275:
 6066 1a89 43595F42 		.ascii	"CY_BLE_EVT_AES_ENCRYPT_COMPLETE\000"
 6066      4C455F45 
 6066      56545F41 
 6066      45535F45 
ARM GAS  C:\Users\dmr85\AppData\Local\Temp\ccbw5e1d.s 			page 155


 6066      4E435259 
 6067              	.LASF187:
 6068 1aa9 63707573 		.ascii	"cpussCm4ClockCtlOffset\000"
 6068      73436D34 
 6068      436C6F63 
 6068      6B43746C 
 6068      4F666673 
 6069              	.LASF270:
 6070 1ac0 43595F42 		.ascii	"CY_BLE_EVT_GET_TX_PWR_COMPLETE\000"
 6070      4C455F45 
 6070      56545F47 
 6070      45545F54 
 6070      585F5057 
 6071              	.LASF25:
 6072 1adf 494E5452 		.ascii	"INTR_MASKED\000"
 6072      5F4D4153 
 6072      4B454400 
 6073              	.LASF69:
 6074 1aeb 52585F43 		.ascii	"RX_CTRL\000"
 6074      54524C00 
 6075              	.LASF192:
 6076 1af3 63707573 		.ascii	"cpussTrimRomCtlOffset\000"
 6076      73547269 
 6076      6D526F6D 
 6076      43746C4F 
 6076      66667365 
 6077              	.LASF277:
 6078 1b09 43595F42 		.ascii	"CY_BLE_EVT_AES_CCM_DECRYPT_COMPLETE\000"
 6078      4C455F45 
 6078      56545F41 
 6078      45535F43 
 6078      434D5F44 
 6079              	.LASF236:
 6080 1b2d 43595F42 		.ascii	"CY_BLE_EVT_TIMEOUT\000"
 6080      4C455F45 
 6080      56545F54 
 6080      494D454F 
 6080      555400
 6081              	.LASF57:
 6082 1b40 4932435F 		.ascii	"I2C_CTRL\000"
 6082      4354524C 
 6082      00
 6083              	.LASF131:
 6084 1b49 6873696F 		.ascii	"hsiomVersion\000"
 6084      6D566572 
 6084      73696F6E 
 6084      00
 6085              	.LASF10:
 6086 1b56 6C6F6E67 		.ascii	"long unsigned int\000"
 6086      20756E73 
 6086      69676E65 
 6086      6420696E 
 6086      7400
 6087              	.LASF92:
 6088 1b68 494E5452 		.ascii	"INTR_M\000"
 6088      5F4D00
 6089              	.LASF196:
ARM GAS  C:\Users\dmr85\AppData\Local\Temp\ccbw5e1d.s 			page 156


 6090 1b6f 63707573 		.ascii	"cpussRomCtl\000"
 6090      73526F6D 
 6090      43746C00 
 6091              	.LASF205:
 6092 1b7b 666C6F61 		.ascii	"float\000"
 6092      7400
 6093              	.LASF97:
 6094 1b81 494E5452 		.ascii	"INTR_S\000"
 6094      5F5300
 6095              	.LASF17:
 6096 1b88 696E7433 		.ascii	"int32_t\000"
 6096      325F7400 
 6097              	.LASF280:
 6098 1b90 43595F42 		.ascii	"CY_BLE_EVT_RADIO_TEMPERATURE\000"
 6098      4C455F45 
 6098      56545F52 
 6098      4144494F 
 6098      5F54454D 
 6099              	.LASF372:
 6100 1bad 70696E4E 		.ascii	"pinNum\000"
 6100      756D00
 6101              	.LASF94:
 6102 1bb4 494E5452 		.ascii	"INTR_M_MASK\000"
 6102      5F4D5F4D 
 6102      41534B00 
 6103              	.LASF290:
 6104 1bc0 43595F42 		.ascii	"CY_BLE_EVT_GAP_PASSKEY_DISPLAY_REQUEST\000"
 6104      4C455F45 
 6104      56545F47 
 6104      41505F50 
 6104      4153534B 
 6105              	.LASF394:
 6106 1be7 73746174 		.ascii	"statusRxBuf\000"
 6106      75735278 
 6106      42756600 
 6107              	.LASF50:
 6108 1bf3 5350495F 		.ascii	"SPI_STATUS\000"
 6108      53544154 
 6108      555300
 6109              	.LASF374:
 6110 1bfe 43795F47 		.ascii	"Cy_GPIO_Clr\000"
 6110      50494F5F 
 6110      436C7200 
 6111              	.LASF410:
 6112 1c0a 43795F53 		.ascii	"Cy_SCB_SPI_Transfer\000"
 6112      43425F53 
 6112      50495F54 
 6112      72616E73 
 6112      66657200 
 6113              	.LASF128:
 6114 1c1e 64775665 		.ascii	"dwVersion\000"
 6114      7273696F 
 6114      6E00
 6115              	.LASF2:
 6116 1c28 756E7369 		.ascii	"unsigned char\000"
 6116      676E6564 
 6116      20636861 
ARM GAS  C:\Users\dmr85\AppData\Local\Temp\ccbw5e1d.s 			page 157


 6116      7200
 6117              	.LASF209:
 6118 1c36 43595F53 		.ascii	"CY_SCB_SPI_BAD_PARAM\000"
 6118      43425F53 
 6118      50495F42 
 6118      41445F50 
 6118      4152414D 
 6119              	.LASF335:
 6120 1c4b 43595F42 		.ascii	"CY_BLE_EVT_GATTS_DATA_SIGNED_CMD_REQ\000"
 6120      4C455F45 
 6120      56545F47 
 6120      41545453 
 6120      5F444154 
 6121              	.LASF9:
 6122 1c70 5F5F7569 		.ascii	"__uint32_t\000"
 6122      6E743332 
 6122      5F7400
 6123              	.LASF113:
 6124 1c7b 4750494F 		.ascii	"GPIO_Type\000"
 6124      5F547970 
 6124      6500
 6125              	.LASF201:
 6126 1c85 6970634C 		.ascii	"ipcLockStatusOffset\000"
 6126      6F636B53 
 6126      74617475 
 6126      734F6666 
 6126      73657400 
 6127              	.LASF27:
 6128 1c99 494E5452 		.ascii	"INTR_CFG\000"
 6128      5F434647 
 6128      00
 6129              	.LASF259:
 6130 1ca2 43595F42 		.ascii	"CY_BLE_EVT_REMOVE_DEVICE_FROM_WHITE_LIST_COMPLETE\000"
 6130      4C455F45 
 6130      56545F52 
 6130      454D4F56 
 6130      455F4445 
 6131              	.LASF249:
 6132 1cd4 43595F42 		.ascii	"CY_BLE_EVT_GET_DATA_LENGTH_COMPLETE\000"
 6132      4C455F45 
 6132      56545F47 
 6132      45545F44 
 6132      4154415F 
 6133              	.LASF304:
 6134 1cf8 43595F42 		.ascii	"CY_BLE_EVT_GAPC_DIRECT_ADV_REPORT\000"
 6134      4C455F45 
 6134      56545F47 
 6134      4150435F 
 6134      44495245 
 6135              	.LASF224:
 6136 1d1a 63795F73 		.ascii	"cy_stc_scb_spi_context\000"
 6136      74635F73 
 6136      63625F73 
 6136      70695F63 
 6136      6F6E7465 
 6137              	.LASF81:
 6138 1d31 52455345 		.ascii	"RESERVED10\000"
ARM GAS  C:\Users\dmr85\AppData\Local\Temp\ccbw5e1d.s 			page 158


 6138      52564544 
 6138      313000
 6139              	.LASF83:
 6140 1d3c 52455345 		.ascii	"RESERVED11\000"
 6140      52564544 
 6140      313100
 6141              	.LASF86:
 6142 1d47 52455345 		.ascii	"RESERVED12\000"
 6142      52564544 
 6142      313200
 6143              	.LASF88:
 6144 1d52 52455345 		.ascii	"RESERVED13\000"
 6144      52564544 
 6144      313300
 6145              	.LASF91:
 6146 1d5d 52455345 		.ascii	"RESERVED14\000"
 6146      52564544 
 6146      313400
 6147              	.LASF96:
 6148 1d68 52455345 		.ascii	"RESERVED15\000"
 6148      52564544 
 6148      313500
 6149              	.LASF101:
 6150 1d73 52455345 		.ascii	"RESERVED16\000"
 6150      52564544 
 6150      313600
 6151              	.LASF106:
 6152 1d7e 52455345 		.ascii	"RESERVED17\000"
 6152      52564544 
 6152      313700
 6153              	.LASF71:
 6154 1d89 52585F46 		.ascii	"RX_FIFO_STATUS\000"
 6154      49464F5F 
 6154      53544154 
 6154      555300
 6155              	.LASF378:
 6156 1d98 7370695F 		.ascii	"spi_put\000"
 6156      70757400 
 6157              	.LASF413:
 6158 1da0 43795F53 		.ascii	"Cy_SysLib_DelayUs\000"
 6158      79734C69 
 6158      625F4465 
 6158      6C617955 
 6158      7300
 6159              	.LASF67:
 6160 1db2 54585F46 		.ascii	"TX_FIFO_WR\000"
 6160      49464F5F 
 6160      575200
 6161              	.LASF331:
 6162 1dbd 43595F42 		.ascii	"CY_BLE_EVT_GATTC_EXEC_WRITE_RSP\000"
 6162      4C455F45 
 6162      56545F47 
 6162      41545443 
 6162      5F455845 
 6163              	.LASF211:
 6164 1ddd 63795F65 		.ascii	"cy_en_scb_spi_status_t\000"
 6164      6E5F7363 
ARM GAS  C:\Users\dmr85\AppData\Local\Temp\ccbw5e1d.s 			page 159


 6164      625F7370 
 6164      695F7374 
 6164      61747573 
 6165              	.LASF151:
 6166 1df4 70726F74 		.ascii	"protBusMasterMask\000"
 6166      4275734D 
 6166      61737465 
 6166      724D6173 
 6166      6B00
 6167              	.LASF317:
 6168 1e06 43595F42 		.ascii	"CY_BLE_EVT_GATTS_XCNHG_MTU_REQ\000"
 6168      4C455F45 
 6168      56545F47 
 6168      41545453 
 6168      5F58434E 
 6169              	.LASF336:
 6170 1e25 43595F42 		.ascii	"CY_BLE_EVT_GATTC_STOP_CMD_COMPLETE\000"
 6170      4C455F45 
 6170      56545F47 
 6170      41545443 
 6170      5F53544F 
 6171              	.LASF153:
 6172 1e48 666C6173 		.ascii	"flashRwwRequired\000"
 6172      68527777 
 6172      52657175 
 6172      69726564 
 6172      00
 6173              	.LASF289:
 6174 1e59 43595F42 		.ascii	"CY_BLE_EVT_GAP_PASSKEY_ENTRY_REQUEST\000"
 6174      4C455F45 
 6174      56545F47 
 6174      41505F50 
 6174      4153534B 
 6175              	.LASF182:
 6176 1e7e 6770696F 		.ascii	"gpioPrtCfgOffset\000"
 6176      50727443 
 6176      66674F66 
 6176      66736574 
 6176      00
 6177              	.LASF351:
 6178 1e8f 62644861 		.ascii	"bdHandle\000"
 6178      6E646C65 
 6178      00
 6179              	.LASF385:
 6180 1e98 64656C61 		.ascii	"delay_us\000"
 6180      795F7573 
 6180      00
 6181              	.LASF409:
 6182 1ea1 55415254 		.ascii	"UART_context\000"
 6182      5F636F6E 
 6182      74657874 
 6182      00
 6183              	.LASF41:
 6184 1eae 5644445F 		.ascii	"VDD_INTR_MASK\000"
 6184      494E5452 
 6184      5F4D4153 
 6184      4B00
ARM GAS  C:\Users\dmr85\AppData\Local\Temp\ccbw5e1d.s 			page 160


 6185              	.LASF381:
 6186 1ebc 7472616E 		.ascii	"transferStatus\000"
 6186      73666572 
 6186      53746174 
 6186      757300
 6187              	.LASF1:
 6188 1ecb 7369676E 		.ascii	"signed char\000"
 6188      65642063 
 6188      68617200 
 6189              	.LASF163:
 6190 1ed7 64774368 		.ascii	"dwChOffset\000"
 6190      4F666673 
 6190      657400
 6191              	.LASF51:
 6192 1ee2 55415254 		.ascii	"UART_CTRL\000"
 6192      5F435452 
 6192      4C00
 6193              	.LASF136:
 6194 1eec 63707573 		.ascii	"cpussIpcIrqNr\000"
 6194      73497063 
 6194      4972714E 
 6194      7200
 6195              	.LASF109:
 6196 1efa 494E5452 		.ascii	"INTR_RX_MASK\000"
 6196      5F52585F 
 6196      4D41534B 
 6196      00
 6197              	.LASF166:
 6198 1f07 64774368 		.ascii	"dwChCtlPreemptablePos\000"
 6198      43746C50 
 6198      7265656D 
 6198      70746162 
 6198      6C65506F 
 6199              	.LASF328:
 6200 1f1d 43595F42 		.ascii	"CY_BLE_EVT_GATTS_WRITE_CMD_REQ\000"
 6200      4C455F45 
 6200      56545F47 
 6200      41545453 
 6200      5F575249 
 6201              	.LASF272:
 6202 1f3c 43595F42 		.ascii	"CY_BLE_EVT_GET_CLK_CONFIG_COMPLETE\000"
 6202      4C455F45 
 6202      56545F47 
 6202      45545F43 
 6202      4C4B5F43 
 6203              	.LASF47:
 6204 1f5f 434D445F 		.ascii	"CMD_RESP_CTRL\000"
 6204      52455350 
 6204      5F435452 
 6204      4C00
 6205              	.LASF202:
 6206 1f6d 63795F73 		.ascii	"cy_stc_device_t\000"
 6206      74635F64 
 6206      65766963 
 6206      655F7400 
 6207              	.LASF133:
 6208 1f7d 70657269 		.ascii	"periVersion\000"
ARM GAS  C:\Users\dmr85\AppData\Local\Temp\ccbw5e1d.s 			page 161


 6208      56657273 
 6208      696F6E00 
 6209              	.LASF339:
 6210 1f89 43595F42 		.ascii	"CY_BLE_EVT_L2CAP_CONN_PARAM_UPDATE_REQ\000"
 6210      4C455F45 
 6210      56545F4C 
 6210      32434150 
 6210      5F434F4E 
 6211              	.LASF206:
 6212 1fb0 646F7562 		.ascii	"double\000"
 6212      6C6500
 6213              	.LASF123:
 6214 1fb7 70617373 		.ascii	"passBase\000"
 6214      42617365 
 6214      00
 6215              	.LASF412:
 6216 1fc0 43795F53 		.ascii	"Cy_SysLib_Delay\000"
 6216      79734C69 
 6216      625F4465 
 6216      6C617900 
 6217              	.LASF108:
 6218 1fd0 494E5452 		.ascii	"INTR_RX_SET\000"
 6218      5F52585F 
 6218      53455400 
 6219              	.LASF33:
 6220 1fdc 52455345 		.ascii	"RESERVED1\000"
 6220      52564544 
 6220      3100
 6221              	.LASF142:
 6222 1fe6 73727373 		.ascii	"srssNumClkpath\000"
 6222      4E756D43 
 6222      6C6B7061 
 6222      746800
 6223              	.LASF46:
 6224 1ff5 53544154 		.ascii	"STATUS\000"
 6224      555300
 6225              	.LASF162:
 6226 1ffc 666C6173 		.ascii	"flashCtlMainWs4Freq\000"
 6226      6843746C 
 6226      4D61696E 
 6226      57733446 
 6226      72657100 
 6227              	.LASF363:
 6228 2010 43595F42 		.ascii	"CY_BLE_CONN_STATE_CLIENT_INCL_DISCOVERING\000"
 6228      4C455F43 
 6228      4F4E4E5F 
 6228      53544154 
 6228      455F434C 
 6229              	.LASF240:
 6230 203a 43595F42 		.ascii	"CY_BLE_EVT_FLASH_CORRUPT\000"
 6230      4C455F45 
 6230      56545F46 
 6230      4C415348 
 6230      5F434F52 
 6231              	.LASF309:
 6232 2053 43595F42 		.ascii	"CY_BLE_EVT_GAP_GEN_SET_LOCAL_P256_KEYS_COMPLETE\000"
 6232      4C455F45 
ARM GAS  C:\Users\dmr85\AppData\Local\Temp\ccbw5e1d.s 			page 162


 6232      56545F47 
 6232      41505F47 
 6232      454E5F53 
 6233              	.LASF408:
 6234 2083 5350495F 		.ascii	"SPI_context\000"
 6234      636F6E74 
 6234      65787400 
 6235              	.LASF292:
 6236 208f 43595F42 		.ascii	"CY_BLE_EVT_GAP_AUTH_FAILED\000"
 6236      4C455F45 
 6236      56545F47 
 6236      41505F41 
 6236      5554485F 
 6237              	.LASF417:
 6238 20aa 61647331 		.ascii	"ads1299_spi_adapt.c\000"
 6238      3239395F 
 6238      7370695F 
 6238      61646170 
 6238      742E6300 
 6239              	.LASF359:
 6240 20be 43595F42 		.ascii	"CY_BLE_CONN_STATE_DISCONNECTED\000"
 6240      4C455F43 
 6240      4F4E4E5F 
 6240      53544154 
 6240      455F4449 
 6241              	.LASF78:
 6242 20dd 455A5F44 		.ascii	"EZ_DATA\000"
 6242      41544100 
 6243              	.LASF377:
 6244 20e5 6F70636F 		.ascii	"opcode\000"
 6244      646500
 6245              	.LASF132:
 6246 20ec 69706356 		.ascii	"ipcVersion\000"
 6246      65727369 
 6246      6F6E00
 6247              	.LASF362:
 6248 20f7 43595F42 		.ascii	"CY_BLE_CONN_STATE_CLIENT_SRVC_DISCOVERING\000"
 6248      4C455F43 
 6248      4F4E4E5F 
 6248      53544154 
 6248      455F434C 
 6249              	.LASF169:
 6250 2121 70657269 		.ascii	"periTrCmdOffset\000"
 6250      5472436D 
 6250      644F6666 
 6250      73657400 
 6251              	.LASF215:
 6252 2131 72784275 		.ascii	"rxBufSize\000"
 6252      6653697A 
 6252      6500
 6253              	.LASF407:
 6254 213b 63795F62 		.ascii	"cy_ble_pendingFlashWrite\000"
 6254      6C655F70 
 6254      656E6469 
 6254      6E67466C 
 6254      61736857 
 6255              	.LASF45:
ARM GAS  C:\Users\dmr85\AppData\Local\Temp\ccbw5e1d.s 			page 163


 6256 2154 4354524C 		.ascii	"CTRL\000"
 6256      00
 6257              	.LASF297:
 6258 2159 43595F42 		.ascii	"CY_BLE_EVT_GAP_CONNECTION_UPDATE_COMPLETE\000"
 6258      4C455F45 
 6258      56545F47 
 6258      41505F43 
 6258      4F4E4E45 
 6259              		.ident	"GCC: (GNU Tools for ARM Embedded Processors) 5.4.1 20160609 (release) [ARM/embedded-5-bran
