ARM GAS  C:\Users\dmr85\AppData\Local\Temp\ccCZSREw.s 			page 1


   1              		.syntax unified
   2              		.cpu cortex-m4
   3              		.eabi_attribute 27, 1
   4              		.fpu fpv4-sp-d16
   5              		.eabi_attribute 20, 1
   6              		.eabi_attribute 21, 1
   7              		.eabi_attribute 23, 3
   8              		.eabi_attribute 24, 1
   9              		.eabi_attribute 25, 1
  10              		.eabi_attribute 26, 1
  11              		.eabi_attribute 30, 1
  12              		.eabi_attribute 34, 1
  13              		.eabi_attribute 18, 4
  14              		.thumb
  15              		.syntax unified
  16              		.file	"ads1299_spi_adapt.c"
  17              		.text
  18              	.Ltext0:
  19              		.cfi_sections	.debug_frame
  20              		.section	.text.spi_put,"ax",%progbits
  21              		.align	2
  22              		.global	spi_put
  23              		.thumb
  24              		.thumb_func
  25              		.type	spi_put, %function
  26              	spi_put:
  27              	.LFB537:
  28              		.file 1 "ads1299_spi_adapt.c"
   1:ads1299_spi_adapt.c **** /* ========================================
   2:ads1299_spi_adapt.c ****  *
   3:ads1299_spi_adapt.c ****  * Copyright YOUR COMPANY, THE YEAR
   4:ads1299_spi_adapt.c ****  * All Rights Reserved
   5:ads1299_spi_adapt.c ****  * UNPUBLISHED, LICENSED SOFTWARE.
   6:ads1299_spi_adapt.c ****  *
   7:ads1299_spi_adapt.c ****  * CONFIDENTIAL AND PROPRIETARY INFORMATION
   8:ads1299_spi_adapt.c ****  * WHICH IS THE PROPERTY OF your company.
   9:ads1299_spi_adapt.c ****  *
  10:ads1299_spi_adapt.c ****  * ========================================
  11:ads1299_spi_adapt.c **** */
  12:ads1299_spi_adapt.c **** 
  13:ads1299_spi_adapt.c **** /* [] END OF FILE */
  14:ads1299_spi_adapt.c **** 
  15:ads1299_spi_adapt.c **** #include "ads1299_spi_adapt.h"
  16:ads1299_spi_adapt.c **** 
  17:ads1299_spi_adapt.c **** #define RX_PACKET_SIZE  27
  18:ads1299_spi_adapt.c **** #define ONE_PACKET_SIZE  1
  19:ads1299_spi_adapt.c **** #define TRANSFER_ERROR        (0xFFUL)
  20:ads1299_spi_adapt.c **** 
  21:ads1299_spi_adapt.c **** /* Combine master error statuses in single mask */
  22:ads1299_spi_adapt.c **** #define MASTER_ERROR_MASK  (CY_SCB_SPI_SLAVE_TRANSFER_ERR  | CY_SCB_SPI_TRANSFER_OVERFLOW    | \
  23:ads1299_spi_adapt.c ****                             CY_SCB_SPI_TRANSFER_UNDERFLOW)  
  24:ads1299_spi_adapt.c **** 
  25:ads1299_spi_adapt.c **** /* Start and end of packet markers */
  26:ads1299_spi_adapt.c **** #define PACKET_SOP            (0x01UL)
  27:ads1299_spi_adapt.c **** #define PACKET_EOP            (0x17UL)
  28:ads1299_spi_adapt.c **** 
  29:ads1299_spi_adapt.c **** /* Command valid status */
ARM GAS  C:\Users\dmr85\AppData\Local\Temp\ccCZSREw.s 			page 2


  30:ads1299_spi_adapt.c **** #define TRANSFER_CMPLT        (0x00UL)
  31:ads1299_spi_adapt.c **** #define TRANSFER_ERROR        (0xFFUL)
  32:ads1299_spi_adapt.c **** #define READ_CMPLT            (TRANSFER_CMPLT)
  33:ads1299_spi_adapt.c **** #define READ_ERROR            (TRANSFER_ERROR)
  34:ads1299_spi_adapt.c **** 
  35:ads1299_spi_adapt.c **** 
  36:ads1299_spi_adapt.c **** /* Command valid status */
  37:ads1299_spi_adapt.c **** #define STS_CMD_DONE    (0x00UL)
  38:ads1299_spi_adapt.c **** #define STS_CMD_FAIL    (0x1FUL)
  39:ads1299_spi_adapt.c **** 
  40:ads1299_spi_adapt.c **** /* Packet positions */
  41:ads1299_spi_adapt.c **** #define PACKET_SOP_POS        (0UL)
  42:ads1299_spi_adapt.c **** #define PACKET_CMD_1_POS      (1UL)
  43:ads1299_spi_adapt.c **** #define PACKET_CMD_2_POS      (2UL)
  44:ads1299_spi_adapt.c **** #define PACKET_CMD_3_POS      (3UL)
  45:ads1299_spi_adapt.c **** #define PACKET_EOP_POS        (4UL)
  46:ads1299_spi_adapt.c **** #define PACKET_STS_POS        (1UL)
  47:ads1299_spi_adapt.c **** #define RX_PACKET_SOP_POS     (0UL)
  48:ads1299_spi_adapt.c **** #define RX_PACKET_STS_POS     (1UL)
  49:ads1299_spi_adapt.c **** #define RX_PACKET_EOP_POS     (2UL)
  50:ads1299_spi_adapt.c **** 
  51:ads1299_spi_adapt.c **** 
  52:ads1299_spi_adapt.c **** uint8_t spi = 0xFF;
  53:ads1299_spi_adapt.c **** 
  54:ads1299_spi_adapt.c **** 
  55:ads1299_spi_adapt.c **** cy_en_scb_spi_status_t spi_put(volatile uint8_t *spi, uint8_t opcode)
  56:ads1299_spi_adapt.c **** {
  29              		.loc 1 56 0
  30              		.cfi_startproc
  31              		@ args = 0, pretend = 0, frame = 8
  32              		@ frame_needed = 0, uses_anonymous_args = 0
  33              	.LVL0:
  34 0000 10B5     		push	{r4, lr}
  35              		.cfi_def_cfa_offset 8
  36              		.cfi_offset 4, -8
  37              		.cfi_offset 14, -4
  38 0002 84B0     		sub	sp, sp, #16
  39              		.cfi_def_cfa_offset 24
  57:ads1299_spi_adapt.c ****     uint8_t txBuffer[ONE_PACKET_SIZE];
  58:ads1299_spi_adapt.c ****     txBuffer[0] = opcode;
  40              		.loc 1 58 0
  41 0004 04AC     		add	r4, sp, #16
  42 0006 04F8041D 		strb	r1, [r4, #-4]!
  59:ads1299_spi_adapt.c ****     printf("%x ", opcode);
  43              		.loc 1 59 0
  44 000a 0648     		ldr	r0, .L3
  45              	.LVL1:
  46 000c FFF7FEFF 		bl	printf
  47              	.LVL2:
  48              	.LBB43:
  49              	.LBB44:
  50              		.file 2 "Generated_Source\\PSoC6/SPI.h"
   1:Generated_Source\PSoC6/SPI.h **** /***************************************************************************//**
   2:Generated_Source\PSoC6/SPI.h **** * \file SPI.h
   3:Generated_Source\PSoC6/SPI.h **** * \version 2.0
   4:Generated_Source\PSoC6/SPI.h **** *
   5:Generated_Source\PSoC6/SPI.h **** *  This file provides constants and parameter values for the SPI component.
ARM GAS  C:\Users\dmr85\AppData\Local\Temp\ccCZSREw.s 			page 3


   6:Generated_Source\PSoC6/SPI.h **** *
   7:Generated_Source\PSoC6/SPI.h **** ********************************************************************************
   8:Generated_Source\PSoC6/SPI.h **** * \copyright
   9:Generated_Source\PSoC6/SPI.h **** * Copyright 2016-2017, Cypress Semiconductor Corporation. All rights reserved.
  10:Generated_Source\PSoC6/SPI.h **** * You may use this file only in accordance with the license, terms, conditions,
  11:Generated_Source\PSoC6/SPI.h **** * disclaimers, and limitations in the end user license agreement accompanying
  12:Generated_Source\PSoC6/SPI.h **** * the software package with which this file was provided.
  13:Generated_Source\PSoC6/SPI.h **** *******************************************************************************/
  14:Generated_Source\PSoC6/SPI.h **** 
  15:Generated_Source\PSoC6/SPI.h **** #if !defined(SPI_CY_SCB_SPI_PDL_H)
  16:Generated_Source\PSoC6/SPI.h **** #define SPI_CY_SCB_SPI_PDL_H
  17:Generated_Source\PSoC6/SPI.h **** 
  18:Generated_Source\PSoC6/SPI.h **** #include "cyfitter.h"
  19:Generated_Source\PSoC6/SPI.h **** #include "scb/cy_scb_spi.h"
  20:Generated_Source\PSoC6/SPI.h **** 
  21:Generated_Source\PSoC6/SPI.h **** #if defined(__cplusplus)
  22:Generated_Source\PSoC6/SPI.h **** extern "C" {
  23:Generated_Source\PSoC6/SPI.h **** #endif
  24:Generated_Source\PSoC6/SPI.h **** 
  25:Generated_Source\PSoC6/SPI.h **** /***************************************
  26:Generated_Source\PSoC6/SPI.h **** *        Function Prototypes
  27:Generated_Source\PSoC6/SPI.h **** ***************************************/
  28:Generated_Source\PSoC6/SPI.h **** /**
  29:Generated_Source\PSoC6/SPI.h **** * \addtogroup group_general
  30:Generated_Source\PSoC6/SPI.h **** * @{
  31:Generated_Source\PSoC6/SPI.h **** */
  32:Generated_Source\PSoC6/SPI.h **** /* Component specific functions. */
  33:Generated_Source\PSoC6/SPI.h **** void SPI_Start(void);
  34:Generated_Source\PSoC6/SPI.h **** 
  35:Generated_Source\PSoC6/SPI.h **** /* Basic functions. */
  36:Generated_Source\PSoC6/SPI.h **** __STATIC_INLINE cy_en_scb_spi_status_t SPI_Init(cy_stc_scb_spi_config_t const *config);
  37:Generated_Source\PSoC6/SPI.h **** __STATIC_INLINE void SPI_DeInit(void);
  38:Generated_Source\PSoC6/SPI.h **** __STATIC_INLINE void SPI_Enable(void);
  39:Generated_Source\PSoC6/SPI.h **** __STATIC_INLINE void SPI_Disable(void);
  40:Generated_Source\PSoC6/SPI.h **** 
  41:Generated_Source\PSoC6/SPI.h **** /* Register callback. */
  42:Generated_Source\PSoC6/SPI.h **** __STATIC_INLINE void SPI_RegisterCallback(cy_cb_scb_spi_handle_events_t callback);
  43:Generated_Source\PSoC6/SPI.h **** 
  44:Generated_Source\PSoC6/SPI.h **** /* Bus state. */
  45:Generated_Source\PSoC6/SPI.h **** __STATIC_INLINE bool SPI_IsBusBusy(void);
  46:Generated_Source\PSoC6/SPI.h **** 
  47:Generated_Source\PSoC6/SPI.h **** /* Slave select control. */
  48:Generated_Source\PSoC6/SPI.h **** __STATIC_INLINE void SPI_SetActiveSlaveSelect(cy_en_scb_spi_slave_select_t slaveSelect);
  49:Generated_Source\PSoC6/SPI.h **** __STATIC_INLINE void SPI_SetActiveSlaveSelectPolarity(cy_en_scb_spi_slave_select_t slaveSelect, 
  50:Generated_Source\PSoC6/SPI.h ****                                                                    cy_en_scb_spi_polarity_t polarit
  51:Generated_Source\PSoC6/SPI.h **** 
  52:Generated_Source\PSoC6/SPI.h **** /* Low level: read. */
  53:Generated_Source\PSoC6/SPI.h **** __STATIC_INLINE uint32_t SPI_Read(void);
  54:Generated_Source\PSoC6/SPI.h **** __STATIC_INLINE uint32_t SPI_ReadArray(void *buffer, uint32_t size);
  55:Generated_Source\PSoC6/SPI.h **** __STATIC_INLINE uint32_t SPI_GetRxFifoStatus(void);
  56:Generated_Source\PSoC6/SPI.h **** __STATIC_INLINE void     SPI_ClearRxFifoStatus(uint32_t clearMask);
  57:Generated_Source\PSoC6/SPI.h **** __STATIC_INLINE uint32_t SPI_GetNumInRxFifo(void);
  58:Generated_Source\PSoC6/SPI.h **** __STATIC_INLINE void     SPI_ClearRxFifo(void);
  59:Generated_Source\PSoC6/SPI.h **** 
  60:Generated_Source\PSoC6/SPI.h **** /* Low level: write. */
  61:Generated_Source\PSoC6/SPI.h **** __STATIC_INLINE uint32_t SPI_Write(uint32_t data);
  62:Generated_Source\PSoC6/SPI.h **** __STATIC_INLINE uint32_t SPI_WriteArray(void *buffer, uint32_t size);
ARM GAS  C:\Users\dmr85\AppData\Local\Temp\ccCZSREw.s 			page 4


  63:Generated_Source\PSoC6/SPI.h **** __STATIC_INLINE void     SPI_WriteArrayBlocking(void *buffer, uint32_t size);
  64:Generated_Source\PSoC6/SPI.h **** __STATIC_INLINE uint32_t SPI_GetTxFifoStatus(void);
  65:Generated_Source\PSoC6/SPI.h **** __STATIC_INLINE void     SPI_ClearTxFifoStatus(uint32_t clearMask);
  66:Generated_Source\PSoC6/SPI.h **** __STATIC_INLINE uint32_t SPI_GetNumInTxFifo(void);
  67:Generated_Source\PSoC6/SPI.h **** __STATIC_INLINE bool     SPI_IsTxComplete(void);
  68:Generated_Source\PSoC6/SPI.h **** __STATIC_INLINE void     SPI_ClearTxFifo(void);
  69:Generated_Source\PSoC6/SPI.h **** 
  70:Generated_Source\PSoC6/SPI.h **** /* Master/slave specific status. */
  71:Generated_Source\PSoC6/SPI.h **** __STATIC_INLINE uint32_t SPI_GetSlaveMasterStatus(void);
  72:Generated_Source\PSoC6/SPI.h **** __STATIC_INLINE void     SPI_ClearSlaveMasterStatus(uint32_t clearMask);
  73:Generated_Source\PSoC6/SPI.h **** 
  74:Generated_Source\PSoC6/SPI.h **** /* High level: transfer functions. */
  75:Generated_Source\PSoC6/SPI.h **** __STATIC_INLINE cy_en_scb_spi_status_t SPI_Transfer(void *txBuffer, void *rxBuffer, uint32_t size);
  76:Generated_Source\PSoC6/SPI.h **** __STATIC_INLINE void     SPI_AbortTransfer(void);
  77:Generated_Source\PSoC6/SPI.h **** __STATIC_INLINE uint32_t SPI_GetTransferStatus(void);
  78:Generated_Source\PSoC6/SPI.h **** __STATIC_INLINE uint32_t SPI_GetNumTransfered(void);
  79:Generated_Source\PSoC6/SPI.h **** 
  80:Generated_Source\PSoC6/SPI.h **** /* Interrupt handler */
  81:Generated_Source\PSoC6/SPI.h **** __STATIC_INLINE void SPI_Interrupt(void);
  82:Generated_Source\PSoC6/SPI.h **** /** @} group_general */
  83:Generated_Source\PSoC6/SPI.h **** 
  84:Generated_Source\PSoC6/SPI.h **** 
  85:Generated_Source\PSoC6/SPI.h **** /***************************************
  86:Generated_Source\PSoC6/SPI.h **** *    Variables with External Linkage
  87:Generated_Source\PSoC6/SPI.h **** ***************************************/
  88:Generated_Source\PSoC6/SPI.h **** /**
  89:Generated_Source\PSoC6/SPI.h **** * \addtogroup group_globals
  90:Generated_Source\PSoC6/SPI.h **** * @{
  91:Generated_Source\PSoC6/SPI.h **** */
  92:Generated_Source\PSoC6/SPI.h **** extern uint8_t SPI_initVar;
  93:Generated_Source\PSoC6/SPI.h **** extern cy_stc_scb_spi_config_t const SPI_config;
  94:Generated_Source\PSoC6/SPI.h **** extern cy_stc_scb_spi_context_t SPI_context;
  95:Generated_Source\PSoC6/SPI.h **** /** @} group_globals */
  96:Generated_Source\PSoC6/SPI.h **** 
  97:Generated_Source\PSoC6/SPI.h **** 
  98:Generated_Source\PSoC6/SPI.h **** /***************************************
  99:Generated_Source\PSoC6/SPI.h **** *         Preprocessor Macros
 100:Generated_Source\PSoC6/SPI.h **** ***************************************/
 101:Generated_Source\PSoC6/SPI.h **** /**
 102:Generated_Source\PSoC6/SPI.h **** * \addtogroup group_macros
 103:Generated_Source\PSoC6/SPI.h **** * @{
 104:Generated_Source\PSoC6/SPI.h **** */
 105:Generated_Source\PSoC6/SPI.h **** /** The pointer to the base address of the hardware */
 106:Generated_Source\PSoC6/SPI.h **** #define SPI_HW     ((CySCB_Type *) SPI_SCB__HW)
 107:Generated_Source\PSoC6/SPI.h **** 
 108:Generated_Source\PSoC6/SPI.h **** /** The slave select line 0 constant which takes into account pin placement */
 109:Generated_Source\PSoC6/SPI.h **** #define SPI_SPI_SLAVE_SELECT0    ( (cy_en_scb_spi_slave_select_t) SPI_SCB__SS0_POSITION)
 110:Generated_Source\PSoC6/SPI.h **** 
 111:Generated_Source\PSoC6/SPI.h **** /** The slave select line 1 constant which takes into account pin placement */
 112:Generated_Source\PSoC6/SPI.h **** #define SPI_SPI_SLAVE_SELECT1    ( (cy_en_scb_spi_slave_select_t) SPI_SCB__SS1_POSITION)
 113:Generated_Source\PSoC6/SPI.h **** 
 114:Generated_Source\PSoC6/SPI.h **** /** The slave select line 2 constant which takes into account pin placement */
 115:Generated_Source\PSoC6/SPI.h **** #define SPI_SPI_SLAVE_SELECT2    ( (cy_en_scb_spi_slave_select_t) SPI_SCB__SS2_POSITION)
 116:Generated_Source\PSoC6/SPI.h **** 
 117:Generated_Source\PSoC6/SPI.h **** /** The slave select line 3 constant which takes into account pin placement */
 118:Generated_Source\PSoC6/SPI.h **** #define SPI_SPI_SLAVE_SELECT3    ((cy_en_scb_spi_slave_select_t) SPI_SCB__SS3_POSITION)
 119:Generated_Source\PSoC6/SPI.h **** /** @} group_macros */
ARM GAS  C:\Users\dmr85\AppData\Local\Temp\ccCZSREw.s 			page 5


 120:Generated_Source\PSoC6/SPI.h **** 
 121:Generated_Source\PSoC6/SPI.h **** 
 122:Generated_Source\PSoC6/SPI.h **** /***************************************
 123:Generated_Source\PSoC6/SPI.h **** *    In-line Function Implementation
 124:Generated_Source\PSoC6/SPI.h **** ***************************************/
 125:Generated_Source\PSoC6/SPI.h **** 
 126:Generated_Source\PSoC6/SPI.h **** /*******************************************************************************
 127:Generated_Source\PSoC6/SPI.h **** * Function Name: SPI_Init
 128:Generated_Source\PSoC6/SPI.h **** ****************************************************************************//**
 129:Generated_Source\PSoC6/SPI.h **** *
 130:Generated_Source\PSoC6/SPI.h **** * Invokes the Cy_SCB_SPI_Init() PDL driver function.
 131:Generated_Source\PSoC6/SPI.h **** *
 132:Generated_Source\PSoC6/SPI.h **** *******************************************************************************/
 133:Generated_Source\PSoC6/SPI.h **** __STATIC_INLINE cy_en_scb_spi_status_t SPI_Init(cy_stc_scb_spi_config_t const *config)
 134:Generated_Source\PSoC6/SPI.h **** {
 135:Generated_Source\PSoC6/SPI.h ****     return Cy_SCB_SPI_Init(SPI_HW, config, &SPI_context);
 136:Generated_Source\PSoC6/SPI.h **** }
 137:Generated_Source\PSoC6/SPI.h **** 
 138:Generated_Source\PSoC6/SPI.h **** 
 139:Generated_Source\PSoC6/SPI.h **** /*******************************************************************************
 140:Generated_Source\PSoC6/SPI.h **** * Function Name: SPI_DeInit
 141:Generated_Source\PSoC6/SPI.h **** ****************************************************************************//**
 142:Generated_Source\PSoC6/SPI.h **** *
 143:Generated_Source\PSoC6/SPI.h **** * Invokes the Cy_SCB_SPI_DeInit() PDL driver function.
 144:Generated_Source\PSoC6/SPI.h **** *
 145:Generated_Source\PSoC6/SPI.h **** *******************************************************************************/
 146:Generated_Source\PSoC6/SPI.h **** __STATIC_INLINE void SPI_DeInit(void)
 147:Generated_Source\PSoC6/SPI.h **** {
 148:Generated_Source\PSoC6/SPI.h ****     Cy_SCB_SPI_DeInit(SPI_HW);
 149:Generated_Source\PSoC6/SPI.h **** }
 150:Generated_Source\PSoC6/SPI.h **** 
 151:Generated_Source\PSoC6/SPI.h **** 
 152:Generated_Source\PSoC6/SPI.h **** /*******************************************************************************
 153:Generated_Source\PSoC6/SPI.h **** * Function Name: SPI_Enable
 154:Generated_Source\PSoC6/SPI.h **** ****************************************************************************//**
 155:Generated_Source\PSoC6/SPI.h **** *
 156:Generated_Source\PSoC6/SPI.h **** * Invokes the Cy_SCB_SPI_Enable() PDL driver function.
 157:Generated_Source\PSoC6/SPI.h **** *
 158:Generated_Source\PSoC6/SPI.h **** *******************************************************************************/
 159:Generated_Source\PSoC6/SPI.h **** __STATIC_INLINE void SPI_Enable(void)
 160:Generated_Source\PSoC6/SPI.h **** {
 161:Generated_Source\PSoC6/SPI.h ****     Cy_SCB_SPI_Enable(SPI_HW);
 162:Generated_Source\PSoC6/SPI.h **** }
 163:Generated_Source\PSoC6/SPI.h **** 
 164:Generated_Source\PSoC6/SPI.h **** 
 165:Generated_Source\PSoC6/SPI.h **** /*******************************************************************************
 166:Generated_Source\PSoC6/SPI.h **** * Function Name: SPI_Disable
 167:Generated_Source\PSoC6/SPI.h **** ****************************************************************************//**
 168:Generated_Source\PSoC6/SPI.h **** *
 169:Generated_Source\PSoC6/SPI.h **** * Invokes the Cy_SCB_SPI_Disable() PDL driver function.
 170:Generated_Source\PSoC6/SPI.h **** *
 171:Generated_Source\PSoC6/SPI.h **** *******************************************************************************/
 172:Generated_Source\PSoC6/SPI.h **** __STATIC_INLINE void SPI_Disable(void)
 173:Generated_Source\PSoC6/SPI.h **** {
 174:Generated_Source\PSoC6/SPI.h ****     Cy_SCB_SPI_Disable(SPI_HW, &SPI_context);
 175:Generated_Source\PSoC6/SPI.h **** }
 176:Generated_Source\PSoC6/SPI.h **** 
ARM GAS  C:\Users\dmr85\AppData\Local\Temp\ccCZSREw.s 			page 6


 177:Generated_Source\PSoC6/SPI.h **** 
 178:Generated_Source\PSoC6/SPI.h **** /*******************************************************************************
 179:Generated_Source\PSoC6/SPI.h **** * Function Name: SPI_RegisterCallback
 180:Generated_Source\PSoC6/SPI.h **** ****************************************************************************//**
 181:Generated_Source\PSoC6/SPI.h **** *
 182:Generated_Source\PSoC6/SPI.h **** * Invokes the Cy_SCB_SPI_RegisterCallback() PDL driver function.
 183:Generated_Source\PSoC6/SPI.h **** *
 184:Generated_Source\PSoC6/SPI.h **** *******************************************************************************/
 185:Generated_Source\PSoC6/SPI.h **** __STATIC_INLINE void SPI_RegisterCallback(cy_cb_scb_spi_handle_events_t callback)
 186:Generated_Source\PSoC6/SPI.h **** {
 187:Generated_Source\PSoC6/SPI.h ****     Cy_SCB_SPI_RegisterCallback(SPI_HW, callback, &SPI_context);
 188:Generated_Source\PSoC6/SPI.h **** }
 189:Generated_Source\PSoC6/SPI.h **** 
 190:Generated_Source\PSoC6/SPI.h **** 
 191:Generated_Source\PSoC6/SPI.h **** /*******************************************************************************
 192:Generated_Source\PSoC6/SPI.h **** * Function Name: SPI_IsBusBusy
 193:Generated_Source\PSoC6/SPI.h **** ****************************************************************************//**
 194:Generated_Source\PSoC6/SPI.h **** *
 195:Generated_Source\PSoC6/SPI.h **** * Invokes the Cy_SCB_SPI_IsBusBusy() PDL driver function.
 196:Generated_Source\PSoC6/SPI.h **** *
 197:Generated_Source\PSoC6/SPI.h **** *******************************************************************************/
 198:Generated_Source\PSoC6/SPI.h **** __STATIC_INLINE bool SPI_IsBusBusy(void)
 199:Generated_Source\PSoC6/SPI.h **** {
 200:Generated_Source\PSoC6/SPI.h ****     return Cy_SCB_SPI_IsBusBusy(SPI_HW);
 201:Generated_Source\PSoC6/SPI.h **** }
 202:Generated_Source\PSoC6/SPI.h **** 
 203:Generated_Source\PSoC6/SPI.h **** 
 204:Generated_Source\PSoC6/SPI.h **** /*******************************************************************************
 205:Generated_Source\PSoC6/SPI.h **** * Function Name: SPI_SetActiveSlaveSelect
 206:Generated_Source\PSoC6/SPI.h **** ****************************************************************************//**
 207:Generated_Source\PSoC6/SPI.h **** *
 208:Generated_Source\PSoC6/SPI.h **** * Invokes the Cy_SCB_SPI_SetActiveSlaveSelect() PDL driver function.
 209:Generated_Source\PSoC6/SPI.h **** *
 210:Generated_Source\PSoC6/SPI.h **** *******************************************************************************/
 211:Generated_Source\PSoC6/SPI.h **** __STATIC_INLINE void SPI_SetActiveSlaveSelect(cy_en_scb_spi_slave_select_t slaveSelect)
 212:Generated_Source\PSoC6/SPI.h **** {
 213:Generated_Source\PSoC6/SPI.h ****     Cy_SCB_SPI_SetActiveSlaveSelect(SPI_HW, slaveSelect);
 214:Generated_Source\PSoC6/SPI.h **** }
 215:Generated_Source\PSoC6/SPI.h **** 
 216:Generated_Source\PSoC6/SPI.h **** 
 217:Generated_Source\PSoC6/SPI.h **** /*******************************************************************************
 218:Generated_Source\PSoC6/SPI.h **** * Function Name: SPI_SetActiveSlaveSelectPolarity
 219:Generated_Source\PSoC6/SPI.h **** ****************************************************************************//**
 220:Generated_Source\PSoC6/SPI.h **** *
 221:Generated_Source\PSoC6/SPI.h **** * Invokes the Cy_SCB_SPI_SetActiveSlaveSelectPolarity() PDL driver function.
 222:Generated_Source\PSoC6/SPI.h **** *
 223:Generated_Source\PSoC6/SPI.h **** *******************************************************************************/
 224:Generated_Source\PSoC6/SPI.h **** __STATIC_INLINE void SPI_SetActiveSlaveSelectPolarity(cy_en_scb_spi_slave_select_t slaveSelect, 
 225:Generated_Source\PSoC6/SPI.h ****                                                                    cy_en_scb_spi_polarity_t polarit
 226:Generated_Source\PSoC6/SPI.h **** {
 227:Generated_Source\PSoC6/SPI.h ****     Cy_SCB_SPI_SetActiveSlaveSelectPolarity(SPI_HW, slaveSelect, polarity);
 228:Generated_Source\PSoC6/SPI.h **** }
 229:Generated_Source\PSoC6/SPI.h **** 
 230:Generated_Source\PSoC6/SPI.h **** 
 231:Generated_Source\PSoC6/SPI.h **** /*******************************************************************************
 232:Generated_Source\PSoC6/SPI.h **** * Function Name: SPI_Read
 233:Generated_Source\PSoC6/SPI.h **** ****************************************************************************//**
ARM GAS  C:\Users\dmr85\AppData\Local\Temp\ccCZSREw.s 			page 7


 234:Generated_Source\PSoC6/SPI.h **** *
 235:Generated_Source\PSoC6/SPI.h **** * Invokes the Cy_SCB_SPI_Read() PDL driver function.
 236:Generated_Source\PSoC6/SPI.h **** *
 237:Generated_Source\PSoC6/SPI.h **** *******************************************************************************/
 238:Generated_Source\PSoC6/SPI.h **** __STATIC_INLINE uint32_t SPI_Read(void)
 239:Generated_Source\PSoC6/SPI.h **** {
 240:Generated_Source\PSoC6/SPI.h ****     return Cy_SCB_SPI_Read(SPI_HW);
 241:Generated_Source\PSoC6/SPI.h **** }
 242:Generated_Source\PSoC6/SPI.h **** 
 243:Generated_Source\PSoC6/SPI.h **** 
 244:Generated_Source\PSoC6/SPI.h **** /*******************************************************************************
 245:Generated_Source\PSoC6/SPI.h **** * Function Name: SPI_ReadArray
 246:Generated_Source\PSoC6/SPI.h **** ****************************************************************************//**
 247:Generated_Source\PSoC6/SPI.h **** *
 248:Generated_Source\PSoC6/SPI.h **** * Invokes the Cy_SCB_SPI_ReadArray() PDL driver function.
 249:Generated_Source\PSoC6/SPI.h **** *
 250:Generated_Source\PSoC6/SPI.h **** *******************************************************************************/
 251:Generated_Source\PSoC6/SPI.h **** __STATIC_INLINE uint32_t SPI_ReadArray(void *buffer, uint32_t size)
 252:Generated_Source\PSoC6/SPI.h **** {
 253:Generated_Source\PSoC6/SPI.h ****     return Cy_SCB_SPI_ReadArray(SPI_HW, buffer, size);
 254:Generated_Source\PSoC6/SPI.h **** }
 255:Generated_Source\PSoC6/SPI.h **** 
 256:Generated_Source\PSoC6/SPI.h **** 
 257:Generated_Source\PSoC6/SPI.h **** /*******************************************************************************
 258:Generated_Source\PSoC6/SPI.h **** * Function Name: SPI_GetRxFifoStatus
 259:Generated_Source\PSoC6/SPI.h **** ****************************************************************************//**
 260:Generated_Source\PSoC6/SPI.h **** *
 261:Generated_Source\PSoC6/SPI.h **** * Invokes the Cy_SCB_SPI_GetRxFifoStatus() PDL driver function.
 262:Generated_Source\PSoC6/SPI.h **** *
 263:Generated_Source\PSoC6/SPI.h **** *******************************************************************************/
 264:Generated_Source\PSoC6/SPI.h **** __STATIC_INLINE uint32_t SPI_GetRxFifoStatus(void)
 265:Generated_Source\PSoC6/SPI.h **** {
 266:Generated_Source\PSoC6/SPI.h ****     return Cy_SCB_SPI_GetRxFifoStatus(SPI_HW);
 267:Generated_Source\PSoC6/SPI.h **** }
 268:Generated_Source\PSoC6/SPI.h **** 
 269:Generated_Source\PSoC6/SPI.h **** 
 270:Generated_Source\PSoC6/SPI.h **** /*******************************************************************************
 271:Generated_Source\PSoC6/SPI.h **** * Function Name: SPI_ClearRxFifoStatus
 272:Generated_Source\PSoC6/SPI.h **** ****************************************************************************//**
 273:Generated_Source\PSoC6/SPI.h **** *
 274:Generated_Source\PSoC6/SPI.h **** * Invokes the Cy_SCB_SPI_ClearRxFifoStatus() PDL driver function.
 275:Generated_Source\PSoC6/SPI.h **** *
 276:Generated_Source\PSoC6/SPI.h **** *******************************************************************************/
 277:Generated_Source\PSoC6/SPI.h **** __STATIC_INLINE void SPI_ClearRxFifoStatus(uint32_t clearMask)
 278:Generated_Source\PSoC6/SPI.h **** {
 279:Generated_Source\PSoC6/SPI.h ****     Cy_SCB_SPI_ClearRxFifoStatus(SPI_HW, clearMask);
 280:Generated_Source\PSoC6/SPI.h **** }
 281:Generated_Source\PSoC6/SPI.h **** 
 282:Generated_Source\PSoC6/SPI.h **** 
 283:Generated_Source\PSoC6/SPI.h **** /*******************************************************************************
 284:Generated_Source\PSoC6/SPI.h **** * Function Name: SPI_GetNumInRxFifo
 285:Generated_Source\PSoC6/SPI.h **** ****************************************************************************//**
 286:Generated_Source\PSoC6/SPI.h **** *
 287:Generated_Source\PSoC6/SPI.h **** * Invokes the Cy_SCB_GetNumInRxFifo() PDL driver function.
 288:Generated_Source\PSoC6/SPI.h **** *
 289:Generated_Source\PSoC6/SPI.h **** *******************************************************************************/
 290:Generated_Source\PSoC6/SPI.h **** __STATIC_INLINE uint32_t SPI_GetNumInRxFifo(void)
ARM GAS  C:\Users\dmr85\AppData\Local\Temp\ccCZSREw.s 			page 8


 291:Generated_Source\PSoC6/SPI.h **** {
 292:Generated_Source\PSoC6/SPI.h ****     return Cy_SCB_GetNumInRxFifo(SPI_HW);
 293:Generated_Source\PSoC6/SPI.h **** }
 294:Generated_Source\PSoC6/SPI.h **** 
 295:Generated_Source\PSoC6/SPI.h **** 
 296:Generated_Source\PSoC6/SPI.h **** /*******************************************************************************
 297:Generated_Source\PSoC6/SPI.h **** * Function Name: SPI_ClearRxFifo
 298:Generated_Source\PSoC6/SPI.h **** ****************************************************************************//**
 299:Generated_Source\PSoC6/SPI.h **** *
 300:Generated_Source\PSoC6/SPI.h **** * Invokes the Cy_SCB_SPI_ClearRxFifo() PDL driver function.
 301:Generated_Source\PSoC6/SPI.h **** *
 302:Generated_Source\PSoC6/SPI.h **** *******************************************************************************/
 303:Generated_Source\PSoC6/SPI.h **** __STATIC_INLINE void SPI_ClearRxFifo(void)
 304:Generated_Source\PSoC6/SPI.h **** {
 305:Generated_Source\PSoC6/SPI.h ****     Cy_SCB_SPI_ClearRxFifo(SPI_HW);
 306:Generated_Source\PSoC6/SPI.h **** }
 307:Generated_Source\PSoC6/SPI.h **** 
 308:Generated_Source\PSoC6/SPI.h **** 
 309:Generated_Source\PSoC6/SPI.h **** /*******************************************************************************
 310:Generated_Source\PSoC6/SPI.h **** * Function Name: SPI_Write
 311:Generated_Source\PSoC6/SPI.h **** ****************************************************************************//**
 312:Generated_Source\PSoC6/SPI.h **** *
 313:Generated_Source\PSoC6/SPI.h **** * Invokes the Cy_SCB_SPI_Write() PDL driver function.
 314:Generated_Source\PSoC6/SPI.h **** *
 315:Generated_Source\PSoC6/SPI.h **** *******************************************************************************/
 316:Generated_Source\PSoC6/SPI.h **** __STATIC_INLINE uint32_t SPI_Write(uint32_t data)
 317:Generated_Source\PSoC6/SPI.h **** {
 318:Generated_Source\PSoC6/SPI.h ****     return Cy_SCB_SPI_Write(SPI_HW, data);
 319:Generated_Source\PSoC6/SPI.h **** }
 320:Generated_Source\PSoC6/SPI.h **** 
 321:Generated_Source\PSoC6/SPI.h **** 
 322:Generated_Source\PSoC6/SPI.h **** /*******************************************************************************
 323:Generated_Source\PSoC6/SPI.h **** * Function Name: SPI_WriteArray
 324:Generated_Source\PSoC6/SPI.h **** ****************************************************************************//**
 325:Generated_Source\PSoC6/SPI.h **** *
 326:Generated_Source\PSoC6/SPI.h **** * Invokes the Cy_SCB_SPI_WriteArray() PDL driver function.
 327:Generated_Source\PSoC6/SPI.h **** *
 328:Generated_Source\PSoC6/SPI.h **** *******************************************************************************/
 329:Generated_Source\PSoC6/SPI.h **** __STATIC_INLINE uint32_t SPI_WriteArray(void *buffer, uint32_t size)
 330:Generated_Source\PSoC6/SPI.h **** {
 331:Generated_Source\PSoC6/SPI.h ****     return Cy_SCB_SPI_WriteArray(SPI_HW, buffer, size);
 332:Generated_Source\PSoC6/SPI.h **** }
 333:Generated_Source\PSoC6/SPI.h **** 
 334:Generated_Source\PSoC6/SPI.h **** 
 335:Generated_Source\PSoC6/SPI.h **** /*******************************************************************************
 336:Generated_Source\PSoC6/SPI.h **** * Function Name: SPI_WriteArrayBlocking
 337:Generated_Source\PSoC6/SPI.h **** ****************************************************************************//**
 338:Generated_Source\PSoC6/SPI.h **** *
 339:Generated_Source\PSoC6/SPI.h **** * Invokes the Cy_SCB_SPI_WriteArrayBlocking() PDL driver function.
 340:Generated_Source\PSoC6/SPI.h **** *
 341:Generated_Source\PSoC6/SPI.h **** *******************************************************************************/
 342:Generated_Source\PSoC6/SPI.h **** __STATIC_INLINE void SPI_WriteArrayBlocking(void *buffer, uint32_t size)
 343:Generated_Source\PSoC6/SPI.h **** {
 344:Generated_Source\PSoC6/SPI.h ****     Cy_SCB_SPI_WriteArrayBlocking(SPI_HW, buffer, size);
 345:Generated_Source\PSoC6/SPI.h **** }
 346:Generated_Source\PSoC6/SPI.h **** 
 347:Generated_Source\PSoC6/SPI.h **** 
ARM GAS  C:\Users\dmr85\AppData\Local\Temp\ccCZSREw.s 			page 9


 348:Generated_Source\PSoC6/SPI.h **** /*******************************************************************************
 349:Generated_Source\PSoC6/SPI.h **** * Function Name: SPI_GetTxFifoStatus
 350:Generated_Source\PSoC6/SPI.h **** ****************************************************************************//**
 351:Generated_Source\PSoC6/SPI.h **** *
 352:Generated_Source\PSoC6/SPI.h **** * Invokes the Cy_SCB_SPI_GetTxFifoStatus() PDL driver function.
 353:Generated_Source\PSoC6/SPI.h **** *
 354:Generated_Source\PSoC6/SPI.h **** *******************************************************************************/
 355:Generated_Source\PSoC6/SPI.h **** __STATIC_INLINE uint32_t SPI_GetTxFifoStatus(void)
 356:Generated_Source\PSoC6/SPI.h **** {
 357:Generated_Source\PSoC6/SPI.h ****     return Cy_SCB_SPI_GetTxFifoStatus(SPI_HW);
 358:Generated_Source\PSoC6/SPI.h **** }
 359:Generated_Source\PSoC6/SPI.h **** 
 360:Generated_Source\PSoC6/SPI.h **** 
 361:Generated_Source\PSoC6/SPI.h **** /*******************************************************************************
 362:Generated_Source\PSoC6/SPI.h **** * Function Name: SPI_ClearTxFifoStatus
 363:Generated_Source\PSoC6/SPI.h **** ****************************************************************************//**
 364:Generated_Source\PSoC6/SPI.h **** *
 365:Generated_Source\PSoC6/SPI.h **** * Invokes the Cy_SCB_SPI_ClearTxFifoStatus() PDL driver function.
 366:Generated_Source\PSoC6/SPI.h **** *
 367:Generated_Source\PSoC6/SPI.h **** *******************************************************************************/
 368:Generated_Source\PSoC6/SPI.h **** __STATIC_INLINE void SPI_ClearTxFifoStatus(uint32_t clearMask)
 369:Generated_Source\PSoC6/SPI.h **** {
 370:Generated_Source\PSoC6/SPI.h ****     Cy_SCB_SPI_ClearTxFifoStatus(SPI_HW, clearMask);
 371:Generated_Source\PSoC6/SPI.h **** }
 372:Generated_Source\PSoC6/SPI.h **** 
 373:Generated_Source\PSoC6/SPI.h **** 
 374:Generated_Source\PSoC6/SPI.h **** /*******************************************************************************
 375:Generated_Source\PSoC6/SPI.h **** * Function Name: SPI_GetNumInTxFifo
 376:Generated_Source\PSoC6/SPI.h **** ****************************************************************************//**
 377:Generated_Source\PSoC6/SPI.h **** *
 378:Generated_Source\PSoC6/SPI.h **** * Invokes the Cy_SCB_SPI_GetNumInTxFifo() PDL driver function.
 379:Generated_Source\PSoC6/SPI.h **** *
 380:Generated_Source\PSoC6/SPI.h **** *******************************************************************************/
 381:Generated_Source\PSoC6/SPI.h **** __STATIC_INLINE uint32_t SPI_GetNumInTxFifo(void)
 382:Generated_Source\PSoC6/SPI.h **** {
 383:Generated_Source\PSoC6/SPI.h ****     return Cy_SCB_SPI_GetNumInTxFifo(SPI_HW);
 384:Generated_Source\PSoC6/SPI.h **** }
 385:Generated_Source\PSoC6/SPI.h **** 
 386:Generated_Source\PSoC6/SPI.h **** 
 387:Generated_Source\PSoC6/SPI.h **** /*******************************************************************************
 388:Generated_Source\PSoC6/SPI.h **** * Function Name: SPI_IsTxComplete
 389:Generated_Source\PSoC6/SPI.h **** ****************************************************************************//**
 390:Generated_Source\PSoC6/SPI.h **** *
 391:Generated_Source\PSoC6/SPI.h **** * Invokes the Cy_SCB_SPI_IsTxComplete() PDL driver function.
 392:Generated_Source\PSoC6/SPI.h **** *
 393:Generated_Source\PSoC6/SPI.h **** *******************************************************************************/
 394:Generated_Source\PSoC6/SPI.h **** __STATIC_INLINE bool SPI_IsTxComplete(void)
 395:Generated_Source\PSoC6/SPI.h **** {
 396:Generated_Source\PSoC6/SPI.h ****     return Cy_SCB_SPI_IsTxComplete(SPI_HW);
 397:Generated_Source\PSoC6/SPI.h **** }
 398:Generated_Source\PSoC6/SPI.h **** 
 399:Generated_Source\PSoC6/SPI.h **** 
 400:Generated_Source\PSoC6/SPI.h **** /*******************************************************************************
 401:Generated_Source\PSoC6/SPI.h **** * Function Name: SPI_ClearTxFifo
 402:Generated_Source\PSoC6/SPI.h **** ****************************************************************************//**
 403:Generated_Source\PSoC6/SPI.h **** *
 404:Generated_Source\PSoC6/SPI.h **** * Invokes the Cy_SCB_SPI_ClearTxFifo() PDL driver function.
ARM GAS  C:\Users\dmr85\AppData\Local\Temp\ccCZSREw.s 			page 10


 405:Generated_Source\PSoC6/SPI.h **** *
 406:Generated_Source\PSoC6/SPI.h **** *******************************************************************************/
 407:Generated_Source\PSoC6/SPI.h **** __STATIC_INLINE void SPI_ClearTxFifo(void)
 408:Generated_Source\PSoC6/SPI.h **** {
 409:Generated_Source\PSoC6/SPI.h ****     Cy_SCB_SPI_ClearTxFifo(SPI_HW);
 410:Generated_Source\PSoC6/SPI.h **** }
 411:Generated_Source\PSoC6/SPI.h **** 
 412:Generated_Source\PSoC6/SPI.h **** 
 413:Generated_Source\PSoC6/SPI.h **** /*******************************************************************************
 414:Generated_Source\PSoC6/SPI.h **** * Function Name: SPI_GetSlaveMasterStatus
 415:Generated_Source\PSoC6/SPI.h **** ****************************************************************************//**
 416:Generated_Source\PSoC6/SPI.h **** *
 417:Generated_Source\PSoC6/SPI.h **** * Invokes the Cy_SCB_SPI_GetSlaveMasterStatus() PDL driver function.
 418:Generated_Source\PSoC6/SPI.h **** *
 419:Generated_Source\PSoC6/SPI.h **** *******************************************************************************/
 420:Generated_Source\PSoC6/SPI.h **** __STATIC_INLINE uint32_t SPI_GetSlaveMasterStatus(void)
 421:Generated_Source\PSoC6/SPI.h **** {
 422:Generated_Source\PSoC6/SPI.h ****     return Cy_SCB_SPI_GetSlaveMasterStatus(SPI_HW);
 423:Generated_Source\PSoC6/SPI.h **** }
 424:Generated_Source\PSoC6/SPI.h **** 
 425:Generated_Source\PSoC6/SPI.h **** 
 426:Generated_Source\PSoC6/SPI.h **** /*******************************************************************************
 427:Generated_Source\PSoC6/SPI.h **** * Function Name: SPI_ClearSlaveMasterStatus
 428:Generated_Source\PSoC6/SPI.h **** ****************************************************************************//**
 429:Generated_Source\PSoC6/SPI.h **** *
 430:Generated_Source\PSoC6/SPI.h **** * Invokes the Cy_SCB_SPI_ClearSlaveMasterStatus() PDL driver function.
 431:Generated_Source\PSoC6/SPI.h **** *
 432:Generated_Source\PSoC6/SPI.h **** *******************************************************************************/
 433:Generated_Source\PSoC6/SPI.h **** __STATIC_INLINE void SPI_ClearSlaveMasterStatus(uint32_t clearMask)
 434:Generated_Source\PSoC6/SPI.h **** {
 435:Generated_Source\PSoC6/SPI.h ****     Cy_SCB_SPI_ClearSlaveMasterStatus(SPI_HW, clearMask);
 436:Generated_Source\PSoC6/SPI.h **** }
 437:Generated_Source\PSoC6/SPI.h **** 
 438:Generated_Source\PSoC6/SPI.h **** 
 439:Generated_Source\PSoC6/SPI.h **** /*******************************************************************************
 440:Generated_Source\PSoC6/SPI.h **** * Function Name: SPI_Transfer
 441:Generated_Source\PSoC6/SPI.h **** ****************************************************************************//**
 442:Generated_Source\PSoC6/SPI.h **** *
 443:Generated_Source\PSoC6/SPI.h **** * Invokes the Cy_SCB_SPI_Transfer() PDL driver function.
 444:Generated_Source\PSoC6/SPI.h **** *
 445:Generated_Source\PSoC6/SPI.h **** *******************************************************************************/
 446:Generated_Source\PSoC6/SPI.h **** __STATIC_INLINE cy_en_scb_spi_status_t SPI_Transfer(void *txBuffer, void *rxBuffer, uint32_t size)
 447:Generated_Source\PSoC6/SPI.h **** {
 448:Generated_Source\PSoC6/SPI.h ****     return Cy_SCB_SPI_Transfer(SPI_HW, txBuffer, rxBuffer, size, &SPI_context);
  51              		.loc 2 448 0
  52 0010 054B     		ldr	r3, .L3+4
  53 0012 0093     		str	r3, [sp]
  54 0014 0123     		movs	r3, #1
  55 0016 0022     		movs	r2, #0
  56 0018 2146     		mov	r1, r4
  57 001a 0448     		ldr	r0, .L3+8
  58 001c FFF7FEFF 		bl	Cy_SCB_SPI_Transfer
  59              	.LVL3:
  60              	.LBE44:
  61              	.LBE43:
  60:ads1299_spi_adapt.c ****     cy_en_scb_spi_status_t transfer_status;
  61:ads1299_spi_adapt.c ****     transfer_status = SPI_Transfer(txBuffer, NULL, ONE_PACKET_SIZE);
ARM GAS  C:\Users\dmr85\AppData\Local\Temp\ccCZSREw.s 			page 11


  62:ads1299_spi_adapt.c ****     //CyDelay(10);
  63:ads1299_spi_adapt.c ****     return transfer_status;
  64:ads1299_spi_adapt.c **** }
  62              		.loc 1 64 0
  63 0020 04B0     		add	sp, sp, #16
  64              		.cfi_def_cfa_offset 8
  65              		@ sp needed
  66 0022 10BD     		pop	{r4, pc}
  67              	.L4:
  68              		.align	2
  69              	.L3:
  70 0024 00000000 		.word	.LC0
  71 0028 00000000 		.word	SPI_context
  72 002c 00006340 		.word	1080229888
  73              		.cfi_endproc
  74              	.LFE537:
  75              		.size	spi_put, .-spi_put
  76              		.section	.text.spi_get,"ax",%progbits
  77              		.align	2
  78              		.global	spi_get
  79              		.thumb
  80              		.thumb_func
  81              		.type	spi_get, %function
  82              	spi_get:
  83              	.LFB538:
  65:ads1299_spi_adapt.c **** 
  66:ads1299_spi_adapt.c **** cy_en_scb_spi_status_t spi_get(volatile uint8_t *spi, uint8_t rxBuffer[])
  67:ads1299_spi_adapt.c **** {
  84              		.loc 1 67 0
  85              		.cfi_startproc
  86              		@ args = 0, pretend = 0, frame = 0
  87              		@ frame_needed = 0, uses_anonymous_args = 0
  88              	.LVL4:
  89 0000 30B5     		push	{r4, r5, lr}
  90              		.cfi_def_cfa_offset 12
  91              		.cfi_offset 4, -12
  92              		.cfi_offset 5, -8
  93              		.cfi_offset 14, -4
  94 0002 83B0     		sub	sp, sp, #12
  95              		.cfi_def_cfa_offset 24
  96 0004 0C46     		mov	r4, r1
  97              	.LVL5:
  98              	.LBB45:
  99              	.LBB46:
 100              		.loc 2 448 0
 101 0006 084B     		ldr	r3, .L7
 102 0008 0093     		str	r3, [sp]
 103 000a 0123     		movs	r3, #1
 104 000c 0A46     		mov	r2, r1
 105 000e 0021     		movs	r1, #0
 106              	.LVL6:
 107 0010 0648     		ldr	r0, .L7+4
 108              	.LVL7:
 109 0012 FFF7FEFF 		bl	Cy_SCB_SPI_Transfer
 110              	.LVL8:
 111 0016 0546     		mov	r5, r0
 112              	.LVL9:
ARM GAS  C:\Users\dmr85\AppData\Local\Temp\ccCZSREw.s 			page 12


 113              	.LBE46:
 114              	.LBE45:
  68:ads1299_spi_adapt.c ****     cy_en_scb_spi_status_t transferStatus;
  69:ads1299_spi_adapt.c ****     transferStatus = SPI_Transfer(NULL, rxBuffer, ONE_PACKET_SIZE);
  70:ads1299_spi_adapt.c ****     //CyDelay(10);
  71:ads1299_spi_adapt.c ****     printf("%x ", rxBuffer[0]);
 115              		.loc 1 71 0
 116 0018 2178     		ldrb	r1, [r4]	@ zero_extendqisi2
 117 001a 0548     		ldr	r0, .L7+8
 118 001c FFF7FEFF 		bl	printf
 119              	.LVL10:
  72:ads1299_spi_adapt.c ****     return transferStatus;
  73:ads1299_spi_adapt.c **** }
 120              		.loc 1 73 0
 121 0020 2846     		mov	r0, r5
 122 0022 03B0     		add	sp, sp, #12
 123              		.cfi_def_cfa_offset 12
 124              		@ sp needed
 125 0024 30BD     		pop	{r4, r5, pc}
 126              	.LVL11:
 127              	.L8:
 128 0026 00BF     		.align	2
 129              	.L7:
 130 0028 00000000 		.word	SPI_context
 131 002c 00006340 		.word	1080229888
 132 0030 00000000 		.word	.LC0
 133              		.cfi_endproc
 134              	.LFE538:
 135              		.size	spi_get, .-spi_get
 136              		.section	.text.delay_s,"ax",%progbits
 137              		.align	2
 138              		.global	delay_s
 139              		.thumb
 140              		.thumb_func
 141              		.type	delay_s, %function
 142              	delay_s:
 143              	.LFB541:
  74:ads1299_spi_adapt.c **** 
  75:ads1299_spi_adapt.c **** void spi_selectChip(volatile uint8_t *spi, uint8_t chip_select)
  76:ads1299_spi_adapt.c **** {   
  77:ads1299_spi_adapt.c ****     gpio_clr_gpio_pin(ADS1299_PIN_CS);
  78:ads1299_spi_adapt.c ****     // CyDelayUs(1);
  79:ads1299_spi_adapt.c **** }
  80:ads1299_spi_adapt.c **** 
  81:ads1299_spi_adapt.c **** void spi_unselectChip(volatile uint8_t *spi, uint8_t chip_select)
  82:ads1299_spi_adapt.c **** {   
  83:ads1299_spi_adapt.c ****     // CyDelayUs(1);
  84:ads1299_spi_adapt.c ****     gpio_set_gpio_pin(ADS1299_PIN_CS);
  85:ads1299_spi_adapt.c **** }
  86:ads1299_spi_adapt.c **** 
  87:ads1299_spi_adapt.c **** void delay_s(int delay)
  88:ads1299_spi_adapt.c **** {
 144              		.loc 1 88 0
 145              		.cfi_startproc
 146              		@ args = 0, pretend = 0, frame = 0
 147              		@ frame_needed = 0, uses_anonymous_args = 0
 148              	.LVL12:
ARM GAS  C:\Users\dmr85\AppData\Local\Temp\ccCZSREw.s 			page 13


 149 0000 08B5     		push	{r3, lr}
 150              		.cfi_def_cfa_offset 8
 151              		.cfi_offset 3, -8
 152              		.cfi_offset 14, -4
  89:ads1299_spi_adapt.c ****     CyDelay(1000 * delay);
 153              		.loc 1 89 0
 154 0002 4FF47A73 		mov	r3, #1000
 155 0006 03FB00F0 		mul	r0, r3, r0
 156              	.LVL13:
 157 000a FFF7FEFF 		bl	Cy_SysLib_Delay
 158              	.LVL14:
 159 000e 08BD     		pop	{r3, pc}
 160              		.cfi_endproc
 161              	.LFE541:
 162              		.size	delay_s, .-delay_s
 163              		.section	.text.delay_ms,"ax",%progbits
 164              		.align	2
 165              		.global	delay_ms
 166              		.thumb
 167              		.thumb_func
 168              		.type	delay_ms, %function
 169              	delay_ms:
 170              	.LFB542:
  90:ads1299_spi_adapt.c **** }
  91:ads1299_spi_adapt.c **** 
  92:ads1299_spi_adapt.c **** void delay_ms(int delay)
  93:ads1299_spi_adapt.c **** {
 171              		.loc 1 93 0
 172              		.cfi_startproc
 173              		@ args = 0, pretend = 0, frame = 0
 174              		@ frame_needed = 0, uses_anonymous_args = 0
 175              	.LVL15:
 176 0000 08B5     		push	{r3, lr}
 177              		.cfi_def_cfa_offset 8
 178              		.cfi_offset 3, -8
 179              		.cfi_offset 14, -4
  94:ads1299_spi_adapt.c ****     CyDelay(delay);
 180              		.loc 1 94 0
 181 0002 FFF7FEFF 		bl	Cy_SysLib_Delay
 182              	.LVL16:
 183 0006 08BD     		pop	{r3, pc}
 184              		.cfi_endproc
 185              	.LFE542:
 186              		.size	delay_ms, .-delay_ms
 187              		.section	.text.delay_us,"ax",%progbits
 188              		.align	2
 189              		.global	delay_us
 190              		.thumb
 191              		.thumb_func
 192              		.type	delay_us, %function
 193              	delay_us:
 194              	.LFB543:
  95:ads1299_spi_adapt.c **** }
  96:ads1299_spi_adapt.c **** 
  97:ads1299_spi_adapt.c **** void delay_us(int delay)
  98:ads1299_spi_adapt.c **** {
 195              		.loc 1 98 0
ARM GAS  C:\Users\dmr85\AppData\Local\Temp\ccCZSREw.s 			page 14


 196              		.cfi_startproc
 197              		@ args = 0, pretend = 0, frame = 0
 198              		@ frame_needed = 0, uses_anonymous_args = 0
 199              	.LVL17:
 200 0000 08B5     		push	{r3, lr}
 201              		.cfi_def_cfa_offset 8
 202              		.cfi_offset 3, -8
 203              		.cfi_offset 14, -4
  99:ads1299_spi_adapt.c ****     CyDelayUs(delay);
 204              		.loc 1 99 0
 205 0002 80B2     		uxth	r0, r0
 206              	.LVL18:
 207 0004 FFF7FEFF 		bl	Cy_SysLib_DelayUs
 208              	.LVL19:
 209 0008 08BD     		pop	{r3, pc}
 210              		.cfi_endproc
 211              	.LFE543:
 212              		.size	delay_us, .-delay_us
 213              		.section	.text.gpio_set_gpio_pin,"ax",%progbits
 214              		.align	2
 215              		.global	gpio_set_gpio_pin
 216              		.thumb
 217              		.thumb_func
 218              		.type	gpio_set_gpio_pin, %function
 219              	gpio_set_gpio_pin:
 220              	.LFB544:
 100:ads1299_spi_adapt.c **** }
 101:ads1299_spi_adapt.c **** 
 102:ads1299_spi_adapt.c **** void gpio_set_gpio_pin(uint32_t pin)
 103:ads1299_spi_adapt.c **** {
 221              		.loc 1 103 0
 222              		.cfi_startproc
 223              		@ args = 0, pretend = 0, frame = 0
 224              		@ frame_needed = 0, uses_anonymous_args = 0
 225              		@ link register save eliminated.
 226              	.LVL20:
 104:ads1299_spi_adapt.c ****     switch (pin)
 227              		.loc 1 104 0
 228 0000 0138     		subs	r0, r0, #1
 229              	.LVL21:
 230 0002 0528     		cmp	r0, #5
 231 0004 1BD8     		bhi	.L15
 232 0006 DFE800F0 		tbb	[pc, r0]
 233              	.L18:
 234 000a 03       		.byte	(.L17-.L18)/2
 235 000b 07       		.byte	(.L19-.L18)/2
 236 000c 0B       		.byte	(.L20-.L18)/2
 237 000d 0F       		.byte	(.L21-.L18)/2
 238 000e 13       		.byte	(.L22-.L18)/2
 239 000f 17       		.byte	(.L23-.L18)/2
 240              		.p2align 1
 241              	.L17:
 242              	.LVL22:
 243              	.LBB47:
 244              	.LBB48:
 245              		.file 3 "Generated_Source\\PSoC6\\pdl\\drivers/peripheral/gpio/cy_gpio.h"
   1:Generated_Source\PSoC6\pdl\drivers/peripheral/gpio/cy_gpio.h **** /***************************************************************************//**
ARM GAS  C:\Users\dmr85\AppData\Local\Temp\ccCZSREw.s 			page 15


   2:Generated_Source\PSoC6\pdl\drivers/peripheral/gpio/cy_gpio.h **** * \file cy_gpio.h
   3:Generated_Source\PSoC6\pdl\drivers/peripheral/gpio/cy_gpio.h **** * \version 1.20
   4:Generated_Source\PSoC6\pdl\drivers/peripheral/gpio/cy_gpio.h **** *
   5:Generated_Source\PSoC6\pdl\drivers/peripheral/gpio/cy_gpio.h **** * Provides an API declaration of the GPIO driver
   6:Generated_Source\PSoC6\pdl\drivers/peripheral/gpio/cy_gpio.h **** *
   7:Generated_Source\PSoC6\pdl\drivers/peripheral/gpio/cy_gpio.h **** ********************************************************************************
   8:Generated_Source\PSoC6\pdl\drivers/peripheral/gpio/cy_gpio.h **** * \copyright
   9:Generated_Source\PSoC6\pdl\drivers/peripheral/gpio/cy_gpio.h **** * Copyright 2016-2018, Cypress Semiconductor Corporation. All rights reserved.
  10:Generated_Source\PSoC6\pdl\drivers/peripheral/gpio/cy_gpio.h **** * You may use this file only in accordance with the license, terms, conditions,
  11:Generated_Source\PSoC6\pdl\drivers/peripheral/gpio/cy_gpio.h **** * disclaimers, and limitations in the end user license agreement accompanying
  12:Generated_Source\PSoC6\pdl\drivers/peripheral/gpio/cy_gpio.h **** * the software package with which this file was provided.
  13:Generated_Source\PSoC6\pdl\drivers/peripheral/gpio/cy_gpio.h **** *******************************************************************************/
  14:Generated_Source\PSoC6\pdl\drivers/peripheral/gpio/cy_gpio.h **** 
  15:Generated_Source\PSoC6\pdl\drivers/peripheral/gpio/cy_gpio.h **** /**
  16:Generated_Source\PSoC6\pdl\drivers/peripheral/gpio/cy_gpio.h **** * \addtogroup group_gpio
  17:Generated_Source\PSoC6\pdl\drivers/peripheral/gpio/cy_gpio.h **** * \{
  18:Generated_Source\PSoC6\pdl\drivers/peripheral/gpio/cy_gpio.h **** * The GPIO driver provides an API to configure and access device Input/Output pins.
  19:Generated_Source\PSoC6\pdl\drivers/peripheral/gpio/cy_gpio.h **** *
  20:Generated_Source\PSoC6\pdl\drivers/peripheral/gpio/cy_gpio.h **** * The functions and other declarations used in this driver are in cy_gpio.h. 
  21:Generated_Source\PSoC6\pdl\drivers/peripheral/gpio/cy_gpio.h **** * You can include cy_pdl.h (ModusToolbox only) to get access to all functions 
  22:Generated_Source\PSoC6\pdl\drivers/peripheral/gpio/cy_gpio.h **** * and declarations in the PDL.
  23:Generated_Source\PSoC6\pdl\drivers/peripheral/gpio/cy_gpio.h **** *
  24:Generated_Source\PSoC6\pdl\drivers/peripheral/gpio/cy_gpio.h **** * IO pins include all general purpose types such as GPIO, SIO, HSIO, AUXIO, and
  25:Generated_Source\PSoC6\pdl\drivers/peripheral/gpio/cy_gpio.h **** * their variants.
  26:Generated_Source\PSoC6\pdl\drivers/peripheral/gpio/cy_gpio.h **** *
  27:Generated_Source\PSoC6\pdl\drivers/peripheral/gpio/cy_gpio.h **** * Initialization can be performed either at the port level or by configuring the
  28:Generated_Source\PSoC6\pdl\drivers/peripheral/gpio/cy_gpio.h **** * individual pins. For efficient use of code space, port
  29:Generated_Source\PSoC6\pdl\drivers/peripheral/gpio/cy_gpio.h **** * configuration should be used in the field. Refer to the product device header files 
  30:Generated_Source\PSoC6\pdl\drivers/peripheral/gpio/cy_gpio.h **** * for the list of supported ports and pins.
  31:Generated_Source\PSoC6\pdl\drivers/peripheral/gpio/cy_gpio.h **** * 
  32:Generated_Source\PSoC6\pdl\drivers/peripheral/gpio/cy_gpio.h **** * - Single pin configuration is performed by using \ref Cy_GPIO_Pin_FastInit 
  33:Generated_Source\PSoC6\pdl\drivers/peripheral/gpio/cy_gpio.h **** *   (provide specific values) or \ref Cy_GPIO_Pin_Init (provide a filled
  34:Generated_Source\PSoC6\pdl\drivers/peripheral/gpio/cy_gpio.h **** *   cy_stc_gpio_pin_config_t structure).
  35:Generated_Source\PSoC6\pdl\drivers/peripheral/gpio/cy_gpio.h **** * - An entire port can be configured using \ref Cy_GPIO_Port_Init. Provide a filled 
  36:Generated_Source\PSoC6\pdl\drivers/peripheral/gpio/cy_gpio.h **** *   cy_stc_gpio_prt_config_t structure. The values in the structure are 
  37:Generated_Source\PSoC6\pdl\drivers/peripheral/gpio/cy_gpio.h **** *   bitfields representing the desired value for each pin in the port.
  38:Generated_Source\PSoC6\pdl\drivers/peripheral/gpio/cy_gpio.h **** * - Pin configuration and management is based on the port address and pin number.
  39:Generated_Source\PSoC6\pdl\drivers/peripheral/gpio/cy_gpio.h **** *   \ref Cy_GPIO_PortToAddr function can optionally be used to calculate the port
  40:Generated_Source\PSoC6\pdl\drivers/peripheral/gpio/cy_gpio.h **** *   address from the port number at run-time.
  41:Generated_Source\PSoC6\pdl\drivers/peripheral/gpio/cy_gpio.h **** *
  42:Generated_Source\PSoC6\pdl\drivers/peripheral/gpio/cy_gpio.h **** * Once the pin/port initialization is complete, each pin can be accessed by 
  43:Generated_Source\PSoC6\pdl\drivers/peripheral/gpio/cy_gpio.h **** * specifying the port (GPIO_PRT_Type) and the pin (0-7) in the provided API 
  44:Generated_Source\PSoC6\pdl\drivers/peripheral/gpio/cy_gpio.h **** * functions.
  45:Generated_Source\PSoC6\pdl\drivers/peripheral/gpio/cy_gpio.h **** *
  46:Generated_Source\PSoC6\pdl\drivers/peripheral/gpio/cy_gpio.h **** * \section group_gpio_configuration Configuration Considerations
  47:Generated_Source\PSoC6\pdl\drivers/peripheral/gpio/cy_gpio.h **** *
  48:Generated_Source\PSoC6\pdl\drivers/peripheral/gpio/cy_gpio.h **** * 1. Pin multiplexing is controlled through the High-Speed IO Matrix (HSIOM) selection.
  49:Generated_Source\PSoC6\pdl\drivers/peripheral/gpio/cy_gpio.h **** *    This allows the pin to connect to signal sources/sinks throughout the device,
  50:Generated_Source\PSoC6\pdl\drivers/peripheral/gpio/cy_gpio.h **** *    as defined by the pin HSIOM selection options (en_hsiom_sel_t).
  51:Generated_Source\PSoC6\pdl\drivers/peripheral/gpio/cy_gpio.h **** * 2. All pins are initialized to High-Z drive mode with HSIOM connected to CPU (SW
  52:Generated_Source\PSoC6\pdl\drivers/peripheral/gpio/cy_gpio.h **** *    control digital pin only) at Power-On-Reset(POR).
  53:Generated_Source\PSoC6\pdl\drivers/peripheral/gpio/cy_gpio.h **** * 3. Some API functions perform read-modify-write operations on shared port
  54:Generated_Source\PSoC6\pdl\drivers/peripheral/gpio/cy_gpio.h **** *    registers. These functions are not thread safe and care must be taken when
  55:Generated_Source\PSoC6\pdl\drivers/peripheral/gpio/cy_gpio.h **** *    called by the application.
  56:Generated_Source\PSoC6\pdl\drivers/peripheral/gpio/cy_gpio.h **** * 4. Digital input buffer provides a high-impedance buffer for the external 
  57:Generated_Source\PSoC6\pdl\drivers/peripheral/gpio/cy_gpio.h **** *    digital input. The input buffer is connected to the HSIOM for routing to 
  58:Generated_Source\PSoC6\pdl\drivers/peripheral/gpio/cy_gpio.h **** *    the CPU port registers and selected peripheral. Enabling the input 
ARM GAS  C:\Users\dmr85\AppData\Local\Temp\ccCZSREw.s 			page 16


  59:Generated_Source\PSoC6\pdl\drivers/peripheral/gpio/cy_gpio.h **** *    buffer provides possibility to read the pin state via the CPU.
  60:Generated_Source\PSoC6\pdl\drivers/peripheral/gpio/cy_gpio.h **** *    If pin is connected to an analog signal, the input buffer should be 
  61:Generated_Source\PSoC6\pdl\drivers/peripheral/gpio/cy_gpio.h **** *    disabled to avoid crowbar currents. For more information refer to device 
  62:Generated_Source\PSoC6\pdl\drivers/peripheral/gpio/cy_gpio.h **** *    TRM and the device datasheet.
  63:Generated_Source\PSoC6\pdl\drivers/peripheral/gpio/cy_gpio.h **** *
  64:Generated_Source\PSoC6\pdl\drivers/peripheral/gpio/cy_gpio.h **** * Multiple pins on a port can be updated using direct port register writes with an
  65:Generated_Source\PSoC6\pdl\drivers/peripheral/gpio/cy_gpio.h **** * appropriate port mask. An example is shown below, highlighting the different ways of 
  66:Generated_Source\PSoC6\pdl\drivers/peripheral/gpio/cy_gpio.h **** * configuring Port 1 pins using:
  67:Generated_Source\PSoC6\pdl\drivers/peripheral/gpio/cy_gpio.h **** * 
  68:Generated_Source\PSoC6\pdl\drivers/peripheral/gpio/cy_gpio.h **** * - Port output data register
  69:Generated_Source\PSoC6\pdl\drivers/peripheral/gpio/cy_gpio.h **** * - Port output data set register
  70:Generated_Source\PSoC6\pdl\drivers/peripheral/gpio/cy_gpio.h **** * - Port output data clear register
  71:Generated_Source\PSoC6\pdl\drivers/peripheral/gpio/cy_gpio.h **** *
  72:Generated_Source\PSoC6\pdl\drivers/peripheral/gpio/cy_gpio.h **** * \snippet gpio/gpio_v1_10_sut_01.cydsn/main_cm4.c Cy_GPIO_Snippet
  73:Generated_Source\PSoC6\pdl\drivers/peripheral/gpio/cy_gpio.h **** *
  74:Generated_Source\PSoC6\pdl\drivers/peripheral/gpio/cy_gpio.h **** * \section group_gpio_more_information More Information
  75:Generated_Source\PSoC6\pdl\drivers/peripheral/gpio/cy_gpio.h **** *
  76:Generated_Source\PSoC6\pdl\drivers/peripheral/gpio/cy_gpio.h **** * Refer to the technical reference manual (TRM) and the device datasheet.
  77:Generated_Source\PSoC6\pdl\drivers/peripheral/gpio/cy_gpio.h **** *
  78:Generated_Source\PSoC6\pdl\drivers/peripheral/gpio/cy_gpio.h **** * \section group_gpio_MISRA MISRA-C Compliance
  79:Generated_Source\PSoC6\pdl\drivers/peripheral/gpio/cy_gpio.h **** * The GPIO driver has the following specific deviations:
  80:Generated_Source\PSoC6\pdl\drivers/peripheral/gpio/cy_gpio.h **** *
  81:Generated_Source\PSoC6\pdl\drivers/peripheral/gpio/cy_gpio.h **** * <table class="doxtable">
  82:Generated_Source\PSoC6\pdl\drivers/peripheral/gpio/cy_gpio.h **** *   <tr>
  83:Generated_Source\PSoC6\pdl\drivers/peripheral/gpio/cy_gpio.h **** *     <th>MISRA Rule</th>
  84:Generated_Source\PSoC6\pdl\drivers/peripheral/gpio/cy_gpio.h **** *     <th>Rule Class (Required/Advisory)</th>
  85:Generated_Source\PSoC6\pdl\drivers/peripheral/gpio/cy_gpio.h **** *     <th>Rule Description</th>
  86:Generated_Source\PSoC6\pdl\drivers/peripheral/gpio/cy_gpio.h **** *     <th>Description of Deviation(s)</th>
  87:Generated_Source\PSoC6\pdl\drivers/peripheral/gpio/cy_gpio.h **** *   </tr>
  88:Generated_Source\PSoC6\pdl\drivers/peripheral/gpio/cy_gpio.h **** *   <tr>
  89:Generated_Source\PSoC6\pdl\drivers/peripheral/gpio/cy_gpio.h **** *     <td>11.4</td>
  90:Generated_Source\PSoC6\pdl\drivers/peripheral/gpio/cy_gpio.h **** *     <td>A</td>
  91:Generated_Source\PSoC6\pdl\drivers/peripheral/gpio/cy_gpio.h **** *     <td>A cast should not be performed between a pointer to object type and
  92:Generated_Source\PSoC6\pdl\drivers/peripheral/gpio/cy_gpio.h **** *         a different pointer to object type.</td>
  93:Generated_Source\PSoC6\pdl\drivers/peripheral/gpio/cy_gpio.h **** *     <td> This code is safe because the elements of both GPIO_PRT_V1_Type and GPIO_PRT_V2_Type 
  94:Generated_Source\PSoC6\pdl\drivers/peripheral/gpio/cy_gpio.h **** *          types have identical alignment.</td>
  95:Generated_Source\PSoC6\pdl\drivers/peripheral/gpio/cy_gpio.h **** *   </tr>
  96:Generated_Source\PSoC6\pdl\drivers/peripheral/gpio/cy_gpio.h **** *   <tr>
  97:Generated_Source\PSoC6\pdl\drivers/peripheral/gpio/cy_gpio.h **** *     <td>16.7</td>
  98:Generated_Source\PSoC6\pdl\drivers/peripheral/gpio/cy_gpio.h **** *     <td>A</td>
  99:Generated_Source\PSoC6\pdl\drivers/peripheral/gpio/cy_gpio.h **** *     <td>A pointer parameter in a function prototype should be declared as pointer 
 100:Generated_Source\PSoC6\pdl\drivers/peripheral/gpio/cy_gpio.h **** *         to const if the pointer is not used to modify the addressed object.</td>
 101:Generated_Source\PSoC6\pdl\drivers/peripheral/gpio/cy_gpio.h **** *     <td>The objects pointed to by the base addresses of the GPIO port are not always modified.
 102:Generated_Source\PSoC6\pdl\drivers/peripheral/gpio/cy_gpio.h **** *         While a const qualifier can be used in select scenarios, it brings little benefit
 103:Generated_Source\PSoC6\pdl\drivers/peripheral/gpio/cy_gpio.h **** *         in adding this to the affected functions. </td>
 104:Generated_Source\PSoC6\pdl\drivers/peripheral/gpio/cy_gpio.h **** *   </tr>
 105:Generated_Source\PSoC6\pdl\drivers/peripheral/gpio/cy_gpio.h **** * </table>
 106:Generated_Source\PSoC6\pdl\drivers/peripheral/gpio/cy_gpio.h **** *
 107:Generated_Source\PSoC6\pdl\drivers/peripheral/gpio/cy_gpio.h **** * \section group_gpio_changelog Changelog
 108:Generated_Source\PSoC6\pdl\drivers/peripheral/gpio/cy_gpio.h **** * <table class="doxtable">
 109:Generated_Source\PSoC6\pdl\drivers/peripheral/gpio/cy_gpio.h **** *   <tr><th>Version</th><th>Changes</th><th>Reason for Change</th></tr>
 110:Generated_Source\PSoC6\pdl\drivers/peripheral/gpio/cy_gpio.h **** *   <tr>
 111:Generated_Source\PSoC6\pdl\drivers/peripheral/gpio/cy_gpio.h **** *     <td rowspan="3">1.20</td>
 112:Generated_Source\PSoC6\pdl\drivers/peripheral/gpio/cy_gpio.h **** *     <td>Flattened the organization of the driver source code into the single source directory and
 113:Generated_Source\PSoC6\pdl\drivers/peripheral/gpio/cy_gpio.h **** *     <td>Driver library directory-structure simplification.</td>
 114:Generated_Source\PSoC6\pdl\drivers/peripheral/gpio/cy_gpio.h **** *   </tr>
 115:Generated_Source\PSoC6\pdl\drivers/peripheral/gpio/cy_gpio.h **** *   <tr>
ARM GAS  C:\Users\dmr85\AppData\Local\Temp\ccCZSREw.s 			page 17


 116:Generated_Source\PSoC6\pdl\drivers/peripheral/gpio/cy_gpio.h **** *     <td>Added the functions for configuring the AMux bus splitter switch cells:
 117:Generated_Source\PSoC6\pdl\drivers/peripheral/gpio/cy_gpio.h **** *     - \ref Cy_GPIO_SetAmuxSplit
 118:Generated_Source\PSoC6\pdl\drivers/peripheral/gpio/cy_gpio.h **** *     - \ref Cy_GPIO_GetAmuxSplit
 119:Generated_Source\PSoC6\pdl\drivers/peripheral/gpio/cy_gpio.h **** *     </td>
 120:Generated_Source\PSoC6\pdl\drivers/peripheral/gpio/cy_gpio.h **** *     <td>Added a new functionality related to AMux bus.</td>
 121:Generated_Source\PSoC6\pdl\drivers/peripheral/gpio/cy_gpio.h **** *   </tr>
 122:Generated_Source\PSoC6\pdl\drivers/peripheral/gpio/cy_gpio.h **** *   <tr>
 123:Generated_Source\PSoC6\pdl\drivers/peripheral/gpio/cy_gpio.h **** *     <td>Added register access layer. Use register access macros instead
 124:Generated_Source\PSoC6\pdl\drivers/peripheral/gpio/cy_gpio.h **** *         of direct register access using dereferenced pointers.</td>
 125:Generated_Source\PSoC6\pdl\drivers/peripheral/gpio/cy_gpio.h **** *     <td>Makes register access device-independent, so that the PDL does 
 126:Generated_Source\PSoC6\pdl\drivers/peripheral/gpio/cy_gpio.h **** *         not need to be recompiled for each supported part number.</td>
 127:Generated_Source\PSoC6\pdl\drivers/peripheral/gpio/cy_gpio.h **** *   </tr>
 128:Generated_Source\PSoC6\pdl\drivers/peripheral/gpio/cy_gpio.h **** *   <tr>
 129:Generated_Source\PSoC6\pdl\drivers/peripheral/gpio/cy_gpio.h **** *     <td>1.10.1</td>
 130:Generated_Source\PSoC6\pdl\drivers/peripheral/gpio/cy_gpio.h **** *     <td>Updated description for the functions: \ref Cy_GPIO_GetInterruptStatus, 
 131:Generated_Source\PSoC6\pdl\drivers/peripheral/gpio/cy_gpio.h **** *         \ref Cy_GPIO_GetInterruptMask, \ref Cy_GPIO_GetInterruptStatusMasked.
 132:Generated_Source\PSoC6\pdl\drivers/peripheral/gpio/cy_gpio.h **** *
 133:Generated_Source\PSoC6\pdl\drivers/peripheral/gpio/cy_gpio.h **** *         Minor documentation edits.
 134:Generated_Source\PSoC6\pdl\drivers/peripheral/gpio/cy_gpio.h **** *     </td>
 135:Generated_Source\PSoC6\pdl\drivers/peripheral/gpio/cy_gpio.h **** *     <td>Documentation update and clarification</td>
 136:Generated_Source\PSoC6\pdl\drivers/peripheral/gpio/cy_gpio.h **** *   </tr>
 137:Generated_Source\PSoC6\pdl\drivers/peripheral/gpio/cy_gpio.h **** *   <tr>
 138:Generated_Source\PSoC6\pdl\drivers/peripheral/gpio/cy_gpio.h **** *     <td>1.10</td>
 139:Generated_Source\PSoC6\pdl\drivers/peripheral/gpio/cy_gpio.h **** *     <td>Added input parameter validation to the API functions</td>
 140:Generated_Source\PSoC6\pdl\drivers/peripheral/gpio/cy_gpio.h **** *     <td></td>
 141:Generated_Source\PSoC6\pdl\drivers/peripheral/gpio/cy_gpio.h **** *   </tr>
 142:Generated_Source\PSoC6\pdl\drivers/peripheral/gpio/cy_gpio.h **** *   <tr>
 143:Generated_Source\PSoC6\pdl\drivers/peripheral/gpio/cy_gpio.h **** *     <td>1.0</td>
 144:Generated_Source\PSoC6\pdl\drivers/peripheral/gpio/cy_gpio.h **** *     <td>Initial version</td>
 145:Generated_Source\PSoC6\pdl\drivers/peripheral/gpio/cy_gpio.h **** *     <td></td>
 146:Generated_Source\PSoC6\pdl\drivers/peripheral/gpio/cy_gpio.h **** *   </tr>
 147:Generated_Source\PSoC6\pdl\drivers/peripheral/gpio/cy_gpio.h **** * </table>
 148:Generated_Source\PSoC6\pdl\drivers/peripheral/gpio/cy_gpio.h **** *
 149:Generated_Source\PSoC6\pdl\drivers/peripheral/gpio/cy_gpio.h **** * \defgroup group_gpio_macros Macros
 150:Generated_Source\PSoC6\pdl\drivers/peripheral/gpio/cy_gpio.h **** * \defgroup group_gpio_functions Functions
 151:Generated_Source\PSoC6\pdl\drivers/peripheral/gpio/cy_gpio.h **** * \{
 152:Generated_Source\PSoC6\pdl\drivers/peripheral/gpio/cy_gpio.h **** *   \defgroup group_gpio_functions_init       Initialization Functions
 153:Generated_Source\PSoC6\pdl\drivers/peripheral/gpio/cy_gpio.h **** *   \defgroup group_gpio_functions_gpio       GPIO Functions
 154:Generated_Source\PSoC6\pdl\drivers/peripheral/gpio/cy_gpio.h **** *   \defgroup group_gpio_functions_sio        SIO Functions
 155:Generated_Source\PSoC6\pdl\drivers/peripheral/gpio/cy_gpio.h **** *   \defgroup group_gpio_functions_interrupt  Port Interrupt Functions
 156:Generated_Source\PSoC6\pdl\drivers/peripheral/gpio/cy_gpio.h **** * \}
 157:Generated_Source\PSoC6\pdl\drivers/peripheral/gpio/cy_gpio.h **** * \defgroup group_gpio_data_structures Data Structures
 158:Generated_Source\PSoC6\pdl\drivers/peripheral/gpio/cy_gpio.h **** * \defgroup group_gpio_enums Enumerated Types
 159:Generated_Source\PSoC6\pdl\drivers/peripheral/gpio/cy_gpio.h **** */
 160:Generated_Source\PSoC6\pdl\drivers/peripheral/gpio/cy_gpio.h **** 
 161:Generated_Source\PSoC6\pdl\drivers/peripheral/gpio/cy_gpio.h **** #if !defined(CY_GPIO_H)
 162:Generated_Source\PSoC6\pdl\drivers/peripheral/gpio/cy_gpio.h **** #define CY_GPIO_H
 163:Generated_Source\PSoC6\pdl\drivers/peripheral/gpio/cy_gpio.h **** 
 164:Generated_Source\PSoC6\pdl\drivers/peripheral/gpio/cy_gpio.h **** #include <stddef.h>
 165:Generated_Source\PSoC6\pdl\drivers/peripheral/gpio/cy_gpio.h **** #include "cy_device.h"
 166:Generated_Source\PSoC6\pdl\drivers/peripheral/gpio/cy_gpio.h **** #include "cy_device_headers.h"
 167:Generated_Source\PSoC6\pdl\drivers/peripheral/gpio/cy_gpio.h **** #include "cy_syslib.h"
 168:Generated_Source\PSoC6\pdl\drivers/peripheral/gpio/cy_gpio.h **** 
 169:Generated_Source\PSoC6\pdl\drivers/peripheral/gpio/cy_gpio.h **** #if defined(__cplusplus)
 170:Generated_Source\PSoC6\pdl\drivers/peripheral/gpio/cy_gpio.h **** extern "C" {
 171:Generated_Source\PSoC6\pdl\drivers/peripheral/gpio/cy_gpio.h **** #endif
 172:Generated_Source\PSoC6\pdl\drivers/peripheral/gpio/cy_gpio.h **** 
ARM GAS  C:\Users\dmr85\AppData\Local\Temp\ccCZSREw.s 			page 18


 173:Generated_Source\PSoC6\pdl\drivers/peripheral/gpio/cy_gpio.h **** /** \addtogroup group_gpio_macros
 174:Generated_Source\PSoC6\pdl\drivers/peripheral/gpio/cy_gpio.h **** * \{
 175:Generated_Source\PSoC6\pdl\drivers/peripheral/gpio/cy_gpio.h **** */
 176:Generated_Source\PSoC6\pdl\drivers/peripheral/gpio/cy_gpio.h **** 
 177:Generated_Source\PSoC6\pdl\drivers/peripheral/gpio/cy_gpio.h **** /** Driver major version */
 178:Generated_Source\PSoC6\pdl\drivers/peripheral/gpio/cy_gpio.h **** #define CY_GPIO_DRV_VERSION_MAJOR       1
 179:Generated_Source\PSoC6\pdl\drivers/peripheral/gpio/cy_gpio.h **** 
 180:Generated_Source\PSoC6\pdl\drivers/peripheral/gpio/cy_gpio.h **** /** Driver minor version */
 181:Generated_Source\PSoC6\pdl\drivers/peripheral/gpio/cy_gpio.h **** #define CY_GPIO_DRV_VERSION_MINOR       20
 182:Generated_Source\PSoC6\pdl\drivers/peripheral/gpio/cy_gpio.h **** 
 183:Generated_Source\PSoC6\pdl\drivers/peripheral/gpio/cy_gpio.h **** /** GPIO driver ID */
 184:Generated_Source\PSoC6\pdl\drivers/peripheral/gpio/cy_gpio.h **** #define CY_GPIO_ID CY_PDL_DRV_ID(0x16U)
 185:Generated_Source\PSoC6\pdl\drivers/peripheral/gpio/cy_gpio.h **** 
 186:Generated_Source\PSoC6\pdl\drivers/peripheral/gpio/cy_gpio.h **** /** \} group_gpio_macros */
 187:Generated_Source\PSoC6\pdl\drivers/peripheral/gpio/cy_gpio.h **** 
 188:Generated_Source\PSoC6\pdl\drivers/peripheral/gpio/cy_gpio.h **** 
 189:Generated_Source\PSoC6\pdl\drivers/peripheral/gpio/cy_gpio.h **** /***************************************
 190:Generated_Source\PSoC6\pdl\drivers/peripheral/gpio/cy_gpio.h **** *       Enumerations
 191:Generated_Source\PSoC6\pdl\drivers/peripheral/gpio/cy_gpio.h **** ***************************************/
 192:Generated_Source\PSoC6\pdl\drivers/peripheral/gpio/cy_gpio.h **** /**
 193:Generated_Source\PSoC6\pdl\drivers/peripheral/gpio/cy_gpio.h **** * \addtogroup group_gpio_enums
 194:Generated_Source\PSoC6\pdl\drivers/peripheral/gpio/cy_gpio.h **** * \{
 195:Generated_Source\PSoC6\pdl\drivers/peripheral/gpio/cy_gpio.h **** */
 196:Generated_Source\PSoC6\pdl\drivers/peripheral/gpio/cy_gpio.h **** 
 197:Generated_Source\PSoC6\pdl\drivers/peripheral/gpio/cy_gpio.h **** /** GPIO Driver error codes */
 198:Generated_Source\PSoC6\pdl\drivers/peripheral/gpio/cy_gpio.h **** typedef enum 
 199:Generated_Source\PSoC6\pdl\drivers/peripheral/gpio/cy_gpio.h **** {
 200:Generated_Source\PSoC6\pdl\drivers/peripheral/gpio/cy_gpio.h ****     CY_GPIO_SUCCESS   = 0x00U,                                    /**< Returned successful */
 201:Generated_Source\PSoC6\pdl\drivers/peripheral/gpio/cy_gpio.h ****     CY_GPIO_BAD_PARAM = CY_GPIO_ID | CY_PDL_STATUS_ERROR | 0x01U, /**< Bad parameter was passed */
 202:Generated_Source\PSoC6\pdl\drivers/peripheral/gpio/cy_gpio.h **** } cy_en_gpio_status_t;
 203:Generated_Source\PSoC6\pdl\drivers/peripheral/gpio/cy_gpio.h **** 
 204:Generated_Source\PSoC6\pdl\drivers/peripheral/gpio/cy_gpio.h **** /** AMux switch open/close config */
 205:Generated_Source\PSoC6\pdl\drivers/peripheral/gpio/cy_gpio.h **** typedef enum
 206:Generated_Source\PSoC6\pdl\drivers/peripheral/gpio/cy_gpio.h **** {
 207:Generated_Source\PSoC6\pdl\drivers/peripheral/gpio/cy_gpio.h ****     CY_GPIO_AMUX_OPENALL,   /**< Open ground switch. Open right switch. Open left switch */
 208:Generated_Source\PSoC6\pdl\drivers/peripheral/gpio/cy_gpio.h ****     CY_GPIO_AMUX_L,         /**< Open ground switch. Open right switch. Close left switch */
 209:Generated_Source\PSoC6\pdl\drivers/peripheral/gpio/cy_gpio.h ****     CY_GPIO_AMUX_R,         /**< Open ground switch. Close right switch. Open left switch */
 210:Generated_Source\PSoC6\pdl\drivers/peripheral/gpio/cy_gpio.h ****     CY_GPIO_AMUX_LR,        /**< Open ground switch. Close right switch. Close left switch */
 211:Generated_Source\PSoC6\pdl\drivers/peripheral/gpio/cy_gpio.h ****     CY_GPIO_AMUX_G,         /**< Close ground switch. Open right switch. Open left switch */
 212:Generated_Source\PSoC6\pdl\drivers/peripheral/gpio/cy_gpio.h ****     CY_GPIO_AMUX_GL,        /**< Close ground switch. Open right switch. Close left switch */
 213:Generated_Source\PSoC6\pdl\drivers/peripheral/gpio/cy_gpio.h ****     CY_GPIO_AMUX_GR,        /**< Close ground switch. Close right switch. Open left switch */
 214:Generated_Source\PSoC6\pdl\drivers/peripheral/gpio/cy_gpio.h ****     CY_GPIO_AMUX_GLR,       /**< Close ground switch. Close right switch. Close left switch */
 215:Generated_Source\PSoC6\pdl\drivers/peripheral/gpio/cy_gpio.h **** }cy_en_gpio_amuxconnect_t;
 216:Generated_Source\PSoC6\pdl\drivers/peripheral/gpio/cy_gpio.h **** 
 217:Generated_Source\PSoC6\pdl\drivers/peripheral/gpio/cy_gpio.h **** /**
 218:Generated_Source\PSoC6\pdl\drivers/peripheral/gpio/cy_gpio.h **** * AMux Bus selection
 219:Generated_Source\PSoC6\pdl\drivers/peripheral/gpio/cy_gpio.h **** */
 220:Generated_Source\PSoC6\pdl\drivers/peripheral/gpio/cy_gpio.h **** typedef enum
 221:Generated_Source\PSoC6\pdl\drivers/peripheral/gpio/cy_gpio.h **** {
 222:Generated_Source\PSoC6\pdl\drivers/peripheral/gpio/cy_gpio.h ****     CY_GPIO_AMUXBUSA,       /**< AMuxBus A */
 223:Generated_Source\PSoC6\pdl\drivers/peripheral/gpio/cy_gpio.h ****     CY_GPIO_AMUXBUSB        /**< AMuxBus B */
 224:Generated_Source\PSoC6\pdl\drivers/peripheral/gpio/cy_gpio.h **** }cy_en_gpio_amuxselect_t;
 225:Generated_Source\PSoC6\pdl\drivers/peripheral/gpio/cy_gpio.h **** 
 226:Generated_Source\PSoC6\pdl\drivers/peripheral/gpio/cy_gpio.h **** /** \} group_gpio_enums */
 227:Generated_Source\PSoC6\pdl\drivers/peripheral/gpio/cy_gpio.h **** 
 228:Generated_Source\PSoC6\pdl\drivers/peripheral/gpio/cy_gpio.h **** 
 229:Generated_Source\PSoC6\pdl\drivers/peripheral/gpio/cy_gpio.h **** /***************************************
ARM GAS  C:\Users\dmr85\AppData\Local\Temp\ccCZSREw.s 			page 19


 230:Generated_Source\PSoC6\pdl\drivers/peripheral/gpio/cy_gpio.h **** *       Configuration Structures
 231:Generated_Source\PSoC6\pdl\drivers/peripheral/gpio/cy_gpio.h **** ***************************************/
 232:Generated_Source\PSoC6\pdl\drivers/peripheral/gpio/cy_gpio.h **** 
 233:Generated_Source\PSoC6\pdl\drivers/peripheral/gpio/cy_gpio.h **** /**
 234:Generated_Source\PSoC6\pdl\drivers/peripheral/gpio/cy_gpio.h **** * \addtogroup group_gpio_data_structures
 235:Generated_Source\PSoC6\pdl\drivers/peripheral/gpio/cy_gpio.h **** * \{
 236:Generated_Source\PSoC6\pdl\drivers/peripheral/gpio/cy_gpio.h **** */
 237:Generated_Source\PSoC6\pdl\drivers/peripheral/gpio/cy_gpio.h **** 
 238:Generated_Source\PSoC6\pdl\drivers/peripheral/gpio/cy_gpio.h **** /** This structure is used to initialize a port of GPIO pins */
 239:Generated_Source\PSoC6\pdl\drivers/peripheral/gpio/cy_gpio.h **** typedef struct 
 240:Generated_Source\PSoC6\pdl\drivers/peripheral/gpio/cy_gpio.h **** {
 241:Generated_Source\PSoC6\pdl\drivers/peripheral/gpio/cy_gpio.h ****     uint32_t out;           /**< Initial output data for the IO pins in the port */
 242:Generated_Source\PSoC6\pdl\drivers/peripheral/gpio/cy_gpio.h ****     uint32_t intrMask;      /**< Interrupt enable mask for the port interrupt */
 243:Generated_Source\PSoC6\pdl\drivers/peripheral/gpio/cy_gpio.h ****     uint32_t intrCfg;       /**< Port pin interrupt edge detection configuration */
 244:Generated_Source\PSoC6\pdl\drivers/peripheral/gpio/cy_gpio.h ****     uint32_t cfg;           /**< Port pin drive modes and input buffer enable configuration */
 245:Generated_Source\PSoC6\pdl\drivers/peripheral/gpio/cy_gpio.h ****     uint32_t cfgIn;         /**< Port pin input buffer configuration */
 246:Generated_Source\PSoC6\pdl\drivers/peripheral/gpio/cy_gpio.h ****     uint32_t cfgOut;        /**< Port pin output buffer configuration */
 247:Generated_Source\PSoC6\pdl\drivers/peripheral/gpio/cy_gpio.h ****     uint32_t cfgSIO;        /**< Port SIO pins configuration */
 248:Generated_Source\PSoC6\pdl\drivers/peripheral/gpio/cy_gpio.h ****     uint32_t sel0Active;    /**< HSIOM selection for port pins 0,1,2,3 */
 249:Generated_Source\PSoC6\pdl\drivers/peripheral/gpio/cy_gpio.h ****     uint32_t sel1Active;    /**< HSIOM selection for port pins 4,5,6,7 */
 250:Generated_Source\PSoC6\pdl\drivers/peripheral/gpio/cy_gpio.h **** } cy_stc_gpio_prt_config_t;
 251:Generated_Source\PSoC6\pdl\drivers/peripheral/gpio/cy_gpio.h **** 
 252:Generated_Source\PSoC6\pdl\drivers/peripheral/gpio/cy_gpio.h **** /** This structure is used to initialize a single GPIO pin */
 253:Generated_Source\PSoC6\pdl\drivers/peripheral/gpio/cy_gpio.h **** typedef struct
 254:Generated_Source\PSoC6\pdl\drivers/peripheral/gpio/cy_gpio.h **** {
 255:Generated_Source\PSoC6\pdl\drivers/peripheral/gpio/cy_gpio.h ****     uint32_t outVal;         /**< Pin output state */
 256:Generated_Source\PSoC6\pdl\drivers/peripheral/gpio/cy_gpio.h ****     uint32_t driveMode;      /**< Drive mode */
 257:Generated_Source\PSoC6\pdl\drivers/peripheral/gpio/cy_gpio.h ****     en_hsiom_sel_t hsiom;    /**< HSIOM selection */
 258:Generated_Source\PSoC6\pdl\drivers/peripheral/gpio/cy_gpio.h ****     uint32_t intEdge;        /**< Interrupt Edge type */
 259:Generated_Source\PSoC6\pdl\drivers/peripheral/gpio/cy_gpio.h ****     uint32_t intMask;        /**< Interrupt enable mask */
 260:Generated_Source\PSoC6\pdl\drivers/peripheral/gpio/cy_gpio.h ****     uint32_t vtrip;          /**< Input buffer voltage trip type */
 261:Generated_Source\PSoC6\pdl\drivers/peripheral/gpio/cy_gpio.h ****     uint32_t slewRate;       /**< Output buffer slew rate */
 262:Generated_Source\PSoC6\pdl\drivers/peripheral/gpio/cy_gpio.h ****     uint32_t driveSel;       /**< Drive strength */
 263:Generated_Source\PSoC6\pdl\drivers/peripheral/gpio/cy_gpio.h ****     uint32_t vregEn;         /**< SIO pair output buffer mode */
 264:Generated_Source\PSoC6\pdl\drivers/peripheral/gpio/cy_gpio.h ****     uint32_t ibufMode;       /**< SIO pair input buffer mode */
 265:Generated_Source\PSoC6\pdl\drivers/peripheral/gpio/cy_gpio.h ****     uint32_t vtripSel;       /**< SIO pair input buffer trip point */
 266:Generated_Source\PSoC6\pdl\drivers/peripheral/gpio/cy_gpio.h ****     uint32_t vrefSel;        /**< SIO pair reference voltage for input buffer trip point */
 267:Generated_Source\PSoC6\pdl\drivers/peripheral/gpio/cy_gpio.h ****     uint32_t vohSel;         /**< SIO pair regulated voltage output level */
 268:Generated_Source\PSoC6\pdl\drivers/peripheral/gpio/cy_gpio.h **** } cy_stc_gpio_pin_config_t;
 269:Generated_Source\PSoC6\pdl\drivers/peripheral/gpio/cy_gpio.h **** 
 270:Generated_Source\PSoC6\pdl\drivers/peripheral/gpio/cy_gpio.h **** /** \} group_gpio_data_structures */
 271:Generated_Source\PSoC6\pdl\drivers/peripheral/gpio/cy_gpio.h **** 
 272:Generated_Source\PSoC6\pdl\drivers/peripheral/gpio/cy_gpio.h **** /***************************************
 273:Generated_Source\PSoC6\pdl\drivers/peripheral/gpio/cy_gpio.h **** *        Constants
 274:Generated_Source\PSoC6\pdl\drivers/peripheral/gpio/cy_gpio.h **** ***************************************/
 275:Generated_Source\PSoC6\pdl\drivers/peripheral/gpio/cy_gpio.h **** 
 276:Generated_Source\PSoC6\pdl\drivers/peripheral/gpio/cy_gpio.h **** /** \cond INTERNAL */
 277:Generated_Source\PSoC6\pdl\drivers/peripheral/gpio/cy_gpio.h **** 
 278:Generated_Source\PSoC6\pdl\drivers/peripheral/gpio/cy_gpio.h **** /* General Constants */
 279:Generated_Source\PSoC6\pdl\drivers/peripheral/gpio/cy_gpio.h **** #define CY_GPIO_PRT_HALF                       (4UL)      /**< Half-way point of a GPIO port */
 280:Generated_Source\PSoC6\pdl\drivers/peripheral/gpio/cy_gpio.h **** #define CY_GPIO_PRT_DEINIT                     (0UL)      /**< De-init value for port registers */
 281:Generated_Source\PSoC6\pdl\drivers/peripheral/gpio/cy_gpio.h **** 
 282:Generated_Source\PSoC6\pdl\drivers/peripheral/gpio/cy_gpio.h **** /* GPIO Masks */
 283:Generated_Source\PSoC6\pdl\drivers/peripheral/gpio/cy_gpio.h **** #define CY_GPIO_HSIOM_MASK                     (0x1FUL)   /**< HSIOM selection mask */
 284:Generated_Source\PSoC6\pdl\drivers/peripheral/gpio/cy_gpio.h **** #define CY_GPIO_OUT_MASK                       (0x01UL)   /**< Single pin mask for OUT register */
 285:Generated_Source\PSoC6\pdl\drivers/peripheral/gpio/cy_gpio.h **** #define CY_GPIO_IN_MASK                        (0x01UL)   /**< Single pin mask for IN register */
 286:Generated_Source\PSoC6\pdl\drivers/peripheral/gpio/cy_gpio.h **** #define CY_GPIO_CFG_DM_MASK                    (0x0FUL)   /**< Single pin mask for drive mode in CF
ARM GAS  C:\Users\dmr85\AppData\Local\Temp\ccCZSREw.s 			page 20


 287:Generated_Source\PSoC6\pdl\drivers/peripheral/gpio/cy_gpio.h **** #define CY_GPIO_CFG_IN_VTRIP_SEL_MASK          (0x01UL)   /**< Single pin mask for VTRIP selection 
 288:Generated_Source\PSoC6\pdl\drivers/peripheral/gpio/cy_gpio.h **** #define CY_GPIO_CFG_OUT_SLOW_MASK              (0x01UL)   /**< Single pin mask for slew rate in CFG
 289:Generated_Source\PSoC6\pdl\drivers/peripheral/gpio/cy_gpio.h **** #define CY_GPIO_CFG_OUT_DRIVE_SEL_MASK         (0x03UL)   /**< Single pin mask for drive strength i
 290:Generated_Source\PSoC6\pdl\drivers/peripheral/gpio/cy_gpio.h **** #define CY_GPIO_INTR_STATUS_MASK               (0x01UL)   /**< Single pin mask for interrupt status
 291:Generated_Source\PSoC6\pdl\drivers/peripheral/gpio/cy_gpio.h **** #define CY_GPIO_INTR_EN_MASK                   (0x01UL)   /**< Single pin mask for interrupt status
 292:Generated_Source\PSoC6\pdl\drivers/peripheral/gpio/cy_gpio.h **** #define CY_GPIO_INTR_MASKED_MASK               (0x01UL)   /**< Single pin mask for masked interrupt
 293:Generated_Source\PSoC6\pdl\drivers/peripheral/gpio/cy_gpio.h **** #define CY_GPIO_INTR_SET_MASK                  (0x01UL)   /**< Single pin mask for setting the inte
 294:Generated_Source\PSoC6\pdl\drivers/peripheral/gpio/cy_gpio.h **** #define CY_GPIO_INTR_EDGE_MASK                 (0x03UL)   /**< Single pin mask for interrupt edge t
 295:Generated_Source\PSoC6\pdl\drivers/peripheral/gpio/cy_gpio.h **** #define CY_GPIO_INTR_FLT_EDGE_MASK             (0x07UL)   /**< Single pin mask for setting filtered
 296:Generated_Source\PSoC6\pdl\drivers/peripheral/gpio/cy_gpio.h **** 
 297:Generated_Source\PSoC6\pdl\drivers/peripheral/gpio/cy_gpio.h **** /* SIO Masks */
 298:Generated_Source\PSoC6\pdl\drivers/peripheral/gpio/cy_gpio.h **** #define CY_GPIO_VREG_EN_MASK                   (0x01UL)   /**< Single SIO pin mask for voltage regu
 299:Generated_Source\PSoC6\pdl\drivers/peripheral/gpio/cy_gpio.h **** #define CY_GPIO_IBUF_MASK                      (0x01UL)   /**< Single SIO pin mask for input buffer
 300:Generated_Source\PSoC6\pdl\drivers/peripheral/gpio/cy_gpio.h **** #define CY_GPIO_IBUF_SHIFT                     (0x01UL)   /**< Single SIO pin shift for input buffe
 301:Generated_Source\PSoC6\pdl\drivers/peripheral/gpio/cy_gpio.h **** #define CY_GPIO_VTRIP_SEL_MASK                 (0x01UL)   /**< Single SIO pin mask for the input bu
 302:Generated_Source\PSoC6\pdl\drivers/peripheral/gpio/cy_gpio.h **** #define CY_GPIO_VTRIP_SEL_SHIFT                (0x02UL)   /**< Single SIO pin shift for the input b
 303:Generated_Source\PSoC6\pdl\drivers/peripheral/gpio/cy_gpio.h **** #define CY_GPIO_VREF_SEL_MASK                  (0x03UL)   /**< Single SIO pin mask for voltage refe
 304:Generated_Source\PSoC6\pdl\drivers/peripheral/gpio/cy_gpio.h **** #define CY_GPIO_VREF_SEL_SHIFT                 (0x03UL)   /**< Single SIO pin shift for voltage ref
 305:Generated_Source\PSoC6\pdl\drivers/peripheral/gpio/cy_gpio.h **** #define CY_GPIO_VOH_SEL_MASK                   (0x07UL)   /**< Single SIO pin mask for VOH */
 306:Generated_Source\PSoC6\pdl\drivers/peripheral/gpio/cy_gpio.h **** #define CY_GPIO_VOH_SEL_SHIFT                  (0x05UL)   /**< Single SIO pin shift for VOH */
 307:Generated_Source\PSoC6\pdl\drivers/peripheral/gpio/cy_gpio.h **** 
 308:Generated_Source\PSoC6\pdl\drivers/peripheral/gpio/cy_gpio.h **** /* Special mask for SIO pin pair setting */
 309:Generated_Source\PSoC6\pdl\drivers/peripheral/gpio/cy_gpio.h **** #define CY_GPIO_SIO_ODD_PIN_MASK               (0x00FEUL) /**< SIO pin pair selection mask */
 310:Generated_Source\PSoC6\pdl\drivers/peripheral/gpio/cy_gpio.h **** #define CY_GPIO_SIO_PIN_MASK                   (0x00FFUL) /**< SIO pin pair mask */
 311:Generated_Source\PSoC6\pdl\drivers/peripheral/gpio/cy_gpio.h **** 
 312:Generated_Source\PSoC6\pdl\drivers/peripheral/gpio/cy_gpio.h **** /* Offsets */
 313:Generated_Source\PSoC6\pdl\drivers/peripheral/gpio/cy_gpio.h **** #define CY_GPIO_HSIOM_OFFSET                   (3UL)      /**< Offset for HSIOM */
 314:Generated_Source\PSoC6\pdl\drivers/peripheral/gpio/cy_gpio.h **** #define CY_GPIO_DRIVE_MODE_OFFSET              (2UL)      /**< Offset for Drive mode */
 315:Generated_Source\PSoC6\pdl\drivers/peripheral/gpio/cy_gpio.h **** #define CY_GPIO_INBUF_OFFSET                   (3UL)      /**< Offset for input buffer */
 316:Generated_Source\PSoC6\pdl\drivers/peripheral/gpio/cy_gpio.h **** #define CY_GPIO_CFG_OUT_DRIVE_OFFSET           (16UL)     /**< Offset for drive strength */
 317:Generated_Source\PSoC6\pdl\drivers/peripheral/gpio/cy_gpio.h **** #define CY_GPIO_INTR_CFG_OFFSET                (1UL)      /**< Offset for interrupt config */
 318:Generated_Source\PSoC6\pdl\drivers/peripheral/gpio/cy_gpio.h **** #define CY_GPIO_INTR_FILT_OFFSET               (18UL)     /**< Offset for filtered interrupt config
 319:Generated_Source\PSoC6\pdl\drivers/peripheral/gpio/cy_gpio.h **** #define CY_GPIO_CFG_SIO_OFFSET                 (2UL)      /**< Offset for SIO config */
 320:Generated_Source\PSoC6\pdl\drivers/peripheral/gpio/cy_gpio.h **** 
 321:Generated_Source\PSoC6\pdl\drivers/peripheral/gpio/cy_gpio.h **** /* Parameter validation constants */
 322:Generated_Source\PSoC6\pdl\drivers/peripheral/gpio/cy_gpio.h **** #define CY_GPIO_PINS_MAX                       (8UL)      /**< Number of pins in the port */
 323:Generated_Source\PSoC6\pdl\drivers/peripheral/gpio/cy_gpio.h **** #define CY_GPIO_PRT_PINS_MASK                  (0x0000000FFUL)
 324:Generated_Source\PSoC6\pdl\drivers/peripheral/gpio/cy_gpio.h **** #define CY_GPIO_PRT_INTR_CFG_EDGE_SEL_MASK     (GPIO_PRT_INTR_CFG_EDGE0_SEL_Msk | \
 325:Generated_Source\PSoC6\pdl\drivers/peripheral/gpio/cy_gpio.h ****                                                 GPIO_PRT_INTR_CFG_EDGE1_SEL_Msk | \
 326:Generated_Source\PSoC6\pdl\drivers/peripheral/gpio/cy_gpio.h ****                                                 GPIO_PRT_INTR_CFG_EDGE2_SEL_Msk | \
 327:Generated_Source\PSoC6\pdl\drivers/peripheral/gpio/cy_gpio.h ****                                                 GPIO_PRT_INTR_CFG_EDGE3_SEL_Msk | \
 328:Generated_Source\PSoC6\pdl\drivers/peripheral/gpio/cy_gpio.h ****                                                 GPIO_PRT_INTR_CFG_EDGE4_SEL_Msk | \
 329:Generated_Source\PSoC6\pdl\drivers/peripheral/gpio/cy_gpio.h ****                                                 GPIO_PRT_INTR_CFG_EDGE5_SEL_Msk | \
 330:Generated_Source\PSoC6\pdl\drivers/peripheral/gpio/cy_gpio.h ****                                                 GPIO_PRT_INTR_CFG_EDGE6_SEL_Msk | \
 331:Generated_Source\PSoC6\pdl\drivers/peripheral/gpio/cy_gpio.h ****                                                 GPIO_PRT_INTR_CFG_EDGE7_SEL_Msk)
 332:Generated_Source\PSoC6\pdl\drivers/peripheral/gpio/cy_gpio.h **** #define CY_GPIO_PRT_INTR_CFG_RANGE_MASK        (CY_GPIO_PRT_INTR_CFG_EDGE_SEL_MASK | \
 333:Generated_Source\PSoC6\pdl\drivers/peripheral/gpio/cy_gpio.h ****                                                 GPIO_PRT_INTR_CFG_FLT_EDGE_SEL_Msk | \
 334:Generated_Source\PSoC6\pdl\drivers/peripheral/gpio/cy_gpio.h ****                                                 GPIO_PRT_INTR_CFG_FLT_SEL_Msk)
 335:Generated_Source\PSoC6\pdl\drivers/peripheral/gpio/cy_gpio.h **** #define CY_GPIO_PRT_INT_MASK_MASK              (0x0000001FFUL)
 336:Generated_Source\PSoC6\pdl\drivers/peripheral/gpio/cy_gpio.h **** #define CY_GPIO_PRT_SEL_ACTIVE_MASK            (0x1FFFFFFFUL)
 337:Generated_Source\PSoC6\pdl\drivers/peripheral/gpio/cy_gpio.h **** 
 338:Generated_Source\PSoC6\pdl\drivers/peripheral/gpio/cy_gpio.h **** #define GPIO_MAX_SPLIT_CELL_SEGMENTS           (9U)
 339:Generated_Source\PSoC6\pdl\drivers/peripheral/gpio/cy_gpio.h **** 
 340:Generated_Source\PSoC6\pdl\drivers/peripheral/gpio/cy_gpio.h **** /* Parameter validation macros */
 341:Generated_Source\PSoC6\pdl\drivers/peripheral/gpio/cy_gpio.h **** #define CY_GPIO_IS_PIN_VALID(pinNum)           (CY_GPIO_PINS_MAX > (pinNum))
 342:Generated_Source\PSoC6\pdl\drivers/peripheral/gpio/cy_gpio.h **** #define CY_GPIO_IS_FILTER_PIN_VALID(pinNum)    (CY_GPIO_PINS_MAX >= (pinNum))
 343:Generated_Source\PSoC6\pdl\drivers/peripheral/gpio/cy_gpio.h **** #define CY_GPIO_IS_VALUE_VALID(outVal)         (1UL >= (outVal))
ARM GAS  C:\Users\dmr85\AppData\Local\Temp\ccCZSREw.s 			page 21


 344:Generated_Source\PSoC6\pdl\drivers/peripheral/gpio/cy_gpio.h **** #define CY_GPIO_IS_DM_VALID(driveMode)         (0U == ((driveMode) & (uint32_t)~CY_GPIO_CFG_DM_MASK
 345:Generated_Source\PSoC6\pdl\drivers/peripheral/gpio/cy_gpio.h **** 
 346:Generated_Source\PSoC6\pdl\drivers/peripheral/gpio/cy_gpio.h **** #define CY_GPIO_IS_HSIOM_VALID(hsiom)          (0U == ((hsiom) & (uint32_t)~CY_GPIO_HSIOM_MASK))
 347:Generated_Source\PSoC6\pdl\drivers/peripheral/gpio/cy_gpio.h **** 
 348:Generated_Source\PSoC6\pdl\drivers/peripheral/gpio/cy_gpio.h **** #define CY_GPIO_IS_INT_EDGE_VALID(intEdge)     ((CY_GPIO_INTR_DISABLE  == (intEdge)) || \
 349:Generated_Source\PSoC6\pdl\drivers/peripheral/gpio/cy_gpio.h ****                                                 (CY_GPIO_INTR_RISING   == (intEdge)) || \
 350:Generated_Source\PSoC6\pdl\drivers/peripheral/gpio/cy_gpio.h ****                                                 (CY_GPIO_INTR_FALLING  == (intEdge)) || \
 351:Generated_Source\PSoC6\pdl\drivers/peripheral/gpio/cy_gpio.h ****                                                 (CY_GPIO_INTR_BOTH     == (intEdge)))
 352:Generated_Source\PSoC6\pdl\drivers/peripheral/gpio/cy_gpio.h **** 
 353:Generated_Source\PSoC6\pdl\drivers/peripheral/gpio/cy_gpio.h **** #define CY_GPIO_IS_DRIVE_SEL_VALID(driveSel)   ((CY_GPIO_DRIVE_FULL    == (driveSel)) || \
 354:Generated_Source\PSoC6\pdl\drivers/peripheral/gpio/cy_gpio.h ****                                                 (CY_GPIO_DRIVE_1_2     == (driveSel)) || \
 355:Generated_Source\PSoC6\pdl\drivers/peripheral/gpio/cy_gpio.h ****                                                 (CY_GPIO_DRIVE_1_4     == (driveSel)) || \
 356:Generated_Source\PSoC6\pdl\drivers/peripheral/gpio/cy_gpio.h ****                                                 (CY_GPIO_DRIVE_1_8     == (driveSel)))
 357:Generated_Source\PSoC6\pdl\drivers/peripheral/gpio/cy_gpio.h **** 
 358:Generated_Source\PSoC6\pdl\drivers/peripheral/gpio/cy_gpio.h **** #define CY_GPIO_IS_VREF_SEL_VALID(vrefSel)     ((CY_SIO_VREF_PINREF    == (vrefSel)) || \
 359:Generated_Source\PSoC6\pdl\drivers/peripheral/gpio/cy_gpio.h ****                                                 (CY_SIO_VREF_1_2V      == (vrefSel)) || \
 360:Generated_Source\PSoC6\pdl\drivers/peripheral/gpio/cy_gpio.h ****                                                 (CY_SIO_VREF_AMUX_A    == (vrefSel)) || \
 361:Generated_Source\PSoC6\pdl\drivers/peripheral/gpio/cy_gpio.h ****                                                 (CY_SIO_VREF_AMUX_B    == (vrefSel)))
 362:Generated_Source\PSoC6\pdl\drivers/peripheral/gpio/cy_gpio.h **** 
 363:Generated_Source\PSoC6\pdl\drivers/peripheral/gpio/cy_gpio.h **** #define CY_GPIO_IS_VOH_SEL_VALID(vrefSel)      ((CY_SIO_VOH_1_00       == (vrefSel)) || \
 364:Generated_Source\PSoC6\pdl\drivers/peripheral/gpio/cy_gpio.h ****                                                 (CY_SIO_VOH_1_25       == (vrefSel)) || \
 365:Generated_Source\PSoC6\pdl\drivers/peripheral/gpio/cy_gpio.h ****                                                 (CY_SIO_VOH_1_49       == (vrefSel)) || \
 366:Generated_Source\PSoC6\pdl\drivers/peripheral/gpio/cy_gpio.h ****                                                 (CY_SIO_VOH_1_67       == (vrefSel)) || \
 367:Generated_Source\PSoC6\pdl\drivers/peripheral/gpio/cy_gpio.h ****                                                 (CY_SIO_VOH_2_08       == (vrefSel)) || \
 368:Generated_Source\PSoC6\pdl\drivers/peripheral/gpio/cy_gpio.h ****                                                 (CY_SIO_VOH_2_50       == (vrefSel)) || \
 369:Generated_Source\PSoC6\pdl\drivers/peripheral/gpio/cy_gpio.h ****                                                 (CY_SIO_VOH_2_78       == (vrefSel)) || \
 370:Generated_Source\PSoC6\pdl\drivers/peripheral/gpio/cy_gpio.h ****                                                 (CY_SIO_VOH_4_16       == (vrefSel)))
 371:Generated_Source\PSoC6\pdl\drivers/peripheral/gpio/cy_gpio.h ****                    
 372:Generated_Source\PSoC6\pdl\drivers/peripheral/gpio/cy_gpio.h **** #define CY_GPIO_IS_PIN_BIT_VALID(pinBit)       (0U == ((pinBit) & (uint32_t)~CY_GPIO_PRT_PINS_MASK)
 373:Generated_Source\PSoC6\pdl\drivers/peripheral/gpio/cy_gpio.h **** #define CY_GPIO_IS_INTR_CFG_VALID(intrCfg)     (0U == ((intrCfg) & (uint32_t)~CY_GPIO_PRT_INTR_CFG_
 374:Generated_Source\PSoC6\pdl\drivers/peripheral/gpio/cy_gpio.h **** #define CY_GPIO_IS_INTR_MASK_VALID(intrMask)   (0U == ((intrMask) & (uint32_t)~CY_GPIO_PRT_INT_MASK
 375:Generated_Source\PSoC6\pdl\drivers/peripheral/gpio/cy_gpio.h **** #define CY_GPIO_IS_SEL_ACT_VALID(selActive)    (0U == ((selActive) & (uint32_t)~CY_GPIO_PRT_SEL_ACT
 376:Generated_Source\PSoC6\pdl\drivers/peripheral/gpio/cy_gpio.h **** 
 377:Generated_Source\PSoC6\pdl\drivers/peripheral/gpio/cy_gpio.h **** #define CY_GPIO_IS_AMUX_SPLIT_VALID(switchCtrl)       (((uint32_t) (switchCtrl)) < GPIO_MAX_SPLIT_C
 378:Generated_Source\PSoC6\pdl\drivers/peripheral/gpio/cy_gpio.h **** 
 379:Generated_Source\PSoC6\pdl\drivers/peripheral/gpio/cy_gpio.h **** #define CY_GPIO_IS_AMUX_CONNECT_VALID(amuxConnect)    ((CY_GPIO_AMUX_OPENALL == (amuxConnect)) || \
 380:Generated_Source\PSoC6\pdl\drivers/peripheral/gpio/cy_gpio.h ****                                                        (CY_GPIO_AMUX_L       == (amuxConnect)) || \
 381:Generated_Source\PSoC6\pdl\drivers/peripheral/gpio/cy_gpio.h ****                                                        (CY_GPIO_AMUX_R       == (amuxConnect)) || \
 382:Generated_Source\PSoC6\pdl\drivers/peripheral/gpio/cy_gpio.h ****                                                        (CY_GPIO_AMUX_LR      == (amuxConnect)) || \
 383:Generated_Source\PSoC6\pdl\drivers/peripheral/gpio/cy_gpio.h ****                                                        (CY_GPIO_AMUX_G       == (amuxConnect)) || \
 384:Generated_Source\PSoC6\pdl\drivers/peripheral/gpio/cy_gpio.h ****                                                        (CY_GPIO_AMUX_GL      == (amuxConnect)) || \
 385:Generated_Source\PSoC6\pdl\drivers/peripheral/gpio/cy_gpio.h ****                                                        (CY_GPIO_AMUX_GR      == (amuxConnect)) || \
 386:Generated_Source\PSoC6\pdl\drivers/peripheral/gpio/cy_gpio.h ****                                                        (CY_GPIO_AMUX_GLR     == (amuxConnect)))
 387:Generated_Source\PSoC6\pdl\drivers/peripheral/gpio/cy_gpio.h **** 
 388:Generated_Source\PSoC6\pdl\drivers/peripheral/gpio/cy_gpio.h **** #define CY_GPIO_IS_AMUX_SELECT_VALID(amuxBus)       ((CY_GPIO_AMUXBUSA       == (amuxBus)) || \
 389:Generated_Source\PSoC6\pdl\drivers/peripheral/gpio/cy_gpio.h ****                                                      (CY_GPIO_AMUXBUSB       == (amuxBus)))
 390:Generated_Source\PSoC6\pdl\drivers/peripheral/gpio/cy_gpio.h **** /** \endcond */
 391:Generated_Source\PSoC6\pdl\drivers/peripheral/gpio/cy_gpio.h **** 
 392:Generated_Source\PSoC6\pdl\drivers/peripheral/gpio/cy_gpio.h **** 
 393:Generated_Source\PSoC6\pdl\drivers/peripheral/gpio/cy_gpio.h **** /***************************************
 394:Generated_Source\PSoC6\pdl\drivers/peripheral/gpio/cy_gpio.h **** *        Function Constants
 395:Generated_Source\PSoC6\pdl\drivers/peripheral/gpio/cy_gpio.h **** ***************************************/
 396:Generated_Source\PSoC6\pdl\drivers/peripheral/gpio/cy_gpio.h **** 
 397:Generated_Source\PSoC6\pdl\drivers/peripheral/gpio/cy_gpio.h **** /**
 398:Generated_Source\PSoC6\pdl\drivers/peripheral/gpio/cy_gpio.h **** * \addtogroup group_gpio_macros
 399:Generated_Source\PSoC6\pdl\drivers/peripheral/gpio/cy_gpio.h **** * \{
 400:Generated_Source\PSoC6\pdl\drivers/peripheral/gpio/cy_gpio.h **** */
ARM GAS  C:\Users\dmr85\AppData\Local\Temp\ccCZSREw.s 			page 22


 401:Generated_Source\PSoC6\pdl\drivers/peripheral/gpio/cy_gpio.h **** 
 402:Generated_Source\PSoC6\pdl\drivers/peripheral/gpio/cy_gpio.h **** /**
 403:Generated_Source\PSoC6\pdl\drivers/peripheral/gpio/cy_gpio.h **** * \defgroup group_gpio_driveModes Pin drive mode
 404:Generated_Source\PSoC6\pdl\drivers/peripheral/gpio/cy_gpio.h **** * \{
 405:Generated_Source\PSoC6\pdl\drivers/peripheral/gpio/cy_gpio.h **** * Constants to be used for setting the drive mode of the pin.
 406:Generated_Source\PSoC6\pdl\drivers/peripheral/gpio/cy_gpio.h **** */
 407:Generated_Source\PSoC6\pdl\drivers/peripheral/gpio/cy_gpio.h **** #define CY_GPIO_DM_ANALOG                      (0x00UL) /**< Analog High-Z. Input buffer off */
 408:Generated_Source\PSoC6\pdl\drivers/peripheral/gpio/cy_gpio.h **** #define CY_GPIO_DM_PULLUP_IN_OFF               (0x02UL) /**< Resistive Pull-Up. Input buffer off */
 409:Generated_Source\PSoC6\pdl\drivers/peripheral/gpio/cy_gpio.h **** #define CY_GPIO_DM_PULLDOWN_IN_OFF             (0x03UL) /**< Resistive Pull-Down. Input buffer off 
 410:Generated_Source\PSoC6\pdl\drivers/peripheral/gpio/cy_gpio.h **** #define CY_GPIO_DM_OD_DRIVESLOW_IN_OFF         (0x04UL) /**< Open Drain, Drives Low. Input buffer o
 411:Generated_Source\PSoC6\pdl\drivers/peripheral/gpio/cy_gpio.h **** #define CY_GPIO_DM_OD_DRIVESHIGH_IN_OFF        (0x05UL) /**< Open Drain, Drives High. Input buffer 
 412:Generated_Source\PSoC6\pdl\drivers/peripheral/gpio/cy_gpio.h **** #define CY_GPIO_DM_STRONG_IN_OFF               (0x06UL) /**< Strong Drive. Input buffer off */
 413:Generated_Source\PSoC6\pdl\drivers/peripheral/gpio/cy_gpio.h **** #define CY_GPIO_DM_PULLUP_DOWN_IN_OFF          (0x07UL) /**< Resistive Pull-Up/Down. Input buffer o
 414:Generated_Source\PSoC6\pdl\drivers/peripheral/gpio/cy_gpio.h **** #define CY_GPIO_DM_HIGHZ                       (0x08UL) /**< Digital High-Z. Input buffer on */
 415:Generated_Source\PSoC6\pdl\drivers/peripheral/gpio/cy_gpio.h **** #define CY_GPIO_DM_PULLUP                      (0x0AUL) /**< Resistive Pull-Up. Input buffer on */
 416:Generated_Source\PSoC6\pdl\drivers/peripheral/gpio/cy_gpio.h **** #define CY_GPIO_DM_PULLDOWN                    (0x0BUL) /**< Resistive Pull-Down. Input buffer on *
 417:Generated_Source\PSoC6\pdl\drivers/peripheral/gpio/cy_gpio.h **** #define CY_GPIO_DM_OD_DRIVESLOW                (0x0CUL) /**< Open Drain, Drives Low. Input buffer o
 418:Generated_Source\PSoC6\pdl\drivers/peripheral/gpio/cy_gpio.h **** #define CY_GPIO_DM_OD_DRIVESHIGH               (0x0DUL) /**< Open Drain, Drives High. Input buffer 
 419:Generated_Source\PSoC6\pdl\drivers/peripheral/gpio/cy_gpio.h **** #define CY_GPIO_DM_STRONG                      (0x0EUL) /**< Strong Drive. Input buffer on */
 420:Generated_Source\PSoC6\pdl\drivers/peripheral/gpio/cy_gpio.h **** #define CY_GPIO_DM_PULLUP_DOWN                 (0x0FUL) /**< Resistive Pull-Up/Down. Input buffer o
 421:Generated_Source\PSoC6\pdl\drivers/peripheral/gpio/cy_gpio.h **** /** \} */
 422:Generated_Source\PSoC6\pdl\drivers/peripheral/gpio/cy_gpio.h **** 
 423:Generated_Source\PSoC6\pdl\drivers/peripheral/gpio/cy_gpio.h **** /**
 424:Generated_Source\PSoC6\pdl\drivers/peripheral/gpio/cy_gpio.h **** * \defgroup group_gpio_vtrip Voltage trip mode
 425:Generated_Source\PSoC6\pdl\drivers/peripheral/gpio/cy_gpio.h **** * \{
 426:Generated_Source\PSoC6\pdl\drivers/peripheral/gpio/cy_gpio.h **** * Constants to be used for setting the voltage trip type on the pin.
 427:Generated_Source\PSoC6\pdl\drivers/peripheral/gpio/cy_gpio.h **** */
 428:Generated_Source\PSoC6\pdl\drivers/peripheral/gpio/cy_gpio.h **** #define CY_GPIO_VTRIP_CMOS                     (0x00UL) /**< Input buffer compatible with CMOS and 
 429:Generated_Source\PSoC6\pdl\drivers/peripheral/gpio/cy_gpio.h **** #define CY_GPIO_VTRIP_TTL                      (0x01UL) /**< Input buffer compatible with TTL and M
 430:Generated_Source\PSoC6\pdl\drivers/peripheral/gpio/cy_gpio.h **** /** \} */
 431:Generated_Source\PSoC6\pdl\drivers/peripheral/gpio/cy_gpio.h **** 
 432:Generated_Source\PSoC6\pdl\drivers/peripheral/gpio/cy_gpio.h **** /**
 433:Generated_Source\PSoC6\pdl\drivers/peripheral/gpio/cy_gpio.h **** * \defgroup group_gpio_slewRate Slew Rate Mode
 434:Generated_Source\PSoC6\pdl\drivers/peripheral/gpio/cy_gpio.h **** * \{
 435:Generated_Source\PSoC6\pdl\drivers/peripheral/gpio/cy_gpio.h **** * Constants to be used for setting the slew rate of the pin.
 436:Generated_Source\PSoC6\pdl\drivers/peripheral/gpio/cy_gpio.h **** */
 437:Generated_Source\PSoC6\pdl\drivers/peripheral/gpio/cy_gpio.h **** #define CY_GPIO_SLEW_FAST                      (0x00UL) /**< Fast slew rate */
 438:Generated_Source\PSoC6\pdl\drivers/peripheral/gpio/cy_gpio.h **** #define CY_GPIO_SLEW_SLOW                      (0x01UL) /**< Slow slew rate */
 439:Generated_Source\PSoC6\pdl\drivers/peripheral/gpio/cy_gpio.h **** /** \} */
 440:Generated_Source\PSoC6\pdl\drivers/peripheral/gpio/cy_gpio.h **** 
 441:Generated_Source\PSoC6\pdl\drivers/peripheral/gpio/cy_gpio.h **** /**
 442:Generated_Source\PSoC6\pdl\drivers/peripheral/gpio/cy_gpio.h **** * \defgroup group_gpio_driveStrength Pin drive strength
 443:Generated_Source\PSoC6\pdl\drivers/peripheral/gpio/cy_gpio.h **** * \{
 444:Generated_Source\PSoC6\pdl\drivers/peripheral/gpio/cy_gpio.h **** * Constants to be used for setting the drive strength of the pin.
 445:Generated_Source\PSoC6\pdl\drivers/peripheral/gpio/cy_gpio.h **** */
 446:Generated_Source\PSoC6\pdl\drivers/peripheral/gpio/cy_gpio.h **** #define CY_GPIO_DRIVE_FULL                     (0x00UL) /**< Full drive strength: Max drive current
 447:Generated_Source\PSoC6\pdl\drivers/peripheral/gpio/cy_gpio.h **** #define CY_GPIO_DRIVE_1_2                      (0x01UL) /**< 1/2 drive strength: 1/2 drive current 
 448:Generated_Source\PSoC6\pdl\drivers/peripheral/gpio/cy_gpio.h **** #define CY_GPIO_DRIVE_1_4                      (0x02UL) /**< 1/4 drive strength: 1/4 drive current 
 449:Generated_Source\PSoC6\pdl\drivers/peripheral/gpio/cy_gpio.h **** #define CY_GPIO_DRIVE_1_8                      (0x03UL) /**< 1/8 drive strength: 1/8 drive current 
 450:Generated_Source\PSoC6\pdl\drivers/peripheral/gpio/cy_gpio.h **** /** \} */
 451:Generated_Source\PSoC6\pdl\drivers/peripheral/gpio/cy_gpio.h **** 
 452:Generated_Source\PSoC6\pdl\drivers/peripheral/gpio/cy_gpio.h **** /**
 453:Generated_Source\PSoC6\pdl\drivers/peripheral/gpio/cy_gpio.h **** * \defgroup group_gpio_interruptTrigger Interrupt trigger type
 454:Generated_Source\PSoC6\pdl\drivers/peripheral/gpio/cy_gpio.h **** * \{
 455:Generated_Source\PSoC6\pdl\drivers/peripheral/gpio/cy_gpio.h **** * Constants to be used for setting the interrupt trigger type on the pin.
 456:Generated_Source\PSoC6\pdl\drivers/peripheral/gpio/cy_gpio.h **** */
 457:Generated_Source\PSoC6\pdl\drivers/peripheral/gpio/cy_gpio.h **** #define CY_GPIO_INTR_DISABLE                   (0x00UL) /**< Disable the pin interrupt generation *
ARM GAS  C:\Users\dmr85\AppData\Local\Temp\ccCZSREw.s 			page 23


 458:Generated_Source\PSoC6\pdl\drivers/peripheral/gpio/cy_gpio.h **** #define CY_GPIO_INTR_RISING                    (0x01UL) /**< Rising-Edge interrupt */
 459:Generated_Source\PSoC6\pdl\drivers/peripheral/gpio/cy_gpio.h **** #define CY_GPIO_INTR_FALLING                   (0x02UL) /**< Falling-Edge interrupt */
 460:Generated_Source\PSoC6\pdl\drivers/peripheral/gpio/cy_gpio.h **** #define CY_GPIO_INTR_BOTH                      (0x03UL) /**< Both-Edge interrupt */
 461:Generated_Source\PSoC6\pdl\drivers/peripheral/gpio/cy_gpio.h **** /** \} */
 462:Generated_Source\PSoC6\pdl\drivers/peripheral/gpio/cy_gpio.h **** 
 463:Generated_Source\PSoC6\pdl\drivers/peripheral/gpio/cy_gpio.h **** /**
 464:Generated_Source\PSoC6\pdl\drivers/peripheral/gpio/cy_gpio.h **** * \defgroup group_gpio_sioVreg SIO output buffer mode
 465:Generated_Source\PSoC6\pdl\drivers/peripheral/gpio/cy_gpio.h **** * \{
 466:Generated_Source\PSoC6\pdl\drivers/peripheral/gpio/cy_gpio.h **** * Constants to be used for setting the SIO output buffer mode on the pin.
 467:Generated_Source\PSoC6\pdl\drivers/peripheral/gpio/cy_gpio.h **** */
 468:Generated_Source\PSoC6\pdl\drivers/peripheral/gpio/cy_gpio.h **** #define CY_SIO_VREG_UNREGULATED                (0x00UL) /**< Unregulated output buffer */
 469:Generated_Source\PSoC6\pdl\drivers/peripheral/gpio/cy_gpio.h **** #define CY_SIO_VREG_REGULATED                  (0x01UL) /**< Regulated output buffer */
 470:Generated_Source\PSoC6\pdl\drivers/peripheral/gpio/cy_gpio.h **** /** \} */
 471:Generated_Source\PSoC6\pdl\drivers/peripheral/gpio/cy_gpio.h **** 
 472:Generated_Source\PSoC6\pdl\drivers/peripheral/gpio/cy_gpio.h **** /**
 473:Generated_Source\PSoC6\pdl\drivers/peripheral/gpio/cy_gpio.h **** * \defgroup group_gpio_sioIbuf SIO input buffer mode
 474:Generated_Source\PSoC6\pdl\drivers/peripheral/gpio/cy_gpio.h **** * \{
 475:Generated_Source\PSoC6\pdl\drivers/peripheral/gpio/cy_gpio.h **** * Constants to be used for setting the SIO input buffer mode on the pin.
 476:Generated_Source\PSoC6\pdl\drivers/peripheral/gpio/cy_gpio.h **** */
 477:Generated_Source\PSoC6\pdl\drivers/peripheral/gpio/cy_gpio.h **** #define CY_SIO_IBUF_SINGLEENDED                (0x00UL) /**< Single ended input buffer */
 478:Generated_Source\PSoC6\pdl\drivers/peripheral/gpio/cy_gpio.h **** #define CY_SIO_IBUF_DIFFERENTIAL               (0x01UL) /**< Differential input buffer */
 479:Generated_Source\PSoC6\pdl\drivers/peripheral/gpio/cy_gpio.h **** /** \} */
 480:Generated_Source\PSoC6\pdl\drivers/peripheral/gpio/cy_gpio.h **** 
 481:Generated_Source\PSoC6\pdl\drivers/peripheral/gpio/cy_gpio.h **** /**
 482:Generated_Source\PSoC6\pdl\drivers/peripheral/gpio/cy_gpio.h **** * \defgroup group_gpio_sioVtrip SIO input buffer trip-point
 483:Generated_Source\PSoC6\pdl\drivers/peripheral/gpio/cy_gpio.h **** * \{
 484:Generated_Source\PSoC6\pdl\drivers/peripheral/gpio/cy_gpio.h **** * Constants to be used for setting the SIO input buffer trip-point of the pin.
 485:Generated_Source\PSoC6\pdl\drivers/peripheral/gpio/cy_gpio.h **** */
 486:Generated_Source\PSoC6\pdl\drivers/peripheral/gpio/cy_gpio.h **** #define CY_SIO_VTRIP_CMOS                      (0x00UL) /**< CMOS input buffer (single-ended) */
 487:Generated_Source\PSoC6\pdl\drivers/peripheral/gpio/cy_gpio.h **** #define CY_SIO_VTRIP_TTL                       (0x01UL) /**< TTL input buffer (single-ended) */
 488:Generated_Source\PSoC6\pdl\drivers/peripheral/gpio/cy_gpio.h **** #define CY_SIO_VTRIP_0_5VDDIO_0_5VOH           (0x00UL) /**< 0.5xVddio or 0.5xVoh (differential) */
 489:Generated_Source\PSoC6\pdl\drivers/peripheral/gpio/cy_gpio.h **** #define CY_SIO_VTRIP_0_4VDDIO_1_0VREF          (0x01UL) /**< 0.4xVddio or 0.4xVoh (differential) */
 490:Generated_Source\PSoC6\pdl\drivers/peripheral/gpio/cy_gpio.h **** /** \} */
 491:Generated_Source\PSoC6\pdl\drivers/peripheral/gpio/cy_gpio.h **** 
 492:Generated_Source\PSoC6\pdl\drivers/peripheral/gpio/cy_gpio.h **** /**
 493:Generated_Source\PSoC6\pdl\drivers/peripheral/gpio/cy_gpio.h **** * \defgroup group_gpio_sioVref SIO reference voltage for input buffer trip-point
 494:Generated_Source\PSoC6\pdl\drivers/peripheral/gpio/cy_gpio.h **** * \{
 495:Generated_Source\PSoC6\pdl\drivers/peripheral/gpio/cy_gpio.h **** * Constants to be used for setting the reference voltage of SIO input buffer trip-point.
 496:Generated_Source\PSoC6\pdl\drivers/peripheral/gpio/cy_gpio.h **** */
 497:Generated_Source\PSoC6\pdl\drivers/peripheral/gpio/cy_gpio.h **** #define CY_SIO_VREF_PINREF                     (0x00UL) /**< Vref from analog pin */
 498:Generated_Source\PSoC6\pdl\drivers/peripheral/gpio/cy_gpio.h **** #define CY_SIO_VREF_1_2V                       (0x01UL) /**< Vref from internal 1.2V reference */
 499:Generated_Source\PSoC6\pdl\drivers/peripheral/gpio/cy_gpio.h **** #define CY_SIO_VREF_AMUX_A                     (0x02UL) /**< Vref from AMUXBUS_A */
 500:Generated_Source\PSoC6\pdl\drivers/peripheral/gpio/cy_gpio.h **** #define CY_SIO_VREF_AMUX_B                     (0x03UL) /**< Vref from AMUXBUS_B */
 501:Generated_Source\PSoC6\pdl\drivers/peripheral/gpio/cy_gpio.h **** /** \} */
 502:Generated_Source\PSoC6\pdl\drivers/peripheral/gpio/cy_gpio.h **** 
 503:Generated_Source\PSoC6\pdl\drivers/peripheral/gpio/cy_gpio.h **** /**
 504:Generated_Source\PSoC6\pdl\drivers/peripheral/gpio/cy_gpio.h **** * \defgroup group_gpio_sioVoh Regulated output voltage level (Voh) and input buffer trip-point of a
 505:Generated_Source\PSoC6\pdl\drivers/peripheral/gpio/cy_gpio.h **** * \{
 506:Generated_Source\PSoC6\pdl\drivers/peripheral/gpio/cy_gpio.h **** * Constants to be used for setting the Voh and input buffer trip-point of an SIO pair
 507:Generated_Source\PSoC6\pdl\drivers/peripheral/gpio/cy_gpio.h **** */
 508:Generated_Source\PSoC6\pdl\drivers/peripheral/gpio/cy_gpio.h **** #define CY_SIO_VOH_1_00                        (0x00UL) /**< Voh = 1 x Reference */
 509:Generated_Source\PSoC6\pdl\drivers/peripheral/gpio/cy_gpio.h **** #define CY_SIO_VOH_1_25                        (0x01UL) /**< Voh = 1.25 x Reference */
 510:Generated_Source\PSoC6\pdl\drivers/peripheral/gpio/cy_gpio.h **** #define CY_SIO_VOH_1_49                        (0x02UL) /**< Voh = 1.49 x Reference */
 511:Generated_Source\PSoC6\pdl\drivers/peripheral/gpio/cy_gpio.h **** #define CY_SIO_VOH_1_67                        (0x03UL) /**< Voh = 1.67 x Reference */
 512:Generated_Source\PSoC6\pdl\drivers/peripheral/gpio/cy_gpio.h **** #define CY_SIO_VOH_2_08                        (0x04UL) /**< Voh = 2.08 x Reference */
 513:Generated_Source\PSoC6\pdl\drivers/peripheral/gpio/cy_gpio.h **** #define CY_SIO_VOH_2_50                        (0x05UL) /**< Voh = 2.50 x Reference */
 514:Generated_Source\PSoC6\pdl\drivers/peripheral/gpio/cy_gpio.h **** #define CY_SIO_VOH_2_78                        (0x06UL) /**< Voh = 2.78 x Reference */
ARM GAS  C:\Users\dmr85\AppData\Local\Temp\ccCZSREw.s 			page 24


 515:Generated_Source\PSoC6\pdl\drivers/peripheral/gpio/cy_gpio.h **** #define CY_SIO_VOH_4_16                        (0x07UL) /**< Voh = 4.16 x Reference */
 516:Generated_Source\PSoC6\pdl\drivers/peripheral/gpio/cy_gpio.h **** /** \} */
 517:Generated_Source\PSoC6\pdl\drivers/peripheral/gpio/cy_gpio.h **** 
 518:Generated_Source\PSoC6\pdl\drivers/peripheral/gpio/cy_gpio.h **** /** \} group_gpio_macros */
 519:Generated_Source\PSoC6\pdl\drivers/peripheral/gpio/cy_gpio.h **** 
 520:Generated_Source\PSoC6\pdl\drivers/peripheral/gpio/cy_gpio.h **** /***************************************
 521:Generated_Source\PSoC6\pdl\drivers/peripheral/gpio/cy_gpio.h **** *        Function Prototypes
 522:Generated_Source\PSoC6\pdl\drivers/peripheral/gpio/cy_gpio.h **** ***************************************/
 523:Generated_Source\PSoC6\pdl\drivers/peripheral/gpio/cy_gpio.h **** 
 524:Generated_Source\PSoC6\pdl\drivers/peripheral/gpio/cy_gpio.h **** /**
 525:Generated_Source\PSoC6\pdl\drivers/peripheral/gpio/cy_gpio.h **** * \addtogroup group_gpio_functions
 526:Generated_Source\PSoC6\pdl\drivers/peripheral/gpio/cy_gpio.h **** * \{
 527:Generated_Source\PSoC6\pdl\drivers/peripheral/gpio/cy_gpio.h **** */
 528:Generated_Source\PSoC6\pdl\drivers/peripheral/gpio/cy_gpio.h **** 
 529:Generated_Source\PSoC6\pdl\drivers/peripheral/gpio/cy_gpio.h **** /**
 530:Generated_Source\PSoC6\pdl\drivers/peripheral/gpio/cy_gpio.h **** * \addtogroup group_gpio_functions_init
 531:Generated_Source\PSoC6\pdl\drivers/peripheral/gpio/cy_gpio.h **** * \{
 532:Generated_Source\PSoC6\pdl\drivers/peripheral/gpio/cy_gpio.h **** */
 533:Generated_Source\PSoC6\pdl\drivers/peripheral/gpio/cy_gpio.h **** 
 534:Generated_Source\PSoC6\pdl\drivers/peripheral/gpio/cy_gpio.h **** cy_en_gpio_status_t Cy_GPIO_Pin_Init(GPIO_PRT_Type* base, uint32_t pinNum, const cy_stc_gpio_pin_co
 535:Generated_Source\PSoC6\pdl\drivers/peripheral/gpio/cy_gpio.h **** cy_en_gpio_status_t Cy_GPIO_Port_Init(GPIO_PRT_Type* base, const cy_stc_gpio_prt_config_t *config);
 536:Generated_Source\PSoC6\pdl\drivers/peripheral/gpio/cy_gpio.h **** void Cy_GPIO_Pin_FastInit(GPIO_PRT_Type* base, uint32_t pinNum, uint32_t driveMode, uint32_t outVal
 537:Generated_Source\PSoC6\pdl\drivers/peripheral/gpio/cy_gpio.h **** void Cy_GPIO_Port_Deinit(GPIO_PRT_Type* base);
 538:Generated_Source\PSoC6\pdl\drivers/peripheral/gpio/cy_gpio.h **** __STATIC_INLINE void Cy_GPIO_SetHSIOM(GPIO_PRT_Type* base, uint32_t pinNum, en_hsiom_sel_t value);
 539:Generated_Source\PSoC6\pdl\drivers/peripheral/gpio/cy_gpio.h **** __STATIC_INLINE en_hsiom_sel_t Cy_GPIO_GetHSIOM(GPIO_PRT_Type* base, uint32_t pinNum);
 540:Generated_Source\PSoC6\pdl\drivers/peripheral/gpio/cy_gpio.h **** __STATIC_INLINE GPIO_PRT_Type* Cy_GPIO_PortToAddr(uint32_t portNum);
 541:Generated_Source\PSoC6\pdl\drivers/peripheral/gpio/cy_gpio.h **** 
 542:Generated_Source\PSoC6\pdl\drivers/peripheral/gpio/cy_gpio.h **** /** \} group_gpio_functions_init */
 543:Generated_Source\PSoC6\pdl\drivers/peripheral/gpio/cy_gpio.h **** 
 544:Generated_Source\PSoC6\pdl\drivers/peripheral/gpio/cy_gpio.h **** /**
 545:Generated_Source\PSoC6\pdl\drivers/peripheral/gpio/cy_gpio.h **** * \addtogroup group_gpio_functions_gpio
 546:Generated_Source\PSoC6\pdl\drivers/peripheral/gpio/cy_gpio.h **** * \{
 547:Generated_Source\PSoC6\pdl\drivers/peripheral/gpio/cy_gpio.h **** */
 548:Generated_Source\PSoC6\pdl\drivers/peripheral/gpio/cy_gpio.h **** 
 549:Generated_Source\PSoC6\pdl\drivers/peripheral/gpio/cy_gpio.h **** void Cy_GPIO_SetAmuxSplit(cy_en_amux_split_t switchCtrl, cy_en_gpio_amuxconnect_t amuxConnect, cy_e
 550:Generated_Source\PSoC6\pdl\drivers/peripheral/gpio/cy_gpio.h **** cy_en_gpio_amuxconnect_t Cy_GPIO_GetAmuxSplit(cy_en_amux_split_t switchCtrl, cy_en_gpio_amuxselect_
 551:Generated_Source\PSoC6\pdl\drivers/peripheral/gpio/cy_gpio.h **** 
 552:Generated_Source\PSoC6\pdl\drivers/peripheral/gpio/cy_gpio.h **** __STATIC_INLINE uint32_t Cy_GPIO_Read(GPIO_PRT_Type* base, uint32_t pinNum);
 553:Generated_Source\PSoC6\pdl\drivers/peripheral/gpio/cy_gpio.h **** __STATIC_INLINE void Cy_GPIO_Write(GPIO_PRT_Type* base, uint32_t pinNum, uint32_t value);
 554:Generated_Source\PSoC6\pdl\drivers/peripheral/gpio/cy_gpio.h **** __STATIC_INLINE uint32_t Cy_GPIO_ReadOut(GPIO_PRT_Type* base, uint32_t pinNum);
 555:Generated_Source\PSoC6\pdl\drivers/peripheral/gpio/cy_gpio.h **** __STATIC_INLINE void Cy_GPIO_Set(GPIO_PRT_Type* base, uint32_t pinNum);
 556:Generated_Source\PSoC6\pdl\drivers/peripheral/gpio/cy_gpio.h **** __STATIC_INLINE void Cy_GPIO_Clr(GPIO_PRT_Type* base, uint32_t pinNum);
 557:Generated_Source\PSoC6\pdl\drivers/peripheral/gpio/cy_gpio.h **** __STATIC_INLINE void Cy_GPIO_Inv(GPIO_PRT_Type* base, uint32_t pinNum);
 558:Generated_Source\PSoC6\pdl\drivers/peripheral/gpio/cy_gpio.h **** __STATIC_INLINE void Cy_GPIO_SetDrivemode(GPIO_PRT_Type* base, uint32_t pinNum, uint32_t value);
 559:Generated_Source\PSoC6\pdl\drivers/peripheral/gpio/cy_gpio.h **** __STATIC_INLINE uint32_t Cy_GPIO_GetDrivemode(GPIO_PRT_Type* base, uint32_t pinNum);
 560:Generated_Source\PSoC6\pdl\drivers/peripheral/gpio/cy_gpio.h **** __STATIC_INLINE void Cy_GPIO_SetVtrip(GPIO_PRT_Type* base, uint32_t pinNum, uint32_t value);
 561:Generated_Source\PSoC6\pdl\drivers/peripheral/gpio/cy_gpio.h **** __STATIC_INLINE uint32_t Cy_GPIO_GetVtrip(GPIO_PRT_Type* base, uint32_t pinNum);
 562:Generated_Source\PSoC6\pdl\drivers/peripheral/gpio/cy_gpio.h **** __STATIC_INLINE void Cy_GPIO_SetSlewRate(GPIO_PRT_Type* base, uint32_t pinNum, uint32_t value);
 563:Generated_Source\PSoC6\pdl\drivers/peripheral/gpio/cy_gpio.h **** __STATIC_INLINE uint32_t Cy_GPIO_GetSlewRate(GPIO_PRT_Type* base, uint32_t pinNum);
 564:Generated_Source\PSoC6\pdl\drivers/peripheral/gpio/cy_gpio.h **** __STATIC_INLINE void Cy_GPIO_SetDriveSel(GPIO_PRT_Type* base, uint32_t pinNum, uint32_t value);
 565:Generated_Source\PSoC6\pdl\drivers/peripheral/gpio/cy_gpio.h **** __STATIC_INLINE uint32_t Cy_GPIO_GetDriveSel(GPIO_PRT_Type* base, uint32_t pinNum);
 566:Generated_Source\PSoC6\pdl\drivers/peripheral/gpio/cy_gpio.h **** 
 567:Generated_Source\PSoC6\pdl\drivers/peripheral/gpio/cy_gpio.h **** /** \} group_gpio_functions_gpio */
 568:Generated_Source\PSoC6\pdl\drivers/peripheral/gpio/cy_gpio.h **** 
 569:Generated_Source\PSoC6\pdl\drivers/peripheral/gpio/cy_gpio.h **** /**
 570:Generated_Source\PSoC6\pdl\drivers/peripheral/gpio/cy_gpio.h **** * \addtogroup group_gpio_functions_sio
 571:Generated_Source\PSoC6\pdl\drivers/peripheral/gpio/cy_gpio.h **** * \{
ARM GAS  C:\Users\dmr85\AppData\Local\Temp\ccCZSREw.s 			page 25


 572:Generated_Source\PSoC6\pdl\drivers/peripheral/gpio/cy_gpio.h **** */
 573:Generated_Source\PSoC6\pdl\drivers/peripheral/gpio/cy_gpio.h **** 
 574:Generated_Source\PSoC6\pdl\drivers/peripheral/gpio/cy_gpio.h **** __STATIC_INLINE void Cy_GPIO_SetVregEn(GPIO_PRT_Type* base, uint32_t pinNum, uint32_t value);
 575:Generated_Source\PSoC6\pdl\drivers/peripheral/gpio/cy_gpio.h **** __STATIC_INLINE uint32_t Cy_GPIO_GetVregEn(GPIO_PRT_Type* base, uint32_t pinNum);
 576:Generated_Source\PSoC6\pdl\drivers/peripheral/gpio/cy_gpio.h **** __STATIC_INLINE void Cy_GPIO_SetIbufMode(GPIO_PRT_Type* base, uint32_t pinNum, uint32_t value);
 577:Generated_Source\PSoC6\pdl\drivers/peripheral/gpio/cy_gpio.h **** __STATIC_INLINE uint32_t Cy_GPIO_GetIbufMode(GPIO_PRT_Type* base, uint32_t pinNum);
 578:Generated_Source\PSoC6\pdl\drivers/peripheral/gpio/cy_gpio.h **** __STATIC_INLINE void Cy_GPIO_SetVtripSel(GPIO_PRT_Type* base, uint32_t pinNum, uint32_t value);
 579:Generated_Source\PSoC6\pdl\drivers/peripheral/gpio/cy_gpio.h **** __STATIC_INLINE uint32_t Cy_GPIO_GetVtripSel(GPIO_PRT_Type* base, uint32_t pinNum);
 580:Generated_Source\PSoC6\pdl\drivers/peripheral/gpio/cy_gpio.h **** __STATIC_INLINE void Cy_GPIO_SetVrefSel(GPIO_PRT_Type* base, uint32_t pinNum, uint32_t value);
 581:Generated_Source\PSoC6\pdl\drivers/peripheral/gpio/cy_gpio.h **** __STATIC_INLINE uint32_t Cy_GPIO_GetVrefSel(GPIO_PRT_Type* base, uint32_t pinNum);
 582:Generated_Source\PSoC6\pdl\drivers/peripheral/gpio/cy_gpio.h **** __STATIC_INLINE void Cy_GPIO_SetVohSel(GPIO_PRT_Type* base, uint32_t pinNum, uint32_t value);
 583:Generated_Source\PSoC6\pdl\drivers/peripheral/gpio/cy_gpio.h **** __STATIC_INLINE uint32_t Cy_GPIO_GetVohSel(GPIO_PRT_Type* base, uint32_t pinNum);
 584:Generated_Source\PSoC6\pdl\drivers/peripheral/gpio/cy_gpio.h **** 
 585:Generated_Source\PSoC6\pdl\drivers/peripheral/gpio/cy_gpio.h **** /** \} group_gpio_functions_sio */
 586:Generated_Source\PSoC6\pdl\drivers/peripheral/gpio/cy_gpio.h **** 
 587:Generated_Source\PSoC6\pdl\drivers/peripheral/gpio/cy_gpio.h **** /**
 588:Generated_Source\PSoC6\pdl\drivers/peripheral/gpio/cy_gpio.h **** * \addtogroup group_gpio_functions_interrupt
 589:Generated_Source\PSoC6\pdl\drivers/peripheral/gpio/cy_gpio.h **** * \{
 590:Generated_Source\PSoC6\pdl\drivers/peripheral/gpio/cy_gpio.h **** */
 591:Generated_Source\PSoC6\pdl\drivers/peripheral/gpio/cy_gpio.h **** 
 592:Generated_Source\PSoC6\pdl\drivers/peripheral/gpio/cy_gpio.h **** __STATIC_INLINE uint32_t Cy_GPIO_GetInterruptStatus(GPIO_PRT_Type* base, uint32_t pinNum);
 593:Generated_Source\PSoC6\pdl\drivers/peripheral/gpio/cy_gpio.h **** __STATIC_INLINE void Cy_GPIO_ClearInterrupt(GPIO_PRT_Type* base, uint32_t pinNum);
 594:Generated_Source\PSoC6\pdl\drivers/peripheral/gpio/cy_gpio.h **** __STATIC_INLINE void Cy_GPIO_SetInterruptMask(GPIO_PRT_Type* base, uint32_t pinNum, uint32_t value)
 595:Generated_Source\PSoC6\pdl\drivers/peripheral/gpio/cy_gpio.h **** __STATIC_INLINE uint32_t Cy_GPIO_GetInterruptMask(GPIO_PRT_Type* base, uint32_t pinNum);
 596:Generated_Source\PSoC6\pdl\drivers/peripheral/gpio/cy_gpio.h **** __STATIC_INLINE uint32_t Cy_GPIO_GetInterruptStatusMasked(GPIO_PRT_Type* base, uint32_t pinNum);
 597:Generated_Source\PSoC6\pdl\drivers/peripheral/gpio/cy_gpio.h **** __STATIC_INLINE void Cy_GPIO_SetSwInterrupt(GPIO_PRT_Type* base, uint32_t pinNum);
 598:Generated_Source\PSoC6\pdl\drivers/peripheral/gpio/cy_gpio.h **** __STATIC_INLINE void Cy_GPIO_SetInterruptEdge(GPIO_PRT_Type* base, uint32_t pinNum, uint32_t value)
 599:Generated_Source\PSoC6\pdl\drivers/peripheral/gpio/cy_gpio.h **** __STATIC_INLINE uint32_t Cy_GPIO_GetInterruptEdge(GPIO_PRT_Type* base, uint32_t pinNum);
 600:Generated_Source\PSoC6\pdl\drivers/peripheral/gpio/cy_gpio.h **** __STATIC_INLINE void Cy_GPIO_SetFilter(GPIO_PRT_Type* base, uint32_t value);
 601:Generated_Source\PSoC6\pdl\drivers/peripheral/gpio/cy_gpio.h **** __STATIC_INLINE uint32_t Cy_GPIO_GetFilter(GPIO_PRT_Type* base);
 602:Generated_Source\PSoC6\pdl\drivers/peripheral/gpio/cy_gpio.h **** 
 603:Generated_Source\PSoC6\pdl\drivers/peripheral/gpio/cy_gpio.h **** __STATIC_INLINE uint32_t Cy_GPIO_GetInterruptCause0(void);
 604:Generated_Source\PSoC6\pdl\drivers/peripheral/gpio/cy_gpio.h **** __STATIC_INLINE uint32_t Cy_GPIO_GetInterruptCause1(void);
 605:Generated_Source\PSoC6\pdl\drivers/peripheral/gpio/cy_gpio.h **** __STATIC_INLINE uint32_t Cy_GPIO_GetInterruptCause2(void);
 606:Generated_Source\PSoC6\pdl\drivers/peripheral/gpio/cy_gpio.h **** __STATIC_INLINE uint32_t Cy_GPIO_GetInterruptCause3(void);
 607:Generated_Source\PSoC6\pdl\drivers/peripheral/gpio/cy_gpio.h **** 
 608:Generated_Source\PSoC6\pdl\drivers/peripheral/gpio/cy_gpio.h **** /** \} group_gpio_functions_interrupt */
 609:Generated_Source\PSoC6\pdl\drivers/peripheral/gpio/cy_gpio.h **** 
 610:Generated_Source\PSoC6\pdl\drivers/peripheral/gpio/cy_gpio.h **** 
 611:Generated_Source\PSoC6\pdl\drivers/peripheral/gpio/cy_gpio.h **** /**
 612:Generated_Source\PSoC6\pdl\drivers/peripheral/gpio/cy_gpio.h **** * \addtogroup group_gpio_functions_init
 613:Generated_Source\PSoC6\pdl\drivers/peripheral/gpio/cy_gpio.h **** * \{
 614:Generated_Source\PSoC6\pdl\drivers/peripheral/gpio/cy_gpio.h **** */
 615:Generated_Source\PSoC6\pdl\drivers/peripheral/gpio/cy_gpio.h **** 
 616:Generated_Source\PSoC6\pdl\drivers/peripheral/gpio/cy_gpio.h **** /*******************************************************************************
 617:Generated_Source\PSoC6\pdl\drivers/peripheral/gpio/cy_gpio.h **** * Function Name: Cy_GPIO_SetHSIOM
 618:Generated_Source\PSoC6\pdl\drivers/peripheral/gpio/cy_gpio.h **** ****************************************************************************//**
 619:Generated_Source\PSoC6\pdl\drivers/peripheral/gpio/cy_gpio.h **** *
 620:Generated_Source\PSoC6\pdl\drivers/peripheral/gpio/cy_gpio.h **** * Configures the HSIOM connection to the pin.
 621:Generated_Source\PSoC6\pdl\drivers/peripheral/gpio/cy_gpio.h **** *
 622:Generated_Source\PSoC6\pdl\drivers/peripheral/gpio/cy_gpio.h **** * Connects the specified High-Speed Input Output Multiplexer (HSIOM) selection
 623:Generated_Source\PSoC6\pdl\drivers/peripheral/gpio/cy_gpio.h **** * to the pin.
 624:Generated_Source\PSoC6\pdl\drivers/peripheral/gpio/cy_gpio.h **** *
 625:Generated_Source\PSoC6\pdl\drivers/peripheral/gpio/cy_gpio.h **** * \param base
 626:Generated_Source\PSoC6\pdl\drivers/peripheral/gpio/cy_gpio.h **** * Pointer to the pin's port register base address
 627:Generated_Source\PSoC6\pdl\drivers/peripheral/gpio/cy_gpio.h **** *
 628:Generated_Source\PSoC6\pdl\drivers/peripheral/gpio/cy_gpio.h **** * \param pinNum
ARM GAS  C:\Users\dmr85\AppData\Local\Temp\ccCZSREw.s 			page 26


 629:Generated_Source\PSoC6\pdl\drivers/peripheral/gpio/cy_gpio.h **** * Position of the pin bit-field within the port register
 630:Generated_Source\PSoC6\pdl\drivers/peripheral/gpio/cy_gpio.h **** *
 631:Generated_Source\PSoC6\pdl\drivers/peripheral/gpio/cy_gpio.h **** * \param value
 632:Generated_Source\PSoC6\pdl\drivers/peripheral/gpio/cy_gpio.h **** * HSIOM input selection
 633:Generated_Source\PSoC6\pdl\drivers/peripheral/gpio/cy_gpio.h **** *
 634:Generated_Source\PSoC6\pdl\drivers/peripheral/gpio/cy_gpio.h **** * \note 
 635:Generated_Source\PSoC6\pdl\drivers/peripheral/gpio/cy_gpio.h **** * This function modifies a port register in a read-modify-write operation. It is
 636:Generated_Source\PSoC6\pdl\drivers/peripheral/gpio/cy_gpio.h **** * not thread safe as the resource is shared among multiple pins on a port.
 637:Generated_Source\PSoC6\pdl\drivers/peripheral/gpio/cy_gpio.h **** *
 638:Generated_Source\PSoC6\pdl\drivers/peripheral/gpio/cy_gpio.h **** * \funcusage
 639:Generated_Source\PSoC6\pdl\drivers/peripheral/gpio/cy_gpio.h **** * \snippet gpio/gpio_v1_10_sut_01.cydsn/main_cm4.c snippet_Cy_GPIO_SetHSIOM
 640:Generated_Source\PSoC6\pdl\drivers/peripheral/gpio/cy_gpio.h **** *
 641:Generated_Source\PSoC6\pdl\drivers/peripheral/gpio/cy_gpio.h **** *******************************************************************************/
 642:Generated_Source\PSoC6\pdl\drivers/peripheral/gpio/cy_gpio.h **** __STATIC_INLINE void Cy_GPIO_SetHSIOM(GPIO_PRT_Type* base, uint32_t pinNum, en_hsiom_sel_t value)
 643:Generated_Source\PSoC6\pdl\drivers/peripheral/gpio/cy_gpio.h **** {
 644:Generated_Source\PSoC6\pdl\drivers/peripheral/gpio/cy_gpio.h ****     uint32_t portNum;
 645:Generated_Source\PSoC6\pdl\drivers/peripheral/gpio/cy_gpio.h ****     uint32_t tempReg;
 646:Generated_Source\PSoC6\pdl\drivers/peripheral/gpio/cy_gpio.h ****     HSIOM_PRT_V1_Type* portAddrHSIOM;
 647:Generated_Source\PSoC6\pdl\drivers/peripheral/gpio/cy_gpio.h **** 
 648:Generated_Source\PSoC6\pdl\drivers/peripheral/gpio/cy_gpio.h ****     CY_ASSERT_L2(CY_GPIO_IS_PIN_VALID(pinNum));
 649:Generated_Source\PSoC6\pdl\drivers/peripheral/gpio/cy_gpio.h ****     CY_ASSERT_L2(CY_GPIO_IS_HSIOM_VALID(value));
 650:Generated_Source\PSoC6\pdl\drivers/peripheral/gpio/cy_gpio.h **** 
 651:Generated_Source\PSoC6\pdl\drivers/peripheral/gpio/cy_gpio.h ****     portNum = ((uint32_t)(base) - CY_GPIO_BASE) / GPIO_PRT_SECTION_SIZE;
 652:Generated_Source\PSoC6\pdl\drivers/peripheral/gpio/cy_gpio.h ****     portAddrHSIOM = (HSIOM_PRT_V1_Type*)(CY_HSIOM_BASE + (HSIOM_PRT_SECTION_SIZE * portNum));
 653:Generated_Source\PSoC6\pdl\drivers/peripheral/gpio/cy_gpio.h **** 
 654:Generated_Source\PSoC6\pdl\drivers/peripheral/gpio/cy_gpio.h ****     if(pinNum < CY_GPIO_PRT_HALF)
 655:Generated_Source\PSoC6\pdl\drivers/peripheral/gpio/cy_gpio.h ****     {
 656:Generated_Source\PSoC6\pdl\drivers/peripheral/gpio/cy_gpio.h ****         tempReg = HSIOM_PRT_PORT_SEL0(portAddrHSIOM) & ~(CY_GPIO_HSIOM_MASK << (pinNum << CY_GPIO_H
 657:Generated_Source\PSoC6\pdl\drivers/peripheral/gpio/cy_gpio.h ****         HSIOM_PRT_PORT_SEL0(portAddrHSIOM) = tempReg | ((value & CY_GPIO_HSIOM_MASK) << (pinNum << 
 658:Generated_Source\PSoC6\pdl\drivers/peripheral/gpio/cy_gpio.h ****     }
 659:Generated_Source\PSoC6\pdl\drivers/peripheral/gpio/cy_gpio.h ****     else
 660:Generated_Source\PSoC6\pdl\drivers/peripheral/gpio/cy_gpio.h ****     {
 661:Generated_Source\PSoC6\pdl\drivers/peripheral/gpio/cy_gpio.h ****         pinNum -= CY_GPIO_PRT_HALF;
 662:Generated_Source\PSoC6\pdl\drivers/peripheral/gpio/cy_gpio.h ****         tempReg = HSIOM_PRT_PORT_SEL1(portAddrHSIOM) & ~(CY_GPIO_HSIOM_MASK << (pinNum << CY_GPIO_H
 663:Generated_Source\PSoC6\pdl\drivers/peripheral/gpio/cy_gpio.h ****         HSIOM_PRT_PORT_SEL1(portAddrHSIOM) = tempReg | ((value & CY_GPIO_HSIOM_MASK) << (pinNum << 
 664:Generated_Source\PSoC6\pdl\drivers/peripheral/gpio/cy_gpio.h ****     }
 665:Generated_Source\PSoC6\pdl\drivers/peripheral/gpio/cy_gpio.h **** }
 666:Generated_Source\PSoC6\pdl\drivers/peripheral/gpio/cy_gpio.h **** 
 667:Generated_Source\PSoC6\pdl\drivers/peripheral/gpio/cy_gpio.h **** 
 668:Generated_Source\PSoC6\pdl\drivers/peripheral/gpio/cy_gpio.h **** /*******************************************************************************
 669:Generated_Source\PSoC6\pdl\drivers/peripheral/gpio/cy_gpio.h **** * Function Name: Cy_GPIO_GetHSIOM
 670:Generated_Source\PSoC6\pdl\drivers/peripheral/gpio/cy_gpio.h **** ****************************************************************************//**
 671:Generated_Source\PSoC6\pdl\drivers/peripheral/gpio/cy_gpio.h **** *
 672:Generated_Source\PSoC6\pdl\drivers/peripheral/gpio/cy_gpio.h **** * Returns the current HSIOM multiplexer connection to the pin.
 673:Generated_Source\PSoC6\pdl\drivers/peripheral/gpio/cy_gpio.h **** *
 674:Generated_Source\PSoC6\pdl\drivers/peripheral/gpio/cy_gpio.h **** * \param base
 675:Generated_Source\PSoC6\pdl\drivers/peripheral/gpio/cy_gpio.h **** * Pointer to the pin's port register base address
 676:Generated_Source\PSoC6\pdl\drivers/peripheral/gpio/cy_gpio.h **** *
 677:Generated_Source\PSoC6\pdl\drivers/peripheral/gpio/cy_gpio.h **** * \param pinNum
 678:Generated_Source\PSoC6\pdl\drivers/peripheral/gpio/cy_gpio.h **** * Position of the pin bit-field within the port register
 679:Generated_Source\PSoC6\pdl\drivers/peripheral/gpio/cy_gpio.h **** *
 680:Generated_Source\PSoC6\pdl\drivers/peripheral/gpio/cy_gpio.h **** * \return
 681:Generated_Source\PSoC6\pdl\drivers/peripheral/gpio/cy_gpio.h **** * HSIOM input selection
 682:Generated_Source\PSoC6\pdl\drivers/peripheral/gpio/cy_gpio.h **** *
 683:Generated_Source\PSoC6\pdl\drivers/peripheral/gpio/cy_gpio.h **** * \funcusage
 684:Generated_Source\PSoC6\pdl\drivers/peripheral/gpio/cy_gpio.h **** * \snippet gpio/gpio_v1_10_sut_01.cydsn/main_cm4.c snippet_Cy_GPIO_SetHSIOM
 685:Generated_Source\PSoC6\pdl\drivers/peripheral/gpio/cy_gpio.h **** *
ARM GAS  C:\Users\dmr85\AppData\Local\Temp\ccCZSREw.s 			page 27


 686:Generated_Source\PSoC6\pdl\drivers/peripheral/gpio/cy_gpio.h **** *******************************************************************************/
 687:Generated_Source\PSoC6\pdl\drivers/peripheral/gpio/cy_gpio.h **** __STATIC_INLINE en_hsiom_sel_t Cy_GPIO_GetHSIOM(GPIO_PRT_Type* base, uint32_t pinNum)
 688:Generated_Source\PSoC6\pdl\drivers/peripheral/gpio/cy_gpio.h **** {
 689:Generated_Source\PSoC6\pdl\drivers/peripheral/gpio/cy_gpio.h ****     uint32_t returnValue;
 690:Generated_Source\PSoC6\pdl\drivers/peripheral/gpio/cy_gpio.h ****     uint32_t portNum;
 691:Generated_Source\PSoC6\pdl\drivers/peripheral/gpio/cy_gpio.h ****     HSIOM_PRT_V1_Type* portAddrHSIOM;
 692:Generated_Source\PSoC6\pdl\drivers/peripheral/gpio/cy_gpio.h ****     
 693:Generated_Source\PSoC6\pdl\drivers/peripheral/gpio/cy_gpio.h ****     CY_ASSERT_L2(CY_GPIO_IS_PIN_VALID(pinNum));
 694:Generated_Source\PSoC6\pdl\drivers/peripheral/gpio/cy_gpio.h **** 
 695:Generated_Source\PSoC6\pdl\drivers/peripheral/gpio/cy_gpio.h ****     portNum = ((uint32_t)(base) - CY_GPIO_BASE) / GPIO_PRT_SECTION_SIZE;
 696:Generated_Source\PSoC6\pdl\drivers/peripheral/gpio/cy_gpio.h ****     portAddrHSIOM = (HSIOM_PRT_V1_Type*)(CY_HSIOM_BASE + (HSIOM_PRT_SECTION_SIZE * portNum));
 697:Generated_Source\PSoC6\pdl\drivers/peripheral/gpio/cy_gpio.h **** 
 698:Generated_Source\PSoC6\pdl\drivers/peripheral/gpio/cy_gpio.h ****     if(pinNum < CY_GPIO_PRT_HALF)
 699:Generated_Source\PSoC6\pdl\drivers/peripheral/gpio/cy_gpio.h ****     {
 700:Generated_Source\PSoC6\pdl\drivers/peripheral/gpio/cy_gpio.h ****         returnValue = (HSIOM_PRT_PORT_SEL0(portAddrHSIOM) >> (pinNum << CY_GPIO_HSIOM_OFFSET)) & CY
 701:Generated_Source\PSoC6\pdl\drivers/peripheral/gpio/cy_gpio.h ****     }
 702:Generated_Source\PSoC6\pdl\drivers/peripheral/gpio/cy_gpio.h ****     else
 703:Generated_Source\PSoC6\pdl\drivers/peripheral/gpio/cy_gpio.h ****     {
 704:Generated_Source\PSoC6\pdl\drivers/peripheral/gpio/cy_gpio.h ****         pinNum -= CY_GPIO_PRT_HALF;
 705:Generated_Source\PSoC6\pdl\drivers/peripheral/gpio/cy_gpio.h ****         returnValue = (HSIOM_PRT_PORT_SEL1(portAddrHSIOM) >> (pinNum << CY_GPIO_HSIOM_OFFSET)) & CY
 706:Generated_Source\PSoC6\pdl\drivers/peripheral/gpio/cy_gpio.h ****     }
 707:Generated_Source\PSoC6\pdl\drivers/peripheral/gpio/cy_gpio.h **** 
 708:Generated_Source\PSoC6\pdl\drivers/peripheral/gpio/cy_gpio.h ****     return (en_hsiom_sel_t)returnValue;
 709:Generated_Source\PSoC6\pdl\drivers/peripheral/gpio/cy_gpio.h **** }
 710:Generated_Source\PSoC6\pdl\drivers/peripheral/gpio/cy_gpio.h **** 
 711:Generated_Source\PSoC6\pdl\drivers/peripheral/gpio/cy_gpio.h **** 
 712:Generated_Source\PSoC6\pdl\drivers/peripheral/gpio/cy_gpio.h **** /*******************************************************************************
 713:Generated_Source\PSoC6\pdl\drivers/peripheral/gpio/cy_gpio.h **** * Function Name: Cy_GPIO_PortToAddr
 714:Generated_Source\PSoC6\pdl\drivers/peripheral/gpio/cy_gpio.h **** ****************************************************************************//**
 715:Generated_Source\PSoC6\pdl\drivers/peripheral/gpio/cy_gpio.h **** *
 716:Generated_Source\PSoC6\pdl\drivers/peripheral/gpio/cy_gpio.h **** * Retrieves the port address based on the given port number.
 717:Generated_Source\PSoC6\pdl\drivers/peripheral/gpio/cy_gpio.h **** *
 718:Generated_Source\PSoC6\pdl\drivers/peripheral/gpio/cy_gpio.h **** * This is a helper function to calculate the port base address when given a port
 719:Generated_Source\PSoC6\pdl\drivers/peripheral/gpio/cy_gpio.h **** * number. It is to be used when pin access needs to be calculated at runtime.
 720:Generated_Source\PSoC6\pdl\drivers/peripheral/gpio/cy_gpio.h **** *
 721:Generated_Source\PSoC6\pdl\drivers/peripheral/gpio/cy_gpio.h **** * \param portNum
 722:Generated_Source\PSoC6\pdl\drivers/peripheral/gpio/cy_gpio.h **** * Port number
 723:Generated_Source\PSoC6\pdl\drivers/peripheral/gpio/cy_gpio.h **** *
 724:Generated_Source\PSoC6\pdl\drivers/peripheral/gpio/cy_gpio.h **** * \return
 725:Generated_Source\PSoC6\pdl\drivers/peripheral/gpio/cy_gpio.h **** * Base address of the port register structure
 726:Generated_Source\PSoC6\pdl\drivers/peripheral/gpio/cy_gpio.h **** *
 727:Generated_Source\PSoC6\pdl\drivers/peripheral/gpio/cy_gpio.h **** * \funcusage
 728:Generated_Source\PSoC6\pdl\drivers/peripheral/gpio/cy_gpio.h **** * \snippet gpio/gpio_v1_10_sut_01.cydsn/main_cm4.c snippet_Cy_GPIO_PortToAddr
 729:Generated_Source\PSoC6\pdl\drivers/peripheral/gpio/cy_gpio.h **** *
 730:Generated_Source\PSoC6\pdl\drivers/peripheral/gpio/cy_gpio.h **** *******************************************************************************/
 731:Generated_Source\PSoC6\pdl\drivers/peripheral/gpio/cy_gpio.h **** __STATIC_INLINE GPIO_PRT_Type* Cy_GPIO_PortToAddr(uint32_t portNum)
 732:Generated_Source\PSoC6\pdl\drivers/peripheral/gpio/cy_gpio.h **** {
 733:Generated_Source\PSoC6\pdl\drivers/peripheral/gpio/cy_gpio.h ****     GPIO_PRT_Type* portBase;
 734:Generated_Source\PSoC6\pdl\drivers/peripheral/gpio/cy_gpio.h ****     
 735:Generated_Source\PSoC6\pdl\drivers/peripheral/gpio/cy_gpio.h ****     if(portNum < (uint32_t)IOSS_GPIO_GPIO_PORT_NR)
 736:Generated_Source\PSoC6\pdl\drivers/peripheral/gpio/cy_gpio.h ****     {
 737:Generated_Source\PSoC6\pdl\drivers/peripheral/gpio/cy_gpio.h ****         portBase = (GPIO_PRT_Type *)(CY_GPIO_BASE + (GPIO_PRT_SECTION_SIZE * portNum));
 738:Generated_Source\PSoC6\pdl\drivers/peripheral/gpio/cy_gpio.h ****     }
 739:Generated_Source\PSoC6\pdl\drivers/peripheral/gpio/cy_gpio.h ****     else
 740:Generated_Source\PSoC6\pdl\drivers/peripheral/gpio/cy_gpio.h ****     {
 741:Generated_Source\PSoC6\pdl\drivers/peripheral/gpio/cy_gpio.h ****         /* Error: Return default base address */
 742:Generated_Source\PSoC6\pdl\drivers/peripheral/gpio/cy_gpio.h ****         portBase = (GPIO_PRT_Type *)(CY_GPIO_BASE);
ARM GAS  C:\Users\dmr85\AppData\Local\Temp\ccCZSREw.s 			page 28


 743:Generated_Source\PSoC6\pdl\drivers/peripheral/gpio/cy_gpio.h ****     }
 744:Generated_Source\PSoC6\pdl\drivers/peripheral/gpio/cy_gpio.h **** 
 745:Generated_Source\PSoC6\pdl\drivers/peripheral/gpio/cy_gpio.h ****     return (portBase);
 746:Generated_Source\PSoC6\pdl\drivers/peripheral/gpio/cy_gpio.h **** }
 747:Generated_Source\PSoC6\pdl\drivers/peripheral/gpio/cy_gpio.h **** 
 748:Generated_Source\PSoC6\pdl\drivers/peripheral/gpio/cy_gpio.h **** /** \} group_gpio_functions_init */
 749:Generated_Source\PSoC6\pdl\drivers/peripheral/gpio/cy_gpio.h **** 
 750:Generated_Source\PSoC6\pdl\drivers/peripheral/gpio/cy_gpio.h **** /**
 751:Generated_Source\PSoC6\pdl\drivers/peripheral/gpio/cy_gpio.h **** * \addtogroup group_gpio_functions_gpio
 752:Generated_Source\PSoC6\pdl\drivers/peripheral/gpio/cy_gpio.h **** * \{
 753:Generated_Source\PSoC6\pdl\drivers/peripheral/gpio/cy_gpio.h **** */
 754:Generated_Source\PSoC6\pdl\drivers/peripheral/gpio/cy_gpio.h **** 
 755:Generated_Source\PSoC6\pdl\drivers/peripheral/gpio/cy_gpio.h **** /*******************************************************************************
 756:Generated_Source\PSoC6\pdl\drivers/peripheral/gpio/cy_gpio.h **** * Function Name: Cy_GPIO_Read
 757:Generated_Source\PSoC6\pdl\drivers/peripheral/gpio/cy_gpio.h **** ****************************************************************************//**
 758:Generated_Source\PSoC6\pdl\drivers/peripheral/gpio/cy_gpio.h **** *
 759:Generated_Source\PSoC6\pdl\drivers/peripheral/gpio/cy_gpio.h **** * Reads the current logic level on the input buffer of the pin.
 760:Generated_Source\PSoC6\pdl\drivers/peripheral/gpio/cy_gpio.h **** *
 761:Generated_Source\PSoC6\pdl\drivers/peripheral/gpio/cy_gpio.h **** * \param base
 762:Generated_Source\PSoC6\pdl\drivers/peripheral/gpio/cy_gpio.h **** * Pointer to the pin's port register base address
 763:Generated_Source\PSoC6\pdl\drivers/peripheral/gpio/cy_gpio.h **** *
 764:Generated_Source\PSoC6\pdl\drivers/peripheral/gpio/cy_gpio.h **** * \param pinNum
 765:Generated_Source\PSoC6\pdl\drivers/peripheral/gpio/cy_gpio.h **** * Position of the pin bit-field within the port register.
 766:Generated_Source\PSoC6\pdl\drivers/peripheral/gpio/cy_gpio.h **** * Bit position 8 is the routed pin through the port glitch filter.
 767:Generated_Source\PSoC6\pdl\drivers/peripheral/gpio/cy_gpio.h **** *
 768:Generated_Source\PSoC6\pdl\drivers/peripheral/gpio/cy_gpio.h **** * \return
 769:Generated_Source\PSoC6\pdl\drivers/peripheral/gpio/cy_gpio.h **** * Logic level present on the pin
 770:Generated_Source\PSoC6\pdl\drivers/peripheral/gpio/cy_gpio.h **** *
 771:Generated_Source\PSoC6\pdl\drivers/peripheral/gpio/cy_gpio.h **** * \funcusage
 772:Generated_Source\PSoC6\pdl\drivers/peripheral/gpio/cy_gpio.h **** * \snippet gpio/gpio_v1_10_sut_01.cydsn/main_cm4.c snippet_Cy_GPIO_Read
 773:Generated_Source\PSoC6\pdl\drivers/peripheral/gpio/cy_gpio.h **** *
 774:Generated_Source\PSoC6\pdl\drivers/peripheral/gpio/cy_gpio.h **** *******************************************************************************/
 775:Generated_Source\PSoC6\pdl\drivers/peripheral/gpio/cy_gpio.h **** __STATIC_INLINE uint32_t Cy_GPIO_Read(GPIO_PRT_Type* base, uint32_t pinNum)
 776:Generated_Source\PSoC6\pdl\drivers/peripheral/gpio/cy_gpio.h **** {
 777:Generated_Source\PSoC6\pdl\drivers/peripheral/gpio/cy_gpio.h ****     CY_ASSERT_L2(CY_GPIO_IS_FILTER_PIN_VALID(pinNum));
 778:Generated_Source\PSoC6\pdl\drivers/peripheral/gpio/cy_gpio.h ****     
 779:Generated_Source\PSoC6\pdl\drivers/peripheral/gpio/cy_gpio.h ****     return (GPIO_PRT_IN(base) >> (pinNum)) & CY_GPIO_IN_MASK;
 780:Generated_Source\PSoC6\pdl\drivers/peripheral/gpio/cy_gpio.h **** }
 781:Generated_Source\PSoC6\pdl\drivers/peripheral/gpio/cy_gpio.h **** 
 782:Generated_Source\PSoC6\pdl\drivers/peripheral/gpio/cy_gpio.h **** 
 783:Generated_Source\PSoC6\pdl\drivers/peripheral/gpio/cy_gpio.h **** /*******************************************************************************
 784:Generated_Source\PSoC6\pdl\drivers/peripheral/gpio/cy_gpio.h **** * Function Name: Cy_GPIO_Write
 785:Generated_Source\PSoC6\pdl\drivers/peripheral/gpio/cy_gpio.h **** ****************************************************************************//**
 786:Generated_Source\PSoC6\pdl\drivers/peripheral/gpio/cy_gpio.h **** *
 787:Generated_Source\PSoC6\pdl\drivers/peripheral/gpio/cy_gpio.h **** * Write a logic 0 or logic 1 state to the output driver.
 788:Generated_Source\PSoC6\pdl\drivers/peripheral/gpio/cy_gpio.h **** *
 789:Generated_Source\PSoC6\pdl\drivers/peripheral/gpio/cy_gpio.h **** * This function should be used only for software driven pins. It does not have
 790:Generated_Source\PSoC6\pdl\drivers/peripheral/gpio/cy_gpio.h **** * any effect on peripheral driven pins.
 791:Generated_Source\PSoC6\pdl\drivers/peripheral/gpio/cy_gpio.h **** *
 792:Generated_Source\PSoC6\pdl\drivers/peripheral/gpio/cy_gpio.h **** * \param base
 793:Generated_Source\PSoC6\pdl\drivers/peripheral/gpio/cy_gpio.h **** * Pointer to the pin's port register base address
 794:Generated_Source\PSoC6\pdl\drivers/peripheral/gpio/cy_gpio.h **** *
 795:Generated_Source\PSoC6\pdl\drivers/peripheral/gpio/cy_gpio.h **** * \param pinNum
 796:Generated_Source\PSoC6\pdl\drivers/peripheral/gpio/cy_gpio.h **** * Position of the pin bit-field within the port register
 797:Generated_Source\PSoC6\pdl\drivers/peripheral/gpio/cy_gpio.h **** *
 798:Generated_Source\PSoC6\pdl\drivers/peripheral/gpio/cy_gpio.h **** * \param value
 799:Generated_Source\PSoC6\pdl\drivers/peripheral/gpio/cy_gpio.h **** * Logic level to drive out on the pin
ARM GAS  C:\Users\dmr85\AppData\Local\Temp\ccCZSREw.s 			page 29


 800:Generated_Source\PSoC6\pdl\drivers/peripheral/gpio/cy_gpio.h **** *
 801:Generated_Source\PSoC6\pdl\drivers/peripheral/gpio/cy_gpio.h **** * \funcusage
 802:Generated_Source\PSoC6\pdl\drivers/peripheral/gpio/cy_gpio.h **** * \snippet gpio/gpio_v1_10_sut_01.cydsn/main_cm4.c snippet_Cy_GPIO_Write
 803:Generated_Source\PSoC6\pdl\drivers/peripheral/gpio/cy_gpio.h **** *
 804:Generated_Source\PSoC6\pdl\drivers/peripheral/gpio/cy_gpio.h **** *******************************************************************************/
 805:Generated_Source\PSoC6\pdl\drivers/peripheral/gpio/cy_gpio.h **** __STATIC_INLINE void Cy_GPIO_Write(GPIO_PRT_Type* base, uint32_t pinNum, uint32_t value)
 806:Generated_Source\PSoC6\pdl\drivers/peripheral/gpio/cy_gpio.h **** {
 807:Generated_Source\PSoC6\pdl\drivers/peripheral/gpio/cy_gpio.h ****     CY_ASSERT_L2(CY_GPIO_IS_PIN_VALID(pinNum));
 808:Generated_Source\PSoC6\pdl\drivers/peripheral/gpio/cy_gpio.h ****     CY_ASSERT_L2(CY_GPIO_IS_VALUE_VALID(value));
 809:Generated_Source\PSoC6\pdl\drivers/peripheral/gpio/cy_gpio.h **** 
 810:Generated_Source\PSoC6\pdl\drivers/peripheral/gpio/cy_gpio.h ****     /* Thread-safe: Directly access the pin registers instead of base->OUT */
 811:Generated_Source\PSoC6\pdl\drivers/peripheral/gpio/cy_gpio.h ****     if(0UL == value)
 812:Generated_Source\PSoC6\pdl\drivers/peripheral/gpio/cy_gpio.h ****     {
 813:Generated_Source\PSoC6\pdl\drivers/peripheral/gpio/cy_gpio.h ****         GPIO_PRT_OUT_CLR(base) = CY_GPIO_OUT_MASK << pinNum;
 814:Generated_Source\PSoC6\pdl\drivers/peripheral/gpio/cy_gpio.h ****     }
 815:Generated_Source\PSoC6\pdl\drivers/peripheral/gpio/cy_gpio.h ****     else
 816:Generated_Source\PSoC6\pdl\drivers/peripheral/gpio/cy_gpio.h ****     {
 817:Generated_Source\PSoC6\pdl\drivers/peripheral/gpio/cy_gpio.h ****         GPIO_PRT_OUT_SET(base) = CY_GPIO_OUT_MASK << pinNum;
 818:Generated_Source\PSoC6\pdl\drivers/peripheral/gpio/cy_gpio.h ****     }
 819:Generated_Source\PSoC6\pdl\drivers/peripheral/gpio/cy_gpio.h **** }
 820:Generated_Source\PSoC6\pdl\drivers/peripheral/gpio/cy_gpio.h **** 
 821:Generated_Source\PSoC6\pdl\drivers/peripheral/gpio/cy_gpio.h **** 
 822:Generated_Source\PSoC6\pdl\drivers/peripheral/gpio/cy_gpio.h **** /*******************************************************************************
 823:Generated_Source\PSoC6\pdl\drivers/peripheral/gpio/cy_gpio.h **** * Function Name: Cy_GPIO_ReadOut
 824:Generated_Source\PSoC6\pdl\drivers/peripheral/gpio/cy_gpio.h **** ****************************************************************************//**
 825:Generated_Source\PSoC6\pdl\drivers/peripheral/gpio/cy_gpio.h **** *
 826:Generated_Source\PSoC6\pdl\drivers/peripheral/gpio/cy_gpio.h **** * Reads the current logic level on the pin output driver.
 827:Generated_Source\PSoC6\pdl\drivers/peripheral/gpio/cy_gpio.h **** *
 828:Generated_Source\PSoC6\pdl\drivers/peripheral/gpio/cy_gpio.h **** * \param base
 829:Generated_Source\PSoC6\pdl\drivers/peripheral/gpio/cy_gpio.h **** * Pointer to the pin's port register base address
 830:Generated_Source\PSoC6\pdl\drivers/peripheral/gpio/cy_gpio.h **** *
 831:Generated_Source\PSoC6\pdl\drivers/peripheral/gpio/cy_gpio.h **** * \param pinNum
 832:Generated_Source\PSoC6\pdl\drivers/peripheral/gpio/cy_gpio.h **** * Position of the pin bit-field within the port register
 833:Generated_Source\PSoC6\pdl\drivers/peripheral/gpio/cy_gpio.h **** *
 834:Generated_Source\PSoC6\pdl\drivers/peripheral/gpio/cy_gpio.h **** * \return
 835:Generated_Source\PSoC6\pdl\drivers/peripheral/gpio/cy_gpio.h **** * Logic level on the pin output driver
 836:Generated_Source\PSoC6\pdl\drivers/peripheral/gpio/cy_gpio.h **** *
 837:Generated_Source\PSoC6\pdl\drivers/peripheral/gpio/cy_gpio.h **** * \funcusage
 838:Generated_Source\PSoC6\pdl\drivers/peripheral/gpio/cy_gpio.h **** * \snippet gpio/gpio_v1_10_sut_01.cydsn/main_cm4.c snippet_Cy_GPIO_ReadOut
 839:Generated_Source\PSoC6\pdl\drivers/peripheral/gpio/cy_gpio.h **** *
 840:Generated_Source\PSoC6\pdl\drivers/peripheral/gpio/cy_gpio.h **** *******************************************************************************/
 841:Generated_Source\PSoC6\pdl\drivers/peripheral/gpio/cy_gpio.h **** __STATIC_INLINE uint32_t Cy_GPIO_ReadOut(GPIO_PRT_Type* base, uint32_t pinNum)
 842:Generated_Source\PSoC6\pdl\drivers/peripheral/gpio/cy_gpio.h **** {
 843:Generated_Source\PSoC6\pdl\drivers/peripheral/gpio/cy_gpio.h ****     CY_ASSERT_L2(CY_GPIO_IS_PIN_VALID(pinNum));
 844:Generated_Source\PSoC6\pdl\drivers/peripheral/gpio/cy_gpio.h **** 
 845:Generated_Source\PSoC6\pdl\drivers/peripheral/gpio/cy_gpio.h ****     return (GPIO_PRT_OUT(base) >> pinNum) & CY_GPIO_OUT_MASK;
 846:Generated_Source\PSoC6\pdl\drivers/peripheral/gpio/cy_gpio.h **** }
 847:Generated_Source\PSoC6\pdl\drivers/peripheral/gpio/cy_gpio.h **** 
 848:Generated_Source\PSoC6\pdl\drivers/peripheral/gpio/cy_gpio.h **** 
 849:Generated_Source\PSoC6\pdl\drivers/peripheral/gpio/cy_gpio.h **** /*******************************************************************************
 850:Generated_Source\PSoC6\pdl\drivers/peripheral/gpio/cy_gpio.h **** * Function Name: Cy_GPIO_Set
 851:Generated_Source\PSoC6\pdl\drivers/peripheral/gpio/cy_gpio.h **** ****************************************************************************//**
 852:Generated_Source\PSoC6\pdl\drivers/peripheral/gpio/cy_gpio.h **** *
 853:Generated_Source\PSoC6\pdl\drivers/peripheral/gpio/cy_gpio.h **** * Set a pin output to logic state high.
 854:Generated_Source\PSoC6\pdl\drivers/peripheral/gpio/cy_gpio.h **** *
 855:Generated_Source\PSoC6\pdl\drivers/peripheral/gpio/cy_gpio.h **** * This function should be used only for software driven pins. It does not have
 856:Generated_Source\PSoC6\pdl\drivers/peripheral/gpio/cy_gpio.h **** * any effect on peripheral driven pins.
ARM GAS  C:\Users\dmr85\AppData\Local\Temp\ccCZSREw.s 			page 30


 857:Generated_Source\PSoC6\pdl\drivers/peripheral/gpio/cy_gpio.h **** *
 858:Generated_Source\PSoC6\pdl\drivers/peripheral/gpio/cy_gpio.h **** * \param base
 859:Generated_Source\PSoC6\pdl\drivers/peripheral/gpio/cy_gpio.h **** * Pointer to the pin's port register base address
 860:Generated_Source\PSoC6\pdl\drivers/peripheral/gpio/cy_gpio.h **** *
 861:Generated_Source\PSoC6\pdl\drivers/peripheral/gpio/cy_gpio.h **** * \param pinNum
 862:Generated_Source\PSoC6\pdl\drivers/peripheral/gpio/cy_gpio.h **** * Position of the pin bit-field within the port register
 863:Generated_Source\PSoC6\pdl\drivers/peripheral/gpio/cy_gpio.h **** *
 864:Generated_Source\PSoC6\pdl\drivers/peripheral/gpio/cy_gpio.h **** * \funcusage
 865:Generated_Source\PSoC6\pdl\drivers/peripheral/gpio/cy_gpio.h **** * \snippet gpio/gpio_v1_10_sut_01.cydsn/main_cm4.c snippet_Cy_GPIO_Set
 866:Generated_Source\PSoC6\pdl\drivers/peripheral/gpio/cy_gpio.h **** *
 867:Generated_Source\PSoC6\pdl\drivers/peripheral/gpio/cy_gpio.h **** *******************************************************************************/
 868:Generated_Source\PSoC6\pdl\drivers/peripheral/gpio/cy_gpio.h **** __STATIC_INLINE void Cy_GPIO_Set(GPIO_PRT_Type* base, uint32_t pinNum)
 869:Generated_Source\PSoC6\pdl\drivers/peripheral/gpio/cy_gpio.h **** {
 870:Generated_Source\PSoC6\pdl\drivers/peripheral/gpio/cy_gpio.h ****     CY_ASSERT_L2(CY_GPIO_IS_PIN_VALID(pinNum));
 871:Generated_Source\PSoC6\pdl\drivers/peripheral/gpio/cy_gpio.h ****     
 872:Generated_Source\PSoC6\pdl\drivers/peripheral/gpio/cy_gpio.h ****     GPIO_PRT_OUT_SET(base) = CY_GPIO_OUT_MASK << pinNum;
 246              		.loc 3 872 0
 247 0010 1022     		movs	r2, #16
 248 0012 0B4B     		ldr	r3, .L24
 249 0014 9A60     		str	r2, [r3, #8]
 250 0016 7047     		bx	lr
 251              	.LVL23:
 252              	.L19:
 253              	.LBE48:
 254              	.LBE47:
 255              	.LBB49:
 256              	.LBB50:
 257 0018 1022     		movs	r2, #16
 258 001a 0A4B     		ldr	r3, .L24+4
 259 001c 9A60     		str	r2, [r3, #8]
 260 001e 7047     		bx	lr
 261              	.LVL24:
 262              	.L20:
 263              	.LBE50:
 264              	.LBE49:
 265              	.LBB51:
 266              	.LBB52:
 267 0020 4022     		movs	r2, #64
 268 0022 074B     		ldr	r3, .L24
 269 0024 9A60     		str	r2, [r3, #8]
 270 0026 7047     		bx	lr
 271              	.LVL25:
 272              	.L21:
 273              	.LBE52:
 274              	.LBE51:
 275              	.LBB53:
 276              	.LBB54:
 277 0028 2022     		movs	r2, #32
 278 002a 054B     		ldr	r3, .L24
 279 002c 9A60     		str	r2, [r3, #8]
 280 002e 7047     		bx	lr
 281              	.LVL26:
 282              	.L22:
 283              	.LBE54:
 284              	.LBE53:
 285              	.LBB55:
 286              	.LBB56:
ARM GAS  C:\Users\dmr85\AppData\Local\Temp\ccCZSREw.s 			page 31


 287 0030 0822     		movs	r2, #8
 288 0032 054B     		ldr	r3, .L24+8
 289 0034 9A60     		str	r2, [r3, #8]
 290 0036 7047     		bx	lr
 291              	.LVL27:
 292              	.L23:
 293              	.LBE56:
 294              	.LBE55:
 295              	.LBB57:
 296              	.LBB58:
 297 0038 4022     		movs	r2, #64
 298 003a 024B     		ldr	r3, .L24+4
 299 003c 9A60     		str	r2, [r3, #8]
 300              	.LVL28:
 301              	.L15:
 302 003e 7047     		bx	lr
 303              	.L25:
 304              		.align	2
 305              	.L24:
 306 0040 00053240 		.word	1077019904
 307 0044 80023240 		.word	1077019264
 308 0048 80043240 		.word	1077019776
 309              	.LBE58:
 310              	.LBE57:
 311              		.cfi_endproc
 312              	.LFE544:
 313              		.size	gpio_set_gpio_pin, .-gpio_set_gpio_pin
 314              		.section	.text.spi_unselectChip,"ax",%progbits
 315              		.align	2
 316              		.global	spi_unselectChip
 317              		.thumb
 318              		.thumb_func
 319              		.type	spi_unselectChip, %function
 320              	spi_unselectChip:
 321              	.LFB540:
  82:ads1299_spi_adapt.c ****     // CyDelayUs(1);
 322              		.loc 1 82 0
 323              		.cfi_startproc
 324              		@ args = 0, pretend = 0, frame = 0
 325              		@ frame_needed = 0, uses_anonymous_args = 0
 326              	.LVL29:
 327 0000 08B5     		push	{r3, lr}
 328              		.cfi_def_cfa_offset 8
 329              		.cfi_offset 3, -8
 330              		.cfi_offset 14, -4
  84:ads1299_spi_adapt.c **** }
 331              		.loc 1 84 0
 332 0002 0520     		movs	r0, #5
 333              	.LVL30:
 334 0004 FFF7FEFF 		bl	gpio_set_gpio_pin
 335              	.LVL31:
 336 0008 08BD     		pop	{r3, pc}
 337              		.cfi_endproc
 338              	.LFE540:
 339              		.size	spi_unselectChip, .-spi_unselectChip
 340 000a 00BF     		.section	.text.gpio_clr_gpio_pin,"ax",%progbits
 341              		.align	2
ARM GAS  C:\Users\dmr85\AppData\Local\Temp\ccCZSREw.s 			page 32


 342              		.global	gpio_clr_gpio_pin
 343              		.thumb
 344              		.thumb_func
 345              		.type	gpio_clr_gpio_pin, %function
 346              	gpio_clr_gpio_pin:
 347              	.LFB545:
 105:ads1299_spi_adapt.c ****     {
 106:ads1299_spi_adapt.c ****         case ADS1299_PIN_PWDN:
 107:ads1299_spi_adapt.c ****             Cy_GPIO_Set(PIN_ADS1299_PWDN_0_PORT, PIN_ADS1299_PWDN_0_NUM);
 108:ads1299_spi_adapt.c ****         break;
 109:ads1299_spi_adapt.c ****         case ADS1299_PIN_DRDY:
 110:ads1299_spi_adapt.c ****             Cy_GPIO_Set(PIN_ADS1299_DRDY_0_PORT, PIN_ADS1299_DRDY_0_NUM);
 111:ads1299_spi_adapt.c ****         break;
 112:ads1299_spi_adapt.c ****         case ADS1299_PIN_START:
 113:ads1299_spi_adapt.c ****             Cy_GPIO_Set(PIN_ADS1299_START_0_PORT, PIN_ADS1299_START_0_NUM);
 114:ads1299_spi_adapt.c ****         break;
 115:ads1299_spi_adapt.c ****         case ADS1299_PIN_RESET:
 116:ads1299_spi_adapt.c ****             Cy_GPIO_Set(PIN_ADS1299_RESET_0_PORT, PIN_ADS1299_RESET_0_NUM);
 117:ads1299_spi_adapt.c ****         break;
 118:ads1299_spi_adapt.c ****         case ADS1299_PIN_CS:
 119:ads1299_spi_adapt.c ****             Cy_GPIO_Set(SPI_ss0_m_0_PORT, SPI_ss0_m_0_NUM);
 120:ads1299_spi_adapt.c ****         break;
 121:ads1299_spi_adapt.c ****         case ADS1299_PIN_CLKSEL:
 122:ads1299_spi_adapt.c ****             Cy_GPIO_Set(PIN_ADS1299_CLKSEL_0_PORT, PIN_ADS1299_CLKSEL_0_NUM);
 123:ads1299_spi_adapt.c ****         break;
 124:ads1299_spi_adapt.c ****     }
 125:ads1299_spi_adapt.c **** }
 126:ads1299_spi_adapt.c **** 
 127:ads1299_spi_adapt.c **** void gpio_clr_gpio_pin(uint32_t pin)
 128:ads1299_spi_adapt.c **** {
 348              		.loc 1 128 0
 349              		.cfi_startproc
 350              		@ args = 0, pretend = 0, frame = 0
 351              		@ frame_needed = 0, uses_anonymous_args = 0
 352              		@ link register save eliminated.
 353              	.LVL32:
 129:ads1299_spi_adapt.c ****     switch (pin)
 354              		.loc 1 129 0
 355 0000 0138     		subs	r0, r0, #1
 356              	.LVL33:
 357 0002 0428     		cmp	r0, #4
 358 0004 17D8     		bhi	.L28
 359 0006 DFE800F0 		tbb	[pc, r0]
 360              	.L31:
 361 000a 03       		.byte	(.L30-.L31)/2
 362 000b 07       		.byte	(.L32-.L31)/2
 363 000c 0B       		.byte	(.L33-.L31)/2
 364 000d 0F       		.byte	(.L34-.L31)/2
 365 000e 13       		.byte	(.L35-.L31)/2
 366 000f 00       		.p2align 1
 367              	.L30:
 368              	.LVL34:
 369              	.LBB59:
 370              	.LBB60:
 873:Generated_Source\PSoC6\pdl\drivers/peripheral/gpio/cy_gpio.h **** }
 874:Generated_Source\PSoC6\pdl\drivers/peripheral/gpio/cy_gpio.h **** 
 875:Generated_Source\PSoC6\pdl\drivers/peripheral/gpio/cy_gpio.h **** 
ARM GAS  C:\Users\dmr85\AppData\Local\Temp\ccCZSREw.s 			page 33


 876:Generated_Source\PSoC6\pdl\drivers/peripheral/gpio/cy_gpio.h **** /*******************************************************************************
 877:Generated_Source\PSoC6\pdl\drivers/peripheral/gpio/cy_gpio.h **** * Function Name: Cy_GPIO_Clr
 878:Generated_Source\PSoC6\pdl\drivers/peripheral/gpio/cy_gpio.h **** ****************************************************************************//**
 879:Generated_Source\PSoC6\pdl\drivers/peripheral/gpio/cy_gpio.h **** *
 880:Generated_Source\PSoC6\pdl\drivers/peripheral/gpio/cy_gpio.h **** * Set a pin output to logic state Low.
 881:Generated_Source\PSoC6\pdl\drivers/peripheral/gpio/cy_gpio.h **** *
 882:Generated_Source\PSoC6\pdl\drivers/peripheral/gpio/cy_gpio.h **** * This function should be used only for software driven pins. It does not have
 883:Generated_Source\PSoC6\pdl\drivers/peripheral/gpio/cy_gpio.h **** * any effect on peripheral driven pins.
 884:Generated_Source\PSoC6\pdl\drivers/peripheral/gpio/cy_gpio.h **** *
 885:Generated_Source\PSoC6\pdl\drivers/peripheral/gpio/cy_gpio.h **** * \param base
 886:Generated_Source\PSoC6\pdl\drivers/peripheral/gpio/cy_gpio.h **** * Pointer to the pin's port register base address
 887:Generated_Source\PSoC6\pdl\drivers/peripheral/gpio/cy_gpio.h **** *
 888:Generated_Source\PSoC6\pdl\drivers/peripheral/gpio/cy_gpio.h **** * \param pinNum
 889:Generated_Source\PSoC6\pdl\drivers/peripheral/gpio/cy_gpio.h **** * Position of the pin bit-field within the port register
 890:Generated_Source\PSoC6\pdl\drivers/peripheral/gpio/cy_gpio.h **** *
 891:Generated_Source\PSoC6\pdl\drivers/peripheral/gpio/cy_gpio.h **** * \funcusage
 892:Generated_Source\PSoC6\pdl\drivers/peripheral/gpio/cy_gpio.h **** * \snippet gpio/gpio_v1_10_sut_01.cydsn/main_cm4.c snippet_Cy_GPIO_Clr
 893:Generated_Source\PSoC6\pdl\drivers/peripheral/gpio/cy_gpio.h **** *
 894:Generated_Source\PSoC6\pdl\drivers/peripheral/gpio/cy_gpio.h **** *******************************************************************************/
 895:Generated_Source\PSoC6\pdl\drivers/peripheral/gpio/cy_gpio.h **** __STATIC_INLINE void Cy_GPIO_Clr(GPIO_PRT_Type* base, uint32_t pinNum)
 896:Generated_Source\PSoC6\pdl\drivers/peripheral/gpio/cy_gpio.h **** {
 897:Generated_Source\PSoC6\pdl\drivers/peripheral/gpio/cy_gpio.h ****     CY_ASSERT_L2(CY_GPIO_IS_PIN_VALID(pinNum));
 898:Generated_Source\PSoC6\pdl\drivers/peripheral/gpio/cy_gpio.h ****     
 899:Generated_Source\PSoC6\pdl\drivers/peripheral/gpio/cy_gpio.h ****     GPIO_PRT_OUT_CLR(base) = CY_GPIO_OUT_MASK << pinNum;
 371              		.loc 3 899 0
 372 0010 1022     		movs	r2, #16
 373 0012 094B     		ldr	r3, .L36
 374 0014 5A60     		str	r2, [r3, #4]
 375 0016 7047     		bx	lr
 376              	.LVL35:
 377              	.L32:
 378              	.LBE60:
 379              	.LBE59:
 380              	.LBB61:
 381              	.LBB62:
 382 0018 1022     		movs	r2, #16
 383 001a 084B     		ldr	r3, .L36+4
 384 001c 5A60     		str	r2, [r3, #4]
 385 001e 7047     		bx	lr
 386              	.LVL36:
 387              	.L33:
 388              	.LBE62:
 389              	.LBE61:
 390              	.LBB63:
 391              	.LBB64:
 392 0020 4022     		movs	r2, #64
 393 0022 054B     		ldr	r3, .L36
 394 0024 5A60     		str	r2, [r3, #4]
 395 0026 7047     		bx	lr
 396              	.LVL37:
 397              	.L34:
 398              	.LBE64:
 399              	.LBE63:
 400              	.LBB65:
 401              	.LBB66:
 402 0028 2022     		movs	r2, #32
 403 002a 034B     		ldr	r3, .L36
ARM GAS  C:\Users\dmr85\AppData\Local\Temp\ccCZSREw.s 			page 34


 404 002c 5A60     		str	r2, [r3, #4]
 405 002e 7047     		bx	lr
 406              	.LVL38:
 407              	.L35:
 408              	.LBE66:
 409              	.LBE65:
 410              	.LBB67:
 411              	.LBB68:
 412 0030 0822     		movs	r2, #8
 413 0032 034B     		ldr	r3, .L36+8
 414 0034 5A60     		str	r2, [r3, #4]
 415              	.LVL39:
 416              	.L28:
 417 0036 7047     		bx	lr
 418              	.L37:
 419              		.align	2
 420              	.L36:
 421 0038 00053240 		.word	1077019904
 422 003c 80023240 		.word	1077019264
 423 0040 80043240 		.word	1077019776
 424              	.LBE68:
 425              	.LBE67:
 426              		.cfi_endproc
 427              	.LFE545:
 428              		.size	gpio_clr_gpio_pin, .-gpio_clr_gpio_pin
 429              		.section	.text.spi_selectChip,"ax",%progbits
 430              		.align	2
 431              		.global	spi_selectChip
 432              		.thumb
 433              		.thumb_func
 434              		.type	spi_selectChip, %function
 435              	spi_selectChip:
 436              	.LFB539:
  76:ads1299_spi_adapt.c ****     gpio_clr_gpio_pin(ADS1299_PIN_CS);
 437              		.loc 1 76 0
 438              		.cfi_startproc
 439              		@ args = 0, pretend = 0, frame = 0
 440              		@ frame_needed = 0, uses_anonymous_args = 0
 441              	.LVL40:
 442 0000 08B5     		push	{r3, lr}
 443              		.cfi_def_cfa_offset 8
 444              		.cfi_offset 3, -8
 445              		.cfi_offset 14, -4
  77:ads1299_spi_adapt.c ****     // CyDelayUs(1);
 446              		.loc 1 77 0
 447 0002 0520     		movs	r0, #5
 448              	.LVL41:
 449 0004 FFF7FEFF 		bl	gpio_clr_gpio_pin
 450              	.LVL42:
 451 0008 08BD     		pop	{r3, pc}
 452              		.cfi_endproc
 453              	.LFE539:
 454              		.size	spi_selectChip, .-spi_selectChip
 455 000a 00BF     		.section	.text.spi_write_packet,"ax",%progbits
 456              		.align	2
 457              		.global	spi_write_packet
 458              		.thumb
ARM GAS  C:\Users\dmr85\AppData\Local\Temp\ccCZSREw.s 			page 35


 459              		.thumb_func
 460              		.type	spi_write_packet, %function
 461              	spi_write_packet:
 462              	.LFB546:
 130:ads1299_spi_adapt.c ****     {
 131:ads1299_spi_adapt.c ****         case ADS1299_PIN_PWDN:
 132:ads1299_spi_adapt.c ****             Cy_GPIO_Clr(PIN_ADS1299_PWDN_0_PORT, PIN_ADS1299_PWDN_0_NUM);
 133:ads1299_spi_adapt.c ****         break;
 134:ads1299_spi_adapt.c ****         case ADS1299_PIN_DRDY:
 135:ads1299_spi_adapt.c ****             Cy_GPIO_Clr(PIN_ADS1299_DRDY_0_PORT, PIN_ADS1299_DRDY_0_NUM);
 136:ads1299_spi_adapt.c ****         break;
 137:ads1299_spi_adapt.c ****         case ADS1299_PIN_START:
 138:ads1299_spi_adapt.c ****             Cy_GPIO_Clr(PIN_ADS1299_START_0_PORT, PIN_ADS1299_START_0_NUM);
 139:ads1299_spi_adapt.c ****         break;
 140:ads1299_spi_adapt.c ****         case ADS1299_PIN_RESET:
 141:ads1299_spi_adapt.c ****             Cy_GPIO_Clr(PIN_ADS1299_RESET_0_PORT, PIN_ADS1299_RESET_0_NUM);
 142:ads1299_spi_adapt.c ****         break;
 143:ads1299_spi_adapt.c ****         case ADS1299_PIN_CS:
 144:ads1299_spi_adapt.c ****             Cy_GPIO_Clr(SPI_ss0_m_0_PORT, SPI_ss0_m_0_NUM);
 145:ads1299_spi_adapt.c ****         break;
 146:ads1299_spi_adapt.c ****     }
 147:ads1299_spi_adapt.c **** }
 148:ads1299_spi_adapt.c **** 
 149:ads1299_spi_adapt.c **** 
 150:ads1299_spi_adapt.c **** uint32_t spi_write_packet(uint8_t txBuffer[], uint8_t packet_size)
 151:ads1299_spi_adapt.c **** {
 463              		.loc 1 151 0
 464              		.cfi_startproc
 465              		@ args = 0, pretend = 0, frame = 0
 466              		@ frame_needed = 1, uses_anonymous_args = 0
 467              	.LVL43:
 468 0000 2DE9F047 		push	{r4, r5, r6, r7, r8, r9, r10, lr}
 469              		.cfi_def_cfa_offset 32
 470              		.cfi_offset 4, -32
 471              		.cfi_offset 5, -28
 472              		.cfi_offset 6, -24
 473              		.cfi_offset 7, -20
 474              		.cfi_offset 8, -16
 475              		.cfi_offset 9, -12
 476              		.cfi_offset 10, -8
 477              		.cfi_offset 14, -4
 478 0004 82B0     		sub	sp, sp, #8
 479              		.cfi_def_cfa_offset 40
 480 0006 02AF     		add	r7, sp, #8
 481              		.cfi_def_cfa 7, 32
 482 0008 8246     		mov	r10, r0
 483 000a 0E46     		mov	r6, r1
 484              	.LVL44:
 152:ads1299_spi_adapt.c ****  
 153:ads1299_spi_adapt.c ****     uint32_t status = TRANSFER_ERROR;
 154:ads1299_spi_adapt.c ****     cy_en_scb_spi_status_t errorStatus;
 155:ads1299_spi_adapt.c ****     uint8_t statusRxBuf[packet_size];
 485              		.loc 1 155 0
 486 000c CB1D     		adds	r3, r1, #7
 487 000e 23F00703 		bic	r3, r3, #7
 488 0012 ADEB030D 		sub	sp, sp, r3
 489 0016 0DF10809 		add	r9, sp, #8
ARM GAS  C:\Users\dmr85\AppData\Local\Temp\ccCZSREw.s 			page 36


 490              	.LVL45:
 153:ads1299_spi_adapt.c ****     cy_en_scb_spi_status_t errorStatus;
 491              		.loc 1 153 0
 492 001a 4FF0FF08 		mov	r8, #255
 493              	.LVL46:
 494              	.L45:
 495              	.LBB69:
 496              	.LBB70:
 497              		.loc 2 448 0
 498 001e 154B     		ldr	r3, .L48
 499 0020 0093     		str	r3, [sp]
 500 0022 3346     		mov	r3, r6
 501 0024 4A46     		mov	r2, r9
 502 0026 5146     		mov	r1, r10
 503 0028 1348     		ldr	r0, .L48+4
 504 002a FFF7FEFF 		bl	Cy_SCB_SPI_Transfer
 505              	.LVL47:
 506              	.LBE70:
 507              	.LBE69:
 156:ads1299_spi_adapt.c ****     
 157:ads1299_spi_adapt.c ****     do
 158:ads1299_spi_adapt.c ****     {
 159:ads1299_spi_adapt.c ****         
 160:ads1299_spi_adapt.c ****                 
 161:ads1299_spi_adapt.c ****         // Initiate SPI Master write and read transaction.
 162:ads1299_spi_adapt.c ****         //printf(" %x ", txBuffer[0]);
 163:ads1299_spi_adapt.c ****         errorStatus = SPI_Transfer(txBuffer, statusRxBuf, packet_size);
 164:ads1299_spi_adapt.c ****         
 165:ads1299_spi_adapt.c ****         /* If no error wait till master sends data in Tx FIFO */
 166:ads1299_spi_adapt.c ****         if(errorStatus == CY_SCB_SPI_SUCCESS)
 508              		.loc 1 166 0
 509 002e D0B9     		cbnz	r0, .L41
 510 0030 4FF47A74 		mov	r4, #1000
 511              	.L43:
 512              	.LVL48:
 513              	.LBB71:
 514              	.LBB72:
 515              	.LBB73:
 449:Generated_Source\PSoC6/SPI.h **** }
 450:Generated_Source\PSoC6/SPI.h **** 
 451:Generated_Source\PSoC6/SPI.h **** /*******************************************************************************
 452:Generated_Source\PSoC6/SPI.h **** * Function Name: SPI_AbortTransfer
 453:Generated_Source\PSoC6/SPI.h **** ****************************************************************************//**
 454:Generated_Source\PSoC6/SPI.h **** *
 455:Generated_Source\PSoC6/SPI.h **** * Invokes the Cy_SCB_SPI_AbortTransfer() PDL driver function.
 456:Generated_Source\PSoC6/SPI.h **** *
 457:Generated_Source\PSoC6/SPI.h **** *******************************************************************************/
 458:Generated_Source\PSoC6/SPI.h **** __STATIC_INLINE void SPI_AbortTransfer(void)
 459:Generated_Source\PSoC6/SPI.h **** {
 460:Generated_Source\PSoC6/SPI.h ****     Cy_SCB_SPI_AbortTransfer(SPI_HW, &SPI_context);
 461:Generated_Source\PSoC6/SPI.h **** }
 462:Generated_Source\PSoC6/SPI.h **** 
 463:Generated_Source\PSoC6/SPI.h **** 
 464:Generated_Source\PSoC6/SPI.h **** /*******************************************************************************
 465:Generated_Source\PSoC6/SPI.h **** * Function Name: SPI_GetTransferStatus
 466:Generated_Source\PSoC6/SPI.h **** ****************************************************************************//**
 467:Generated_Source\PSoC6/SPI.h **** *
ARM GAS  C:\Users\dmr85\AppData\Local\Temp\ccCZSREw.s 			page 37


 468:Generated_Source\PSoC6/SPI.h **** * Invokes the Cy_SCB_SPI_GetTransferStatus() PDL driver function.
 469:Generated_Source\PSoC6/SPI.h **** *
 470:Generated_Source\PSoC6/SPI.h **** *******************************************************************************/
 471:Generated_Source\PSoC6/SPI.h **** __STATIC_INLINE uint32_t SPI_GetTransferStatus(void)
 472:Generated_Source\PSoC6/SPI.h **** {
 473:Generated_Source\PSoC6/SPI.h ****     return Cy_SCB_SPI_GetTransferStatus(SPI_HW, &SPI_context);
 516              		.loc 2 473 0 discriminator 2
 517 0034 0F49     		ldr	r1, .L48
 518 0036 1048     		ldr	r0, .L48+4
 519 0038 FFF7FEFF 		bl	Cy_SCB_SPI_GetTransferStatus
 520              	.LVL49:
 521 003c 0546     		mov	r5, r0
 522              	.LBE73:
 523              	.LBE72:
 167:ads1299_spi_adapt.c ****         {
 168:ads1299_spi_adapt.c ****             uint32_t masterStatus;        
 169:ads1299_spi_adapt.c ****             // Timeout 1 sec
 170:ads1299_spi_adapt.c ****             uint32_t timeOut = 1000UL;
 171:ads1299_spi_adapt.c ****             
 172:ads1299_spi_adapt.c ****             // Wait until master complete read transfer or time out has occured
 173:ads1299_spi_adapt.c ****             do
 174:ads1299_spi_adapt.c ****             {
 175:ads1299_spi_adapt.c ****                 masterStatus  = SPI_GetTransferStatus();
 176:ads1299_spi_adapt.c ****                 Cy_SysLib_Delay(CY_SCB_WAIT_1_UNIT);
 524              		.loc 1 176 0 discriminator 2
 525 003e 0120     		movs	r0, #1
 526 0040 FFF7FEFF 		bl	Cy_SysLib_Delay
 527              	.LVL50:
 177:ads1299_spi_adapt.c ****                 timeOut--;
 528              		.loc 1 177 0 discriminator 2
 529 0044 013C     		subs	r4, r4, #1
 530              	.LVL51:
 178:ads1299_spi_adapt.c ****                 
 179:ads1299_spi_adapt.c ****             } while ((0UL != (masterStatus & CY_SCB_SPI_TRANSFER_ACTIVE)) && (timeOut > 0UL));
 531              		.loc 1 179 0 discriminator 2
 532 0046 15F0010F 		tst	r5, #1
 533 004a 01D0     		beq	.L42
 534              		.loc 1 179 0 is_stmt 0 discriminator 1
 535 004c 002C     		cmp	r4, #0
 536 004e F1D1     		bne	.L43
 537              	.L42:
 180:ads1299_spi_adapt.c ****             
 181:ads1299_spi_adapt.c ****             if ((0UL == (MASTER_ERROR_MASK & masterStatus)) &&
 538              		.loc 1 181 0 is_stmt 1
 539 0050 15F4066F 		tst	r5, #2144
 540 0054 07D1     		bne	.L41
 541              	.LBB74:
 542              	.LBB75:
 474:Generated_Source\PSoC6/SPI.h **** }
 475:Generated_Source\PSoC6/SPI.h **** 
 476:Generated_Source\PSoC6/SPI.h **** 
 477:Generated_Source\PSoC6/SPI.h **** /*******************************************************************************
 478:Generated_Source\PSoC6/SPI.h **** * Function Name: SPI_GetNumTransfered
 479:Generated_Source\PSoC6/SPI.h **** ****************************************************************************//**
 480:Generated_Source\PSoC6/SPI.h **** *
 481:Generated_Source\PSoC6/SPI.h **** * Invokes the Cy_SCB_SPI_GetNumTransfered() PDL driver function.
 482:Generated_Source\PSoC6/SPI.h **** *
ARM GAS  C:\Users\dmr85\AppData\Local\Temp\ccCZSREw.s 			page 38


 483:Generated_Source\PSoC6/SPI.h **** *******************************************************************************/
 484:Generated_Source\PSoC6/SPI.h **** __STATIC_INLINE uint32_t SPI_GetNumTransfered(void)
 485:Generated_Source\PSoC6/SPI.h **** {
 486:Generated_Source\PSoC6/SPI.h ****     return Cy_SCB_SPI_GetNumTransfered(SPI_HW, &SPI_context);
 543              		.loc 2 486 0 discriminator 1
 544 0056 0749     		ldr	r1, .L48
 545 0058 0748     		ldr	r0, .L48+4
 546 005a FFF7FEFF 		bl	Cy_SCB_SPI_GetNumTransfered
 547              	.LVL52:
 548              	.LBE75:
 549              	.LBE74:
 550              		.loc 1 181 0 discriminator 1
 551 005e 8642     		cmp	r6, r0
 552 0060 01D1     		bne	.L41
 182:ads1299_spi_adapt.c ****                 (packet_size == SPI_GetNumTransfered()))
 183:ads1299_spi_adapt.c ****             {
 184:ads1299_spi_adapt.c ****                 status = TRANSFER_CMPLT;
 553              		.loc 1 184 0
 554 0062 4FF00008 		mov	r8, #0
 555              	.LVL53:
 556              	.L41:
 557              	.LBE71:
 185:ads1299_spi_adapt.c ****                 
 186:ads1299_spi_adapt.c ****             }
 187:ads1299_spi_adapt.c ****             else 
 188:ads1299_spi_adapt.c ****             {
 189:ads1299_spi_adapt.c ****                 HandleError();
 190:ads1299_spi_adapt.c ****             } 
 191:ads1299_spi_adapt.c ****         }
 192:ads1299_spi_adapt.c ****         
 193:ads1299_spi_adapt.c ****     } while (status != TRANSFER_CMPLT);
 558              		.loc 1 193 0
 559 0066 B8F1000F 		cmp	r8, #0
 560 006a D8D1     		bne	.L45
 194:ads1299_spi_adapt.c ****     
 195:ads1299_spi_adapt.c ****     return (status);
 196:ads1299_spi_adapt.c **** }
 561              		.loc 1 196 0
 562 006c 4046     		mov	r0, r8
 563 006e BD46     		mov	sp, r7
 564              		.cfi_def_cfa_register 13
 565              		@ sp needed
 566 0070 BDE8F087 		pop	{r4, r5, r6, r7, r8, r9, r10, pc}
 567              	.LVL54:
 568              	.L49:
 569              		.align	2
 570              	.L48:
 571 0074 00000000 		.word	SPI_context
 572 0078 00006340 		.word	1080229888
 573              		.cfi_endproc
 574              	.LFE546:
 575              		.size	spi_write_packet, .-spi_write_packet
 576              		.section	.text.spi_read_packet,"ax",%progbits
 577              		.align	2
 578              		.global	spi_read_packet
 579              		.thumb
 580              		.thumb_func
ARM GAS  C:\Users\dmr85\AppData\Local\Temp\ccCZSREw.s 			page 39


 581              		.type	spi_read_packet, %function
 582              	spi_read_packet:
 583              	.LFB547:
 197:ads1299_spi_adapt.c **** 
 198:ads1299_spi_adapt.c **** 
 199:ads1299_spi_adapt.c **** uint32_t spi_read_packet(uint8_t data[], uint8_t packet_size)
 200:ads1299_spi_adapt.c **** {
 584              		.loc 1 200 0
 585              		.cfi_startproc
 586              		@ args = 0, pretend = 0, frame = 8
 587              		@ frame_needed = 0, uses_anonymous_args = 0
 588              	.LVL55:
 589 0000 2DE9F043 		push	{r4, r5, r6, r7, r8, r9, lr}
 590              		.cfi_def_cfa_offset 28
 591              		.cfi_offset 4, -28
 592              		.cfi_offset 5, -24
 593              		.cfi_offset 6, -20
 594              		.cfi_offset 7, -16
 595              		.cfi_offset 8, -12
 596              		.cfi_offset 9, -8
 597              		.cfi_offset 14, -4
 598 0004 85B0     		sub	sp, sp, #20
 599              		.cfi_def_cfa_offset 48
 600 0006 8046     		mov	r8, r0
 601 0008 0F46     		mov	r7, r1
 602              	.LVL56:
 201:ads1299_spi_adapt.c ****     uint32_t status = TRANSFER_ERROR;
 603              		.loc 1 201 0
 604 000a 4FF0FF09 		mov	r9, #255
 605              	.LVL57:
 606              	.L56:
 607              	.LBB76:
 202:ads1299_spi_adapt.c ****     
 203:ads1299_spi_adapt.c ****     /*printf("in_s ");
 204:ads1299_spi_adapt.c ****     for (int i = 0; i<packet_size; i++) {
 205:ads1299_spi_adapt.c ****         printf("%x ", data[i]);
 206:ads1299_spi_adapt.c ****     }
 207:ads1299_spi_adapt.c ****     printf("in_end ");*/
 208:ads1299_spi_adapt.c ****     
 209:ads1299_spi_adapt.c ****     do
 210:ads1299_spi_adapt.c ****     {
 211:ads1299_spi_adapt.c ****     	uint8_t count = -1;
 212:ads1299_spi_adapt.c ****         uint8_t tempVar = 0;
 608              		.loc 1 212 0
 609 000e 0023     		movs	r3, #0
 610 0010 8DF80E30 		strb	r3, [sp, #14]
 611              	.LVL58:
 213:ads1299_spi_adapt.c ****         uint32_t timeOutStatusCheck = 1000UL; /* Timeout 1 sec */
 612              		.loc 1 213 0
 613 0014 4FF47A75 		mov	r5, #1000
 211:ads1299_spi_adapt.c ****         uint8_t tempVar = 0;
 614              		.loc 1 211 0
 615 0018 FF26     		movs	r6, #255
 616              	.LVL59:
 617              	.L55:
 618              	.LBB77:
 214:ads1299_spi_adapt.c ****         cy_en_scb_spi_status_t errorStatus;
ARM GAS  C:\Users\dmr85\AppData\Local\Temp\ccCZSREw.s 			page 40


 215:ads1299_spi_adapt.c ****         
 216:ads1299_spi_adapt.c ****         
 217:ads1299_spi_adapt.c ****         /* Initiate SPI Master write and read transaction. Master will send one byte and receives o
 218:ads1299_spi_adapt.c ****            Received byte is checked whether valid status byte is received. Till valid 5 bytes are r
 219:ads1299_spi_adapt.c ****            occurs, master will be sending dummy byte to slave. Valid bytes received is checked and 
 220:ads1299_spi_adapt.c ****         do
 221:ads1299_spi_adapt.c ****         {
 222:ads1299_spi_adapt.c ****             /*uint8_t tx_buf[packet_size];
 223:ads1299_spi_adapt.c ****             for (int i=0;i<packet_size;i++){
 224:ads1299_spi_adapt.c ****                 tx_buf[i] = 0xFF;
 225:ads1299_spi_adapt.c ****             }
 226:ads1299_spi_adapt.c ****             errorStatus = SPI_Transfer(tx_buf, data, packet_size);*/
 227:ads1299_spi_adapt.c ****             uint8_t tx = 0x00;
 619              		.loc 1 227 0
 620 001a 0023     		movs	r3, #0
 621 001c 8DF80F30 		strb	r3, [sp, #15]
 622              	.LVL60:
 623              	.LBB78:
 624              	.LBB79:
 448:Generated_Source\PSoC6/SPI.h **** }
 625              		.loc 2 448 0
 626 0020 214B     		ldr	r3, .L61
 627 0022 0093     		str	r3, [sp]
 628 0024 0123     		movs	r3, #1
 629 0026 0DF10E02 		add	r2, sp, #14
 630              	.LVL61:
 631 002a 0DF10F01 		add	r1, sp, #15
 632              	.LVL62:
 633 002e 1F48     		ldr	r0, .L61+4
 634 0030 FFF7FEFF 		bl	Cy_SCB_SPI_Transfer
 635              	.LVL63:
 636              	.LBE79:
 637              	.LBE78:
 228:ads1299_spi_adapt.c ****             
 229:ads1299_spi_adapt.c ****             errorStatus = SPI_Transfer(&tx, &tempVar, ONE_PACKET_SIZE);
 230:ads1299_spi_adapt.c ****             
 231:ads1299_spi_adapt.c ****             if(errorStatus == CY_SCB_SPI_SUCCESS)
 638              		.loc 1 231 0
 639 0034 C0B9     		cbnz	r0, .L51
 640 0036 4FF47A74 		mov	r4, #1000
 641              	.L53:
 642              	.LVL64:
 643              	.LBB80:
 644              	.LBB81:
 645              	.LBB82:
 473:Generated_Source\PSoC6/SPI.h **** }
 646              		.loc 2 473 0 discriminator 2
 647 003a 1B49     		ldr	r1, .L61
 648 003c 1B48     		ldr	r0, .L61+4
 649 003e FFF7FEFF 		bl	Cy_SCB_SPI_GetTransferStatus
 650              	.LVL65:
 651              	.LBE82:
 652              	.LBE81:
 232:ads1299_spi_adapt.c ****             {
 233:ads1299_spi_adapt.c ****                 uint32_t masterStatus;         
 234:ads1299_spi_adapt.c ****                 // Timeout 1 sec
 235:ads1299_spi_adapt.c ****                 uint32_t timeOut = 1000UL;
ARM GAS  C:\Users\dmr85\AppData\Local\Temp\ccCZSREw.s 			page 41


 236:ads1299_spi_adapt.c ****                 
 237:ads1299_spi_adapt.c ****                 // Wait until master complete read transfer or time out has occured
 238:ads1299_spi_adapt.c ****                 do
 239:ads1299_spi_adapt.c ****                 {
 240:ads1299_spi_adapt.c ****                     masterStatus  = SPI_GetTransferStatus();
 241:ads1299_spi_adapt.c ****                     //Cy_SysLib_Delay(CY_SCB_WAIT_1_UNIT);
 242:ads1299_spi_adapt.c ****                     timeOut--;
 653              		.loc 1 242 0 discriminator 2
 654 0042 013C     		subs	r4, r4, #1
 655              	.LVL66:
 243:ads1299_spi_adapt.c ****                     
 244:ads1299_spi_adapt.c ****                 } while ((0UL != (masterStatus & CY_SCB_SPI_TRANSFER_ACTIVE)) && (timeOut > 0UL) );
 656              		.loc 1 244 0 discriminator 2
 657 0044 10F0010F 		tst	r0, #1
 658 0048 01D0     		beq	.L52
 659              		.loc 1 244 0 is_stmt 0 discriminator 1
 660 004a 002C     		cmp	r4, #0
 661 004c F5D1     		bne	.L53
 662              	.L52:
 245:ads1299_spi_adapt.c ****                 
 246:ads1299_spi_adapt.c ****                 //if ((0UL == (MASTER_ERROR_MASK & masterStatus)) && (tempVar != 0xFF) )
 247:ads1299_spi_adapt.c ****                 if ((0UL == (MASTER_ERROR_MASK & masterStatus)))
 663              		.loc 1 247 0 is_stmt 1
 664 004e 10F4066F 		tst	r0, #2144
 665 0052 09D1     		bne	.L51
 248:ads1299_spi_adapt.c ****                 {  
 249:ads1299_spi_adapt.c ****                     
 250:ads1299_spi_adapt.c ****                     data[count] = tempVar;
 666              		.loc 1 250 0
 667 0054 9DF80E30 		ldrb	r3, [sp, #14]	@ zero_extendqisi2
 668 0058 08F80630 		strb	r3, [r8, r6]
 251:ads1299_spi_adapt.c ****                     count += 1;
 669              		.loc 1 251 0
 670 005c 0136     		adds	r6, r6, #1
 671              	.LVL67:
 672 005e F6B2     		uxtb	r6, r6
 673              	.LVL68:
 252:ads1299_spi_adapt.c ****              
 253:ads1299_spi_adapt.c ****                     if(count == packet_size)
 674              		.loc 1 253 0
 675 0060 BE42     		cmp	r6, r7
 676 0062 01D1     		bne	.L51
 254:ads1299_spi_adapt.c ****                     {  
 255:ads1299_spi_adapt.c ****                         status = TRANSFER_CMPLT; 
 677              		.loc 1 255 0
 678 0064 4FF00009 		mov	r9, #0
 679              	.LVL69:
 680              	.L51:
 681              	.LBE80:
 256:ads1299_spi_adapt.c ****                         //UART_PutString(" got it ");
 257:ads1299_spi_adapt.c ****                     }
 258:ads1299_spi_adapt.c ****                 }
 259:ads1299_spi_adapt.c ****                 /*else 
 260:ads1299_spi_adapt.c ****                 {
 261:ads1299_spi_adapt.c ****                     HandleError();
 262:ads1299_spi_adapt.c ****                 }*/
 263:ads1299_spi_adapt.c ****             }   
ARM GAS  C:\Users\dmr85\AppData\Local\Temp\ccCZSREw.s 			page 42


 264:ads1299_spi_adapt.c ****             
 265:ads1299_spi_adapt.c ****             Cy_SysLib_Delay(CY_SCB_WAIT_1_UNIT);
 682              		.loc 1 265 0
 683 0068 0120     		movs	r0, #1
 684 006a FFF7FEFF 		bl	Cy_SysLib_Delay
 685              	.LVL70:
 266:ads1299_spi_adapt.c ****             timeOutStatusCheck--;
 686              		.loc 1 266 0
 687 006e 013D     		subs	r5, r5, #1
 688              	.LVL71:
 689              	.LBE77:
 267:ads1299_spi_adapt.c ****         
 268:ads1299_spi_adapt.c ****         }while((count < packet_size) && (timeOutStatusCheck > 0));
 690              		.loc 1 268 0
 691 0070 BE42     		cmp	r6, r7
 692 0072 01D2     		bcs	.L54
 693              		.loc 1 268 0 is_stmt 0 discriminator 1
 694 0074 002D     		cmp	r5, #0
 695 0076 D0D1     		bne	.L55
 696              	.L54:
 697              	.LBE76:
 269:ads1299_spi_adapt.c ****          
 270:ads1299_spi_adapt.c ****         /*if(timeOutStatusCheck == (0UL))
 271:ads1299_spi_adapt.c ****         {
 272:ads1299_spi_adapt.c ****             HandleError();       
 273:ads1299_spi_adapt.c ****         }*/
 274:ads1299_spi_adapt.c ****     } while (status != TRANSFER_CMPLT);
 698              		.loc 1 274 0 is_stmt 1
 699 0078 B9F1000F 		cmp	r9, #0
 700 007c C7D1     		bne	.L56
 275:ads1299_spi_adapt.c ****     
 276:ads1299_spi_adapt.c ****     printf("out_s ");
 701              		.loc 1 276 0
 702 007e 0C48     		ldr	r0, .L61+8
 703 0080 FFF7FEFF 		bl	printf
 704              	.LVL72:
 705              	.LBB83:
 277:ads1299_spi_adapt.c ****     for (int i = 0; i<packet_size; i++) {
 706              		.loc 1 277 0
 707 0084 0024     		movs	r4, #0
 708 0086 05E0     		b	.L57
 709              	.LVL73:
 710              	.L58:
 278:ads1299_spi_adapt.c ****         printf("%x ", data[i]);
 711              		.loc 1 278 0 discriminator 3
 712 0088 18F80410 		ldrb	r1, [r8, r4]	@ zero_extendqisi2
 713 008c 0948     		ldr	r0, .L61+12
 714 008e FFF7FEFF 		bl	printf
 715              	.LVL74:
 277:ads1299_spi_adapt.c ****     for (int i = 0; i<packet_size; i++) {
 716              		.loc 1 277 0 discriminator 3
 717 0092 0134     		adds	r4, r4, #1
 718              	.LVL75:
 719              	.L57:
 277:ads1299_spi_adapt.c ****     for (int i = 0; i<packet_size; i++) {
 720              		.loc 1 277 0 is_stmt 0 discriminator 1
 721 0094 BC42     		cmp	r4, r7
ARM GAS  C:\Users\dmr85\AppData\Local\Temp\ccCZSREw.s 			page 43


 722 0096 F7DB     		blt	.L58
 723              	.LBE83:
 279:ads1299_spi_adapt.c ****     }
 280:ads1299_spi_adapt.c ****     printf("out_end     ");
 724              		.loc 1 280 0 is_stmt 1
 725 0098 0748     		ldr	r0, .L61+16
 726 009a FFF7FEFF 		bl	printf
 727              	.LVL76:
 281:ads1299_spi_adapt.c ****     
 282:ads1299_spi_adapt.c ****     return status;
 283:ads1299_spi_adapt.c **** }
 728              		.loc 1 283 0
 729 009e 4846     		mov	r0, r9
 730 00a0 05B0     		add	sp, sp, #20
 731              		.cfi_def_cfa_offset 28
 732              		@ sp needed
 733 00a2 BDE8F083 		pop	{r4, r5, r6, r7, r8, r9, pc}
 734              	.LVL77:
 735              	.L62:
 736 00a6 00BF     		.align	2
 737              	.L61:
 738 00a8 00000000 		.word	SPI_context
 739 00ac 00006340 		.word	1080229888
 740 00b0 04000000 		.word	.LC1
 741 00b4 00000000 		.word	.LC0
 742 00b8 0C000000 		.word	.LC2
 743              		.cfi_endproc
 744              	.LFE547:
 745              		.size	spi_read_packet, .-spi_read_packet
 746              		.section	.text.HandleError,"ax",%progbits
 747              		.align	2
 748              		.global	HandleError
 749              		.thumb
 750              		.thumb_func
 751              		.type	HandleError, %function
 752              	HandleError:
 753              	.LFB548:
 284:ads1299_spi_adapt.c **** 
 285:ads1299_spi_adapt.c **** 
 286:ads1299_spi_adapt.c **** void HandleError(void)
 287:ads1299_spi_adapt.c **** {   
 754              		.loc 1 287 0
 755              		.cfi_startproc
 756              		@ args = 0, pretend = 0, frame = 0
 757              		@ frame_needed = 0, uses_anonymous_args = 0
 758              		@ link register save eliminated.
 759 0000 7047     		bx	lr
 760              		.cfi_endproc
 761              	.LFE548:
 762              		.size	HandleError, .-HandleError
 763              		.global	spi
 764 0002 00BF     		.data
 765              		.type	spi, %object
 766              		.size	spi, 1
 767              	spi:
 768 0000 FF       		.byte	-1
 769              		.section	.rodata.str1.4,"aMS",%progbits,1
ARM GAS  C:\Users\dmr85\AppData\Local\Temp\ccCZSREw.s 			page 44


 770              		.align	2
 771              	.LC0:
 772 0000 25782000 		.ascii	"%x \000"
 773              	.LC1:
 774 0004 6F75745F 		.ascii	"out_s \000"
 774      732000
 775 000b 00       		.space	1
 776              	.LC2:
 777 000c 6F75745F 		.ascii	"out_end     \000"
 777      656E6420 
 777      20202020 
 777      00
 778              		.text
 779              	.Letext0:
 780              		.file 4 "c:\\program files (x86)\\cypress\\psoc creator\\4.2\\psoc creator\\import\\gnu\\arm\\5.4.
 781              		.file 5 "c:\\program files (x86)\\cypress\\psoc creator\\4.2\\psoc creator\\import\\gnu\\arm\\5.4.
 782              		.file 6 "Generated_Source\\PSoC6\\pdl\\devices/psoc6/include/ip/cyip_gpio.h"
 783              		.file 7 "Generated_Source\\PSoC6\\pdl\\devices/psoc6/include/ip/cyip_scb.h"
 784              		.file 8 "Generated_Source\\PSoC6\\pdl\\devices/psoc6/include/psoc6_01_config.h"
 785              		.file 9 "Generated_Source\\PSoC6\\pdl\\drivers/peripheral/device/cy_device.h"
 786              		.file 10 "Generated_Source\\PSoC6\\pdl\\drivers/peripheral/syslib/cy_syslib.h"
 787              		.file 11 "Generated_Source\\PSoC6\\pdl\\drivers/peripheral/scb/cy_scb_spi.h"
 788              		.file 12 "Generated_Source\\PSoC6\\pdl\\drivers/peripheral/scb/cy_scb_uart.h"
 789              		.file 13 "Generated_Source\\PSoC6\\pdl\\middleware/ble/cy_ble_stack.h"
 790              		.file 14 "Generated_Source\\PSoC6\\pdl\\middleware/ble/cy_ble_stack_host_main.h"
 791              		.file 15 "Generated_Source\\PSoC6\\pdl\\middleware/ble/cy_ble_gap.h"
 792              		.file 16 "Generated_Source\\PSoC6\\pdl\\cmsis/include/core_cm4.h"
 793              		.file 17 "Generated_Source\\PSoC6/UART.h"
 794              		.file 18 "c:\\program files (x86)\\cypress\\psoc creator\\4.2\\psoc creator\\import\\gnu\\arm\\5.4