ARM GAS  C:\Users\dmr85\AppData\Local\Temp\ccSmIU8b.s 			page 1


   1              		.syntax unified
   2              		.cpu cortex-m4
   3              		.eabi_attribute 27, 1
   4              		.fpu fpv4-sp-d16
   5              		.eabi_attribute 20, 1
   6              		.eabi_attribute 21, 1
   7              		.eabi_attribute 23, 3
   8              		.eabi_attribute 24, 1
   9              		.eabi_attribute 25, 1
  10              		.eabi_attribute 26, 1
  11              		.eabi_attribute 30, 1
  12              		.eabi_attribute 34, 1
  13              		.eabi_attribute 18, 4
  14              		.thumb
  15              		.syntax unified
  16              		.file	"ads1299.c"
  17              		.text
  18              	.Ltext0:
  19              		.cfi_sections	.debug_frame
  20              		.section	.text.ads1299_rreg,"ax",%progbits
  21              		.align	2
  22              		.global	ads1299_rreg
  23              		.thumb
  24              		.thumb_func
  25              		.type	ads1299_rreg, %function
  26              	ads1299_rreg:
  27              	.LFB553:
  28              		.file 1 "ads1299.c"
   1:ads1299.c     **** /** 
   2:ads1299.c     ****  *  \file ads1299.c
   3:ads1299.c     ****  *  \brief Some useful functions for using the ADS1299 EEG analog front-end from Texas Instruments.
   4:ads1299.c     ****  *	\details The ADS1299 is an SPI slave device. Communication with it requires at least one SPI mas
   5:ads1299.c     ****  *	\author Graham Kelly
   6:ads1299.c     ****  *	\version 1.0
   7:ads1299.c     ****  *	\date August 2014
   8:ads1299.c     ****  *
   9:ads1299.c     ****  *  All Atmel Software Framework libraries used herein are copyright Atmel and
  10:ads1299.c     ****  *  subject to their appropriate licenses, which allow free redistribution with
  11:ads1299.c     ****  *  some restrictions. These restrictions are listed in their appropriate files.
  12:ads1299.c     ****  *
  13:ads1299.c     ****  *  \page License
  14:ads1299.c     ****  *
  15:ads1299.c     ****  *  Brainboard firmware code is placed under the MIT license
  16:ads1299.c     ****  *  Copyright (c) 2014 Graham Kelly
  17:ads1299.c     ****  *
  18:ads1299.c     ****  *  Permission is hereby granted, free of charge, to any person obtaining a copy
  19:ads1299.c     ****  *  of this software and associated documentation files (the "Software"), to deal
  20:ads1299.c     ****  *  in the Software without restriction, including without limitation the rights
  21:ads1299.c     ****  *  to use, copy, modify, merge, publish, distribute, sublicense, and/or sell
  22:ads1299.c     ****  *  copies of the Software, and to permit persons to whom the Software is
  23:ads1299.c     ****  *  furnished to do so, subject to the following conditions:
  24:ads1299.c     ****  *
  25:ads1299.c     ****  *  The above copyright notice and this permission notice shall be included in
  26:ads1299.c     ****  *  all copies or substantial portions of the Software.
  27:ads1299.c     ****  *
  28:ads1299.c     ****  *  THE SOFTWARE IS PROVIDED "AS IS", WITHOUT WARRANTY OF ANY KIND, EXPRESS OR
  29:ads1299.c     ****  *  IMPLIED, INCLUDING BUT NOT LIMITED TO THE WARRANTIES OF MERCHANTABILITY,
ARM GAS  C:\Users\dmr85\AppData\Local\Temp\ccSmIU8b.s 			page 2


  30:ads1299.c     ****  *  FITNESS FOR A PARTICULAR PURPOSE AND NONINFRINGEMENT. IN NO EVENT SHALL THE
  31:ads1299.c     ****  *  AUTHORS OR COPYRIGHT HOLDERS BE LIABLE FOR ANY CLAIM, DAMAGES OR OTHER
  32:ads1299.c     ****  *  LIABILITY, WHETHER IN AN ACTION OF CONTRACT, TORT OR OTHERWISE, ARISING FROM,
  33:ads1299.c     ****  *  OUT OF OR IN CONNECTION WITH THE SOFTWARE OR THE USE OR OTHER DEALINGS IN
  34:ads1299.c     ****  *  THE SOFTWARE.
  35:ads1299.c     ****  *
  36:ads1299.c     ****  */
  37:ads1299.c     **** 
  38:ads1299.c     **** #ifdef __cplusplus
  39:ads1299.c     **** extern "C" {
  40:ads1299.c     **** #endif
  41:ads1299.c     **** 
  42:ads1299.c     **** #include "ads1299.h"
  43:ads1299.c     **** 
  44:ads1299.c     **** 
  45:ads1299.c     **** /**************************************************************************************************
  46:ads1299.c     **** *               Function Definitions                                                               
  47:ads1299.c     **** ***************************************************************************************************
  48:ads1299.c     **** 
  49:ads1299.c     **** /* SYSTEM CONTROL FUNCTIONS ***********************************************************************
  50:ads1299.c     **** 
  51:ads1299.c     **** ads1299_error_t	ads1299_device_init(uint8_t chip_select, uint8_t init_regs)
  52:ads1299.c     **** {
  53:ads1299.c     **** 	#if UC3
  54:ads1299.c     ****         
  55:ads1299.c     ****     gpio_set_gpio_pin(ADS1299_PIN_CLKSEL);
  56:ads1299.c     ****     
  57:ads1299.c     **** 	/* Power cycle ADS1299 */
  58:ads1299.c     **** 	//gpio_clr_gpio_pin(ADS1299_PIN_PWDN);
  59:ads1299.c     **** 	//CyDelay(1000);
  60:ads1299.c     **** 	gpio_set_gpio_pin(ADS1299_PIN_PWDN);
  61:ads1299.c     ****     //CyDelay(1);
  62:ads1299.c     ****     
  63:ads1299.c     ****     gpio_set_gpio_pin(ADS1299_PIN_RESET);
  64:ads1299.c     **** 	CyDelay(1000);
  65:ads1299.c     ****     gpio_clr_gpio_pin(ADS1299_PIN_RESET);
  66:ads1299.c     **** 	CyDelay(1000);
  67:ads1299.c     **** 	gpio_set_gpio_pin(ADS1299_PIN_RESET);
  68:ads1299.c     ****     CyDelay(10);
  69:ads1299.c     ****     //gpio_clr_gpio_pin(ADS1299_PIN_RESET);
  70:ads1299.c     **** 	//CyDelay(1);
  71:ads1299.c     ****     
  72:ads1299.c     **** 	/* Allow oscillator warm-up */
  73:ads1299.c     **** 	CyDelay(1000);
  74:ads1299.c     **** 	
  75:ads1299.c     ****     spi_selectChip(SPI_ADDRESS, chip_select);
  76:ads1299.c     ****     CyDelay(1000);
  77:ads1299.c     **** 	spi_unselectChip(SPI_ADDRESS, chip_select);
  78:ads1299.c     ****     CyDelay(500);
  79:ads1299.c     ****     
  80:ads1299.c     **** 	/* Tell chip to exit continuous data mode */
  81:ads1299.c     **** 	ads1299_send_byte(chip_select, ADS1299_OPC_SDATAC);
  82:ads1299.c     ****     CyDelay(10);
  83:ads1299.c     ****     ads1299_send_byte(chip_select, ADS1299_OPC_STOP);
  84:ads1299.c     ****     //ads1299_hard_stop_conversion();
  85:ads1299.c     ****     CyDelay(10);
  86:ads1299.c     ****     /* Stop taking conversions; apparently not done automatically */
ARM GAS  C:\Users\dmr85\AppData\Local\Temp\ccSmIU8b.s 			page 3


  87:ads1299.c     ****  	    
  88:ads1299.c     ****     
  89:ads1299.c     **** 	if (init_regs) 
  90:ads1299.c     **** 	{
  91:ads1299.c     ****         /* Write to GPIO register, set all pins to driven-low output */
  92:ads1299.c     **** 		ads1299_wreg(chip_select, ADS1299_REGADDR_GPIO, ADS1299_REG_GPIO_GPIOC4_OUTPUT |
  93:ads1299.c     **** 		ADS1299_REG_GPIO_GPIOD4_LOW    |
  94:ads1299.c     **** 		ADS1299_REG_GPIO_GPIOC3_OUTPUT |
  95:ads1299.c     **** 		ADS1299_REG_GPIO_GPIOD3_LOW    |
  96:ads1299.c     **** 		ADS1299_REG_GPIO_GPIOC2_OUTPUT |
  97:ads1299.c     **** 		ADS1299_REG_GPIO_GPIOD2_LOW    |
  98:ads1299.c     **** 		ADS1299_REG_GPIO_GPIOC1_OUTPUT |
  99:ads1299.c     **** 		ADS1299_REG_GPIO_GPIOD1_LOW    );
 100:ads1299.c     **** 			
 101:ads1299.c     **** 		/* Write to CONFIG1, set data rate to 250 Hz */
 102:ads1299.c     **** 		ads1299_wreg(chip_select, ADS1299_REGADDR_CONFIG1, ADS1299_REG_CONFIG1_RESERVED_VALUE |
 103:ads1299.c     **** 		ADS1299_REG_CONFIG1_FMOD_DIV_BY_4096);
 104:ads1299.c     **** 		/* Write to CONFIG2 register, generate test signal internally */
 105:ads1299.c     **** 		ads1299_wreg(chip_select, ADS1299_REGADDR_CONFIG2, ADS1299_REG_CONFIG2_RESERVED_VALUE |
 106:ads1299.c     **** 		ADS1299_REG_CONFIG2_CAL_INT        |
 107:ads1299.c     **** 		ADS1299_REG_CONFIG2_CAL_PULSE_FCLK_DIV_2_21);
 108:ads1299.c     **** 			
 109:ads1299.c     **** 		/* Write to CONFIG3, enable internal reference buffer, bias internally generated, bias buffer ena
 110:ads1299.c     **** 		ads1299_wreg(chip_select, ADS1299_REGADDR_CONFIG3, ADS1299_REG_CONFIG3_REFBUF_ENABLED |
 111:ads1299.c     **** 		//ADS1299_REG_CONFIG3_BIASREF_INT    |
 112:ads1299.c     **** 		ADS1299_REG_CONFIG3_BIASBUF_ENABLED);
 113:ads1299.c     **** 		/* Reference settling time */
 114:ads1299.c     **** 		delay_ms(150);
 115:ads1299.c     **** 			
 116:ads1299.c     **** 		/* Write to CH1 settings register, set as normal input, gain 24 */
 117:ads1299.c     **** 		ads1299_wreg(chip_select, ADS1299_REGADDR_CH1SET, ADS1299_REG_CHNSET_CHANNEL_ON			|
 118:ads1299.c     **** 		ADS1299_REG_CHNSET_GAIN_4			|
 119:ads1299.c     **** 		ADS1299_REG_CHNSET_SRB2_DISCONNECTED	|
 120:ads1299.c     **** 		ADS1299_REG_CHNSET_NORMAL_ELECTRODE);
 121:ads1299.c     **** 		/* Write to CH2 settings register, set as normal input, gain 24 */
 122:ads1299.c     **** 		ads1299_wreg(chip_select, ADS1299_REGADDR_CH2SET, ADS1299_REG_CHNSET_CHANNEL_ON			|
 123:ads1299.c     **** 		ADS1299_REG_CHNSET_GAIN_4			|
 124:ads1299.c     **** 		ADS1299_REG_CHNSET_SRB2_DISCONNECTED	|
 125:ads1299.c     **** 		ADS1299_REG_CHNSET_NORMAL_ELECTRODE);
 126:ads1299.c     **** 		/* Write to CH3 settings register, set as normal input, gain 24 */
 127:ads1299.c     **** 		ads1299_wreg(chip_select, ADS1299_REGADDR_CH3SET, ADS1299_REG_CHNSET_CHANNEL_ON			|
 128:ads1299.c     **** 		ADS1299_REG_CHNSET_GAIN_4			|
 129:ads1299.c     **** 		ADS1299_REG_CHNSET_SRB2_DISCONNECTED	|
 130:ads1299.c     **** 		ADS1299_REG_CHNSET_CHANNEL_OFF);
 131:ads1299.c     **** 		/* Write to CH4 settings register, set as normal input, gain 24 */
 132:ads1299.c     **** 		ads1299_wreg(chip_select, ADS1299_REGADDR_CH4SET, ADS1299_REG_CHNSET_CHANNEL_ON			|
 133:ads1299.c     **** 		ADS1299_REG_CHNSET_GAIN_4			|
 134:ads1299.c     **** 		ADS1299_REG_CHNSET_SRB2_DISCONNECTED	|
 135:ads1299.c     **** 		ADS1299_REG_CHNSET_CHANNEL_OFF);
 136:ads1299.c     **** 		/* Write to CH5 settings register, set as normal input, gain 24 */
 137:ads1299.c     **** 		ads1299_wreg(chip_select, ADS1299_REGADDR_CH5SET, ADS1299_REG_CHNSET_CHANNEL_ON			|
 138:ads1299.c     **** 		ADS1299_REG_CHNSET_GAIN_4			|
 139:ads1299.c     **** 		ADS1299_REG_CHNSET_SRB2_DISCONNECTED	|
 140:ads1299.c     **** 		ADS1299_REG_CHNSET_CHANNEL_OFF);
 141:ads1299.c     **** 		/* Write to CH6 settings register, set as normal input, gain 24 */
 142:ads1299.c     **** 		ads1299_wreg(chip_select, ADS1299_REGADDR_CH6SET, ADS1299_REG_CHNSET_CHANNEL_ON			|
 143:ads1299.c     **** 		ADS1299_REG_CHNSET_GAIN_4			|
ARM GAS  C:\Users\dmr85\AppData\Local\Temp\ccSmIU8b.s 			page 4


 144:ads1299.c     **** 		ADS1299_REG_CHNSET_SRB2_DISCONNECTED	|
 145:ads1299.c     **** 		ADS1299_REG_CHNSET_CHANNEL_OFF);
 146:ads1299.c     **** 		/* Write to CH5 settings register, set as normal input, gain 24 */
 147:ads1299.c     **** 		ads1299_wreg(chip_select, ADS1299_REGADDR_CH7SET, ADS1299_REG_CHNSET_CHANNEL_ON			|
 148:ads1299.c     **** 		ADS1299_REG_CHNSET_GAIN_4			|
 149:ads1299.c     **** 		ADS1299_REG_CHNSET_SRB2_DISCONNECTED	|
 150:ads1299.c     **** 		ADS1299_REG_CHNSET_CHANNEL_OFF);
 151:ads1299.c     **** 		/* Write to CH6 settings register, set as normal input, gain 24 */
 152:ads1299.c     **** 		ads1299_wreg(chip_select, ADS1299_REGADDR_CH8SET, ADS1299_REG_CHNSET_CHANNEL_ON			|
 153:ads1299.c     **** 		ADS1299_REG_CHNSET_GAIN_4			|
 154:ads1299.c     **** 		ADS1299_REG_CHNSET_SRB2_DISCONNECTED	|
 155:ads1299.c     **** 		ADS1299_REG_CHNSET_CHANNEL_OFF);
 156:ads1299.c     **** 			
 157:ads1299.c     **** 		/* Write to MISC1 register, SRB1 on (ref electrode) */
 158:ads1299.c     **** 		ads1299_wreg(chip_select, ADS1299_REGADDR_MISC1, ADS1299_REG_MISC1_SRB1_ON);
 159:ads1299.c     **** 	} 		
 160:ads1299.c     ****     CyDelay(100);
 161:ads1299.c     ****     uint8_t reg_val[1];
 162:ads1299.c     ****     ads1299_rreg(SPI_ADS1299_MAIN_CHIPNUM, ADS1299_REGADDR_CONFIG3, reg_val);
 163:ads1299.c     ****     printf("regval %x ", reg_val[0]);
 164:ads1299.c     ****     
 165:ads1299.c     **** 	return ADS1299_STATUS_OK;
 166:ads1299.c     **** 	#else
 167:ads1299.c     **** 	#endif /* #if UC3 */
 168:ads1299.c     **** }
 169:ads1299.c     **** 
 170:ads1299.c     **** ads1299_error_t	ads1299_lead_off(uint8_t chip_select)
 171:ads1299.c     **** {
 172:ads1299.c     ****     ads1299_wreg(chip_select, ADS1299_REGADDR_LOFF, ADS1299_REG_LOFF_95_PERCENT | ADS1299_REG_LOFF_
 173:ads1299.c     ****     ads1299_wreg(chip_select, ADS1299_REGADDR_CONFIG4, ADS1299_REG_CONFIG4_LEAD_OFF_ENABLED);
 174:ads1299.c     ****     ads1299_wreg(chip_select, ADS1299_REGADDR_LOFF_SENSP, ADS1299_REG_LOFF_SENSP_LOFFP1 |
 175:ads1299.c     ****     ADS1299_REG_LOFF_SENSP_LOFFP2 |
 176:ads1299.c     ****     ADS1299_REG_LOFF_SENSP_LOFFP3 |
 177:ads1299.c     ****     ADS1299_REG_LOFF_SENSP_LOFFP4 |
 178:ads1299.c     ****     ADS1299_REG_LOFF_SENSP_LOFFP5 |
 179:ads1299.c     ****     ADS1299_REG_LOFF_SENSP_LOFFP6 |
 180:ads1299.c     ****     ADS1299_REG_LOFF_SENSP_LOFFP7 |
 181:ads1299.c     ****     ADS1299_REG_LOFF_SENSP_LOFFP8);
 182:ads1299.c     ****     
 183:ads1299.c     ****     return ADS1299_STATUS_OK;
 184:ads1299.c     **** }
 185:ads1299.c     **** 
 186:ads1299.c     **** 
 187:ads1299.c     **** /* REGISTER READ/WRITE FUNCTIONS ******************************************************************
 188:ads1299.c     **** 
 189:ads1299.c     **** ads1299_error_t ads1299_rreg(uint8_t chip_select, uint8_t reg_addr, uint8_t read_reg_val_arr[])
 190:ads1299.c     **** {
  29              		.loc 1 190 0
  30              		.cfi_startproc
  31              		@ args = 0, pretend = 0, frame = 8
  32              		@ frame_needed = 0, uses_anonymous_args = 0
  33              	.LVL0:
  34 0000 F0B5     		push	{r4, r5, r6, r7, lr}
  35              		.cfi_def_cfa_offset 20
  36              		.cfi_offset 4, -20
  37              		.cfi_offset 5, -16
  38              		.cfi_offset 6, -12
ARM GAS  C:\Users\dmr85\AppData\Local\Temp\ccSmIU8b.s 			page 5


  39              		.cfi_offset 7, -8
  40              		.cfi_offset 14, -4
  41 0002 83B0     		sub	sp, sp, #12
  42              		.cfi_def_cfa_offset 32
  43 0004 0546     		mov	r5, r0
  44 0006 0F46     		mov	r7, r1
  45              	.LVL1:
  46              	.LBB26:
  47              	.LBB27:
  48              		.file 2 "ads1299.h"
   1:ads1299.h     **** /**
   2:ads1299.h     ****  *  \file ads1299.h
   3:ads1299.h     ****  *  \brief Configuration settings, register definitions, and function prototypes for using the ADS1
   4:ads1299.h     ****  *	\author Graham Kelly
   5:ads1299.h     ****  *	\version 1.0
   6:ads1299.h     ****  *	\date August 2014
   7:ads1299.h     ****  *
   8:ads1299.h     ****  *  All Atmel Software Framework libraries used herein are copyright Atmel and
   9:ads1299.h     ****  *  subject to their appropriate licenses, which allow free redistribution with
  10:ads1299.h     ****  *  some restrictions. These restrictions are listed in their appropriate files.
  11:ads1299.h     ****  *
  12:ads1299.h     ****  *  \page License
  13:ads1299.h     ****  *
  14:ads1299.h     ****  *  Brainboard firmware code is placed under the MIT license
  15:ads1299.h     ****  *  Copyright (c) 2014 Graham Kelly
  16:ads1299.h     ****  *
  17:ads1299.h     ****  *  Permission is hereby granted, free of charge, to any person obtaining a copy
  18:ads1299.h     ****  *  of this software and associated documentation files (the "Software"), to deal
  19:ads1299.h     ****  *  in the Software without restriction, including without limitation the rights
  20:ads1299.h     ****  *  to use, copy, modify, merge, publish, distribute, sublicense, and/or sell
  21:ads1299.h     ****  *  copies of the Software, and to permit persons to whom the Software is
  22:ads1299.h     ****  *  furnished to do so, subject to the following conditions:
  23:ads1299.h     ****  *
  24:ads1299.h     ****  *  The above copyright notice and this permission notice shall be included in
  25:ads1299.h     ****  *  all copies or substantial portions of the Software.
  26:ads1299.h     ****  *
  27:ads1299.h     ****  *  THE SOFTWARE IS PROVIDED "AS IS", WITHOUT WARRANTY OF ANY KIND, EXPRESS OR
  28:ads1299.h     ****  *  IMPLIED, INCLUDING BUT NOT LIMITED TO THE WARRANTIES OF MERCHANTABILITY,
  29:ads1299.h     ****  *  FITNESS FOR A PARTICULAR PURPOSE AND NONINFRINGEMENT. IN NO EVENT SHALL THE
  30:ads1299.h     ****  *  AUTHORS OR COPYRIGHT HOLDERS BE LIABLE FOR ANY CLAIM, DAMAGES OR OTHER
  31:ads1299.h     ****  *  LIABILITY, WHETHER IN AN ACTION OF CONTRACT, TORT OR OTHERWISE, ARISING FROM,
  32:ads1299.h     ****  *  OUT OF OR IN CONNECTION WITH THE SOFTWARE OR THE USE OR OTHER DEALINGS IN
  33:ads1299.h     ****  *  THE SOFTWARE.
  34:ads1299.h     ****  *
  35:ads1299.h     ****  */
  36:ads1299.h     **** 
  37:ads1299.h     **** #ifndef _ADS1299_H_
  38:ads1299.h     **** #define _ADS1299_H_
  39:ads1299.h     **** 
  40:ads1299.h     **** #ifdef __cplusplus
  41:ads1299.h     **** extern "C" {
  42:ads1299.h     **** #endif
  43:ads1299.h     **** 
  44:ads1299.h     **** 
  45:ads1299.h     **** //#include "comms.h"
  46:ads1299.h     **** //#include <spi_master.h>
  47:ads1299.h     **** //#include <gpio.h>
ARM GAS  C:\Users\dmr85\AppData\Local\Temp\ccSmIU8b.s 			page 6


  48:ads1299.h     **** //#include <delay.h>
  49:ads1299.h     **** #include <project.h>
  50:ads1299.h     **** #include "ads1299_spi_adapt.h"
  51:ads1299.h     **** #include "comms.h"
  52:ads1299.h     **** #include <stdio.h>
  53:ads1299.h     **** 
  54:ads1299.h     **** /**************************************************************************************************
  55:ads1299.h     ****  *               Sampling Config                                                                   
  56:ads1299.h     ****  **************************************************************************************************
  57:ads1299.h     **** 
  58:ads1299.h     **** /**
  59:ads1299.h     ****  *  \brief Default data rate from the ADS1299.
  60:ads1299.h     ****  *
  61:ads1299.h     ****  *	To monitor electrode impedance continuously, an AC current is pulsed through each electrode and 
  62:ads1299.h     ****  *  voltage perturbation observed in the measured signal. This signal will not be easily separable 
  63:ads1299.h     ****  *  is within the typical 0-100 Hz EEG bandwidth; since the fastest possible AC excitation rate the
  64:ads1299.h     ****  *  generate is (data rate)/4, the lowest recommended data rate that allows continuous impedance mo
  65:ads1299.h     ****  *  Using a 500 Hz data rate will generate an AC excitation at 125 Hz, which is dangerously close t
  66:ads1299.h     ****  *  the EEG band.
  67:ads1299.h     ****  */
  68:ads1299.h     **** #define DEFAULT_SAMPLE_RATE			250
  69:ads1299.h     **** 
  70:ads1299.h     **** 
  71:ads1299.h     **** /**************************************************************************************************
  72:ads1299.h     **** *               Other Useful Definitions                                                           
  73:ads1299.h     **** ***************************************************************************************************
  74:ads1299.h     **** 
  75:ads1299.h     **** 
  76:ads1299.h     **** #define SIGN_EXT_24(VAL)						((int32_t)((uint32_t)(VAL) ^ (1UL<<(23))) - (1L<<(23)))
  77:ads1299.h     **** 
  78:ads1299.h     **** /* Default register values */
  79:ads1299.h     **** #define ADS1299_REGDEFAULT_ID			ADS1299_DEVICE_ID
  80:ads1299.h     **** #define ADS1299_REGDEFAULT_CONFIG1		0x96			///< Multiple readback mode, OSC output disabled, DR = F
  81:ads1299.h     **** #define ADS1299_REGDEFAULT_CONFIG2		0xD0			///< Test signal sourced internally, low-amplitude test 
  82:ads1299.h     **** #define ADS1299_REGDEFAULT_CONFIG3		0x68			///< Ref buffer off, bias measurement off, internal bias
  83:ads1299.h     **** #define ADS1299_REGDEFAULT_LOFF			0x00			///< 95%/5% LOFF comparator threshold, DC lead-off at 6 nA
  84:ads1299.h     **** #define ADS1299_REGDEFAULT_CHNSET		0xE0			///< Channel off, gain 24, SRB2 disconnected, normal elec
  85:ads1299.h     **** #define ADS1299_REGDEFAULT_BIAS_SENSP	0x00			///< All BIAS channels disconnected from positive lead
  86:ads1299.h     **** #define ADS1299_REGDEFAULT_BIAS_SENSN	0x00			///< All BIAS channels disconnected from negative lead
  87:ads1299.h     **** #define ADS1299_REGDEFAULT_LOFF_SENSP	0x00			///< All LOFF channels disconnected from positive lead
  88:ads1299.h     **** #define ADS1299_REGDEFAULT_LOFF_SENSN	0x00			///< All LOFF channels disconnected from negative lead
  89:ads1299.h     **** #define ADS1299_REGDEFAULT_LOFF_FLIP	0x00			///< No flipping in this house; source/pull-up at INP, 
  90:ads1299.h     **** #define ADS1299_REGDEFAULT_LOFF_STATP	0x00			///< This is a read-only register; reset value is 0x00
  91:ads1299.h     **** #define ADS1299_REGDEFAULT_LOFF_STATN	0x00			///< This is a read-only register; reset value is 0x00
  92:ads1299.h     **** #define ADS1299_REGDEFAULT_GPIO			0x0F			///< All GPIO set to inputs
  93:ads1299.h     **** #define ADS1299_REGDEFAULT_MISC1		0x00			///< SRB1 disconnected
  94:ads1299.h     **** #define ADS1299_REGDEFAULT_MISC2		0x00			///< Register not used in this silicon; should stay at 0x0
  95:ads1299.h     **** #define ADS1299_REGDEFAULT_CONFIG4		0x00			///< Continuous conversion, LOFF comparator powered down
  96:ads1299.h     **** 	
  97:ads1299.h     **** 
  98:ads1299.h     **** /**************************************************************************************************
  99:ads1299.h     **** *               Typedefs and Struct Declarations/Definitions                                       
 100:ads1299.h     **** ***************************************************************************************************
 101:ads1299.h     **** 
 102:ads1299.h     **** /**
 103:ads1299.h     ****  *	\brief Error codes for interacting with the ADS1299.
 104:ads1299.h     ****  *
ARM GAS  C:\Users\dmr85\AppData\Local\Temp\ccSmIU8b.s 			page 7


 105:ads1299.h     ****  */
 106:ads1299.h     **** typedef enum
 107:ads1299.h     **** {
 108:ads1299.h     **** 	ADS1299_STATUS_OK				= 0,		///< No error.
 109:ads1299.h     **** 	ADS1299_ERROR_SPI_TIMEOUT		= 1,		///< SPI timed out. Check SPI configuration and hardware connecti
 110:ads1299.h     **** 	/* Expand with other codes if desired */
 111:ads1299.h     **** } ads1299_error_t;
 112:ads1299.h     **** 
 113:ads1299.h     **** /**
 114:ads1299.h     ****  *	\brief ADS1299 register addresses.
 115:ads1299.h     ****  *
 116:ads1299.h     ****  * Consult the ADS1299 datasheet and user's guide for more information.
 117:ads1299.h     ****  */
 118:ads1299.h     **** #define	ADS1299_REGADDR_ID			 0x00			///< Chip ID register. Read-only. ID[4:0] should be 11110.
 119:ads1299.h     **** #define	ADS1299_REGADDR_CONFIG1		 0x01			///< Configuration register 1. Controls daisy-chain mode; 
 120:ads1299.h     **** #define	ADS1299_REGADDR_CONFIG2		 0x02			///< Configuration register 2. Controls calibration signal
 121:ads1299.h     **** #define	ADS1299_REGADDR_CONFIG3		 0x03			///< Configuration register 3. Controls reference buffer p
 122:ads1299.h     **** #define	ADS1299_REGADDR_LOFF		 0x04			///< Lead-off control register. Controls lead-off frequency, 
 123:ads1299.h     **** #define	ADS1299_REGADDR_CH1SET		 0x05			///< Channel 1 settings register. Controls channel 1 input 
 124:ads1299.h     **** #define	ADS1299_REGADDR_CH2SET		 0x06			///< Channel 2 settings register. Controls channel 2 input 
 125:ads1299.h     **** #define	ADS1299_REGADDR_CH3SET		 0x07			///< Channel 3 settings register. Controls channel 3 input 
 126:ads1299.h     **** #define	ADS1299_REGADDR_CH4SET		 0x08			///< Channel 4 settings register. Controls channel 4 input 
 127:ads1299.h     **** #define	ADS1299_REGADDR_CH5SET		 0x09			///< Channel 5 settings register. Controls channel 5 input 
 128:ads1299.h     **** #define	ADS1299_REGADDR_CH6SET		 0x0A			///< Channel 6 settings register. Controls channel 6 input 
 129:ads1299.h     **** #define	ADS1299_REGADDR_CH7SET		 0x0B			///< Channel 7 settings register. Controls channel 7 input 
 130:ads1299.h     **** #define	ADS1299_REGADDR_CH8SET		 0x0C			///< Channel 8 settings register. Controls channel 8 input 
 131:ads1299.h     **** #define	ADS1299_REGADDR_BIAS_SENSP	 0x0D			///< Bias drive positive sense selection. Selects channe
 132:ads1299.h     **** #define	ADS1299_REGADDR_BIAS_SENSN	 0x0E			///< Bias drive negative sense selection. Selects channe
 133:ads1299.h     **** #define	ADS1299_REGADDR_LOFF_SENSP	 0x0F			///< Lead-off positive sense selection. Selects channels
 134:ads1299.h     **** #define	ADS1299_REGADDR_LOFF_SENSN	 0x10			///< Lead-off negative sense selection. Selects channels
 135:ads1299.h     **** #define	ADS1299_REGADDR_LOFF_FLIP	 0x11			///< 1: Swaps lead-off current source and sink on the cor
 136:ads1299.h     **** #define	ADS1299_REGADDR_LOFF_STATP	 0x12			///< Lead-off positive side status register. Read-only. 
 137:ads1299.h     **** #define	ADS1299_REGADDR_LOFF_STATN	 0x13			///< Lead-off negative side status register. Read-only. 
 138:ads1299.h     **** #define	ADS1299_REGADDR_GPIO		 0x14			///< GPIO register. Controls state and direction of the ADS12
 139:ads1299.h     **** #define	ADS1299_REGADDR_MISC1		 0x15			///< Miscellaneous 1. Connects/disconnects SRB1 to all chann
 140:ads1299.h     **** #define	ADS1299_REGADDR_MISC2		 0x16			///< Miscellaneous 2. No functionality in current revision o
 141:ads1299.h     **** #define	ADS1299_REGADDR_CONFIG4		 0x17			///< Configuration register 4. Enables/disables single-sho
 142:ads1299.h     **** 
 143:ads1299.h     **** /**
 144:ads1299.h     ****  *	\brief ADS1299 SPI communication opcodes.
 145:ads1299.h     ****  *	
 146:ads1299.h     ****  * Consult the ADS1299 datasheet and user's guide for more information.
 147:ads1299.h     ****  * For RREG and WREG opcodes, the first byte (opcode) must be ORed with the address of the register
 148:ads1299.h     ****  * The command is completed with a second byte 000n nnnn, where n nnnn is (# registers to read) - 1
 149:ads1299.h     ****  */
 150:ads1299.h     **** #define	ADS1299_OPC_WAKEUP		 0x02			///< Wake up from standby.
 151:ads1299.h     **** #define	ADS1299_OPC_STANDBY		 0x04			///< Enter standby.
 152:ads1299.h     **** #define	ADS1299_OPC_RESET		 0x06			///< Reset all registers.	
 153:ads1299.h     **** #define	ADS1299_OPC_START		 0x08			///< Start data conversions.
 154:ads1299.h     **** #define	ADS1299_OPC_STOP		 0x0A			///< Stop data conversions.
 155:ads1299.h     **** 	
 156:ads1299.h     **** #define	ADS1299_OPC_RDATAC		 0x10			///< Read data continuously (registers cannot be read or writte
 157:ads1299.h     **** #define	ADS1299_OPC_SDATAC		 0x11			///< Stop continuous data read.
 158:ads1299.h     **** #define	ADS1299_OPC_RDATA		 0x12			///< Read single data value.
 159:ads1299.h     **** 	
 160:ads1299.h     **** #define	ADS1299_OPC_RREG		 0x20			///< Read register value.
 161:ads1299.h     **** #define	ADS1299_OPC_WREG		 0x40			///< Write register value.
ARM GAS  C:\Users\dmr85\AppData\Local\Temp\ccSmIU8b.s 			page 8


 162:ads1299.h     **** 
 163:ads1299.h     **** /* ID REGISTER ************************************************************************************
 164:ads1299.h     **** 
 165:ads1299.h     **** /**
 166:ads1299.h     ****  *  \brief Factory-programmed device ID for ADS1299, stored in ID[3:0].
 167:ads1299.h     ****  */ 
 168:ads1299.h     **** // Factory-programmed device ID for ADS1299. Stored in ID[3:0].
 169:ads1299.h     **** #define ADS1299_DEVICE_ID		0b1110
 170:ads1299.h     **** 
 171:ads1299.h     **** /* CONFIG1 REGISTER *******************************************************************************
 172:ads1299.h     **** 
 173:ads1299.h     **** /**
 174:ads1299.h     ****  *  \brief Bit location and size definitions for CONFIG1.CLK_EN bit (oscillator output on CLK pin e
 175:ads1299.h     ****  *
 176:ads1299.h     ****  * Consult the ADS1299 datasheet, page 40, for more information.
 177:ads1299.h     ****  */
 178:ads1299.h     **** #define ADS1299_REG_CONFIG1_CLOCK_OUTPUT_DISABLED	 (0<<5)
 179:ads1299.h     **** #define ADS1299_REG_CONFIG1_CLOCK_OUTPUT_ENABLED	 (1<<5)
 180:ads1299.h     **** 
 181:ads1299.h     **** /**
 182:ads1299.h     ****  *  \brief Bit location and size definitions for CONFIG1.DAISY_EN bit.
 183:ads1299.h     ****  *
 184:ads1299.h     ****  * Consult the ADS1299 datasheet, pp. 40 and 31-34, for more information.
 185:ads1299.h     ****  */
 186:ads1299.h     **** #define ADS1299_REG_CONFIG1_DAISY_CHAIN_MODE		 (0<<6)
 187:ads1299.h     **** #define ADS1299_REG_CONFIG1_MULTI_READBACK_MODE		 (1<<6)
 188:ads1299.h     **** 
 189:ads1299.h     **** /**
 190:ads1299.h     ****  *  \brief Bit mask definitions for CONFIG1.DR (data rate).
 191:ads1299.h     ****  *
 192:ads1299.h     ****  * FMOD = FCLK/2, where FCLK is the clock frequency of the ADS1299. This is normally 2.048 MHz.
 193:ads1299.h     ****  */
 194:ads1299.h     **** #define	ADS1299_REG_CONFIG1_FMOD_DIV_BY_64			 0		///< Data is output at FMOD/64, or 16 kHz at 2.048
 195:ads1299.h     **** #define	ADS1299_REG_CONFIG1_FMOD_DIV_BY_128			 1		///< Data is output at FMOD/128, or 8 kHz at 2.04
 196:ads1299.h     **** #define	ADS1299_REG_CONFIG1_FMOD_DIV_BY_256			 2		///< Data is output at FMOD/256, or 4 kHz at 2.04
 197:ads1299.h     **** #define	ADS1299_REG_CONFIG1_FMOD_DIV_BY_512			 3		///< Data is output at FMOD/512, or 2 kHz at 2.04
 198:ads1299.h     **** #define	ADS1299_REG_CONFIG1_FMOD_DIV_BY_1024		 4		///< Data is output at FMOD/1024, or 1 kHz at 2.0
 199:ads1299.h     **** #define	ADS1299_REG_CONFIG1_FMOD_DIV_BY_2048		 5		///< Data is output at FMOD/2048, or 500 Hz at 2.
 200:ads1299.h     **** #define	ADS1299_REG_CONFIG1_FMOD_DIV_BY_4096		 6		///< Data is output at FMOD/4096, or 250 Hz at 2.
 201:ads1299.h     **** 
 202:ads1299.h     **** /**
 203:ads1299.h     ****  *  \brief Combined value of reserved bits in CONFIG1 register.
 204:ads1299.h     ****  *
 205:ads1299.h     ****  * Consult the ADS1299 datasheet, page 40, for more information.
 206:ads1299.h     ****  */
 207:ads1299.h     **** #define ADS1299_REG_CONFIG1_RESERVED_VALUE			(1<<7)|(1<<4)
 208:ads1299.h     **** 
 209:ads1299.h     **** /* CONFIG2 REGISTER *******************************************************************************
 210:ads1299.h     **** 
 211:ads1299.h     **** /**
 212:ads1299.h     ****  *  \brief Bit mask definitions for CONFIG2.CAL_FREQ (calibration signal frequency).
 213:ads1299.h     ****  *
 214:ads1299.h     ****  * FCLK is the clock frequency of the ADS1299. This is normally 2.048 MHz.
 215:ads1299.h     ****  */
 216:ads1299.h     **** #define	ADS1299_REG_CONFIG2_CAL_PULSE_FCLK_DIV_2_21		0		///< Calibration signal pulsed at FCLK/2^21
 217:ads1299.h     **** #define	ADS1299_REG_CONFIG2_CAL_PULSE_FCLK_DIV_2_20		1		///< Calibration signal pulsed at FCLK/2^20
 218:ads1299.h     **** #define	ADS1299_REG_CONFIG2_CAL_DC						3		///< Calibration signal is not pulsed.
ARM GAS  C:\Users\dmr85\AppData\Local\Temp\ccSmIU8b.s 			page 9


 219:ads1299.h     **** 
 220:ads1299.h     **** 
 221:ads1299.h     **** /**
 222:ads1299.h     ****  *  \brief Bit mask definitions for CONFIG2.CAL_AMP0 (calibration signal amplitude).
 223:ads1299.h     ****  */
 224:ads1299.h     **** #define	ADS1299_REG_CONFIG2_CAL_AMP_VREF_DIV_2_4_MV		(0<<2)		///< Calibration signal amplitude is 1
 225:ads1299.h     **** #define	ADS1299_REG_CONFIG2_CAL_AMP_2VREF_DIV_2_4_MV	(1<<2)		///< Calibration signal amplitude is 2
 226:ads1299.h     **** 
 227:ads1299.h     **** /**
 228:ads1299.h     ****  *  \brief Bit mask definitions for CONFIG2.INT_CAL (calibration signal source).
 229:ads1299.h     ****  */
 230:ads1299.h     **** #define	ADS1299_REG_CONFIG2_CAL_EXT						(0<<4)		///< Calibration signal is driven externally.
 231:ads1299.h     **** #define	ADS1299_REG_CONFIG2_CAL_INT						(1<<4)		///< Calibration signal is driven internally.
 232:ads1299.h     **** 
 233:ads1299.h     **** /**
 234:ads1299.h     ****  *  \brief Combined value of reserved bits in CONFIG2 register.
 235:ads1299.h     ****  *
 236:ads1299.h     ****  * Consult the ADS1299 datasheet, page 41, for more information.
 237:ads1299.h     ****  */
 238:ads1299.h     **** #define	ADS1299_REG_CONFIG2_RESERVED_VALUE				(6<<5)
 239:ads1299.h     **** 
 240:ads1299.h     **** 
 241:ads1299.h     **** /* CONFIG3 REGISTER *******************************************************************************
 242:ads1299.h     **** 
 243:ads1299.h     **** /**
 244:ads1299.h     ****  *  \brief Bit mask definitions for CONFIG3.PD_REFBUF (internal voltage reference buffer enable/dis
 245:ads1299.h     ****  *
 246:ads1299.h     ****  * Note that disabling the buffer for the internal voltage reference requires that a reference volt
 247:ads1299.h     ****  * must be externally applied on VREFP for proper operation. This is not related to the reference E
 248:ads1299.h     ****  * buffer, which is an external op-amp on the PCB. Brainboard does not apply a voltage to VREFP, an
 249:ads1299.h     ****  * the buffer must be enabled.
 250:ads1299.h     ****  */
 251:ads1299.h     **** #define	ADS1299_REG_CONFIG3_REFBUF_DISABLED			(0<<7)
 252:ads1299.h     **** #define	ADS1299_REG_CONFIG3_REFBUF_ENABLED			(1<<7)
 253:ads1299.h     **** 
 254:ads1299.h     **** /**
 255:ads1299.h     ****  *  \brief Bit mask definitions for CONFIG3.BIAS_MEAS (enable or disable bias measurement through B
 256:ads1299.h     ****  */
 257:ads1299.h     **** #define	ADS1299_REG_CONFIG3_BIAS_MEAS_DISABLED			(0<<4)
 258:ads1299.h     **** #define	ADS1299_REG_CONFIG3_BIAS_MEAS_ENABLED			(1<<4)
 259:ads1299.h     **** 
 260:ads1299.h     **** /**
 261:ads1299.h     ****  *  \brief Bit mask definitions for CONFIG3.BIASREF_INT (bias reference internally or externally ge
 262:ads1299.h     ****  */
 263:ads1299.h     **** #define	ADS1299_REG_CONFIG3_BIASREF_EXT					(0<<3)
 264:ads1299.h     **** #define	ADS1299_REG_CONFIG3_BIASREF_INT					(1<<3)
 265:ads1299.h     **** 
 266:ads1299.h     **** /**
 267:ads1299.h     ****  *  \brief Bit mask definitions for CONFIG3.PD_BIAS (power-down or enable bias buffer amplifier).
 268:ads1299.h     ****  */
 269:ads1299.h     **** #define	ADS1299_REG_CONFIG3_BIASBUF_DISABLED			(0<<2)
 270:ads1299.h     **** #define	ADS1299_REG_CONFIG3_BIASBUF_ENABLED				(1<<2)
 271:ads1299.h     **** 
 272:ads1299.h     **** /**
 273:ads1299.h     ****  *  \brief Bit mask definitions for CONFIG3.BIAS_LOFF_SENS (detection of bias lead-off en/disable).
 274:ads1299.h     ****  */
 275:ads1299.h     **** #define	ADS1299_REG_CONFIG3_BIAS_LOFF_SENSE_DISABLED	(0<<1)
ARM GAS  C:\Users\dmr85\AppData\Local\Temp\ccSmIU8b.s 			page 10


 276:ads1299.h     **** #define ADS1299_REG_CONFIG3_BIAS_LOFF_SENSE_ENABLED		(1<<1)
 277:ads1299.h     **** 
 278:ads1299.h     **** /**
 279:ads1299.h     ****  *  \brief Combined value of reserved bits in CONFIG3 register.
 280:ads1299.h     ****  *
 281:ads1299.h     ****  * Consult the ADS1299 datasheet, page 42, for more information.
 282:ads1299.h     ****  */
 283:ads1299.h     **** #define ADS1299_REG_CONFIG3_RESERVED_VALUE				(3<<5)
 284:ads1299.h     **** 
 285:ads1299.h     **** /* CONFIG4 REGISTER *******************************************************************************
 286:ads1299.h     **** 
 287:ads1299.h     **** /**
 288:ads1299.h     ****  *  \brief Bit mask definitions for CONFIG4.SINGLE_SHOT (single-shot or continuous conversion setti
 289:ads1299.h     ****  *
 290:ads1299.h     ****  * This can more easily be set with the RDATAC/SDATAC opcodes.
 291:ads1299.h     ****  */
 292:ads1299.h     **** #define ADS1299_REG_CONFIG4_CONTINUOUS_CONVERSION_MODE		(0<<3)
 293:ads1299.h     **** #define ADS1299_REG_CONFIG4_SINGLE_SHOT_MODE				(1<<3)
 294:ads1299.h     **** 
 295:ads1299.h     **** /**
 296:ads1299.h     ****  *  \brief Bit mask definitions for CONFIG4.PD_LOFF_COMP (power-down lead-off comparators).
 297:ads1299.h     ****  *
 298:ads1299.h     ****  */
 299:ads1299.h     **** #define ADS1299_REG_CONFIG4_LEAD_OFF_DISABLED				(0<<1)
 300:ads1299.h     **** #define ADS1299_REG_CONFIG4_LEAD_OFF_ENABLED				(1<<1)
 301:ads1299.h     **** 
 302:ads1299.h     **** /**
 303:ads1299.h     ****  *  \brief Combined value of reserved bits in CONFIG4 register.
 304:ads1299.h     ****  *
 305:ads1299.h     ****  * Consult the ADS1299 datasheet, page 47, for more information.
 306:ads1299.h     ****  */
 307:ads1299.h     **** #define ADS1299_REG_CONFIG4_RESERVED_VALUE		0
 308:ads1299.h     **** 
 309:ads1299.h     **** /* LOFF REGISTER **********************************************************************************
 310:ads1299.h     **** 
 311:ads1299.h     **** /**
 312:ads1299.h     ****  *  \brief Bit mask definitions for LOFF.COMP_TH (lead-off comparator threshold).
 313:ads1299.h     ****  *
 314:ads1299.h     ****  * Definition names are for the positive side (LOFFP). The corresponding LOFFN thresholds
 315:ads1299.h     ****  * are the difference between these thresholds and 100%. Default value is _95_PERCENT.
 316:ads1299.h     ****  */
 317:ads1299.h     **** #define	ADS1299_REG_LOFF_95_PERCENT					(0<<5)
 318:ads1299.h     **** #define	ADS1299_REG_LOFF_92_5_PERCENT				(1<<5)
 319:ads1299.h     **** #define	ADS1299_REG_LOFF_90_PERCENT					(2<<5)
 320:ads1299.h     **** #define	ADS1299_REG_LOFF_87_5_PERCENT				(3<<5)
 321:ads1299.h     **** #define	ADS1299_REG_LOFF_85_PERCENT					(4<<5)
 322:ads1299.h     **** #define	ADS1299_REG_LOFF_80_PERCENT					(5<<5)
 323:ads1299.h     **** #define	ADS1299_REG_LOFF_75_PERCENT					(6<<5)
 324:ads1299.h     **** #define	ADS1299_REG_LOFF_70_PERCENT					(7<<5)	
 325:ads1299.h     **** 
 326:ads1299.h     **** /**
 327:ads1299.h     ****  *  \brief Bit mask definitions for LOFF.ILEAD_OFF (lead-off current magnitude).
 328:ads1299.h     ****  *
 329:ads1299.h     ****  * This should be as small as possible for continuous lead-off detection, so as not to noticeably a
 330:ads1299.h     ****  * the acquired signal. Default is _6_NA.
 331:ads1299.h     ****  */
 332:ads1299.h     **** #define	ADS1299_REG_LOFF_6_NA						(0<<2)			///< 6 nA lead-off current.
ARM GAS  C:\Users\dmr85\AppData\Local\Temp\ccSmIU8b.s 			page 11


 333:ads1299.h     **** #define	ADS1299_REG_LOFF_24_NA						(1<<2)			///< 24 nA lead-off current.
 334:ads1299.h     **** #define	ADS1299_REG_LOFF_6_UA						(2<<2)			///< 6 uA lead-off current.
 335:ads1299.h     **** #define	ADS1299_REG_LOFF_24_UA						(3<<2)			///< 24 uA lead-off current.					
 336:ads1299.h     **** 
 337:ads1299.h     **** /**
 338:ads1299.h     ****  *  \brief Bit mask definitions for LOFF.FLEAD_OFF (lead-off current frequency).
 339:ads1299.h     ****  *
 340:ads1299.h     ****  * This should be as large as possible for continuous AC lead-off detection to ensure that it is ou
 341:ads1299.h     ****  * of the EEG frequency band (approx. 0-100 Hz for most applications). The excitation signal can th
 342:ads1299.h     ****  * be filtered out of the acquired overall signal, and its voltage amplitude measured in order to d
 343:ads1299.h     ****  * the electrode impedance.
 344:ads1299.h     ****  * FCLK is the clock frequency of the ADS1299. This is normally 2.048 MHz.
 345:ads1299.h     ****  * FDR is the output data rate. With the default clock, this must be at least 1 kHz in order to use
 346:ads1299.h     ****  * continuous AC impedance monitoring, since the excitation frequency of FDR/4 = 250 Hz is the lowe
 347:ads1299.h     ****  * possible frequency outside of the EEG band. If only a specific band is needed and it is lower th
 348:ads1299.h     ****  * 62.5 Hz or 125 Hz, the 250/500 Hz settings may be used.
 349:ads1299.h     ****  */
 350:ads1299.h     **** #define	ADS1299_REG_LOFF_DC_LEAD_OFF				0		///< Lead-off current is at DC.
 351:ads1299.h     **** #define	ADS1299_REG_LOFF_AC_LEAD_OFF_FCLK_DIV_2_18	1		///< Lead-off current is at FCLK/2^18, or 7.8
 352:ads1299.h     **** #define	ADS1299_REG_LOFF_AC_LEAD_OFF_FCLK_DIV_2_16	2		///< Lead-off current is at FCLK/2^16, or 31.
 353:ads1299.h     **** #define	ADS1299_REG_LOFF_AC_LEAD_OFF_FDR_DIV_4		3		///< Lead-off current is at FDR/4.
 354:ads1299.h     **** 
 355:ads1299.h     **** /**
 356:ads1299.h     ****  *  \brief Combined value of reserved bits in LOFF register.
 357:ads1299.h     ****  *
 358:ads1299.h     ****  */
 359:ads1299.h     **** #define ADS1299_REG_LOFF_RESERVED_VALUE				0
 360:ads1299.h     **** 
 361:ads1299.h     **** /* CHnSET REGISTERS *******************************************************************************
 362:ads1299.h     **** 
 363:ads1299.h     **** /**
 364:ads1299.h     ****  *  \brief Bit mask definitions for CHnSET.PD (channel power-down).
 365:ads1299.h     ****  */
 366:ads1299.h     **** #define	ADS1299_REG_CHNSET_CHANNEL_ON			(0<<7)
 367:ads1299.h     **** #define	ADS1299_REG_CHNSET_CHANNEL_OFF			(1<<7)
 368:ads1299.h     **** 
 369:ads1299.h     **** /**
 370:ads1299.h     ****  *  \brief Bit mask definitions for CHnSET.GAIN (channel PGA gain).
 371:ads1299.h     ****  *
 372:ads1299.h     ****  * Take care to ensure that the gain is appropriate for the common-mode level of the device inputs.
 373:ads1299.h     ****  * Higher gain settings have lower input-referred noise.
 374:ads1299.h     ****  * Consult the ADS1299 datasheet, pages 6-7 and 19-20, for more information.
 375:ads1299.h     ****  */
 376:ads1299.h     **** #define	ADS1299_REG_CHNSET_GAIN_1				(0<<4)			///< PGA gain = 1.
 377:ads1299.h     **** #define	ADS1299_REG_CHNSET_GAIN_2				(1<<4)			///< PGA gain = 2.
 378:ads1299.h     **** #define	ADS1299_REG_CHNSET_GAIN_4				(2<<4)			///< PGA gain = 4.
 379:ads1299.h     **** #define	ADS1299_REG_CHNSET_GAIN_6				(3<<4)			///< PGA gain = 6.
 380:ads1299.h     **** #define	ADS1299_REG_CHNSET_GAIN_8				(4<<4)			///< PGA gain = 8.
 381:ads1299.h     **** #define	ADS1299_REG_CHNSET_GAIN_12				(5<<4)			///< PGA gain = 12.
 382:ads1299.h     **** #define	ADS1299_REG_CHNSET_GAIN_24				(6<<4)			///< PGA gain = 24.
 383:ads1299.h     **** 
 384:ads1299.h     **** /**
 385:ads1299.h     ****  *  \brief Bit mask definitions for CHnSET.SRB2 (channel internal connection to SRB2 pin).
 386:ads1299.h     ****  */
 387:ads1299.h     **** #define	ADS1299_REG_CHNSET_SRB2_DISCONNECTED	(0<<3)
 388:ads1299.h     **** #define	ADS1299_REG_CHNSET_SRB2_CONNECTED		(1<<3)
 389:ads1299.h     **** 
ARM GAS  C:\Users\dmr85\AppData\Local\Temp\ccSmIU8b.s 			page 12


 390:ads1299.h     **** /**
 391:ads1299.h     ****  *  \brief Bit mask definitions for CHnSET.MUX (channel mux setting).
 392:ads1299.h     ****  *
 393:ads1299.h     ****  * Controls the channel multiplexing on the ADS1299.
 394:ads1299.h     ****  * Consult the ADS1299 datasheet, pages 16-17, for more information.
 395:ads1299.h     ****  */
 396:ads1299.h     **** #define	ADS1299_REG_CHNSET_NORMAL_ELECTRODE		0			///< Channel is connected to the corresponding pos
 397:ads1299.h     **** #define	ADS1299_REG_CHNSET_INPUT_SHORTED		1			///< Channel inputs are shorted together. Used for of
 398:ads1299.h     **** #define	ADS1299_REG_CHNSET_BIAS_MEASUREMENT		2			///< Used with CONFIG3.BIAS_MEAS for bias measurem
 399:ads1299.h     **** #define	ADS1299_REG_CHNSET_MVDD_SUPPLY			3			///< Used for measuring analog and digital supplies. S
 400:ads1299.h     **** #define	ADS1299_REG_CHNSET_TEMPERATURE_SENSOR	4			///< Measures device temperature. See ADS1299 dat
 401:ads1299.h     **** #define	ADS1299_REG_CHNSET_TEST_SIGNAL			5			///< Measures calibration signal. See ADS1299 datashee
 402:ads1299.h     **** #define	ADS1299_REG_CHNSET_BIAS_DRIVE_P			6			///< Connects positive side of channel to bias drive 
 403:ads1299.h     **** #define	ADS1299_REG_CHNSET_BIAS_DRIVE_N			7 			///< Connects negative side of channel to bias drive
 404:ads1299.h     **** 
 405:ads1299.h     **** /**
 406:ads1299.h     ****  *  \brief Combined value of reserved bits in CHnSET registers.
 407:ads1299.h     ****  *
 408:ads1299.h     ****  */
 409:ads1299.h     **** #define ADS1299_REG_CHNSET_RESERVED_VALUE		0
 410:ads1299.h     **** 
 411:ads1299.h     **** /* BIAS_SENSP REGISTER ****************************************************************************
 412:ads1299.h     **** 
 413:ads1299.h     **** /**
 414:ads1299.h     ****  *  \brief Bit mask definitions for BIAS_SENSP register (read-only).
 415:ads1299.h     ****  *
 416:ads1299.h     ****  * Consult the ADS1299 datasheet, page 44, for more information.
 417:ads1299.h     ****  */
 418:ads1299.h     **** #define ADS1299_REG_BIAS_SENSP_BIASP8	(1<<7)
 419:ads1299.h     **** #define ADS1299_REG_BIAS_SENSP_BIASP7	(1<<6)
 420:ads1299.h     **** #define ADS1299_REG_BIAS_SENSP_BIASP6	(1<<5)
 421:ads1299.h     **** #define ADS1299_REG_BIAS_SENSP_BIASP5	(1<<4)
 422:ads1299.h     **** #define ADS1299_REG_BIAS_SENSP_BIASP4	(1<<3)
 423:ads1299.h     **** #define ADS1299_REG_BIAS_SENSP_BIASP3	(1<<2)
 424:ads1299.h     **** #define ADS1299_REG_BIAS_SENSP_BIASP2	(1<<1)
 425:ads1299.h     **** #define ADS1299_REG_BIAS_SENSP_BIASP1	(1<<0)
 426:ads1299.h     **** 
 427:ads1299.h     **** 
 428:ads1299.h     **** /* BIAS_SENSN REGISTER ****************************************************************************
 429:ads1299.h     **** 
 430:ads1299.h     **** /**
 431:ads1299.h     ****  *  \brief Bit mask definitions for BIAS_SENSN register (read-only).
 432:ads1299.h     ****  *
 433:ads1299.h     ****  * Consult the ADS1299 datasheet, page 44, for more information.
 434:ads1299.h     ****  */
 435:ads1299.h     **** #define ADS1299_REG_BIAS_SENSN_BIASN8	(1<<7)
 436:ads1299.h     **** #define ADS1299_REG_BIAS_SENSN_BIASN7	(1<<6)
 437:ads1299.h     **** #define ADS1299_REG_BIAS_SENSN_BIASN6	(1<<5)
 438:ads1299.h     **** #define ADS1299_REG_BIAS_SENSN_BIASN5	(1<<4)
 439:ads1299.h     **** #define ADS1299_REG_BIAS_SENSN_BIASN4	(1<<3)
 440:ads1299.h     **** #define ADS1299_REG_BIAS_SENSN_BIASN3	(1<<2)
 441:ads1299.h     **** #define ADS1299_REG_BIAS_SENSN_BIASN2	(1<<1)
 442:ads1299.h     **** #define ADS1299_REG_BIAS_SENSN_BIASN1	(1<<0)
 443:ads1299.h     **** 
 444:ads1299.h     **** /* LOFF_SENSP REGISTER ****************************************************************************
 445:ads1299.h     **** 
 446:ads1299.h     **** /**
ARM GAS  C:\Users\dmr85\AppData\Local\Temp\ccSmIU8b.s 			page 13


 447:ads1299.h     ****  *  \brief Bit mask definitions for LOFF_SENSP register (read-only).
 448:ads1299.h     ****  *
 449:ads1299.h     ****  * Consult the ADS1299 datasheet, page 45, for more information.
 450:ads1299.h     ****  */
 451:ads1299.h     **** #define ADS1299_REG_LOFF_SENSP_LOFFP8	(1<<7)
 452:ads1299.h     **** #define ADS1299_REG_LOFF_SENSP_LOFFP7	(1<<6)
 453:ads1299.h     **** #define ADS1299_REG_LOFF_SENSP_LOFFP6	(1<<5)
 454:ads1299.h     **** #define ADS1299_REG_LOFF_SENSP_LOFFP5	(1<<4)
 455:ads1299.h     **** #define ADS1299_REG_LOFF_SENSP_LOFFP4	(1<<3)
 456:ads1299.h     **** #define ADS1299_REG_LOFF_SENSP_LOFFP3	(1<<2)
 457:ads1299.h     **** #define ADS1299_REG_LOFF_SENSP_LOFFP2	(1<<1)
 458:ads1299.h     **** #define ADS1299_REG_LOFF_SENSP_LOFFP1	(1<<0)
 459:ads1299.h     **** 
 460:ads1299.h     **** 
 461:ads1299.h     **** /* LOFF_SENSN REGISTER ****************************************************************************
 462:ads1299.h     **** 
 463:ads1299.h     **** /**
 464:ads1299.h     ****  *  \brief Bit mask definitions for LOFF_SENSN register (read-only).
 465:ads1299.h     ****  *
 466:ads1299.h     ****  * Consult the ADS1299 datasheet, page 45, for more information.
 467:ads1299.h     ****  */
 468:ads1299.h     **** #define ADS1299_REG_LOFF_SENSN_LOFFN8	(1<<7)
 469:ads1299.h     **** #define ADS1299_REG_LOFF_SENSN_LOFFN7	(1<<6)
 470:ads1299.h     **** #define ADS1299_REG_LOFF_SENSN_LOFFN6	(1<<5)
 471:ads1299.h     **** #define ADS1299_REG_LOFF_SENSN_LOFFN5	(1<<4)
 472:ads1299.h     **** #define ADS1299_REG_LOFF_SENSN_LOFFN4	(1<<3)
 473:ads1299.h     **** #define ADS1299_REG_LOFF_SENSN_LOFFN3	(1<<2)
 474:ads1299.h     **** #define ADS1299_REG_LOFF_SENSN_LOFFN2	(1<<1)
 475:ads1299.h     **** #define ADS1299_REG_LOFF_SENSN_LOFFN1	(1<<0)
 476:ads1299.h     **** 
 477:ads1299.h     **** /* LOFF_FLIP REGISTER *****************************************************************************
 478:ads1299.h     **** 
 479:ads1299.h     **** /**
 480:ads1299.h     ****  *  \brief Bit mask definitions for LOFF_FLIP register (read-only).
 481:ads1299.h     ****  *
 482:ads1299.h     ****  * Consult the ADS1299 datasheet, page 45, for more information.
 483:ads1299.h     ****  */
 484:ads1299.h     **** #define ADS1299_REG_LOFF_FLIP_LOFF_FLIP8	(1<<7)
 485:ads1299.h     **** #define ADS1299_REG_LOFF_FLIP_LOFF_FLIP7	(1<<6)
 486:ads1299.h     **** #define ADS1299_REG_LOFF_FLIP_LOFF_FLIP6	(1<<5)
 487:ads1299.h     **** #define ADS1299_REG_LOFF_FLIP_LOFF_FLIP5	(1<<4)
 488:ads1299.h     **** #define ADS1299_REG_LOFF_FLIP_LOFF_FLIP4	(1<<3)
 489:ads1299.h     **** #define ADS1299_REG_LOFF_FLIP_LOFF_FLIP3	(1<<2)
 490:ads1299.h     **** #define ADS1299_REG_LOFF_FLIP_LOFF_FLIP2	(1<<1)
 491:ads1299.h     **** #define ADS1299_REG_LOFF_FLIP_LOFF_FLIP1	(1<<0)
 492:ads1299.h     **** 
 493:ads1299.h     **** 
 494:ads1299.h     **** /* LOFF_STATP REGISTER ****************************************************************************
 495:ads1299.h     **** 
 496:ads1299.h     **** /**
 497:ads1299.h     ****  *  \brief Bit mask definitions for LOFF_STATP register (read-only).
 498:ads1299.h     ****  *
 499:ads1299.h     ****  * Consult the ADS1299 datasheet, page 45, for more information.
 500:ads1299.h     ****  */
 501:ads1299.h     **** #define ADS1299_REG_LOFF_STATP_IN8P_OFF	(1<<7)
 502:ads1299.h     **** #define ADS1299_REG_LOFF_STATP_IN7P_OFF	(1<<6)
 503:ads1299.h     **** #define ADS1299_REG_LOFF_STATP_IN6P_OFF	(1<<5)
ARM GAS  C:\Users\dmr85\AppData\Local\Temp\ccSmIU8b.s 			page 14


 504:ads1299.h     **** #define ADS1299_REG_LOFF_STATP_IN5P_OFF	(1<<4)
 505:ads1299.h     **** #define ADS1299_REG_LOFF_STATP_IN4P_OFF	(1<<3)
 506:ads1299.h     **** #define ADS1299_REG_LOFF_STATP_IN3P_OFF	(1<<2)
 507:ads1299.h     **** #define ADS1299_REG_LOFF_STATP_IN2P_OFF	(1<<1)
 508:ads1299.h     **** #define ADS1299_REG_LOFF_STATP_IN1P_OFF	(1<<0)
 509:ads1299.h     **** 
 510:ads1299.h     **** /* LOFF_STATN REGISTER ****************************************************************************
 511:ads1299.h     **** 
 512:ads1299.h     **** /**
 513:ads1299.h     ****  *  \brief Bit mask definitions for LOFF_STATN register (read-only).
 514:ads1299.h     ****  *
 515:ads1299.h     ****  * Consult the ADS1299 datasheet, page 45, for more information.
 516:ads1299.h     ****  */
 517:ads1299.h     **** #define ADS1299_REG_LOFF_STATN_IN8N_OFF	(1<<7)
 518:ads1299.h     **** #define ADS1299_REG_LOFF_STATN_IN7N_OFF	(1<<6)
 519:ads1299.h     **** #define ADS1299_REG_LOFF_STATN_IN6N_OFF	(1<<5)
 520:ads1299.h     **** #define ADS1299_REG_LOFF_STATN_IN5N_OFF	(1<<4)
 521:ads1299.h     **** #define ADS1299_REG_LOFF_STATN_IN4N_OFF	(1<<3)
 522:ads1299.h     **** #define ADS1299_REG_LOFF_STATN_IN3N_OFF	(1<<2)
 523:ads1299.h     **** #define ADS1299_REG_LOFF_STATN_IN2N_OFF	(1<<1)
 524:ads1299.h     **** #define ADS1299_REG_LOFF_STATN_IN1N_OFF	(1<<0)
 525:ads1299.h     **** 
 526:ads1299.h     **** /* GPIO REGISTER **********************************************************************************
 527:ads1299.h     **** 
 528:ads1299.h     **** /**
 529:ads1299.h     ****  *  \brief Bit mask definitions for GPIO.GPIODn (GPIO direction bits).
 530:ads1299.h     ****  *
 531:ads1299.h     ****  * The ADS1299 has 4 GPIO pins that can be manipulated via the SPI bus if there are not enough
 532:ads1299.h     ****  * GPIO pins available on the host.
 533:ads1299.h     ****  * GPIOD[4:1] controls the logic levels on GPIO pins 4:1.
 534:ads1299.h     ****  *
 535:ads1299.h     ****  * Consult the ADS1299 datasheet, page 46, for more information.
 536:ads1299.h     ****  */
 537:ads1299.h     **** #define ADS1299_REG_GPIO_GPIOD4_LOW			(0<<7)
 538:ads1299.h     **** #define ADS1299_REG_GPIO_GPIOD4_HIGH		(1<<7)
 539:ads1299.h     **** #define ADS1299_REG_GPIO_GPIOD3_LOW			(0<<6)
 540:ads1299.h     **** #define ADS1299_REG_GPIO_GPIOD3_HIGH		(1<<6)
 541:ads1299.h     **** #define ADS1299_REG_GPIO_GPIOD2_LOW			(0<<5)
 542:ads1299.h     **** #define ADS1299_REG_GPIO_GPIOD2_HIGH		(1<<5)
 543:ads1299.h     **** #define ADS1299_REG_GPIO_GPIOD1_LOW			(0<<4)
 544:ads1299.h     **** #define ADS1299_REG_GPIO_GPIOD1_HIGH		(1<<4)
 545:ads1299.h     **** 
 546:ads1299.h     **** /**
 547:ads1299.h     ****  *  \brief Bit mask definitions for GPIO.GPIOCn (GPIO level).
 548:ads1299.h     ****  *
 549:ads1299.h     ****  * The ADS1299 has 4 GPIO pins that can be manipulated via the SPI bus if there are not enough
 550:ads1299.h     ****  * GPIO pins available on the host.
 551:ads1299.h     ****  * GPIOC[4:1] controls the pin direction on GPIO pins 4:1.
 552:ads1299.h     ****  *
 553:ads1299.h     ****  * Consult the ADS1299 datasheet, page 46, for more information.
 554:ads1299.h     ****  */
 555:ads1299.h     **** #define ADS1299_REG_GPIO_GPIOC4_OUTPUT		(0<<3)
 556:ads1299.h     **** #define ADS1299_REG_GPIO_GPIOC4_INPUT		(1<<3)
 557:ads1299.h     **** #define ADS1299_REG_GPIO_GPIOC3_OUTPUT		(0<<2)
 558:ads1299.h     **** #define ADS1299_REG_GPIO_GPIOC3_INPUT		(1<<2)
 559:ads1299.h     **** #define ADS1299_REG_GPIO_GPIOC2_OUTPUT		(0<<1)
 560:ads1299.h     **** #define ADS1299_REG_GPIO_GPIOC2_INPUT		(1<<1)
ARM GAS  C:\Users\dmr85\AppData\Local\Temp\ccSmIU8b.s 			page 15


 561:ads1299.h     **** #define ADS1299_REG_GPIO_GPIOC1_OUTPUT		(0<<0)
 562:ads1299.h     **** #define ADS1299_REG_GPIO_GPIOC1_INPUT		(1<<0)
 563:ads1299.h     **** 
 564:ads1299.h     **** /**
 565:ads1299.h     ****  *  \brief Combined value of reserved bits in GPIO register.
 566:ads1299.h     ****  *
 567:ads1299.h     ****  */
 568:ads1299.h     **** #define ADS1299_REG_GPIO_RESERVED_VALUE				0
 569:ads1299.h     **** 
 570:ads1299.h     **** /* MISC1 REGISTER *********************************************************************************
 571:ads1299.h     **** 
 572:ads1299.h     **** /**
 573:ads1299.h     ****  *  \brief Bit mask definitions for MISC1.SRB1 (SRB1 internal connection).
 574:ads1299.h     ****  */
 575:ads1299.h     **** #define	ADS1299_REG_MISC1_SRB1_OFF		(0<<5)			///< Stim/ref/bias 1 turned off.
 576:ads1299.h     **** #define	ADS1299_REG_MISC1_SRB1_ON		(1<<5)			///< Stim/ref/bias 1 connected to all channel inverting
 577:ads1299.h     **** 
 578:ads1299.h     **** /**
 579:ads1299.h     ****  *  \brief Combined value of reserved bits in MISC1 register.
 580:ads1299.h     ****  *
 581:ads1299.h     ****  */
 582:ads1299.h     **** #define ADS1299_REG_MISC1_RESERVED_VALUE				0
 583:ads1299.h     **** 
 584:ads1299.h     **** 
 585:ads1299.h     **** /* MISC2 REGISTER *********************************************************************************
 586:ads1299.h     **** 
 587:ads1299.h     **** /**
 588:ads1299.h     ****  *  \brief Combined value of reserved bits in MISC2 register.
 589:ads1299.h     ****  *
 590:ads1299.h     ****  * MISC2 don't do nothin' right now!
 591:ads1299.h     ****  * Consult the ADS1299 user's guide, page 46, for more information.
 592:ads1299.h     ****  */
 593:ads1299.h     **** #define ADS1299_REG_MISC2_RESERVED_VALUE				0
 594:ads1299.h     **** 
 595:ads1299.h     **** 
 596:ads1299.h     **** /**************************************************************************************************
 597:ads1299.h     **** *               Prototypes                                                                         
 598:ads1299.h     **** ***************************************************************************************************
 599:ads1299.h     **** 
 600:ads1299.h     **** /**
 601:ads1299.h     ****  *	\brief Initialize the ADS1299.
 602:ads1299.h     ****  *
 603:ads1299.h     ****  * This function performs the power-on reset and initialization procedure documented on page 58 of 
 604:ads1299.h     ****  * ADS1299 datasheet, up to "Send SDATAC Command."
 605:ads1299.h     ****  *
 606:ads1299.h     ****  * \pre Requires spi.h from the Atmel Software Framework and ads1299_spi_adapt.h.
 607:ads1299.h     ****  * \param chip_select The chip select number of the ADS1299 to be initialized.
 608:ads1299.h     ****  * \param init_regs	Nonzero if initializing registers to firmware default settings; 0 otherwise.
 609:ads1299.h     ****  * \return Zero if successful, or an error code if unsuccessful.
 610:ads1299.h     ****  */
 611:ads1299.h     **** ads1299_error_t ads1299_device_init(uint8_t, uint8_t);
 612:ads1299.h     **** 
 613:ads1299.h     **** 
 614:ads1299.h     **** ads1299_error_t	ads1299_lead_off(uint8_t);
 615:ads1299.h     **** 
 616:ads1299.h     **** /**
 617:ads1299.h     ****  *	\brief Read a single register from the ADS1299.
ARM GAS  C:\Users\dmr85\AppData\Local\Temp\ccSmIU8b.s 			page 16


 618:ads1299.h     ****  *
 619:ads1299.h     ****  * This function sends the RREG opcode, logical OR'd with the specified register address, and
 620:ads1299.h     ****  * writes the obtained register value to a variable. This command will have no effect if the 
 621:ads1299.h     ****  * device is in continuous read mode.
 622:ads1299.h     ****  *
 623:ads1299.h     ****  * \pre Requires spi.h from the Atmel Software Framework and ads1299_spi_adapt.h.
 624:ads1299.h     ****  * \param chip_select The chip select number of the ADS1299 to be initialized.
 625:ads1299.h     ****  * \param reg_addr The register address of the register to be read.
 626:ads1299.h     ****  * \param read_reg_val_ptr Pointer to the variable to store the read register value.
 627:ads1299.h     ****  * \return Zero if successful, or an error code if unsuccessful.
 628:ads1299.h     ****  */
 629:ads1299.h     **** ads1299_error_t ads1299_rreg(uint8_t, uint8_t, uint8_t*);
 630:ads1299.h     **** 
 631:ads1299.h     **** /**
 632:ads1299.h     ****  *	\brief Write a single register on the ADS1299.
 633:ads1299.h     ****  *
 634:ads1299.h     ****  * This function sends the WREG opcode, logical OR'd with the specified register address, and
 635:ads1299.h     ****  * then writes the specified value to that register. This command will have no effect if the 
 636:ads1299.h     ****  * device is in continuous read mode.
 637:ads1299.h     ****  *
 638:ads1299.h     ****  * \pre Requires spi.h from the Atmel Software Framework and ads1299_spi_adapt.h.
 639:ads1299.h     ****  * \param chip_select The chip select number of the ADS1299 to be initialized.
 640:ads1299.h     ****  * \param reg_addr The register address of the register to be written.
 641:ads1299.h     ****  * \param reg_val_to_write The value to be written to the specified register.
 642:ads1299.h     ****  * \return Zero if successful, or an error code if unsuccessful.
 643:ads1299.h     ****  */
 644:ads1299.h     **** ads1299_error_t ads1299_wreg(uint8_t, uint8_t, uint8_t);
 645:ads1299.h     **** 
 646:ads1299.h     **** /**
 647:ads1299.h     ****  *	\brief Read a single 24-bit data sample for each enabled channel.
 648:ads1299.h     ****  *
 649:ads1299.h     ****  * This function reads back the 24-bit status word and 8 channels of 24-bit data.
 650:ads1299.h     ****  * These 24-bit values are stored right-aligned in 32-bit integers.
 651:ads1299.h     ****  *
 652:ads1299.h     ****  * \param chip_select The chip select number of the ADS1299 to be initialized.
 653:ads1299.h     ****  * \param sample_idx The index within each channel array of the sample to be acquired.
 654:ads1299.h     ****  * \param packet_ptr Pointer to EEG data packet structure.
 655:ads1299.h     ****  * \return Zero if successful, or an error code if unsuccessful.
 656:ads1299.h     ****  */
 657:ads1299.h     **** ads1299_error_t ads1299_rdata32_packet(uint8_t, volatile uint32_t, bboard_data32bit_packet_t*);
 658:ads1299.h     **** 
 659:ads1299.h     **** /**
 660:ads1299.h     ****  *	\brief Read a single 24-bit data sample for each enabled channel.
 661:ads1299.h     ****  *
 662:ads1299.h     ****  * This function reads back the 24-bit status word and 8 channels of 24-bit data.
 663:ads1299.h     ****  * These 24-bit values are stored right-aligned in 32-bit integers.
 664:ads1299.h     ****  *
 665:ads1299.h     ****  * \param chip_select The chip select number of the ADS1299 to be initialized.
 666:ads1299.h     ****  * \param sample_idx The index within each channel array of the sample to be acquired.
 667:ads1299.h     ****  * \param status ADS1299 status word.
 668:ads1299.h     ****  * \param data_array Array of 32-bit signed ints (dsp32_t from the ASF is equivalent) for storing E
 669:ads1299.h     ****  * \return Zero if successful, or an error code if unsuccessful.
 670:ads1299.h     ****  */
 671:ads1299.h     **** ads1299_error_t ads1299_rdata32_generic(uint8_t, volatile uint32_t, volatile uint32_t, volatile int
 672:ads1299.h     **** 
 673:ads1299.h     **** /**
 674:ads1299.h     ****  *	\brief Read a single 24-bit data sample for each enabled channel into a specified packet structu
ARM GAS  C:\Users\dmr85\AppData\Local\Temp\ccSmIU8b.s 			page 17


 675:ads1299.h     ****  *
 676:ads1299.h     ****  * This function reads back the 24-bit status word and 8 channels of 24-bit data.
 677:ads1299.h     ****  * These 24-bit values are stored in two arrays: one 3-byte array for the status
 678:ads1299.h     ****  * word, and a 24-byte array for the data.
 679:ads1299.h     ****  *
 680:ads1299.h     ****  * \param chip_select The chip select number of the ADS1299 to be initialized.
 681:ads1299.h     ****  * \param sample_idx The index within each channel array of the sample to be acquired.
 682:ads1299.h     ****  * \param packet_ptr Pointer to EEG data packet structure.
 683:ads1299.h     ****  * \return Zero if successful, or an error code if unsuccessful.
 684:ads1299.h     ****  */
 685:ads1299.h     **** ads1299_error_t ads1299_rdata24_packet(uint8_t, volatile uint32_t, bboard_data24bit_packet_t*);
 686:ads1299.h     **** 
 687:ads1299.h     **** /**
 688:ads1299.h     ****  *	\brief Read a single 24-bit data sample for each enabled channel into an array of channels.
 689:ads1299.h     ****  *
 690:ads1299.h     ****  * This function reads back the 24-bit status word and 8 channels of 24-bit data.
 691:ads1299.h     ****  * These 24-bit values are stored in two arrays: one 3-byte array for the status
 692:ads1299.h     ****  * word, and a 24-byte array for the data.
 693:ads1299.h     ****  *
 694:ads1299.h     ****  * \param chip_select The chip select number of the ADS1299 to be initialized.
 695:ads1299.h     ****  * \param sample_idx The index within each channel array of the sample to be acquired.
 696:ads1299.h     ****  * \param status_array Array of 3 bytes representing the 24-bit status word.
 697:ads1299.h     ****  * \param data_array Array of dimensions [BUFFERSIZE][EEG_CHANNELS][3] representing EEG data.
 698:ads1299.h     ****  * \return Zero if successful, or an error code if unsuccessful.
 699:ads1299.h     ****  */
 700:ads1299.h     **** ads1299_error_t ads1299_rdata24_generic(uint8_t, volatile uint32_t, volatile uint8_t[], volatile ui
 701:ads1299.h     **** 
 702:ads1299.h     **** /* INLINE FUNCTIONS *******************************************************************************
 703:ads1299.h     **** 
 704:ads1299.h     **** /**
 705:ads1299.h     ****  *	\brief Send a single byte to the ADS1299 without manipulating chip select.
 706:ads1299.h     ****  *
 707:ads1299.h     ****  *	Use this function when multiple bytes need to be sent and you want the chip to remain selected
 708:ads1299.h     ****  *	throughout the process.
 709:ads1299.h     ****  *
 710:ads1299.h     ****  * \pre Requires spi.h from the Atmel Software Framework and ads1299_spi_adapt.h.
 711:ads1299.h     ****  * \param opcode The opcode to send.
 712:ads1299.h     ****  * \return Zero if successful, or an error code if unsuccessful.
 713:ads1299.h     ****  */
 714:ads1299.h     **** 
 715:ads1299.h     **** static inline uint32_t ads1299_send_byte_no_cs(uint8_t opcode)
 716:ads1299.h     **** {
 717:ads1299.h     ****     uint8_t tx_buf[1] = {opcode};
 718:ads1299.h     ****     return spi_write_packet(tx_buf, 1);
 719:ads1299.h     **** }
 720:ads1299.h     **** 
 721:ads1299.h     **** /**
 722:ads1299.h     ****  *	\brief Send a single opcode to the ADS1299.
 723:ads1299.h     ****  *
 724:ads1299.h     ****  * This function sends the specified byte to the ADS1299. Chip select is cleared (activated) and se
 725:ads1299.h     ****  * (inactivated) within the function.
 726:ads1299.h     ****  *
 727:ads1299.h     ****  * \pre Requires spi.h from the Atmel Software Framework and ads1299_spi_adapt.h.
 728:ads1299.h     ****  * \param chip_select The chip select number of the ADS1299 to be initialized.
 729:ads1299.h     ****  * \param opcode The opcode to send.
 730:ads1299.h     ****  * \return Zero if successful, or an error code if unsuccessful.
 731:ads1299.h     ****  */
ARM GAS  C:\Users\dmr85\AppData\Local\Temp\ccSmIU8b.s 			page 18


 732:ads1299.h     **** static inline ads1299_error_t ads1299_send_byte(uint8_t chip_select, uint8_t opcode)
 733:ads1299.h     **** {
 734:ads1299.h     **** 	//#if UC3
 735:ads1299.h     **** 	spi_selectChip(SPI_ADDRESS, chip_select);
  49              		.loc 2 735 0
  50 0008 1C4C     		ldr	r4, .L3
  51 000a 0146     		mov	r1, r0
  52              	.LVL2:
  53 000c 2046     		mov	r0, r4
  54              	.LVL3:
  55 000e FFF7FEFF 		bl	spi_selectChip
  56              	.LVL4:
  57              	.LBB28:
  58              	.LBB29:
 717:ads1299.h     ****     return spi_write_packet(tx_buf, 1);
  59              		.loc 2 717 0
  60 0012 02AE     		add	r6, sp, #8
  61 0014 1123     		movs	r3, #17
  62 0016 06F8083D 		strb	r3, [r6, #-8]!
 718:ads1299.h     **** }
  63              		.loc 2 718 0
  64 001a 0121     		movs	r1, #1
  65 001c 3046     		mov	r0, r6
  66 001e FFF7FEFF 		bl	spi_write_packet
  67              	.LVL5:
  68              	.LBE29:
  69              	.LBE28:
 736:ads1299.h     **** 	ads1299_send_byte_no_cs(opcode);
 737:ads1299.h     **** 	spi_unselectChip(SPI_ADDRESS, chip_select);
  70              		.loc 2 737 0
  71 0022 2946     		mov	r1, r5
  72 0024 2046     		mov	r0, r4
  73 0026 FFF7FEFF 		bl	spi_unselectChip
  74              	.LVL6:
  75              	.LBE27:
  76              	.LBE26:
  77              	.LBB30:
  78              	.LBB31:
  79              	.LBB32:
 735:ads1299.h     **** 	ads1299_send_byte_no_cs(opcode);
  80              		.loc 2 735 0
  81 002a 2946     		mov	r1, r5
  82 002c 2046     		mov	r0, r4
  83 002e FFF7FEFF 		bl	spi_selectChip
  84              	.LVL7:
  85              	.LBB33:
  86              	.LBB34:
 717:ads1299.h     ****     return spi_write_packet(tx_buf, 1);
  87              		.loc 2 717 0
  88 0032 0A23     		movs	r3, #10
  89 0034 8DF80030 		strb	r3, [sp]
 718:ads1299.h     **** }
  90              		.loc 2 718 0
  91 0038 0121     		movs	r1, #1
  92 003a 3046     		mov	r0, r6
  93 003c FFF7FEFF 		bl	spi_write_packet
  94              	.LVL8:
ARM GAS  C:\Users\dmr85\AppData\Local\Temp\ccSmIU8b.s 			page 19


  95              	.LBE34:
  96              	.LBE33:
  97              		.loc 2 737 0
  98 0040 2946     		mov	r1, r5
  99 0042 2046     		mov	r0, r4
 100 0044 FFF7FEFF 		bl	spi_unselectChip
 101              	.LVL9:
 102              	.LBE32:
 103              	.LBE31:
 104              	.LBE30:
 191:ads1299.c     **** 		
 192:ads1299.c     **** 	ads1299_send_byte(chip_select, ADS1299_OPC_SDATAC);
 193:ads1299.c     ****     //ads1299_hard_stop_conversion();
 194:ads1299.c     ****     ads1299_soft_stop_conversion(chip_select);
 195:ads1299.c     **** 	spi_selectChip(SPI_ADDRESS, chip_select);
 105              		.loc 1 195 0
 106 0048 2946     		mov	r1, r5
 107 004a 2046     		mov	r0, r4
 108 004c FFF7FEFF 		bl	spi_selectChip
 109              	.LVL10:
 196:ads1299.c     ****     
 197:ads1299.c     ****     //CyDelay(1);
 198:ads1299.c     ****     
 199:ads1299.c     ****     /*SPI_Write(ADS1299_OPC_RREG | reg_addr);
 200:ads1299.c     ****     SPI_Write(0x00);
 201:ads1299.c     ****     SPI_Write(0x00);
 202:ads1299.c     ****     *read_reg_val_arr = SPI_Read();*/
 203:ads1299.c     ****     
 204:ads1299.c     ****     uint8_t tx_buf[] = {ADS1299_OPC_RREG | reg_addr, 0x00, 0xFF};
 110              		.loc 1 204 0
 111 0050 47F02007 		orr	r7, r7, #32
 112 0054 8DF80470 		strb	r7, [sp, #4]
 113 0058 0026     		movs	r6, #0
 114 005a 8DF80560 		strb	r6, [sp, #5]
 115 005e FF23     		movs	r3, #255
 116 0060 8DF80630 		strb	r3, [sp, #6]
 205:ads1299.c     ****     spi_write_packet(tx_buf, 3);
 117              		.loc 1 205 0
 118 0064 0321     		movs	r1, #3
 119 0066 01A8     		add	r0, sp, #4
 120 0068 FFF7FEFF 		bl	spi_write_packet
 121              	.LVL11:
 206:ads1299.c     **** 	/* First byte: read command for specified register */
 207:ads1299.c     **** 	//ads1299_send_byte(chip_select, ADS1299_OPC_RREG | reg_addr);
 208:ads1299.c     **** 	    
 209:ads1299.c     ****     //CyDelay(1);
 210:ads1299.c     ****         
 211:ads1299.c     **** 	/* Second byte: Read only 1 register (send n-1, where n is number of registers to read) */
 212:ads1299.c     **** 	//ads1299_send_byte(chip_select, 0x00);
 213:ads1299.c     ****     
 214:ads1299.c     ****     //CyDelay(1);
 215:ads1299.c     **** 	
 216:ads1299.c     ****     //uint8_t tx_buf[] = {ADS1299_OPC_RREG | reg_addr, 0x00};
 217:ads1299.c     ****     //spi_write_packet(tx_buf, 2);
 218:ads1299.c     **** 	/* Dummy byte to clock in data and read RX register */
 219:ads1299.c     ****     //spi_read_packet(read_reg_val_arr, 1);
 220:ads1299.c     ****     
ARM GAS  C:\Users\dmr85\AppData\Local\Temp\ccSmIU8b.s 			page 20


 221:ads1299.c     ****     spi_unselectChip(SPI_ADDRESS, chip_select);
 122              		.loc 1 221 0
 123 006c 2946     		mov	r1, r5
 124 006e 2046     		mov	r0, r4
 125 0070 FFF7FEFF 		bl	spi_unselectChip
 126              	.LVL12:
 222:ads1299.c     ****     
 223:ads1299.c     **** 	return ADS1299_STATUS_OK;
 224:ads1299.c     **** }
 127              		.loc 1 224 0
 128 0074 3046     		mov	r0, r6
 129 0076 03B0     		add	sp, sp, #12
 130              		.cfi_def_cfa_offset 20
 131              		@ sp needed
 132 0078 F0BD     		pop	{r4, r5, r6, r7, pc}
 133              	.L4:
 134 007a 00BF     		.align	2
 135              	.L3:
 136 007c 00000000 		.word	spi
 137              		.cfi_endproc
 138              	.LFE553:
 139              		.size	ads1299_rreg, .-ads1299_rreg
 140              		.section	.text.ads1299_wreg,"ax",%progbits
 141              		.align	2
 142              		.global	ads1299_wreg
 143              		.thumb
 144              		.thumb_func
 145              		.type	ads1299_wreg, %function
 146              	ads1299_wreg:
 147              	.LFB554:
 225:ads1299.c     **** 
 226:ads1299.c     **** ads1299_error_t ads1299_wreg(uint8_t chip_select, uint8_t reg_addr, uint8_t reg_val_to_write)
 227:ads1299.c     **** {
 148              		.loc 1 227 0
 149              		.cfi_startproc
 150              		@ args = 0, pretend = 0, frame = 8
 151              		@ frame_needed = 0, uses_anonymous_args = 0
 152              	.LVL13:
 153 0000 10B5     		push	{r4, lr}
 154              		.cfi_def_cfa_offset 8
 155              		.cfi_offset 4, -8
 156              		.cfi_offset 14, -4
 157 0002 82B0     		sub	sp, sp, #8
 158              		.cfi_def_cfa_offset 16
 228:ads1299.c     **** 	
 229:ads1299.c     **** 	//spi_selectChip(SPI_ADDRESS, chip_select);
 230:ads1299.c     ****     uint8_t tx_buf[] = {ADS1299_OPC_WREG | reg_addr, 0x00, reg_val_to_write};
 159              		.loc 1 230 0
 160 0004 41F04001 		orr	r1, r1, #64
 161              	.LVL14:
 162 0008 8DF80410 		strb	r1, [sp, #4]
 163 000c 0024     		movs	r4, #0
 164 000e 8DF80540 		strb	r4, [sp, #5]
 165 0012 8DF80620 		strb	r2, [sp, #6]
 231:ads1299.c     ****     spi_write_packet(tx_buf, 3);
 166              		.loc 1 231 0
 167 0016 0321     		movs	r1, #3
ARM GAS  C:\Users\dmr85\AppData\Local\Temp\ccSmIU8b.s 			page 21


 168 0018 01A8     		add	r0, sp, #4
 169              	.LVL15:
 170 001a FFF7FEFF 		bl	spi_write_packet
 171              	.LVL16:
 232:ads1299.c     **** 	/* First byte: write command for specified register */
 233:ads1299.c     ****     //ads1299_send_byte(chip_select, ADS1299_OPC_WREG | reg_addr);
 234:ads1299.c     ****     
 235:ads1299.c     **** 	//CyDelay(100);
 236:ads1299.c     **** 	/* Second byte: number of registers to write (1) */
 237:ads1299.c     **** 	//ads1299_send_byte(chip_select, 0x00);
 238:ads1299.c     ****     
 239:ads1299.c     ****     //CyDelay(100);
 240:ads1299.c     **** 	/* Third byte: write register value */
 241:ads1299.c     **** 	//ads1299_send_byte(chip_select, reg_val_to_write);
 242:ads1299.c     **** 		
 243:ads1299.c     **** 	//spi_unselectChip(SPI_ADDRESS, chip_select);
 244:ads1299.c     **** 		
 245:ads1299.c     **** 	return ADS1299_STATUS_OK;
 246:ads1299.c     **** 	
 247:ads1299.c     **** }
 172              		.loc 1 247 0
 173 001e 2046     		mov	r0, r4
 174 0020 02B0     		add	sp, sp, #8
 175              		.cfi_def_cfa_offset 8
 176              		@ sp needed
 177 0022 10BD     		pop	{r4, pc}
 178              		.cfi_endproc
 179              	.LFE554:
 180              		.size	ads1299_wreg, .-ads1299_wreg
 181              		.section	.text.ads1299_device_init,"ax",%progbits
 182              		.align	2
 183              		.global	ads1299_device_init
 184              		.thumb
 185              		.thumb_func
 186              		.type	ads1299_device_init, %function
 187              	ads1299_device_init:
 188              	.LFB551:
  52:ads1299.c     **** 	#if UC3
 189              		.loc 1 52 0
 190              		.cfi_startproc
 191              		@ args = 0, pretend = 0, frame = 8
 192              		@ frame_needed = 0, uses_anonymous_args = 0
 193              	.LVL17:
 194 0000 2DE9F041 		push	{r4, r5, r6, r7, r8, lr}
 195              		.cfi_def_cfa_offset 24
 196              		.cfi_offset 4, -24
 197              		.cfi_offset 5, -20
 198              		.cfi_offset 6, -16
 199              		.cfi_offset 7, -12
 200              		.cfi_offset 8, -8
 201              		.cfi_offset 14, -4
 202 0004 82B0     		sub	sp, sp, #8
 203              		.cfi_def_cfa_offset 32
 204 0006 0446     		mov	r4, r0
 205 0008 8846     		mov	r8, r1
  55:ads1299.c     ****     
 206              		.loc 1 55 0
ARM GAS  C:\Users\dmr85\AppData\Local\Temp\ccSmIU8b.s 			page 22


 207 000a 0620     		movs	r0, #6
 208              	.LVL18:
 209 000c FFF7FEFF 		bl	gpio_set_gpio_pin
 210              	.LVL19:
  60:ads1299.c     ****     //CyDelay(1);
 211              		.loc 1 60 0
 212 0010 0120     		movs	r0, #1
 213 0012 FFF7FEFF 		bl	gpio_set_gpio_pin
 214              	.LVL20:
  63:ads1299.c     **** 	CyDelay(1000);
 215              		.loc 1 63 0
 216 0016 0420     		movs	r0, #4
 217 0018 FFF7FEFF 		bl	gpio_set_gpio_pin
 218              	.LVL21:
  64:ads1299.c     ****     gpio_clr_gpio_pin(ADS1299_PIN_RESET);
 219              		.loc 1 64 0
 220 001c 4FF47A70 		mov	r0, #1000
 221 0020 FFF7FEFF 		bl	Cy_SysLib_Delay
 222              	.LVL22:
  65:ads1299.c     **** 	CyDelay(1000);
 223              		.loc 1 65 0
 224 0024 0420     		movs	r0, #4
 225 0026 FFF7FEFF 		bl	gpio_clr_gpio_pin
 226              	.LVL23:
  66:ads1299.c     **** 	gpio_set_gpio_pin(ADS1299_PIN_RESET);
 227              		.loc 1 66 0
 228 002a 4FF47A70 		mov	r0, #1000
 229 002e FFF7FEFF 		bl	Cy_SysLib_Delay
 230              	.LVL24:
  67:ads1299.c     ****     CyDelay(10);
 231              		.loc 1 67 0
 232 0032 0420     		movs	r0, #4
 233 0034 FFF7FEFF 		bl	gpio_set_gpio_pin
 234              	.LVL25:
  68:ads1299.c     ****     //gpio_clr_gpio_pin(ADS1299_PIN_RESET);
 235              		.loc 1 68 0
 236 0038 0A20     		movs	r0, #10
 237 003a FFF7FEFF 		bl	Cy_SysLib_Delay
 238              	.LVL26:
  73:ads1299.c     **** 	
 239              		.loc 1 73 0
 240 003e 4FF47A70 		mov	r0, #1000
 241 0042 FFF7FEFF 		bl	Cy_SysLib_Delay
 242              	.LVL27:
  75:ads1299.c     ****     CyDelay(1000);
 243              		.loc 1 75 0
 244 0046 474D     		ldr	r5, .L10
 245 0048 2146     		mov	r1, r4
 246 004a 2846     		mov	r0, r5
 247 004c FFF7FEFF 		bl	spi_selectChip
 248              	.LVL28:
  76:ads1299.c     **** 	spi_unselectChip(SPI_ADDRESS, chip_select);
 249              		.loc 1 76 0
 250 0050 4FF47A70 		mov	r0, #1000
 251 0054 FFF7FEFF 		bl	Cy_SysLib_Delay
 252              	.LVL29:
  77:ads1299.c     ****     CyDelay(500);
ARM GAS  C:\Users\dmr85\AppData\Local\Temp\ccSmIU8b.s 			page 23


 253              		.loc 1 77 0
 254 0058 2146     		mov	r1, r4
 255 005a 2846     		mov	r0, r5
 256 005c FFF7FEFF 		bl	spi_unselectChip
 257              	.LVL30:
  78:ads1299.c     ****     
 258              		.loc 1 78 0
 259 0060 4FF4FA70 		mov	r0, #500
 260 0064 FFF7FEFF 		bl	Cy_SysLib_Delay
 261              	.LVL31:
 262              	.LBB43:
 263              	.LBB44:
 735:ads1299.h     **** 	ads1299_send_byte_no_cs(opcode);
 264              		.loc 2 735 0
 265 0068 2146     		mov	r1, r4
 266 006a 2846     		mov	r0, r5
 267 006c FFF7FEFF 		bl	spi_selectChip
 268              	.LVL32:
 269              	.LBB45:
 270              	.LBB46:
 717:ads1299.h     ****     return spi_write_packet(tx_buf, 1);
 271              		.loc 2 717 0
 272 0070 02AE     		add	r6, sp, #8
 273 0072 1123     		movs	r3, #17
 274 0074 06F8083D 		strb	r3, [r6, #-8]!
 718:ads1299.h     **** }
 275              		.loc 2 718 0
 276 0078 0121     		movs	r1, #1
 277 007a 3046     		mov	r0, r6
 278 007c FFF7FEFF 		bl	spi_write_packet
 279              	.LVL33:
 280              	.LBE46:
 281              	.LBE45:
 282              		.loc 2 737 0
 283 0080 2146     		mov	r1, r4
 284 0082 2846     		mov	r0, r5
 285 0084 FFF7FEFF 		bl	spi_unselectChip
 286              	.LVL34:
 287              	.LBE44:
 288              	.LBE43:
  82:ads1299.c     ****     ads1299_send_byte(chip_select, ADS1299_OPC_STOP);
 289              		.loc 1 82 0
 290 0088 0A20     		movs	r0, #10
 291 008a FFF7FEFF 		bl	Cy_SysLib_Delay
 292              	.LVL35:
 293              	.LBB47:
 294              	.LBB48:
 735:ads1299.h     **** 	ads1299_send_byte_no_cs(opcode);
 295              		.loc 2 735 0
 296 008e 2146     		mov	r1, r4
 297 0090 2846     		mov	r0, r5
 298 0092 FFF7FEFF 		bl	spi_selectChip
 299              	.LVL36:
 300              	.LBB49:
 301              	.LBB50:
 717:ads1299.h     ****     return spi_write_packet(tx_buf, 1);
 302              		.loc 2 717 0
ARM GAS  C:\Users\dmr85\AppData\Local\Temp\ccSmIU8b.s 			page 24


 303 0096 0A27     		movs	r7, #10
 304 0098 8DF80070 		strb	r7, [sp]
 718:ads1299.h     **** }
 305              		.loc 2 718 0
 306 009c 0121     		movs	r1, #1
 307 009e 3046     		mov	r0, r6
 308 00a0 FFF7FEFF 		bl	spi_write_packet
 309              	.LVL37:
 310              	.LBE50:
 311              	.LBE49:
 312              		.loc 2 737 0
 313 00a4 2146     		mov	r1, r4
 314 00a6 2846     		mov	r0, r5
 315 00a8 FFF7FEFF 		bl	spi_unselectChip
 316              	.LVL38:
 317              	.LBE48:
 318              	.LBE47:
  85:ads1299.c     ****     /* Stop taking conversions; apparently not done automatically */
 319              		.loc 1 85 0
 320 00ac 3846     		mov	r0, r7
 321 00ae FFF7FEFF 		bl	Cy_SysLib_Delay
 322              	.LVL39:
  89:ads1299.c     **** 	{
 323              		.loc 1 89 0
 324 00b2 B8F1000F 		cmp	r8, #0
 325 00b6 43D0     		beq	.L8
  92:ads1299.c     **** 		ADS1299_REG_GPIO_GPIOD4_LOW    |
 326              		.loc 1 92 0
 327 00b8 0022     		movs	r2, #0
 328 00ba 1421     		movs	r1, #20
 329 00bc 2046     		mov	r0, r4
 330 00be FFF7FEFF 		bl	ads1299_wreg
 331              	.LVL40:
 102:ads1299.c     **** 		ADS1299_REG_CONFIG1_FMOD_DIV_BY_4096);
 332              		.loc 1 102 0
 333 00c2 9622     		movs	r2, #150
 334 00c4 0121     		movs	r1, #1
 335 00c6 2046     		mov	r0, r4
 336 00c8 FFF7FEFF 		bl	ads1299_wreg
 337              	.LVL41:
 105:ads1299.c     **** 		ADS1299_REG_CONFIG2_CAL_INT        |
 338              		.loc 1 105 0
 339 00cc D022     		movs	r2, #208
 340 00ce 0221     		movs	r1, #2
 341 00d0 2046     		mov	r0, r4
 342 00d2 FFF7FEFF 		bl	ads1299_wreg
 343              	.LVL42:
 110:ads1299.c     **** 		//ADS1299_REG_CONFIG3_BIASREF_INT    |
 344              		.loc 1 110 0
 345 00d6 8422     		movs	r2, #132
 346 00d8 0321     		movs	r1, #3
 347 00da 2046     		mov	r0, r4
 348 00dc FFF7FEFF 		bl	ads1299_wreg
 349              	.LVL43:
 114:ads1299.c     **** 			
 350              		.loc 1 114 0
 351 00e0 9620     		movs	r0, #150
ARM GAS  C:\Users\dmr85\AppData\Local\Temp\ccSmIU8b.s 			page 25


 352 00e2 FFF7FEFF 		bl	delay_ms
 353              	.LVL44:
 117:ads1299.c     **** 		ADS1299_REG_CHNSET_GAIN_4			|
 354              		.loc 1 117 0
 355 00e6 2022     		movs	r2, #32
 356 00e8 0521     		movs	r1, #5
 357 00ea 2046     		mov	r0, r4
 358 00ec FFF7FEFF 		bl	ads1299_wreg
 359              	.LVL45:
 122:ads1299.c     **** 		ADS1299_REG_CHNSET_GAIN_4			|
 360              		.loc 1 122 0
 361 00f0 2022     		movs	r2, #32
 362 00f2 0621     		movs	r1, #6
 363 00f4 2046     		mov	r0, r4
 364 00f6 FFF7FEFF 		bl	ads1299_wreg
 365              	.LVL46:
 127:ads1299.c     **** 		ADS1299_REG_CHNSET_GAIN_4			|
 366              		.loc 1 127 0
 367 00fa A022     		movs	r2, #160
 368 00fc 0721     		movs	r1, #7
 369 00fe 2046     		mov	r0, r4
 370 0100 FFF7FEFF 		bl	ads1299_wreg
 371              	.LVL47:
 132:ads1299.c     **** 		ADS1299_REG_CHNSET_GAIN_4			|
 372              		.loc 1 132 0
 373 0104 A022     		movs	r2, #160
 374 0106 0821     		movs	r1, #8
 375 0108 2046     		mov	r0, r4
 376 010a FFF7FEFF 		bl	ads1299_wreg
 377              	.LVL48:
 137:ads1299.c     **** 		ADS1299_REG_CHNSET_GAIN_4			|
 378              		.loc 1 137 0
 379 010e A022     		movs	r2, #160
 380 0110 0921     		movs	r1, #9
 381 0112 2046     		mov	r0, r4
 382 0114 FFF7FEFF 		bl	ads1299_wreg
 383              	.LVL49:
 142:ads1299.c     **** 		ADS1299_REG_CHNSET_GAIN_4			|
 384              		.loc 1 142 0
 385 0118 A022     		movs	r2, #160
 386 011a 3946     		mov	r1, r7
 387 011c 2046     		mov	r0, r4
 388 011e FFF7FEFF 		bl	ads1299_wreg
 389              	.LVL50:
 147:ads1299.c     **** 		ADS1299_REG_CHNSET_GAIN_4			|
 390              		.loc 1 147 0
 391 0122 A022     		movs	r2, #160
 392 0124 0B21     		movs	r1, #11
 393 0126 2046     		mov	r0, r4
 394 0128 FFF7FEFF 		bl	ads1299_wreg
 395              	.LVL51:
 152:ads1299.c     **** 		ADS1299_REG_CHNSET_GAIN_4			|
 396              		.loc 1 152 0
 397 012c A022     		movs	r2, #160
 398 012e 0C21     		movs	r1, #12
 399 0130 2046     		mov	r0, r4
 400 0132 FFF7FEFF 		bl	ads1299_wreg
ARM GAS  C:\Users\dmr85\AppData\Local\Temp\ccSmIU8b.s 			page 26


 401              	.LVL52:
 158:ads1299.c     **** 	} 		
 402              		.loc 1 158 0
 403 0136 2022     		movs	r2, #32
 404 0138 1521     		movs	r1, #21
 405 013a 2046     		mov	r0, r4
 406 013c FFF7FEFF 		bl	ads1299_wreg
 407              	.LVL53:
 408              	.L8:
 160:ads1299.c     ****     uint8_t reg_val[1];
 409              		.loc 1 160 0
 410 0140 6420     		movs	r0, #100
 411 0142 FFF7FEFF 		bl	Cy_SysLib_Delay
 412              	.LVL54:
 162:ads1299.c     ****     printf("regval %x ", reg_val[0]);
 413              		.loc 1 162 0
 414 0146 01AA     		add	r2, sp, #4
 415 0148 0321     		movs	r1, #3
 416 014a 0020     		movs	r0, #0
 417 014c FFF7FEFF 		bl	ads1299_rreg
 418              	.LVL55:
 163:ads1299.c     ****     
 419              		.loc 1 163 0
 420 0150 9DF80410 		ldrb	r1, [sp, #4]	@ zero_extendqisi2
 421 0154 0448     		ldr	r0, .L10+4
 422 0156 FFF7FEFF 		bl	printf
 423              	.LVL56:
 168:ads1299.c     **** 
 424              		.loc 1 168 0
 425 015a 0020     		movs	r0, #0
 426 015c 02B0     		add	sp, sp, #8
 427              		.cfi_def_cfa_offset 24
 428              		@ sp needed
 429 015e BDE8F081 		pop	{r4, r5, r6, r7, r8, pc}
 430              	.L11:
 431 0162 00BF     		.align	2
 432              	.L10:
 433 0164 00000000 		.word	spi
 434 0168 00000000 		.word	.LC0
 435              		.cfi_endproc
 436              	.LFE551:
 437              		.size	ads1299_device_init, .-ads1299_device_init
 438              		.section	.text.ads1299_lead_off,"ax",%progbits
 439              		.align	2
 440              		.global	ads1299_lead_off
 441              		.thumb
 442              		.thumb_func
 443              		.type	ads1299_lead_off, %function
 444              	ads1299_lead_off:
 445              	.LFB552:
 171:ads1299.c     ****     ads1299_wreg(chip_select, ADS1299_REGADDR_LOFF, ADS1299_REG_LOFF_95_PERCENT | ADS1299_REG_LOFF_
 446              		.loc 1 171 0
 447              		.cfi_startproc
 448              		@ args = 0, pretend = 0, frame = 0
 449              		@ frame_needed = 0, uses_anonymous_args = 0
 450              	.LVL57:
 451 0000 10B5     		push	{r4, lr}
ARM GAS  C:\Users\dmr85\AppData\Local\Temp\ccSmIU8b.s 			page 27


 452              		.cfi_def_cfa_offset 8
 453              		.cfi_offset 4, -8
 454              		.cfi_offset 14, -4
 455 0002 0446     		mov	r4, r0
 172:ads1299.c     ****     ads1299_wreg(chip_select, ADS1299_REGADDR_CONFIG4, ADS1299_REG_CONFIG4_LEAD_OFF_ENABLED);
 456              		.loc 1 172 0
 457 0004 0322     		movs	r2, #3
 458 0006 0421     		movs	r1, #4
 459 0008 FFF7FEFF 		bl	ads1299_wreg
 460              	.LVL58:
 173:ads1299.c     ****     ads1299_wreg(chip_select, ADS1299_REGADDR_LOFF_SENSP, ADS1299_REG_LOFF_SENSP_LOFFP1 |
 461              		.loc 1 173 0
 462 000c 0222     		movs	r2, #2
 463 000e 1721     		movs	r1, #23
 464 0010 2046     		mov	r0, r4
 465 0012 FFF7FEFF 		bl	ads1299_wreg
 466              	.LVL59:
 174:ads1299.c     ****     ADS1299_REG_LOFF_SENSP_LOFFP2 |
 467              		.loc 1 174 0
 468 0016 FF22     		movs	r2, #255
 469 0018 0F21     		movs	r1, #15
 470 001a 2046     		mov	r0, r4
 471 001c FFF7FEFF 		bl	ads1299_wreg
 472              	.LVL60:
 184:ads1299.c     **** 
 473              		.loc 1 184 0
 474 0020 0020     		movs	r0, #0
 475 0022 10BD     		pop	{r4, pc}
 476              		.cfi_endproc
 477              	.LFE552:
 478              		.size	ads1299_lead_off, .-ads1299_lead_off
 479              		.section	.text.ads1299_rdata32_packet,"ax",%progbits
 480              		.align	2
 481              		.global	ads1299_rdata32_packet
 482              		.thumb
 483              		.thumb_func
 484              		.type	ads1299_rdata32_packet, %function
 485              	ads1299_rdata32_packet:
 486              	.LFB555:
 248:ads1299.c     **** 
 249:ads1299.c     **** /* DATA RETRIEVAL FUNCTIONS ***********************************************************************
 250:ads1299.c     **** 
 251:ads1299.c     **** ads1299_error_t ads1299_rdata32_packet(uint8_t chip_select, volatile uint32_t sample_idx, bboard_da
 252:ads1299.c     **** {
 487              		.loc 1 252 0
 488              		.cfi_startproc
 489              		@ args = 0, pretend = 0, frame = 24
 490              		@ frame_needed = 0, uses_anonymous_args = 0
 491              	.LVL61:
 492 0000 70B5     		push	{r4, r5, r6, lr}
 493              		.cfi_def_cfa_offset 16
 494              		.cfi_offset 4, -16
 495              		.cfi_offset 5, -12
 496              		.cfi_offset 6, -8
 497              		.cfi_offset 14, -4
 498 0002 86B0     		sub	sp, sp, #24
 499              		.cfi_def_cfa_offset 40
ARM GAS  C:\Users\dmr85\AppData\Local\Temp\ccSmIU8b.s 			page 28


 500 0004 0546     		mov	r5, r0
 501 0006 0191     		str	r1, [sp, #4]
 502 0008 1446     		mov	r4, r2
 253:ads1299.c     **** 	#if UC3
 254:ads1299.c     **** 	volatile uint8_t channel_idx;	
 255:ads1299.c     **** 	union {
 256:ads1299.c     **** 		uint32_t raw;
 257:ads1299.c     **** 		uint8_t status[4];
 258:ads1299.c     **** 	} __attribute__((packed)) statustemp;	
 259:ads1299.c     **** 	union {
 260:ads1299.c     **** 		int32_t raw;
 261:ads1299.c     **** 		uint8_t data[4];
 262:ads1299.c     **** 	} __attribute__((packed)) sigtemp;
 263:ads1299.c     **** 	statustemp.raw = 0;
 503              		.loc 1 263 0
 504 000a 0026     		movs	r6, #0
 505 000c 0496     		str	r6, [sp, #16]
 264:ads1299.c     **** 	sigtemp.raw = 0;
 506              		.loc 1 264 0
 507 000e 0396     		str	r6, [sp, #12]
 265:ads1299.c     **** 	
 266:ads1299.c     **** 	/* Begin SPI comms */
 267:ads1299.c     **** 	spi_selectChip(SPI_ADDRESS, chip_select);
 508              		.loc 1 267 0
 509 0010 0146     		mov	r1, r0
 510              	.LVL62:
 511 0012 1948     		ldr	r0, .L18
 512              	.LVL63:
 513 0014 FFF7FEFF 		bl	spi_selectChip
 514              	.LVL64:
 268:ads1299.c     **** 	
 269:ads1299.c     **** 	/* Function assumes we've already sent RDATA command or are in RDATAC mode */
 270:ads1299.c     **** 		
 271:ads1299.c     **** 	/* Read in status word first (24 bits) */
 272:ads1299.c     **** 	spi_read_packet(&statustemp.status[1], 3);
 515              		.loc 1 272 0
 516 0018 0321     		movs	r1, #3
 517 001a 0DF11100 		add	r0, sp, #17
 518 001e FFF7FEFF 		bl	spi_read_packet
 519              	.LVL65:
 273:ads1299.c     **** 	packet_ptr->eegstatus = statustemp.raw;
 520              		.loc 1 273 0
 521 0022 049B     		ldr	r3, [sp, #16]
 522 0024 C4F80330 		str	r3, [r4, #3]	@ unaligned
 274:ads1299.c     **** 	
 275:ads1299.c     **** 	/* Begin reading in data */	
 276:ads1299.c     **** 	for (channel_idx = 0; channel_idx < MAX_EEG_CHANNELS; channel_idx++)
 523              		.loc 1 276 0
 524 0028 8DF81760 		strb	r6, [sp, #23]
 525 002c 18E0     		b	.L15
 526              	.L16:
 277:ads1299.c     **** 	{
 278:ads1299.c     **** 		spi_read_packet(&sigtemp.data[1], 3);
 527              		.loc 1 278 0 discriminator 3
 528 002e 0321     		movs	r1, #3
 529 0030 0DF10D00 		add	r0, sp, #13
 530 0034 FFF7FEFF 		bl	spi_read_packet
ARM GAS  C:\Users\dmr85\AppData\Local\Temp\ccSmIU8b.s 			page 29


 531              	.LVL66:
 279:ads1299.c     **** 		packet_ptr->eegdata[sample_idx][channel_idx] = SIGN_EXT_24(sigtemp.raw);
 532              		.loc 1 279 0 discriminator 3
 533 0038 0199     		ldr	r1, [sp, #4]
 534 003a 9DF81730 		ldrb	r3, [sp, #23]	@ zero_extendqisi2
 535 003e 039A     		ldr	r2, [sp, #12]
 536 0040 82F40002 		eor	r2, r2, #8388608
 537 0044 A2F50002 		sub	r2, r2, #8388608
 538 0048 03EBC103 		add	r3, r3, r1, lsl #3
 539 004c 04EB8303 		add	r3, r4, r3, lsl #2
 540 0050 C3F80720 		str	r2, [r3, #7]	@ unaligned
 276:ads1299.c     **** 	{
 541              		.loc 1 276 0 discriminator 3
 542 0054 9DF81730 		ldrb	r3, [sp, #23]	@ zero_extendqisi2
 543 0058 0133     		adds	r3, r3, #1
 544 005a DBB2     		uxtb	r3, r3
 545 005c 8DF81730 		strb	r3, [sp, #23]
 546              	.L15:
 276:ads1299.c     **** 	{
 547              		.loc 1 276 0 is_stmt 0 discriminator 1
 548 0060 9DF81730 		ldrb	r3, [sp, #23]	@ zero_extendqisi2
 549 0064 DBB2     		uxtb	r3, r3
 550 0066 072B     		cmp	r3, #7
 551 0068 E1D9     		bls	.L16
 280:ads1299.c     **** 	}
 281:ads1299.c     **** 		
 282:ads1299.c     **** 	spi_unselectChip(SPI_ADDRESS, chip_select);
 552              		.loc 1 282 0 is_stmt 1
 553 006a 2946     		mov	r1, r5
 554 006c 0248     		ldr	r0, .L18
 555 006e FFF7FEFF 		bl	spi_unselectChip
 556              	.LVL67:
 283:ads1299.c     **** 		
 284:ads1299.c     **** 	#else
 285:ads1299.c     **** 	#endif	/* #if UC3 */
 286:ads1299.c     **** 	return ADS1299_STATUS_OK;
 287:ads1299.c     **** }
 557              		.loc 1 287 0
 558 0072 0020     		movs	r0, #0
 559 0074 06B0     		add	sp, sp, #24
 560              		.cfi_def_cfa_offset 16
 561              		@ sp needed
 562 0076 70BD     		pop	{r4, r5, r6, pc}
 563              	.LVL68:
 564              	.L19:
 565              		.align	2
 566              	.L18:
 567 0078 00000000 		.word	spi
 568              		.cfi_endproc
 569              	.LFE555:
 570              		.size	ads1299_rdata32_packet, .-ads1299_rdata32_packet
 571              		.section	.text.ads1299_rdata24_packet,"ax",%progbits
 572              		.align	2
 573              		.global	ads1299_rdata24_packet
 574              		.thumb
 575              		.thumb_func
 576              		.type	ads1299_rdata24_packet, %function
ARM GAS  C:\Users\dmr85\AppData\Local\Temp\ccSmIU8b.s 			page 30


 577              	ads1299_rdata24_packet:
 578              	.LFB556:
 288:ads1299.c     **** 
 289:ads1299.c     **** ads1299_error_t ads1299_rdata24_packet(uint8_t chip_select, volatile uint32_t sample_idx, bboard_da
 290:ads1299.c     **** {
 579              		.loc 1 290 0
 580              		.cfi_startproc
 581              		@ args = 0, pretend = 0, frame = 40
 582              		@ frame_needed = 0, uses_anonymous_args = 0
 583              	.LVL69:
 584 0000 30B5     		push	{r4, r5, lr}
 585              		.cfi_def_cfa_offset 12
 586              		.cfi_offset 4, -12
 587              		.cfi_offset 5, -8
 588              		.cfi_offset 14, -4
 589 0002 8BB0     		sub	sp, sp, #44
 590              		.cfi_def_cfa_offset 56
 591 0004 0546     		mov	r5, r0
 592 0006 0191     		str	r1, [sp, #4]
 593 0008 1446     		mov	r4, r2
 291:ads1299.c     **** 	#if UC3
 292:ads1299.c     **** 	volatile uint8_t channel_idx;
 293:ads1299.c     **** 	
 294:ads1299.c     **** 	uint8_t temp[27];
 295:ads1299.c     **** 	
 296:ads1299.c     **** 	/* Begin SPI comms */
 297:ads1299.c     **** 	spi_selectChip(SPI_ADDRESS, chip_select);
 594              		.loc 1 297 0
 595 000a 0146     		mov	r1, r0
 596              	.LVL70:
 597 000c 2848     		ldr	r0, .L24
 598              	.LVL71:
 599 000e FFF7FEFF 		bl	spi_selectChip
 600              	.LVL72:
 298:ads1299.c     **** 	
 299:ads1299.c     **** 	/* Function assumes we've already sent RDATA command or are in RDATAC mode */
 300:ads1299.c     **** 	
 301:ads1299.c     **** 	/* Read in status word first (24 bits) */
 302:ads1299.c     **** 	spi_read_packet(temp, 3);
 601              		.loc 1 302 0
 602 0012 0321     		movs	r1, #3
 603 0014 03A8     		add	r0, sp, #12
 604 0016 FFF7FEFF 		bl	spi_read_packet
 605              	.LVL73:
 303:ads1299.c     **** 	packet_ptr->eegstatus[0] = temp[0];
 606              		.loc 1 303 0
 607 001a 9DF80C30 		ldrb	r3, [sp, #12]	@ zero_extendqisi2
 608 001e E370     		strb	r3, [r4, #3]
 304:ads1299.c     **** 	packet_ptr->eegstatus[1] = temp[1];
 609              		.loc 1 304 0
 610 0020 9DF80D30 		ldrb	r3, [sp, #13]	@ zero_extendqisi2
 611 0024 2371     		strb	r3, [r4, #4]
 305:ads1299.c     **** 	packet_ptr->eegstatus[2] = temp[2];
 612              		.loc 1 305 0
 613 0026 9DF80E30 		ldrb	r3, [sp, #14]	@ zero_extendqisi2
 614 002a 6371     		strb	r3, [r4, #5]
 306:ads1299.c     **** 	
ARM GAS  C:\Users\dmr85\AppData\Local\Temp\ccSmIU8b.s 			page 31


 307:ads1299.c     **** 	/* Begin reading in data */
 308:ads1299.c     **** 	for (channel_idx = 0; channel_idx < MAX_EEG_CHANNELS; channel_idx++)
 615              		.loc 1 308 0
 616 002c 0023     		movs	r3, #0
 617 002e 8DF82730 		strb	r3, [sp, #39]
 618 0032 30E0     		b	.L21
 619              	.L22:
 309:ads1299.c     **** 	{
 310:ads1299.c     **** 		spi_read_packet(temp, 3);
 620              		.loc 1 310 0 discriminator 3
 621 0034 0321     		movs	r1, #3
 622 0036 03A8     		add	r0, sp, #12
 623 0038 FFF7FEFF 		bl	spi_read_packet
 624              	.LVL74:
 311:ads1299.c     **** 		packet_ptr->eegdata[sample_idx][channel_idx][0] = temp[0];
 625              		.loc 1 311 0 discriminator 3
 626 003c 019A     		ldr	r2, [sp, #4]
 627 003e 9DF82730 		ldrb	r3, [sp, #39]	@ zero_extendqisi2
 628 0042 9DF80C00 		ldrb	r0, [sp, #12]	@ zero_extendqisi2
 629 0046 03EB4301 		add	r1, r3, r3, lsl #1
 630 004a 02EB4202 		add	r2, r2, r2, lsl #1
 631 004e D300     		lsls	r3, r2, #3
 632 0050 0B44     		add	r3, r3, r1
 633 0052 2344     		add	r3, r3, r4
 634 0054 9871     		strb	r0, [r3, #6]
 312:ads1299.c     **** 		packet_ptr->eegdata[sample_idx][channel_idx][1] = temp[1];
 635              		.loc 1 312 0 discriminator 3
 636 0056 019A     		ldr	r2, [sp, #4]
 637 0058 9DF82730 		ldrb	r3, [sp, #39]	@ zero_extendqisi2
 638 005c 9DF80D00 		ldrb	r0, [sp, #13]	@ zero_extendqisi2
 639 0060 03EB4301 		add	r1, r3, r3, lsl #1
 640 0064 02EB4202 		add	r2, r2, r2, lsl #1
 641 0068 D300     		lsls	r3, r2, #3
 642 006a 0B44     		add	r3, r3, r1
 643 006c 2344     		add	r3, r3, r4
 644 006e D871     		strb	r0, [r3, #7]
 313:ads1299.c     **** 		packet_ptr->eegdata[sample_idx][channel_idx][2] = temp[2];
 645              		.loc 1 313 0 discriminator 3
 646 0070 019A     		ldr	r2, [sp, #4]
 647 0072 9DF82730 		ldrb	r3, [sp, #39]	@ zero_extendqisi2
 648 0076 9DF80E00 		ldrb	r0, [sp, #14]	@ zero_extendqisi2
 649 007a 03EB4301 		add	r1, r3, r3, lsl #1
 650 007e 02EB4202 		add	r2, r2, r2, lsl #1
 651 0082 D300     		lsls	r3, r2, #3
 652 0084 0B44     		add	r3, r3, r1
 653 0086 2344     		add	r3, r3, r4
 654 0088 1872     		strb	r0, [r3, #8]
 308:ads1299.c     **** 	{
 655              		.loc 1 308 0 discriminator 3
 656 008a 9DF82730 		ldrb	r3, [sp, #39]	@ zero_extendqisi2
 657 008e 0133     		adds	r3, r3, #1
 658 0090 DBB2     		uxtb	r3, r3
 659 0092 8DF82730 		strb	r3, [sp, #39]
 660              	.L21:
 308:ads1299.c     **** 	{
 661              		.loc 1 308 0 is_stmt 0 discriminator 1
 662 0096 9DF82730 		ldrb	r3, [sp, #39]	@ zero_extendqisi2
ARM GAS  C:\Users\dmr85\AppData\Local\Temp\ccSmIU8b.s 			page 32


 663 009a DBB2     		uxtb	r3, r3
 664 009c 072B     		cmp	r3, #7
 665 009e C9D9     		bls	.L22
 314:ads1299.c     **** 	}
 315:ads1299.c     **** 	
 316:ads1299.c     **** 	spi_unselectChip(SPI_ADDRESS, chip_select);
 666              		.loc 1 316 0 is_stmt 1
 667 00a0 2946     		mov	r1, r5
 668 00a2 0348     		ldr	r0, .L24
 669 00a4 FFF7FEFF 		bl	spi_unselectChip
 670              	.LVL75:
 317:ads1299.c     **** 	
 318:ads1299.c     **** 	#else
 319:ads1299.c     **** 	#endif	/* #if UC3 */
 320:ads1299.c     **** 	return ADS1299_STATUS_OK;
 321:ads1299.c     **** }
 671              		.loc 1 321 0
 672 00a8 0020     		movs	r0, #0
 673 00aa 0BB0     		add	sp, sp, #44
 674              		.cfi_def_cfa_offset 12
 675              		@ sp needed
 676 00ac 30BD     		pop	{r4, r5, pc}
 677              	.LVL76:
 678              	.L25:
 679 00ae 00BF     		.align	2
 680              	.L24:
 681 00b0 00000000 		.word	spi
 682              		.cfi_endproc
 683              	.LFE556:
 684              		.size	ads1299_rdata24_packet, .-ads1299_rdata24_packet
 685              		.section	.text.ads1299_rdata24_generic,"ax",%progbits
 686              		.align	2
 687              		.global	ads1299_rdata24_generic
 688              		.thumb
 689              		.thumb_func
 690              		.type	ads1299_rdata24_generic, %function
 691              	ads1299_rdata24_generic:
 692              	.LFB557:
 322:ads1299.c     **** 
 323:ads1299.c     **** ads1299_error_t ads1299_rdata24_generic(uint8_t chip_select, volatile uint32_t sample_idx, volatile
 324:ads1299.c     **** {
 693              		.loc 1 324 0
 694              		.cfi_startproc
 695              		@ args = 0, pretend = 0, frame = 40
 696              		@ frame_needed = 0, uses_anonymous_args = 0
 697              	.LVL77:
 698 0000 2DE9F041 		push	{r4, r5, r6, r7, r8, lr}
 699              		.cfi_def_cfa_offset 24
 700              		.cfi_offset 4, -24
 701              		.cfi_offset 5, -20
 702              		.cfi_offset 6, -16
 703              		.cfi_offset 7, -12
 704              		.cfi_offset 8, -8
 705              		.cfi_offset 14, -4
 706 0004 8AB0     		sub	sp, sp, #40
 707              		.cfi_def_cfa_offset 64
 708 0006 0546     		mov	r5, r0
ARM GAS  C:\Users\dmr85\AppData\Local\Temp\ccSmIU8b.s 			page 33


 709 0008 0191     		str	r1, [sp, #4]
 710 000a 9046     		mov	r8, r2
 711 000c 1C46     		mov	r4, r3
 325:ads1299.c     **** 	uint32_t transfer_status;
 326:ads1299.c     **** 	volatile uint8_t channel_idx;
 327:ads1299.c     **** 	uint8_t sigtemp[27];
 328:ads1299.c     **** 	
 329:ads1299.c     **** 	/* Begin SPI comms */
 330:ads1299.c     **** 	spi_selectChip(SPI_ADDRESS, chip_select);
 712              		.loc 1 330 0
 713 000e 0146     		mov	r1, r0
 714              	.LVL78:
 715 0010 4F48     		ldr	r0, .L35
 716              	.LVL79:
 717 0012 FFF7FEFF 		bl	spi_selectChip
 718              	.LVL80:
 719              	.L28:
 720              	.LBB67:
 721              	.LBB68:
 722              	.LBB69:
 723              	.LBB70:
 724              		.file 3 "Generated_Source\\PSoC6\\pdl\\drivers/peripheral/gpio/cy_gpio.h"
   1:Generated_Source\PSoC6\pdl\drivers/peripheral/gpio/cy_gpio.h **** /***************************************************************************//**
   2:Generated_Source\PSoC6\pdl\drivers/peripheral/gpio/cy_gpio.h **** * \file cy_gpio.h
   3:Generated_Source\PSoC6\pdl\drivers/peripheral/gpio/cy_gpio.h **** * \version 1.20
   4:Generated_Source\PSoC6\pdl\drivers/peripheral/gpio/cy_gpio.h **** *
   5:Generated_Source\PSoC6\pdl\drivers/peripheral/gpio/cy_gpio.h **** * Provides an API declaration of the GPIO driver
   6:Generated_Source\PSoC6\pdl\drivers/peripheral/gpio/cy_gpio.h **** *
   7:Generated_Source\PSoC6\pdl\drivers/peripheral/gpio/cy_gpio.h **** ********************************************************************************
   8:Generated_Source\PSoC6\pdl\drivers/peripheral/gpio/cy_gpio.h **** * \copyright
   9:Generated_Source\PSoC6\pdl\drivers/peripheral/gpio/cy_gpio.h **** * Copyright 2016-2018, Cypress Semiconductor Corporation. All rights reserved.
  10:Generated_Source\PSoC6\pdl\drivers/peripheral/gpio/cy_gpio.h **** * You may use this file only in accordance with the license, terms, conditions,
  11:Generated_Source\PSoC6\pdl\drivers/peripheral/gpio/cy_gpio.h **** * disclaimers, and limitations in the end user license agreement accompanying
  12:Generated_Source\PSoC6\pdl\drivers/peripheral/gpio/cy_gpio.h **** * the software package with which this file was provided.
  13:Generated_Source\PSoC6\pdl\drivers/peripheral/gpio/cy_gpio.h **** *******************************************************************************/
  14:Generated_Source\PSoC6\pdl\drivers/peripheral/gpio/cy_gpio.h **** 
  15:Generated_Source\PSoC6\pdl\drivers/peripheral/gpio/cy_gpio.h **** /**
  16:Generated_Source\PSoC6\pdl\drivers/peripheral/gpio/cy_gpio.h **** * \addtogroup group_gpio
  17:Generated_Source\PSoC6\pdl\drivers/peripheral/gpio/cy_gpio.h **** * \{
  18:Generated_Source\PSoC6\pdl\drivers/peripheral/gpio/cy_gpio.h **** * The GPIO driver provides an API to configure and access device Input/Output pins.
  19:Generated_Source\PSoC6\pdl\drivers/peripheral/gpio/cy_gpio.h **** *
  20:Generated_Source\PSoC6\pdl\drivers/peripheral/gpio/cy_gpio.h **** * The functions and other declarations used in this driver are in cy_gpio.h. 
  21:Generated_Source\PSoC6\pdl\drivers/peripheral/gpio/cy_gpio.h **** * You can include cy_pdl.h (ModusToolbox only) to get access to all functions 
  22:Generated_Source\PSoC6\pdl\drivers/peripheral/gpio/cy_gpio.h **** * and declarations in the PDL.
  23:Generated_Source\PSoC6\pdl\drivers/peripheral/gpio/cy_gpio.h **** *
  24:Generated_Source\PSoC6\pdl\drivers/peripheral/gpio/cy_gpio.h **** * IO pins include all general purpose types such as GPIO, SIO, HSIO, AUXIO, and
  25:Generated_Source\PSoC6\pdl\drivers/peripheral/gpio/cy_gpio.h **** * their variants.
  26:Generated_Source\PSoC6\pdl\drivers/peripheral/gpio/cy_gpio.h **** *
  27:Generated_Source\PSoC6\pdl\drivers/peripheral/gpio/cy_gpio.h **** * Initialization can be performed either at the port level or by configuring the
  28:Generated_Source\PSoC6\pdl\drivers/peripheral/gpio/cy_gpio.h **** * individual pins. For efficient use of code space, port
  29:Generated_Source\PSoC6\pdl\drivers/peripheral/gpio/cy_gpio.h **** * configuration should be used in the field. Refer to the product device header files 
  30:Generated_Source\PSoC6\pdl\drivers/peripheral/gpio/cy_gpio.h **** * for the list of supported ports and pins.
  31:Generated_Source\PSoC6\pdl\drivers/peripheral/gpio/cy_gpio.h **** * 
  32:Generated_Source\PSoC6\pdl\drivers/peripheral/gpio/cy_gpio.h **** * - Single pin configuration is performed by using \ref Cy_GPIO_Pin_FastInit 
  33:Generated_Source\PSoC6\pdl\drivers/peripheral/gpio/cy_gpio.h **** *   (provide specific values) or \ref Cy_GPIO_Pin_Init (provide a filled
  34:Generated_Source\PSoC6\pdl\drivers/peripheral/gpio/cy_gpio.h **** *   cy_stc_gpio_pin_config_t structure).
  35:Generated_Source\PSoC6\pdl\drivers/peripheral/gpio/cy_gpio.h **** * - An entire port can be configured using \ref Cy_GPIO_Port_Init. Provide a filled 
ARM GAS  C:\Users\dmr85\AppData\Local\Temp\ccSmIU8b.s 			page 34


  36:Generated_Source\PSoC6\pdl\drivers/peripheral/gpio/cy_gpio.h **** *   cy_stc_gpio_prt_config_t structure. The values in the structure are 
  37:Generated_Source\PSoC6\pdl\drivers/peripheral/gpio/cy_gpio.h **** *   bitfields representing the desired value for each pin in the port.
  38:Generated_Source\PSoC6\pdl\drivers/peripheral/gpio/cy_gpio.h **** * - Pin configuration and management is based on the port address and pin number.
  39:Generated_Source\PSoC6\pdl\drivers/peripheral/gpio/cy_gpio.h **** *   \ref Cy_GPIO_PortToAddr function can optionally be used to calculate the port
  40:Generated_Source\PSoC6\pdl\drivers/peripheral/gpio/cy_gpio.h **** *   address from the port number at run-time.
  41:Generated_Source\PSoC6\pdl\drivers/peripheral/gpio/cy_gpio.h **** *
  42:Generated_Source\PSoC6\pdl\drivers/peripheral/gpio/cy_gpio.h **** * Once the pin/port initialization is complete, each pin can be accessed by 
  43:Generated_Source\PSoC6\pdl\drivers/peripheral/gpio/cy_gpio.h **** * specifying the port (GPIO_PRT_Type) and the pin (0-7) in the provided API 
  44:Generated_Source\PSoC6\pdl\drivers/peripheral/gpio/cy_gpio.h **** * functions.
  45:Generated_Source\PSoC6\pdl\drivers/peripheral/gpio/cy_gpio.h **** *
  46:Generated_Source\PSoC6\pdl\drivers/peripheral/gpio/cy_gpio.h **** * \section group_gpio_configuration Configuration Considerations
  47:Generated_Source\PSoC6\pdl\drivers/peripheral/gpio/cy_gpio.h **** *
  48:Generated_Source\PSoC6\pdl\drivers/peripheral/gpio/cy_gpio.h **** * 1. Pin multiplexing is controlled through the High-Speed IO Matrix (HSIOM) selection.
  49:Generated_Source\PSoC6\pdl\drivers/peripheral/gpio/cy_gpio.h **** *    This allows the pin to connect to signal sources/sinks throughout the device,
  50:Generated_Source\PSoC6\pdl\drivers/peripheral/gpio/cy_gpio.h **** *    as defined by the pin HSIOM selection options (en_hsiom_sel_t).
  51:Generated_Source\PSoC6\pdl\drivers/peripheral/gpio/cy_gpio.h **** * 2. All pins are initialized to High-Z drive mode with HSIOM connected to CPU (SW
  52:Generated_Source\PSoC6\pdl\drivers/peripheral/gpio/cy_gpio.h **** *    control digital pin only) at Power-On-Reset(POR).
  53:Generated_Source\PSoC6\pdl\drivers/peripheral/gpio/cy_gpio.h **** * 3. Some API functions perform read-modify-write operations on shared port
  54:Generated_Source\PSoC6\pdl\drivers/peripheral/gpio/cy_gpio.h **** *    registers. These functions are not thread safe and care must be taken when
  55:Generated_Source\PSoC6\pdl\drivers/peripheral/gpio/cy_gpio.h **** *    called by the application.
  56:Generated_Source\PSoC6\pdl\drivers/peripheral/gpio/cy_gpio.h **** * 4. Digital input buffer provides a high-impedance buffer for the external 
  57:Generated_Source\PSoC6\pdl\drivers/peripheral/gpio/cy_gpio.h **** *    digital input. The input buffer is connected to the HSIOM for routing to 
  58:Generated_Source\PSoC6\pdl\drivers/peripheral/gpio/cy_gpio.h **** *    the CPU port registers and selected peripheral. Enabling the input 
  59:Generated_Source\PSoC6\pdl\drivers/peripheral/gpio/cy_gpio.h **** *    buffer provides possibility to read the pin state via the CPU.
  60:Generated_Source\PSoC6\pdl\drivers/peripheral/gpio/cy_gpio.h **** *    If pin is connected to an analog signal, the input buffer should be 
  61:Generated_Source\PSoC6\pdl\drivers/peripheral/gpio/cy_gpio.h **** *    disabled to avoid crowbar currents. For more information refer to device 
  62:Generated_Source\PSoC6\pdl\drivers/peripheral/gpio/cy_gpio.h **** *    TRM and the device datasheet.
  63:Generated_Source\PSoC6\pdl\drivers/peripheral/gpio/cy_gpio.h **** *
  64:Generated_Source\PSoC6\pdl\drivers/peripheral/gpio/cy_gpio.h **** * Multiple pins on a port can be updated using direct port register writes with an
  65:Generated_Source\PSoC6\pdl\drivers/peripheral/gpio/cy_gpio.h **** * appropriate port mask. An example is shown below, highlighting the different ways of 
  66:Generated_Source\PSoC6\pdl\drivers/peripheral/gpio/cy_gpio.h **** * configuring Port 1 pins using:
  67:Generated_Source\PSoC6\pdl\drivers/peripheral/gpio/cy_gpio.h **** * 
  68:Generated_Source\PSoC6\pdl\drivers/peripheral/gpio/cy_gpio.h **** * - Port output data register
  69:Generated_Source\PSoC6\pdl\drivers/peripheral/gpio/cy_gpio.h **** * - Port output data set register
  70:Generated_Source\PSoC6\pdl\drivers/peripheral/gpio/cy_gpio.h **** * - Port output data clear register
  71:Generated_Source\PSoC6\pdl\drivers/peripheral/gpio/cy_gpio.h **** *
  72:Generated_Source\PSoC6\pdl\drivers/peripheral/gpio/cy_gpio.h **** * \snippet gpio/gpio_v1_10_sut_01.cydsn/main_cm4.c Cy_GPIO_Snippet
  73:Generated_Source\PSoC6\pdl\drivers/peripheral/gpio/cy_gpio.h **** *
  74:Generated_Source\PSoC6\pdl\drivers/peripheral/gpio/cy_gpio.h **** * \section group_gpio_more_information More Information
  75:Generated_Source\PSoC6\pdl\drivers/peripheral/gpio/cy_gpio.h **** *
  76:Generated_Source\PSoC6\pdl\drivers/peripheral/gpio/cy_gpio.h **** * Refer to the technical reference manual (TRM) and the device datasheet.
  77:Generated_Source\PSoC6\pdl\drivers/peripheral/gpio/cy_gpio.h **** *
  78:Generated_Source\PSoC6\pdl\drivers/peripheral/gpio/cy_gpio.h **** * \section group_gpio_MISRA MISRA-C Compliance
  79:Generated_Source\PSoC6\pdl\drivers/peripheral/gpio/cy_gpio.h **** * The GPIO driver has the following specific deviations:
  80:Generated_Source\PSoC6\pdl\drivers/peripheral/gpio/cy_gpio.h **** *
  81:Generated_Source\PSoC6\pdl\drivers/peripheral/gpio/cy_gpio.h **** * <table class="doxtable">
  82:Generated_Source\PSoC6\pdl\drivers/peripheral/gpio/cy_gpio.h **** *   <tr>
  83:Generated_Source\PSoC6\pdl\drivers/peripheral/gpio/cy_gpio.h **** *     <th>MISRA Rule</th>
  84:Generated_Source\PSoC6\pdl\drivers/peripheral/gpio/cy_gpio.h **** *     <th>Rule Class (Required/Advisory)</th>
  85:Generated_Source\PSoC6\pdl\drivers/peripheral/gpio/cy_gpio.h **** *     <th>Rule Description</th>
  86:Generated_Source\PSoC6\pdl\drivers/peripheral/gpio/cy_gpio.h **** *     <th>Description of Deviation(s)</th>
  87:Generated_Source\PSoC6\pdl\drivers/peripheral/gpio/cy_gpio.h **** *   </tr>
  88:Generated_Source\PSoC6\pdl\drivers/peripheral/gpio/cy_gpio.h **** *   <tr>
  89:Generated_Source\PSoC6\pdl\drivers/peripheral/gpio/cy_gpio.h **** *     <td>11.4</td>
  90:Generated_Source\PSoC6\pdl\drivers/peripheral/gpio/cy_gpio.h **** *     <td>A</td>
  91:Generated_Source\PSoC6\pdl\drivers/peripheral/gpio/cy_gpio.h **** *     <td>A cast should not be performed between a pointer to object type and
  92:Generated_Source\PSoC6\pdl\drivers/peripheral/gpio/cy_gpio.h **** *         a different pointer to object type.</td>
ARM GAS  C:\Users\dmr85\AppData\Local\Temp\ccSmIU8b.s 			page 35


  93:Generated_Source\PSoC6\pdl\drivers/peripheral/gpio/cy_gpio.h **** *     <td> This code is safe because the elements of both GPIO_PRT_V1_Type and GPIO_PRT_V2_Type 
  94:Generated_Source\PSoC6\pdl\drivers/peripheral/gpio/cy_gpio.h **** *          types have identical alignment.</td>
  95:Generated_Source\PSoC6\pdl\drivers/peripheral/gpio/cy_gpio.h **** *   </tr>
  96:Generated_Source\PSoC6\pdl\drivers/peripheral/gpio/cy_gpio.h **** *   <tr>
  97:Generated_Source\PSoC6\pdl\drivers/peripheral/gpio/cy_gpio.h **** *     <td>16.7</td>
  98:Generated_Source\PSoC6\pdl\drivers/peripheral/gpio/cy_gpio.h **** *     <td>A</td>
  99:Generated_Source\PSoC6\pdl\drivers/peripheral/gpio/cy_gpio.h **** *     <td>A pointer parameter in a function prototype should be declared as pointer 
 100:Generated_Source\PSoC6\pdl\drivers/peripheral/gpio/cy_gpio.h **** *         to const if the pointer is not used to modify the addressed object.</td>
 101:Generated_Source\PSoC6\pdl\drivers/peripheral/gpio/cy_gpio.h **** *     <td>The objects pointed to by the base addresses of the GPIO port are not always modified.
 102:Generated_Source\PSoC6\pdl\drivers/peripheral/gpio/cy_gpio.h **** *         While a const qualifier can be used in select scenarios, it brings little benefit
 103:Generated_Source\PSoC6\pdl\drivers/peripheral/gpio/cy_gpio.h **** *         in adding this to the affected functions. </td>
 104:Generated_Source\PSoC6\pdl\drivers/peripheral/gpio/cy_gpio.h **** *   </tr>
 105:Generated_Source\PSoC6\pdl\drivers/peripheral/gpio/cy_gpio.h **** * </table>
 106:Generated_Source\PSoC6\pdl\drivers/peripheral/gpio/cy_gpio.h **** *
 107:Generated_Source\PSoC6\pdl\drivers/peripheral/gpio/cy_gpio.h **** * \section group_gpio_changelog Changelog
 108:Generated_Source\PSoC6\pdl\drivers/peripheral/gpio/cy_gpio.h **** * <table class="doxtable">
 109:Generated_Source\PSoC6\pdl\drivers/peripheral/gpio/cy_gpio.h **** *   <tr><th>Version</th><th>Changes</th><th>Reason for Change</th></tr>
 110:Generated_Source\PSoC6\pdl\drivers/peripheral/gpio/cy_gpio.h **** *   <tr>
 111:Generated_Source\PSoC6\pdl\drivers/peripheral/gpio/cy_gpio.h **** *     <td rowspan="3">1.20</td>
 112:Generated_Source\PSoC6\pdl\drivers/peripheral/gpio/cy_gpio.h **** *     <td>Flattened the organization of the driver source code into the single source directory and
 113:Generated_Source\PSoC6\pdl\drivers/peripheral/gpio/cy_gpio.h **** *     <td>Driver library directory-structure simplification.</td>
 114:Generated_Source\PSoC6\pdl\drivers/peripheral/gpio/cy_gpio.h **** *   </tr>
 115:Generated_Source\PSoC6\pdl\drivers/peripheral/gpio/cy_gpio.h **** *   <tr>
 116:Generated_Source\PSoC6\pdl\drivers/peripheral/gpio/cy_gpio.h **** *     <td>Added the functions for configuring the AMux bus splitter switch cells:
 117:Generated_Source\PSoC6\pdl\drivers/peripheral/gpio/cy_gpio.h **** *     - \ref Cy_GPIO_SetAmuxSplit
 118:Generated_Source\PSoC6\pdl\drivers/peripheral/gpio/cy_gpio.h **** *     - \ref Cy_GPIO_GetAmuxSplit
 119:Generated_Source\PSoC6\pdl\drivers/peripheral/gpio/cy_gpio.h **** *     </td>
 120:Generated_Source\PSoC6\pdl\drivers/peripheral/gpio/cy_gpio.h **** *     <td>Added a new functionality related to AMux bus.</td>
 121:Generated_Source\PSoC6\pdl\drivers/peripheral/gpio/cy_gpio.h **** *   </tr>
 122:Generated_Source\PSoC6\pdl\drivers/peripheral/gpio/cy_gpio.h **** *   <tr>
 123:Generated_Source\PSoC6\pdl\drivers/peripheral/gpio/cy_gpio.h **** *     <td>Added register access layer. Use register access macros instead
 124:Generated_Source\PSoC6\pdl\drivers/peripheral/gpio/cy_gpio.h **** *         of direct register access using dereferenced pointers.</td>
 125:Generated_Source\PSoC6\pdl\drivers/peripheral/gpio/cy_gpio.h **** *     <td>Makes register access device-independent, so that the PDL does 
 126:Generated_Source\PSoC6\pdl\drivers/peripheral/gpio/cy_gpio.h **** *         not need to be recompiled for each supported part number.</td>
 127:Generated_Source\PSoC6\pdl\drivers/peripheral/gpio/cy_gpio.h **** *   </tr>
 128:Generated_Source\PSoC6\pdl\drivers/peripheral/gpio/cy_gpio.h **** *   <tr>
 129:Generated_Source\PSoC6\pdl\drivers/peripheral/gpio/cy_gpio.h **** *     <td>1.10.1</td>
 130:Generated_Source\PSoC6\pdl\drivers/peripheral/gpio/cy_gpio.h **** *     <td>Updated description for the functions: \ref Cy_GPIO_GetInterruptStatus, 
 131:Generated_Source\PSoC6\pdl\drivers/peripheral/gpio/cy_gpio.h **** *         \ref Cy_GPIO_GetInterruptMask, \ref Cy_GPIO_GetInterruptStatusMasked.
 132:Generated_Source\PSoC6\pdl\drivers/peripheral/gpio/cy_gpio.h **** *
 133:Generated_Source\PSoC6\pdl\drivers/peripheral/gpio/cy_gpio.h **** *         Minor documentation edits.
 134:Generated_Source\PSoC6\pdl\drivers/peripheral/gpio/cy_gpio.h **** *     </td>
 135:Generated_Source\PSoC6\pdl\drivers/peripheral/gpio/cy_gpio.h **** *     <td>Documentation update and clarification</td>
 136:Generated_Source\PSoC6\pdl\drivers/peripheral/gpio/cy_gpio.h **** *   </tr>
 137:Generated_Source\PSoC6\pdl\drivers/peripheral/gpio/cy_gpio.h **** *   <tr>
 138:Generated_Source\PSoC6\pdl\drivers/peripheral/gpio/cy_gpio.h **** *     <td>1.10</td>
 139:Generated_Source\PSoC6\pdl\drivers/peripheral/gpio/cy_gpio.h **** *     <td>Added input parameter validation to the API functions</td>
 140:Generated_Source\PSoC6\pdl\drivers/peripheral/gpio/cy_gpio.h **** *     <td></td>
 141:Generated_Source\PSoC6\pdl\drivers/peripheral/gpio/cy_gpio.h **** *   </tr>
 142:Generated_Source\PSoC6\pdl\drivers/peripheral/gpio/cy_gpio.h **** *   <tr>
 143:Generated_Source\PSoC6\pdl\drivers/peripheral/gpio/cy_gpio.h **** *     <td>1.0</td>
 144:Generated_Source\PSoC6\pdl\drivers/peripheral/gpio/cy_gpio.h **** *     <td>Initial version</td>
 145:Generated_Source\PSoC6\pdl\drivers/peripheral/gpio/cy_gpio.h **** *     <td></td>
 146:Generated_Source\PSoC6\pdl\drivers/peripheral/gpio/cy_gpio.h **** *   </tr>
 147:Generated_Source\PSoC6\pdl\drivers/peripheral/gpio/cy_gpio.h **** * </table>
 148:Generated_Source\PSoC6\pdl\drivers/peripheral/gpio/cy_gpio.h **** *
 149:Generated_Source\PSoC6\pdl\drivers/peripheral/gpio/cy_gpio.h **** * \defgroup group_gpio_macros Macros
ARM GAS  C:\Users\dmr85\AppData\Local\Temp\ccSmIU8b.s 			page 36


 150:Generated_Source\PSoC6\pdl\drivers/peripheral/gpio/cy_gpio.h **** * \defgroup group_gpio_functions Functions
 151:Generated_Source\PSoC6\pdl\drivers/peripheral/gpio/cy_gpio.h **** * \{
 152:Generated_Source\PSoC6\pdl\drivers/peripheral/gpio/cy_gpio.h **** *   \defgroup group_gpio_functions_init       Initialization Functions
 153:Generated_Source\PSoC6\pdl\drivers/peripheral/gpio/cy_gpio.h **** *   \defgroup group_gpio_functions_gpio       GPIO Functions
 154:Generated_Source\PSoC6\pdl\drivers/peripheral/gpio/cy_gpio.h **** *   \defgroup group_gpio_functions_sio        SIO Functions
 155:Generated_Source\PSoC6\pdl\drivers/peripheral/gpio/cy_gpio.h **** *   \defgroup group_gpio_functions_interrupt  Port Interrupt Functions
 156:Generated_Source\PSoC6\pdl\drivers/peripheral/gpio/cy_gpio.h **** * \}
 157:Generated_Source\PSoC6\pdl\drivers/peripheral/gpio/cy_gpio.h **** * \defgroup group_gpio_data_structures Data Structures
 158:Generated_Source\PSoC6\pdl\drivers/peripheral/gpio/cy_gpio.h **** * \defgroup group_gpio_enums Enumerated Types
 159:Generated_Source\PSoC6\pdl\drivers/peripheral/gpio/cy_gpio.h **** */
 160:Generated_Source\PSoC6\pdl\drivers/peripheral/gpio/cy_gpio.h **** 
 161:Generated_Source\PSoC6\pdl\drivers/peripheral/gpio/cy_gpio.h **** #if !defined(CY_GPIO_H)
 162:Generated_Source\PSoC6\pdl\drivers/peripheral/gpio/cy_gpio.h **** #define CY_GPIO_H
 163:Generated_Source\PSoC6\pdl\drivers/peripheral/gpio/cy_gpio.h **** 
 164:Generated_Source\PSoC6\pdl\drivers/peripheral/gpio/cy_gpio.h **** #include <stddef.h>
 165:Generated_Source\PSoC6\pdl\drivers/peripheral/gpio/cy_gpio.h **** #include "cy_device.h"
 166:Generated_Source\PSoC6\pdl\drivers/peripheral/gpio/cy_gpio.h **** #include "cy_device_headers.h"
 167:Generated_Source\PSoC6\pdl\drivers/peripheral/gpio/cy_gpio.h **** #include "cy_syslib.h"
 168:Generated_Source\PSoC6\pdl\drivers/peripheral/gpio/cy_gpio.h **** 
 169:Generated_Source\PSoC6\pdl\drivers/peripheral/gpio/cy_gpio.h **** #if defined(__cplusplus)
 170:Generated_Source\PSoC6\pdl\drivers/peripheral/gpio/cy_gpio.h **** extern "C" {
 171:Generated_Source\PSoC6\pdl\drivers/peripheral/gpio/cy_gpio.h **** #endif
 172:Generated_Source\PSoC6\pdl\drivers/peripheral/gpio/cy_gpio.h **** 
 173:Generated_Source\PSoC6\pdl\drivers/peripheral/gpio/cy_gpio.h **** /** \addtogroup group_gpio_macros
 174:Generated_Source\PSoC6\pdl\drivers/peripheral/gpio/cy_gpio.h **** * \{
 175:Generated_Source\PSoC6\pdl\drivers/peripheral/gpio/cy_gpio.h **** */
 176:Generated_Source\PSoC6\pdl\drivers/peripheral/gpio/cy_gpio.h **** 
 177:Generated_Source\PSoC6\pdl\drivers/peripheral/gpio/cy_gpio.h **** /** Driver major version */
 178:Generated_Source\PSoC6\pdl\drivers/peripheral/gpio/cy_gpio.h **** #define CY_GPIO_DRV_VERSION_MAJOR       1
 179:Generated_Source\PSoC6\pdl\drivers/peripheral/gpio/cy_gpio.h **** 
 180:Generated_Source\PSoC6\pdl\drivers/peripheral/gpio/cy_gpio.h **** /** Driver minor version */
 181:Generated_Source\PSoC6\pdl\drivers/peripheral/gpio/cy_gpio.h **** #define CY_GPIO_DRV_VERSION_MINOR       20
 182:Generated_Source\PSoC6\pdl\drivers/peripheral/gpio/cy_gpio.h **** 
 183:Generated_Source\PSoC6\pdl\drivers/peripheral/gpio/cy_gpio.h **** /** GPIO driver ID */
 184:Generated_Source\PSoC6\pdl\drivers/peripheral/gpio/cy_gpio.h **** #define CY_GPIO_ID CY_PDL_DRV_ID(0x16U)
 185:Generated_Source\PSoC6\pdl\drivers/peripheral/gpio/cy_gpio.h **** 
 186:Generated_Source\PSoC6\pdl\drivers/peripheral/gpio/cy_gpio.h **** /** \} group_gpio_macros */
 187:Generated_Source\PSoC6\pdl\drivers/peripheral/gpio/cy_gpio.h **** 
 188:Generated_Source\PSoC6\pdl\drivers/peripheral/gpio/cy_gpio.h **** 
 189:Generated_Source\PSoC6\pdl\drivers/peripheral/gpio/cy_gpio.h **** /***************************************
 190:Generated_Source\PSoC6\pdl\drivers/peripheral/gpio/cy_gpio.h **** *       Enumerations
 191:Generated_Source\PSoC6\pdl\drivers/peripheral/gpio/cy_gpio.h **** ***************************************/
 192:Generated_Source\PSoC6\pdl\drivers/peripheral/gpio/cy_gpio.h **** /**
 193:Generated_Source\PSoC6\pdl\drivers/peripheral/gpio/cy_gpio.h **** * \addtogroup group_gpio_enums
 194:Generated_Source\PSoC6\pdl\drivers/peripheral/gpio/cy_gpio.h **** * \{
 195:Generated_Source\PSoC6\pdl\drivers/peripheral/gpio/cy_gpio.h **** */
 196:Generated_Source\PSoC6\pdl\drivers/peripheral/gpio/cy_gpio.h **** 
 197:Generated_Source\PSoC6\pdl\drivers/peripheral/gpio/cy_gpio.h **** /** GPIO Driver error codes */
 198:Generated_Source\PSoC6\pdl\drivers/peripheral/gpio/cy_gpio.h **** typedef enum 
 199:Generated_Source\PSoC6\pdl\drivers/peripheral/gpio/cy_gpio.h **** {
 200:Generated_Source\PSoC6\pdl\drivers/peripheral/gpio/cy_gpio.h ****     CY_GPIO_SUCCESS   = 0x00U,                                    /**< Returned successful */
 201:Generated_Source\PSoC6\pdl\drivers/peripheral/gpio/cy_gpio.h ****     CY_GPIO_BAD_PARAM = CY_GPIO_ID | CY_PDL_STATUS_ERROR | 0x01U, /**< Bad parameter was passed */
 202:Generated_Source\PSoC6\pdl\drivers/peripheral/gpio/cy_gpio.h **** } cy_en_gpio_status_t;
 203:Generated_Source\PSoC6\pdl\drivers/peripheral/gpio/cy_gpio.h **** 
 204:Generated_Source\PSoC6\pdl\drivers/peripheral/gpio/cy_gpio.h **** /** AMux switch open/close config */
 205:Generated_Source\PSoC6\pdl\drivers/peripheral/gpio/cy_gpio.h **** typedef enum
 206:Generated_Source\PSoC6\pdl\drivers/peripheral/gpio/cy_gpio.h **** {
ARM GAS  C:\Users\dmr85\AppData\Local\Temp\ccSmIU8b.s 			page 37


 207:Generated_Source\PSoC6\pdl\drivers/peripheral/gpio/cy_gpio.h ****     CY_GPIO_AMUX_OPENALL,   /**< Open ground switch. Open right switch. Open left switch */
 208:Generated_Source\PSoC6\pdl\drivers/peripheral/gpio/cy_gpio.h ****     CY_GPIO_AMUX_L,         /**< Open ground switch. Open right switch. Close left switch */
 209:Generated_Source\PSoC6\pdl\drivers/peripheral/gpio/cy_gpio.h ****     CY_GPIO_AMUX_R,         /**< Open ground switch. Close right switch. Open left switch */
 210:Generated_Source\PSoC6\pdl\drivers/peripheral/gpio/cy_gpio.h ****     CY_GPIO_AMUX_LR,        /**< Open ground switch. Close right switch. Close left switch */
 211:Generated_Source\PSoC6\pdl\drivers/peripheral/gpio/cy_gpio.h ****     CY_GPIO_AMUX_G,         /**< Close ground switch. Open right switch. Open left switch */
 212:Generated_Source\PSoC6\pdl\drivers/peripheral/gpio/cy_gpio.h ****     CY_GPIO_AMUX_GL,        /**< Close ground switch. Open right switch. Close left switch */
 213:Generated_Source\PSoC6\pdl\drivers/peripheral/gpio/cy_gpio.h ****     CY_GPIO_AMUX_GR,        /**< Close ground switch. Close right switch. Open left switch */
 214:Generated_Source\PSoC6\pdl\drivers/peripheral/gpio/cy_gpio.h ****     CY_GPIO_AMUX_GLR,       /**< Close ground switch. Close right switch. Close left switch */
 215:Generated_Source\PSoC6\pdl\drivers/peripheral/gpio/cy_gpio.h **** }cy_en_gpio_amuxconnect_t;
 216:Generated_Source\PSoC6\pdl\drivers/peripheral/gpio/cy_gpio.h **** 
 217:Generated_Source\PSoC6\pdl\drivers/peripheral/gpio/cy_gpio.h **** /**
 218:Generated_Source\PSoC6\pdl\drivers/peripheral/gpio/cy_gpio.h **** * AMux Bus selection
 219:Generated_Source\PSoC6\pdl\drivers/peripheral/gpio/cy_gpio.h **** */
 220:Generated_Source\PSoC6\pdl\drivers/peripheral/gpio/cy_gpio.h **** typedef enum
 221:Generated_Source\PSoC6\pdl\drivers/peripheral/gpio/cy_gpio.h **** {
 222:Generated_Source\PSoC6\pdl\drivers/peripheral/gpio/cy_gpio.h ****     CY_GPIO_AMUXBUSA,       /**< AMuxBus A */
 223:Generated_Source\PSoC6\pdl\drivers/peripheral/gpio/cy_gpio.h ****     CY_GPIO_AMUXBUSB        /**< AMuxBus B */
 224:Generated_Source\PSoC6\pdl\drivers/peripheral/gpio/cy_gpio.h **** }cy_en_gpio_amuxselect_t;
 225:Generated_Source\PSoC6\pdl\drivers/peripheral/gpio/cy_gpio.h **** 
 226:Generated_Source\PSoC6\pdl\drivers/peripheral/gpio/cy_gpio.h **** /** \} group_gpio_enums */
 227:Generated_Source\PSoC6\pdl\drivers/peripheral/gpio/cy_gpio.h **** 
 228:Generated_Source\PSoC6\pdl\drivers/peripheral/gpio/cy_gpio.h **** 
 229:Generated_Source\PSoC6\pdl\drivers/peripheral/gpio/cy_gpio.h **** /***************************************
 230:Generated_Source\PSoC6\pdl\drivers/peripheral/gpio/cy_gpio.h **** *       Configuration Structures
 231:Generated_Source\PSoC6\pdl\drivers/peripheral/gpio/cy_gpio.h **** ***************************************/
 232:Generated_Source\PSoC6\pdl\drivers/peripheral/gpio/cy_gpio.h **** 
 233:Generated_Source\PSoC6\pdl\drivers/peripheral/gpio/cy_gpio.h **** /**
 234:Generated_Source\PSoC6\pdl\drivers/peripheral/gpio/cy_gpio.h **** * \addtogroup group_gpio_data_structures
 235:Generated_Source\PSoC6\pdl\drivers/peripheral/gpio/cy_gpio.h **** * \{
 236:Generated_Source\PSoC6\pdl\drivers/peripheral/gpio/cy_gpio.h **** */
 237:Generated_Source\PSoC6\pdl\drivers/peripheral/gpio/cy_gpio.h **** 
 238:Generated_Source\PSoC6\pdl\drivers/peripheral/gpio/cy_gpio.h **** /** This structure is used to initialize a port of GPIO pins */
 239:Generated_Source\PSoC6\pdl\drivers/peripheral/gpio/cy_gpio.h **** typedef struct 
 240:Generated_Source\PSoC6\pdl\drivers/peripheral/gpio/cy_gpio.h **** {
 241:Generated_Source\PSoC6\pdl\drivers/peripheral/gpio/cy_gpio.h ****     uint32_t out;           /**< Initial output data for the IO pins in the port */
 242:Generated_Source\PSoC6\pdl\drivers/peripheral/gpio/cy_gpio.h ****     uint32_t intrMask;      /**< Interrupt enable mask for the port interrupt */
 243:Generated_Source\PSoC6\pdl\drivers/peripheral/gpio/cy_gpio.h ****     uint32_t intrCfg;       /**< Port pin interrupt edge detection configuration */
 244:Generated_Source\PSoC6\pdl\drivers/peripheral/gpio/cy_gpio.h ****     uint32_t cfg;           /**< Port pin drive modes and input buffer enable configuration */
 245:Generated_Source\PSoC6\pdl\drivers/peripheral/gpio/cy_gpio.h ****     uint32_t cfgIn;         /**< Port pin input buffer configuration */
 246:Generated_Source\PSoC6\pdl\drivers/peripheral/gpio/cy_gpio.h ****     uint32_t cfgOut;        /**< Port pin output buffer configuration */
 247:Generated_Source\PSoC6\pdl\drivers/peripheral/gpio/cy_gpio.h ****     uint32_t cfgSIO;        /**< Port SIO pins configuration */
 248:Generated_Source\PSoC6\pdl\drivers/peripheral/gpio/cy_gpio.h ****     uint32_t sel0Active;    /**< HSIOM selection for port pins 0,1,2,3 */
 249:Generated_Source\PSoC6\pdl\drivers/peripheral/gpio/cy_gpio.h ****     uint32_t sel1Active;    /**< HSIOM selection for port pins 4,5,6,7 */
 250:Generated_Source\PSoC6\pdl\drivers/peripheral/gpio/cy_gpio.h **** } cy_stc_gpio_prt_config_t;
 251:Generated_Source\PSoC6\pdl\drivers/peripheral/gpio/cy_gpio.h **** 
 252:Generated_Source\PSoC6\pdl\drivers/peripheral/gpio/cy_gpio.h **** /** This structure is used to initialize a single GPIO pin */
 253:Generated_Source\PSoC6\pdl\drivers/peripheral/gpio/cy_gpio.h **** typedef struct
 254:Generated_Source\PSoC6\pdl\drivers/peripheral/gpio/cy_gpio.h **** {
 255:Generated_Source\PSoC6\pdl\drivers/peripheral/gpio/cy_gpio.h ****     uint32_t outVal;         /**< Pin output state */
 256:Generated_Source\PSoC6\pdl\drivers/peripheral/gpio/cy_gpio.h ****     uint32_t driveMode;      /**< Drive mode */
 257:Generated_Source\PSoC6\pdl\drivers/peripheral/gpio/cy_gpio.h ****     en_hsiom_sel_t hsiom;    /**< HSIOM selection */
 258:Generated_Source\PSoC6\pdl\drivers/peripheral/gpio/cy_gpio.h ****     uint32_t intEdge;        /**< Interrupt Edge type */
 259:Generated_Source\PSoC6\pdl\drivers/peripheral/gpio/cy_gpio.h ****     uint32_t intMask;        /**< Interrupt enable mask */
 260:Generated_Source\PSoC6\pdl\drivers/peripheral/gpio/cy_gpio.h ****     uint32_t vtrip;          /**< Input buffer voltage trip type */
 261:Generated_Source\PSoC6\pdl\drivers/peripheral/gpio/cy_gpio.h ****     uint32_t slewRate;       /**< Output buffer slew rate */
 262:Generated_Source\PSoC6\pdl\drivers/peripheral/gpio/cy_gpio.h ****     uint32_t driveSel;       /**< Drive strength */
 263:Generated_Source\PSoC6\pdl\drivers/peripheral/gpio/cy_gpio.h ****     uint32_t vregEn;         /**< SIO pair output buffer mode */
ARM GAS  C:\Users\dmr85\AppData\Local\Temp\ccSmIU8b.s 			page 38


 264:Generated_Source\PSoC6\pdl\drivers/peripheral/gpio/cy_gpio.h ****     uint32_t ibufMode;       /**< SIO pair input buffer mode */
 265:Generated_Source\PSoC6\pdl\drivers/peripheral/gpio/cy_gpio.h ****     uint32_t vtripSel;       /**< SIO pair input buffer trip point */
 266:Generated_Source\PSoC6\pdl\drivers/peripheral/gpio/cy_gpio.h ****     uint32_t vrefSel;        /**< SIO pair reference voltage for input buffer trip point */
 267:Generated_Source\PSoC6\pdl\drivers/peripheral/gpio/cy_gpio.h ****     uint32_t vohSel;         /**< SIO pair regulated voltage output level */
 268:Generated_Source\PSoC6\pdl\drivers/peripheral/gpio/cy_gpio.h **** } cy_stc_gpio_pin_config_t;
 269:Generated_Source\PSoC6\pdl\drivers/peripheral/gpio/cy_gpio.h **** 
 270:Generated_Source\PSoC6\pdl\drivers/peripheral/gpio/cy_gpio.h **** /** \} group_gpio_data_structures */
 271:Generated_Source\PSoC6\pdl\drivers/peripheral/gpio/cy_gpio.h **** 
 272:Generated_Source\PSoC6\pdl\drivers/peripheral/gpio/cy_gpio.h **** /***************************************
 273:Generated_Source\PSoC6\pdl\drivers/peripheral/gpio/cy_gpio.h **** *        Constants
 274:Generated_Source\PSoC6\pdl\drivers/peripheral/gpio/cy_gpio.h **** ***************************************/
 275:Generated_Source\PSoC6\pdl\drivers/peripheral/gpio/cy_gpio.h **** 
 276:Generated_Source\PSoC6\pdl\drivers/peripheral/gpio/cy_gpio.h **** /** \cond INTERNAL */
 277:Generated_Source\PSoC6\pdl\drivers/peripheral/gpio/cy_gpio.h **** 
 278:Generated_Source\PSoC6\pdl\drivers/peripheral/gpio/cy_gpio.h **** /* General Constants */
 279:Generated_Source\PSoC6\pdl\drivers/peripheral/gpio/cy_gpio.h **** #define CY_GPIO_PRT_HALF                       (4UL)      /**< Half-way point of a GPIO port */
 280:Generated_Source\PSoC6\pdl\drivers/peripheral/gpio/cy_gpio.h **** #define CY_GPIO_PRT_DEINIT                     (0UL)      /**< De-init value for port registers */
 281:Generated_Source\PSoC6\pdl\drivers/peripheral/gpio/cy_gpio.h **** 
 282:Generated_Source\PSoC6\pdl\drivers/peripheral/gpio/cy_gpio.h **** /* GPIO Masks */
 283:Generated_Source\PSoC6\pdl\drivers/peripheral/gpio/cy_gpio.h **** #define CY_GPIO_HSIOM_MASK                     (0x1FUL)   /**< HSIOM selection mask */
 284:Generated_Source\PSoC6\pdl\drivers/peripheral/gpio/cy_gpio.h **** #define CY_GPIO_OUT_MASK                       (0x01UL)   /**< Single pin mask for OUT register */
 285:Generated_Source\PSoC6\pdl\drivers/peripheral/gpio/cy_gpio.h **** #define CY_GPIO_IN_MASK                        (0x01UL)   /**< Single pin mask for IN register */
 286:Generated_Source\PSoC6\pdl\drivers/peripheral/gpio/cy_gpio.h **** #define CY_GPIO_CFG_DM_MASK                    (0x0FUL)   /**< Single pin mask for drive mode in CF
 287:Generated_Source\PSoC6\pdl\drivers/peripheral/gpio/cy_gpio.h **** #define CY_GPIO_CFG_IN_VTRIP_SEL_MASK          (0x01UL)   /**< Single pin mask for VTRIP selection 
 288:Generated_Source\PSoC6\pdl\drivers/peripheral/gpio/cy_gpio.h **** #define CY_GPIO_CFG_OUT_SLOW_MASK              (0x01UL)   /**< Single pin mask for slew rate in CFG
 289:Generated_Source\PSoC6\pdl\drivers/peripheral/gpio/cy_gpio.h **** #define CY_GPIO_CFG_OUT_DRIVE_SEL_MASK         (0x03UL)   /**< Single pin mask for drive strength i
 290:Generated_Source\PSoC6\pdl\drivers/peripheral/gpio/cy_gpio.h **** #define CY_GPIO_INTR_STATUS_MASK               (0x01UL)   /**< Single pin mask for interrupt status
 291:Generated_Source\PSoC6\pdl\drivers/peripheral/gpio/cy_gpio.h **** #define CY_GPIO_INTR_EN_MASK                   (0x01UL)   /**< Single pin mask for interrupt status
 292:Generated_Source\PSoC6\pdl\drivers/peripheral/gpio/cy_gpio.h **** #define CY_GPIO_INTR_MASKED_MASK               (0x01UL)   /**< Single pin mask for masked interrupt
 293:Generated_Source\PSoC6\pdl\drivers/peripheral/gpio/cy_gpio.h **** #define CY_GPIO_INTR_SET_MASK                  (0x01UL)   /**< Single pin mask for setting the inte
 294:Generated_Source\PSoC6\pdl\drivers/peripheral/gpio/cy_gpio.h **** #define CY_GPIO_INTR_EDGE_MASK                 (0x03UL)   /**< Single pin mask for interrupt edge t
 295:Generated_Source\PSoC6\pdl\drivers/peripheral/gpio/cy_gpio.h **** #define CY_GPIO_INTR_FLT_EDGE_MASK             (0x07UL)   /**< Single pin mask for setting filtered
 296:Generated_Source\PSoC6\pdl\drivers/peripheral/gpio/cy_gpio.h **** 
 297:Generated_Source\PSoC6\pdl\drivers/peripheral/gpio/cy_gpio.h **** /* SIO Masks */
 298:Generated_Source\PSoC6\pdl\drivers/peripheral/gpio/cy_gpio.h **** #define CY_GPIO_VREG_EN_MASK                   (0x01UL)   /**< Single SIO pin mask for voltage regu
 299:Generated_Source\PSoC6\pdl\drivers/peripheral/gpio/cy_gpio.h **** #define CY_GPIO_IBUF_MASK                      (0x01UL)   /**< Single SIO pin mask for input buffer
 300:Generated_Source\PSoC6\pdl\drivers/peripheral/gpio/cy_gpio.h **** #define CY_GPIO_IBUF_SHIFT                     (0x01UL)   /**< Single SIO pin shift for input buffe
 301:Generated_Source\PSoC6\pdl\drivers/peripheral/gpio/cy_gpio.h **** #define CY_GPIO_VTRIP_SEL_MASK                 (0x01UL)   /**< Single SIO pin mask for the input bu
 302:Generated_Source\PSoC6\pdl\drivers/peripheral/gpio/cy_gpio.h **** #define CY_GPIO_VTRIP_SEL_SHIFT                (0x02UL)   /**< Single SIO pin shift for the input b
 303:Generated_Source\PSoC6\pdl\drivers/peripheral/gpio/cy_gpio.h **** #define CY_GPIO_VREF_SEL_MASK                  (0x03UL)   /**< Single SIO pin mask for voltage refe
 304:Generated_Source\PSoC6\pdl\drivers/peripheral/gpio/cy_gpio.h **** #define CY_GPIO_VREF_SEL_SHIFT                 (0x03UL)   /**< Single SIO pin shift for voltage ref
 305:Generated_Source\PSoC6\pdl\drivers/peripheral/gpio/cy_gpio.h **** #define CY_GPIO_VOH_SEL_MASK                   (0x07UL)   /**< Single SIO pin mask for VOH */
 306:Generated_Source\PSoC6\pdl\drivers/peripheral/gpio/cy_gpio.h **** #define CY_GPIO_VOH_SEL_SHIFT                  (0x05UL)   /**< Single SIO pin shift for VOH */
 307:Generated_Source\PSoC6\pdl\drivers/peripheral/gpio/cy_gpio.h **** 
 308:Generated_Source\PSoC6\pdl\drivers/peripheral/gpio/cy_gpio.h **** /* Special mask for SIO pin pair setting */
 309:Generated_Source\PSoC6\pdl\drivers/peripheral/gpio/cy_gpio.h **** #define CY_GPIO_SIO_ODD_PIN_MASK               (0x00FEUL) /**< SIO pin pair selection mask */
 310:Generated_Source\PSoC6\pdl\drivers/peripheral/gpio/cy_gpio.h **** #define CY_GPIO_SIO_PIN_MASK                   (0x00FFUL) /**< SIO pin pair mask */
 311:Generated_Source\PSoC6\pdl\drivers/peripheral/gpio/cy_gpio.h **** 
 312:Generated_Source\PSoC6\pdl\drivers/peripheral/gpio/cy_gpio.h **** /* Offsets */
 313:Generated_Source\PSoC6\pdl\drivers/peripheral/gpio/cy_gpio.h **** #define CY_GPIO_HSIOM_OFFSET                   (3UL)      /**< Offset for HSIOM */
 314:Generated_Source\PSoC6\pdl\drivers/peripheral/gpio/cy_gpio.h **** #define CY_GPIO_DRIVE_MODE_OFFSET              (2UL)      /**< Offset for Drive mode */
 315:Generated_Source\PSoC6\pdl\drivers/peripheral/gpio/cy_gpio.h **** #define CY_GPIO_INBUF_OFFSET                   (3UL)      /**< Offset for input buffer */
 316:Generated_Source\PSoC6\pdl\drivers/peripheral/gpio/cy_gpio.h **** #define CY_GPIO_CFG_OUT_DRIVE_OFFSET           (16UL)     /**< Offset for drive strength */
 317:Generated_Source\PSoC6\pdl\drivers/peripheral/gpio/cy_gpio.h **** #define CY_GPIO_INTR_CFG_OFFSET                (1UL)      /**< Offset for interrupt config */
 318:Generated_Source\PSoC6\pdl\drivers/peripheral/gpio/cy_gpio.h **** #define CY_GPIO_INTR_FILT_OFFSET               (18UL)     /**< Offset for filtered interrupt config
 319:Generated_Source\PSoC6\pdl\drivers/peripheral/gpio/cy_gpio.h **** #define CY_GPIO_CFG_SIO_OFFSET                 (2UL)      /**< Offset for SIO config */
 320:Generated_Source\PSoC6\pdl\drivers/peripheral/gpio/cy_gpio.h **** 
ARM GAS  C:\Users\dmr85\AppData\Local\Temp\ccSmIU8b.s 			page 39


 321:Generated_Source\PSoC6\pdl\drivers/peripheral/gpio/cy_gpio.h **** /* Parameter validation constants */
 322:Generated_Source\PSoC6\pdl\drivers/peripheral/gpio/cy_gpio.h **** #define CY_GPIO_PINS_MAX                       (8UL)      /**< Number of pins in the port */
 323:Generated_Source\PSoC6\pdl\drivers/peripheral/gpio/cy_gpio.h **** #define CY_GPIO_PRT_PINS_MASK                  (0x0000000FFUL)
 324:Generated_Source\PSoC6\pdl\drivers/peripheral/gpio/cy_gpio.h **** #define CY_GPIO_PRT_INTR_CFG_EDGE_SEL_MASK     (GPIO_PRT_INTR_CFG_EDGE0_SEL_Msk | \
 325:Generated_Source\PSoC6\pdl\drivers/peripheral/gpio/cy_gpio.h ****                                                 GPIO_PRT_INTR_CFG_EDGE1_SEL_Msk | \
 326:Generated_Source\PSoC6\pdl\drivers/peripheral/gpio/cy_gpio.h ****                                                 GPIO_PRT_INTR_CFG_EDGE2_SEL_Msk | \
 327:Generated_Source\PSoC6\pdl\drivers/peripheral/gpio/cy_gpio.h ****                                                 GPIO_PRT_INTR_CFG_EDGE3_SEL_Msk | \
 328:Generated_Source\PSoC6\pdl\drivers/peripheral/gpio/cy_gpio.h ****                                                 GPIO_PRT_INTR_CFG_EDGE4_SEL_Msk | \
 329:Generated_Source\PSoC6\pdl\drivers/peripheral/gpio/cy_gpio.h ****                                                 GPIO_PRT_INTR_CFG_EDGE5_SEL_Msk | \
 330:Generated_Source\PSoC6\pdl\drivers/peripheral/gpio/cy_gpio.h ****                                                 GPIO_PRT_INTR_CFG_EDGE6_SEL_Msk | \
 331:Generated_Source\PSoC6\pdl\drivers/peripheral/gpio/cy_gpio.h ****                                                 GPIO_PRT_INTR_CFG_EDGE7_SEL_Msk)
 332:Generated_Source\PSoC6\pdl\drivers/peripheral/gpio/cy_gpio.h **** #define CY_GPIO_PRT_INTR_CFG_RANGE_MASK        (CY_GPIO_PRT_INTR_CFG_EDGE_SEL_MASK | \
 333:Generated_Source\PSoC6\pdl\drivers/peripheral/gpio/cy_gpio.h ****                                                 GPIO_PRT_INTR_CFG_FLT_EDGE_SEL_Msk | \
 334:Generated_Source\PSoC6\pdl\drivers/peripheral/gpio/cy_gpio.h ****                                                 GPIO_PRT_INTR_CFG_FLT_SEL_Msk)
 335:Generated_Source\PSoC6\pdl\drivers/peripheral/gpio/cy_gpio.h **** #define CY_GPIO_PRT_INT_MASK_MASK              (0x0000001FFUL)
 336:Generated_Source\PSoC6\pdl\drivers/peripheral/gpio/cy_gpio.h **** #define CY_GPIO_PRT_SEL_ACTIVE_MASK            (0x1FFFFFFFUL)
 337:Generated_Source\PSoC6\pdl\drivers/peripheral/gpio/cy_gpio.h **** 
 338:Generated_Source\PSoC6\pdl\drivers/peripheral/gpio/cy_gpio.h **** #define GPIO_MAX_SPLIT_CELL_SEGMENTS           (9U)
 339:Generated_Source\PSoC6\pdl\drivers/peripheral/gpio/cy_gpio.h **** 
 340:Generated_Source\PSoC6\pdl\drivers/peripheral/gpio/cy_gpio.h **** /* Parameter validation macros */
 341:Generated_Source\PSoC6\pdl\drivers/peripheral/gpio/cy_gpio.h **** #define CY_GPIO_IS_PIN_VALID(pinNum)           (CY_GPIO_PINS_MAX > (pinNum))
 342:Generated_Source\PSoC6\pdl\drivers/peripheral/gpio/cy_gpio.h **** #define CY_GPIO_IS_FILTER_PIN_VALID(pinNum)    (CY_GPIO_PINS_MAX >= (pinNum))
 343:Generated_Source\PSoC6\pdl\drivers/peripheral/gpio/cy_gpio.h **** #define CY_GPIO_IS_VALUE_VALID(outVal)         (1UL >= (outVal))
 344:Generated_Source\PSoC6\pdl\drivers/peripheral/gpio/cy_gpio.h **** #define CY_GPIO_IS_DM_VALID(driveMode)         (0U == ((driveMode) & (uint32_t)~CY_GPIO_CFG_DM_MASK
 345:Generated_Source\PSoC6\pdl\drivers/peripheral/gpio/cy_gpio.h **** 
 346:Generated_Source\PSoC6\pdl\drivers/peripheral/gpio/cy_gpio.h **** #define CY_GPIO_IS_HSIOM_VALID(hsiom)          (0U == ((hsiom) & (uint32_t)~CY_GPIO_HSIOM_MASK))
 347:Generated_Source\PSoC6\pdl\drivers/peripheral/gpio/cy_gpio.h **** 
 348:Generated_Source\PSoC6\pdl\drivers/peripheral/gpio/cy_gpio.h **** #define CY_GPIO_IS_INT_EDGE_VALID(intEdge)     ((CY_GPIO_INTR_DISABLE  == (intEdge)) || \
 349:Generated_Source\PSoC6\pdl\drivers/peripheral/gpio/cy_gpio.h ****                                                 (CY_GPIO_INTR_RISING   == (intEdge)) || \
 350:Generated_Source\PSoC6\pdl\drivers/peripheral/gpio/cy_gpio.h ****                                                 (CY_GPIO_INTR_FALLING  == (intEdge)) || \
 351:Generated_Source\PSoC6\pdl\drivers/peripheral/gpio/cy_gpio.h ****                                                 (CY_GPIO_INTR_BOTH     == (intEdge)))
 352:Generated_Source\PSoC6\pdl\drivers/peripheral/gpio/cy_gpio.h **** 
 353:Generated_Source\PSoC6\pdl\drivers/peripheral/gpio/cy_gpio.h **** #define CY_GPIO_IS_DRIVE_SEL_VALID(driveSel)   ((CY_GPIO_DRIVE_FULL    == (driveSel)) || \
 354:Generated_Source\PSoC6\pdl\drivers/peripheral/gpio/cy_gpio.h ****                                                 (CY_GPIO_DRIVE_1_2     == (driveSel)) || \
 355:Generated_Source\PSoC6\pdl\drivers/peripheral/gpio/cy_gpio.h ****                                                 (CY_GPIO_DRIVE_1_4     == (driveSel)) || \
 356:Generated_Source\PSoC6\pdl\drivers/peripheral/gpio/cy_gpio.h ****                                                 (CY_GPIO_DRIVE_1_8     == (driveSel)))
 357:Generated_Source\PSoC6\pdl\drivers/peripheral/gpio/cy_gpio.h **** 
 358:Generated_Source\PSoC6\pdl\drivers/peripheral/gpio/cy_gpio.h **** #define CY_GPIO_IS_VREF_SEL_VALID(vrefSel)     ((CY_SIO_VREF_PINREF    == (vrefSel)) || \
 359:Generated_Source\PSoC6\pdl\drivers/peripheral/gpio/cy_gpio.h ****                                                 (CY_SIO_VREF_1_2V      == (vrefSel)) || \
 360:Generated_Source\PSoC6\pdl\drivers/peripheral/gpio/cy_gpio.h ****                                                 (CY_SIO_VREF_AMUX_A    == (vrefSel)) || \
 361:Generated_Source\PSoC6\pdl\drivers/peripheral/gpio/cy_gpio.h ****                                                 (CY_SIO_VREF_AMUX_B    == (vrefSel)))
 362:Generated_Source\PSoC6\pdl\drivers/peripheral/gpio/cy_gpio.h **** 
 363:Generated_Source\PSoC6\pdl\drivers/peripheral/gpio/cy_gpio.h **** #define CY_GPIO_IS_VOH_SEL_VALID(vrefSel)      ((CY_SIO_VOH_1_00       == (vrefSel)) || \
 364:Generated_Source\PSoC6\pdl\drivers/peripheral/gpio/cy_gpio.h ****                                                 (CY_SIO_VOH_1_25       == (vrefSel)) || \
 365:Generated_Source\PSoC6\pdl\drivers/peripheral/gpio/cy_gpio.h ****                                                 (CY_SIO_VOH_1_49       == (vrefSel)) || \
 366:Generated_Source\PSoC6\pdl\drivers/peripheral/gpio/cy_gpio.h ****                                                 (CY_SIO_VOH_1_67       == (vrefSel)) || \
 367:Generated_Source\PSoC6\pdl\drivers/peripheral/gpio/cy_gpio.h ****                                                 (CY_SIO_VOH_2_08       == (vrefSel)) || \
 368:Generated_Source\PSoC6\pdl\drivers/peripheral/gpio/cy_gpio.h ****                                                 (CY_SIO_VOH_2_50       == (vrefSel)) || \
 369:Generated_Source\PSoC6\pdl\drivers/peripheral/gpio/cy_gpio.h ****                                                 (CY_SIO_VOH_2_78       == (vrefSel)) || \
 370:Generated_Source\PSoC6\pdl\drivers/peripheral/gpio/cy_gpio.h ****                                                 (CY_SIO_VOH_4_16       == (vrefSel)))
 371:Generated_Source\PSoC6\pdl\drivers/peripheral/gpio/cy_gpio.h ****                    
 372:Generated_Source\PSoC6\pdl\drivers/peripheral/gpio/cy_gpio.h **** #define CY_GPIO_IS_PIN_BIT_VALID(pinBit)       (0U == ((pinBit) & (uint32_t)~CY_GPIO_PRT_PINS_MASK)
 373:Generated_Source\PSoC6\pdl\drivers/peripheral/gpio/cy_gpio.h **** #define CY_GPIO_IS_INTR_CFG_VALID(intrCfg)     (0U == ((intrCfg) & (uint32_t)~CY_GPIO_PRT_INTR_CFG_
 374:Generated_Source\PSoC6\pdl\drivers/peripheral/gpio/cy_gpio.h **** #define CY_GPIO_IS_INTR_MASK_VALID(intrMask)   (0U == ((intrMask) & (uint32_t)~CY_GPIO_PRT_INT_MASK
 375:Generated_Source\PSoC6\pdl\drivers/peripheral/gpio/cy_gpio.h **** #define CY_GPIO_IS_SEL_ACT_VALID(selActive)    (0U == ((selActive) & (uint32_t)~CY_GPIO_PRT_SEL_ACT
 376:Generated_Source\PSoC6\pdl\drivers/peripheral/gpio/cy_gpio.h **** 
 377:Generated_Source\PSoC6\pdl\drivers/peripheral/gpio/cy_gpio.h **** #define CY_GPIO_IS_AMUX_SPLIT_VALID(switchCtrl)       (((uint32_t) (switchCtrl)) < GPIO_MAX_SPLIT_C
ARM GAS  C:\Users\dmr85\AppData\Local\Temp\ccSmIU8b.s 			page 40


 378:Generated_Source\PSoC6\pdl\drivers/peripheral/gpio/cy_gpio.h **** 
 379:Generated_Source\PSoC6\pdl\drivers/peripheral/gpio/cy_gpio.h **** #define CY_GPIO_IS_AMUX_CONNECT_VALID(amuxConnect)    ((CY_GPIO_AMUX_OPENALL == (amuxConnect)) || \
 380:Generated_Source\PSoC6\pdl\drivers/peripheral/gpio/cy_gpio.h ****                                                        (CY_GPIO_AMUX_L       == (amuxConnect)) || \
 381:Generated_Source\PSoC6\pdl\drivers/peripheral/gpio/cy_gpio.h ****                                                        (CY_GPIO_AMUX_R       == (amuxConnect)) || \
 382:Generated_Source\PSoC6\pdl\drivers/peripheral/gpio/cy_gpio.h ****                                                        (CY_GPIO_AMUX_LR      == (amuxConnect)) || \
 383:Generated_Source\PSoC6\pdl\drivers/peripheral/gpio/cy_gpio.h ****                                                        (CY_GPIO_AMUX_G       == (amuxConnect)) || \
 384:Generated_Source\PSoC6\pdl\drivers/peripheral/gpio/cy_gpio.h ****                                                        (CY_GPIO_AMUX_GL      == (amuxConnect)) || \
 385:Generated_Source\PSoC6\pdl\drivers/peripheral/gpio/cy_gpio.h ****                                                        (CY_GPIO_AMUX_GR      == (amuxConnect)) || \
 386:Generated_Source\PSoC6\pdl\drivers/peripheral/gpio/cy_gpio.h ****                                                        (CY_GPIO_AMUX_GLR     == (amuxConnect)))
 387:Generated_Source\PSoC6\pdl\drivers/peripheral/gpio/cy_gpio.h **** 
 388:Generated_Source\PSoC6\pdl\drivers/peripheral/gpio/cy_gpio.h **** #define CY_GPIO_IS_AMUX_SELECT_VALID(amuxBus)       ((CY_GPIO_AMUXBUSA       == (amuxBus)) || \
 389:Generated_Source\PSoC6\pdl\drivers/peripheral/gpio/cy_gpio.h ****                                                      (CY_GPIO_AMUXBUSB       == (amuxBus)))
 390:Generated_Source\PSoC6\pdl\drivers/peripheral/gpio/cy_gpio.h **** /** \endcond */
 391:Generated_Source\PSoC6\pdl\drivers/peripheral/gpio/cy_gpio.h **** 
 392:Generated_Source\PSoC6\pdl\drivers/peripheral/gpio/cy_gpio.h **** 
 393:Generated_Source\PSoC6\pdl\drivers/peripheral/gpio/cy_gpio.h **** /***************************************
 394:Generated_Source\PSoC6\pdl\drivers/peripheral/gpio/cy_gpio.h **** *        Function Constants
 395:Generated_Source\PSoC6\pdl\drivers/peripheral/gpio/cy_gpio.h **** ***************************************/
 396:Generated_Source\PSoC6\pdl\drivers/peripheral/gpio/cy_gpio.h **** 
 397:Generated_Source\PSoC6\pdl\drivers/peripheral/gpio/cy_gpio.h **** /**
 398:Generated_Source\PSoC6\pdl\drivers/peripheral/gpio/cy_gpio.h **** * \addtogroup group_gpio_macros
 399:Generated_Source\PSoC6\pdl\drivers/peripheral/gpio/cy_gpio.h **** * \{
 400:Generated_Source\PSoC6\pdl\drivers/peripheral/gpio/cy_gpio.h **** */
 401:Generated_Source\PSoC6\pdl\drivers/peripheral/gpio/cy_gpio.h **** 
 402:Generated_Source\PSoC6\pdl\drivers/peripheral/gpio/cy_gpio.h **** /**
 403:Generated_Source\PSoC6\pdl\drivers/peripheral/gpio/cy_gpio.h **** * \defgroup group_gpio_driveModes Pin drive mode
 404:Generated_Source\PSoC6\pdl\drivers/peripheral/gpio/cy_gpio.h **** * \{
 405:Generated_Source\PSoC6\pdl\drivers/peripheral/gpio/cy_gpio.h **** * Constants to be used for setting the drive mode of the pin.
 406:Generated_Source\PSoC6\pdl\drivers/peripheral/gpio/cy_gpio.h **** */
 407:Generated_Source\PSoC6\pdl\drivers/peripheral/gpio/cy_gpio.h **** #define CY_GPIO_DM_ANALOG                      (0x00UL) /**< Analog High-Z. Input buffer off */
 408:Generated_Source\PSoC6\pdl\drivers/peripheral/gpio/cy_gpio.h **** #define CY_GPIO_DM_PULLUP_IN_OFF               (0x02UL) /**< Resistive Pull-Up. Input buffer off */
 409:Generated_Source\PSoC6\pdl\drivers/peripheral/gpio/cy_gpio.h **** #define CY_GPIO_DM_PULLDOWN_IN_OFF             (0x03UL) /**< Resistive Pull-Down. Input buffer off 
 410:Generated_Source\PSoC6\pdl\drivers/peripheral/gpio/cy_gpio.h **** #define CY_GPIO_DM_OD_DRIVESLOW_IN_OFF         (0x04UL) /**< Open Drain, Drives Low. Input buffer o
 411:Generated_Source\PSoC6\pdl\drivers/peripheral/gpio/cy_gpio.h **** #define CY_GPIO_DM_OD_DRIVESHIGH_IN_OFF        (0x05UL) /**< Open Drain, Drives High. Input buffer 
 412:Generated_Source\PSoC6\pdl\drivers/peripheral/gpio/cy_gpio.h **** #define CY_GPIO_DM_STRONG_IN_OFF               (0x06UL) /**< Strong Drive. Input buffer off */
 413:Generated_Source\PSoC6\pdl\drivers/peripheral/gpio/cy_gpio.h **** #define CY_GPIO_DM_PULLUP_DOWN_IN_OFF          (0x07UL) /**< Resistive Pull-Up/Down. Input buffer o
 414:Generated_Source\PSoC6\pdl\drivers/peripheral/gpio/cy_gpio.h **** #define CY_GPIO_DM_HIGHZ                       (0x08UL) /**< Digital High-Z. Input buffer on */
 415:Generated_Source\PSoC6\pdl\drivers/peripheral/gpio/cy_gpio.h **** #define CY_GPIO_DM_PULLUP                      (0x0AUL) /**< Resistive Pull-Up. Input buffer on */
 416:Generated_Source\PSoC6\pdl\drivers/peripheral/gpio/cy_gpio.h **** #define CY_GPIO_DM_PULLDOWN                    (0x0BUL) /**< Resistive Pull-Down. Input buffer on *
 417:Generated_Source\PSoC6\pdl\drivers/peripheral/gpio/cy_gpio.h **** #define CY_GPIO_DM_OD_DRIVESLOW                (0x0CUL) /**< Open Drain, Drives Low. Input buffer o
 418:Generated_Source\PSoC6\pdl\drivers/peripheral/gpio/cy_gpio.h **** #define CY_GPIO_DM_OD_DRIVESHIGH               (0x0DUL) /**< Open Drain, Drives High. Input buffer 
 419:Generated_Source\PSoC6\pdl\drivers/peripheral/gpio/cy_gpio.h **** #define CY_GPIO_DM_STRONG                      (0x0EUL) /**< Strong Drive. Input buffer on */
 420:Generated_Source\PSoC6\pdl\drivers/peripheral/gpio/cy_gpio.h **** #define CY_GPIO_DM_PULLUP_DOWN                 (0x0FUL) /**< Resistive Pull-Up/Down. Input buffer o
 421:Generated_Source\PSoC6\pdl\drivers/peripheral/gpio/cy_gpio.h **** /** \} */
 422:Generated_Source\PSoC6\pdl\drivers/peripheral/gpio/cy_gpio.h **** 
 423:Generated_Source\PSoC6\pdl\drivers/peripheral/gpio/cy_gpio.h **** /**
 424:Generated_Source\PSoC6\pdl\drivers/peripheral/gpio/cy_gpio.h **** * \defgroup group_gpio_vtrip Voltage trip mode
 425:Generated_Source\PSoC6\pdl\drivers/peripheral/gpio/cy_gpio.h **** * \{
 426:Generated_Source\PSoC6\pdl\drivers/peripheral/gpio/cy_gpio.h **** * Constants to be used for setting the voltage trip type on the pin.
 427:Generated_Source\PSoC6\pdl\drivers/peripheral/gpio/cy_gpio.h **** */
 428:Generated_Source\PSoC6\pdl\drivers/peripheral/gpio/cy_gpio.h **** #define CY_GPIO_VTRIP_CMOS                     (0x00UL) /**< Input buffer compatible with CMOS and 
 429:Generated_Source\PSoC6\pdl\drivers/peripheral/gpio/cy_gpio.h **** #define CY_GPIO_VTRIP_TTL                      (0x01UL) /**< Input buffer compatible with TTL and M
 430:Generated_Source\PSoC6\pdl\drivers/peripheral/gpio/cy_gpio.h **** /** \} */
 431:Generated_Source\PSoC6\pdl\drivers/peripheral/gpio/cy_gpio.h **** 
 432:Generated_Source\PSoC6\pdl\drivers/peripheral/gpio/cy_gpio.h **** /**
 433:Generated_Source\PSoC6\pdl\drivers/peripheral/gpio/cy_gpio.h **** * \defgroup group_gpio_slewRate Slew Rate Mode
 434:Generated_Source\PSoC6\pdl\drivers/peripheral/gpio/cy_gpio.h **** * \{
ARM GAS  C:\Users\dmr85\AppData\Local\Temp\ccSmIU8b.s 			page 41


 435:Generated_Source\PSoC6\pdl\drivers/peripheral/gpio/cy_gpio.h **** * Constants to be used for setting the slew rate of the pin.
 436:Generated_Source\PSoC6\pdl\drivers/peripheral/gpio/cy_gpio.h **** */
 437:Generated_Source\PSoC6\pdl\drivers/peripheral/gpio/cy_gpio.h **** #define CY_GPIO_SLEW_FAST                      (0x00UL) /**< Fast slew rate */
 438:Generated_Source\PSoC6\pdl\drivers/peripheral/gpio/cy_gpio.h **** #define CY_GPIO_SLEW_SLOW                      (0x01UL) /**< Slow slew rate */
 439:Generated_Source\PSoC6\pdl\drivers/peripheral/gpio/cy_gpio.h **** /** \} */
 440:Generated_Source\PSoC6\pdl\drivers/peripheral/gpio/cy_gpio.h **** 
 441:Generated_Source\PSoC6\pdl\drivers/peripheral/gpio/cy_gpio.h **** /**
 442:Generated_Source\PSoC6\pdl\drivers/peripheral/gpio/cy_gpio.h **** * \defgroup group_gpio_driveStrength Pin drive strength
 443:Generated_Source\PSoC6\pdl\drivers/peripheral/gpio/cy_gpio.h **** * \{
 444:Generated_Source\PSoC6\pdl\drivers/peripheral/gpio/cy_gpio.h **** * Constants to be used for setting the drive strength of the pin.
 445:Generated_Source\PSoC6\pdl\drivers/peripheral/gpio/cy_gpio.h **** */
 446:Generated_Source\PSoC6\pdl\drivers/peripheral/gpio/cy_gpio.h **** #define CY_GPIO_DRIVE_FULL                     (0x00UL) /**< Full drive strength: Max drive current
 447:Generated_Source\PSoC6\pdl\drivers/peripheral/gpio/cy_gpio.h **** #define CY_GPIO_DRIVE_1_2                      (0x01UL) /**< 1/2 drive strength: 1/2 drive current 
 448:Generated_Source\PSoC6\pdl\drivers/peripheral/gpio/cy_gpio.h **** #define CY_GPIO_DRIVE_1_4                      (0x02UL) /**< 1/4 drive strength: 1/4 drive current 
 449:Generated_Source\PSoC6\pdl\drivers/peripheral/gpio/cy_gpio.h **** #define CY_GPIO_DRIVE_1_8                      (0x03UL) /**< 1/8 drive strength: 1/8 drive current 
 450:Generated_Source\PSoC6\pdl\drivers/peripheral/gpio/cy_gpio.h **** /** \} */
 451:Generated_Source\PSoC6\pdl\drivers/peripheral/gpio/cy_gpio.h **** 
 452:Generated_Source\PSoC6\pdl\drivers/peripheral/gpio/cy_gpio.h **** /**
 453:Generated_Source\PSoC6\pdl\drivers/peripheral/gpio/cy_gpio.h **** * \defgroup group_gpio_interruptTrigger Interrupt trigger type
 454:Generated_Source\PSoC6\pdl\drivers/peripheral/gpio/cy_gpio.h **** * \{
 455:Generated_Source\PSoC6\pdl\drivers/peripheral/gpio/cy_gpio.h **** * Constants to be used for setting the interrupt trigger type on the pin.
 456:Generated_Source\PSoC6\pdl\drivers/peripheral/gpio/cy_gpio.h **** */
 457:Generated_Source\PSoC6\pdl\drivers/peripheral/gpio/cy_gpio.h **** #define CY_GPIO_INTR_DISABLE                   (0x00UL) /**< Disable the pin interrupt generation *
 458:Generated_Source\PSoC6\pdl\drivers/peripheral/gpio/cy_gpio.h **** #define CY_GPIO_INTR_RISING                    (0x01UL) /**< Rising-Edge interrupt */
 459:Generated_Source\PSoC6\pdl\drivers/peripheral/gpio/cy_gpio.h **** #define CY_GPIO_INTR_FALLING                   (0x02UL) /**< Falling-Edge interrupt */
 460:Generated_Source\PSoC6\pdl\drivers/peripheral/gpio/cy_gpio.h **** #define CY_GPIO_INTR_BOTH                      (0x03UL) /**< Both-Edge interrupt */
 461:Generated_Source\PSoC6\pdl\drivers/peripheral/gpio/cy_gpio.h **** /** \} */
 462:Generated_Source\PSoC6\pdl\drivers/peripheral/gpio/cy_gpio.h **** 
 463:Generated_Source\PSoC6\pdl\drivers/peripheral/gpio/cy_gpio.h **** /**
 464:Generated_Source\PSoC6\pdl\drivers/peripheral/gpio/cy_gpio.h **** * \defgroup group_gpio_sioVreg SIO output buffer mode
 465:Generated_Source\PSoC6\pdl\drivers/peripheral/gpio/cy_gpio.h **** * \{
 466:Generated_Source\PSoC6\pdl\drivers/peripheral/gpio/cy_gpio.h **** * Constants to be used for setting the SIO output buffer mode on the pin.
 467:Generated_Source\PSoC6\pdl\drivers/peripheral/gpio/cy_gpio.h **** */
 468:Generated_Source\PSoC6\pdl\drivers/peripheral/gpio/cy_gpio.h **** #define CY_SIO_VREG_UNREGULATED                (0x00UL) /**< Unregulated output buffer */
 469:Generated_Source\PSoC6\pdl\drivers/peripheral/gpio/cy_gpio.h **** #define CY_SIO_VREG_REGULATED                  (0x01UL) /**< Regulated output buffer */
 470:Generated_Source\PSoC6\pdl\drivers/peripheral/gpio/cy_gpio.h **** /** \} */
 471:Generated_Source\PSoC6\pdl\drivers/peripheral/gpio/cy_gpio.h **** 
 472:Generated_Source\PSoC6\pdl\drivers/peripheral/gpio/cy_gpio.h **** /**
 473:Generated_Source\PSoC6\pdl\drivers/peripheral/gpio/cy_gpio.h **** * \defgroup group_gpio_sioIbuf SIO input buffer mode
 474:Generated_Source\PSoC6\pdl\drivers/peripheral/gpio/cy_gpio.h **** * \{
 475:Generated_Source\PSoC6\pdl\drivers/peripheral/gpio/cy_gpio.h **** * Constants to be used for setting the SIO input buffer mode on the pin.
 476:Generated_Source\PSoC6\pdl\drivers/peripheral/gpio/cy_gpio.h **** */
 477:Generated_Source\PSoC6\pdl\drivers/peripheral/gpio/cy_gpio.h **** #define CY_SIO_IBUF_SINGLEENDED                (0x00UL) /**< Single ended input buffer */
 478:Generated_Source\PSoC6\pdl\drivers/peripheral/gpio/cy_gpio.h **** #define CY_SIO_IBUF_DIFFERENTIAL               (0x01UL) /**< Differential input buffer */
 479:Generated_Source\PSoC6\pdl\drivers/peripheral/gpio/cy_gpio.h **** /** \} */
 480:Generated_Source\PSoC6\pdl\drivers/peripheral/gpio/cy_gpio.h **** 
 481:Generated_Source\PSoC6\pdl\drivers/peripheral/gpio/cy_gpio.h **** /**
 482:Generated_Source\PSoC6\pdl\drivers/peripheral/gpio/cy_gpio.h **** * \defgroup group_gpio_sioVtrip SIO input buffer trip-point
 483:Generated_Source\PSoC6\pdl\drivers/peripheral/gpio/cy_gpio.h **** * \{
 484:Generated_Source\PSoC6\pdl\drivers/peripheral/gpio/cy_gpio.h **** * Constants to be used for setting the SIO input buffer trip-point of the pin.
 485:Generated_Source\PSoC6\pdl\drivers/peripheral/gpio/cy_gpio.h **** */
 486:Generated_Source\PSoC6\pdl\drivers/peripheral/gpio/cy_gpio.h **** #define CY_SIO_VTRIP_CMOS                      (0x00UL) /**< CMOS input buffer (single-ended) */
 487:Generated_Source\PSoC6\pdl\drivers/peripheral/gpio/cy_gpio.h **** #define CY_SIO_VTRIP_TTL                       (0x01UL) /**< TTL input buffer (single-ended) */
 488:Generated_Source\PSoC6\pdl\drivers/peripheral/gpio/cy_gpio.h **** #define CY_SIO_VTRIP_0_5VDDIO_0_5VOH           (0x00UL) /**< 0.5xVddio or 0.5xVoh (differential) */
 489:Generated_Source\PSoC6\pdl\drivers/peripheral/gpio/cy_gpio.h **** #define CY_SIO_VTRIP_0_4VDDIO_1_0VREF          (0x01UL) /**< 0.4xVddio or 0.4xVoh (differential) */
 490:Generated_Source\PSoC6\pdl\drivers/peripheral/gpio/cy_gpio.h **** /** \} */
 491:Generated_Source\PSoC6\pdl\drivers/peripheral/gpio/cy_gpio.h **** 
ARM GAS  C:\Users\dmr85\AppData\Local\Temp\ccSmIU8b.s 			page 42


 492:Generated_Source\PSoC6\pdl\drivers/peripheral/gpio/cy_gpio.h **** /**
 493:Generated_Source\PSoC6\pdl\drivers/peripheral/gpio/cy_gpio.h **** * \defgroup group_gpio_sioVref SIO reference voltage for input buffer trip-point
 494:Generated_Source\PSoC6\pdl\drivers/peripheral/gpio/cy_gpio.h **** * \{
 495:Generated_Source\PSoC6\pdl\drivers/peripheral/gpio/cy_gpio.h **** * Constants to be used for setting the reference voltage of SIO input buffer trip-point.
 496:Generated_Source\PSoC6\pdl\drivers/peripheral/gpio/cy_gpio.h **** */
 497:Generated_Source\PSoC6\pdl\drivers/peripheral/gpio/cy_gpio.h **** #define CY_SIO_VREF_PINREF                     (0x00UL) /**< Vref from analog pin */
 498:Generated_Source\PSoC6\pdl\drivers/peripheral/gpio/cy_gpio.h **** #define CY_SIO_VREF_1_2V                       (0x01UL) /**< Vref from internal 1.2V reference */
 499:Generated_Source\PSoC6\pdl\drivers/peripheral/gpio/cy_gpio.h **** #define CY_SIO_VREF_AMUX_A                     (0x02UL) /**< Vref from AMUXBUS_A */
 500:Generated_Source\PSoC6\pdl\drivers/peripheral/gpio/cy_gpio.h **** #define CY_SIO_VREF_AMUX_B                     (0x03UL) /**< Vref from AMUXBUS_B */
 501:Generated_Source\PSoC6\pdl\drivers/peripheral/gpio/cy_gpio.h **** /** \} */
 502:Generated_Source\PSoC6\pdl\drivers/peripheral/gpio/cy_gpio.h **** 
 503:Generated_Source\PSoC6\pdl\drivers/peripheral/gpio/cy_gpio.h **** /**
 504:Generated_Source\PSoC6\pdl\drivers/peripheral/gpio/cy_gpio.h **** * \defgroup group_gpio_sioVoh Regulated output voltage level (Voh) and input buffer trip-point of a
 505:Generated_Source\PSoC6\pdl\drivers/peripheral/gpio/cy_gpio.h **** * \{
 506:Generated_Source\PSoC6\pdl\drivers/peripheral/gpio/cy_gpio.h **** * Constants to be used for setting the Voh and input buffer trip-point of an SIO pair
 507:Generated_Source\PSoC6\pdl\drivers/peripheral/gpio/cy_gpio.h **** */
 508:Generated_Source\PSoC6\pdl\drivers/peripheral/gpio/cy_gpio.h **** #define CY_SIO_VOH_1_00                        (0x00UL) /**< Voh = 1 x Reference */
 509:Generated_Source\PSoC6\pdl\drivers/peripheral/gpio/cy_gpio.h **** #define CY_SIO_VOH_1_25                        (0x01UL) /**< Voh = 1.25 x Reference */
 510:Generated_Source\PSoC6\pdl\drivers/peripheral/gpio/cy_gpio.h **** #define CY_SIO_VOH_1_49                        (0x02UL) /**< Voh = 1.49 x Reference */
 511:Generated_Source\PSoC6\pdl\drivers/peripheral/gpio/cy_gpio.h **** #define CY_SIO_VOH_1_67                        (0x03UL) /**< Voh = 1.67 x Reference */
 512:Generated_Source\PSoC6\pdl\drivers/peripheral/gpio/cy_gpio.h **** #define CY_SIO_VOH_2_08                        (0x04UL) /**< Voh = 2.08 x Reference */
 513:Generated_Source\PSoC6\pdl\drivers/peripheral/gpio/cy_gpio.h **** #define CY_SIO_VOH_2_50                        (0x05UL) /**< Voh = 2.50 x Reference */
 514:Generated_Source\PSoC6\pdl\drivers/peripheral/gpio/cy_gpio.h **** #define CY_SIO_VOH_2_78                        (0x06UL) /**< Voh = 2.78 x Reference */
 515:Generated_Source\PSoC6\pdl\drivers/peripheral/gpio/cy_gpio.h **** #define CY_SIO_VOH_4_16                        (0x07UL) /**< Voh = 4.16 x Reference */
 516:Generated_Source\PSoC6\pdl\drivers/peripheral/gpio/cy_gpio.h **** /** \} */
 517:Generated_Source\PSoC6\pdl\drivers/peripheral/gpio/cy_gpio.h **** 
 518:Generated_Source\PSoC6\pdl\drivers/peripheral/gpio/cy_gpio.h **** /** \} group_gpio_macros */
 519:Generated_Source\PSoC6\pdl\drivers/peripheral/gpio/cy_gpio.h **** 
 520:Generated_Source\PSoC6\pdl\drivers/peripheral/gpio/cy_gpio.h **** /***************************************
 521:Generated_Source\PSoC6\pdl\drivers/peripheral/gpio/cy_gpio.h **** *        Function Prototypes
 522:Generated_Source\PSoC6\pdl\drivers/peripheral/gpio/cy_gpio.h **** ***************************************/
 523:Generated_Source\PSoC6\pdl\drivers/peripheral/gpio/cy_gpio.h **** 
 524:Generated_Source\PSoC6\pdl\drivers/peripheral/gpio/cy_gpio.h **** /**
 525:Generated_Source\PSoC6\pdl\drivers/peripheral/gpio/cy_gpio.h **** * \addtogroup group_gpio_functions
 526:Generated_Source\PSoC6\pdl\drivers/peripheral/gpio/cy_gpio.h **** * \{
 527:Generated_Source\PSoC6\pdl\drivers/peripheral/gpio/cy_gpio.h **** */
 528:Generated_Source\PSoC6\pdl\drivers/peripheral/gpio/cy_gpio.h **** 
 529:Generated_Source\PSoC6\pdl\drivers/peripheral/gpio/cy_gpio.h **** /**
 530:Generated_Source\PSoC6\pdl\drivers/peripheral/gpio/cy_gpio.h **** * \addtogroup group_gpio_functions_init
 531:Generated_Source\PSoC6\pdl\drivers/peripheral/gpio/cy_gpio.h **** * \{
 532:Generated_Source\PSoC6\pdl\drivers/peripheral/gpio/cy_gpio.h **** */
 533:Generated_Source\PSoC6\pdl\drivers/peripheral/gpio/cy_gpio.h **** 
 534:Generated_Source\PSoC6\pdl\drivers/peripheral/gpio/cy_gpio.h **** cy_en_gpio_status_t Cy_GPIO_Pin_Init(GPIO_PRT_Type* base, uint32_t pinNum, const cy_stc_gpio_pin_co
 535:Generated_Source\PSoC6\pdl\drivers/peripheral/gpio/cy_gpio.h **** cy_en_gpio_status_t Cy_GPIO_Port_Init(GPIO_PRT_Type* base, const cy_stc_gpio_prt_config_t *config);
 536:Generated_Source\PSoC6\pdl\drivers/peripheral/gpio/cy_gpio.h **** void Cy_GPIO_Pin_FastInit(GPIO_PRT_Type* base, uint32_t pinNum, uint32_t driveMode, uint32_t outVal
 537:Generated_Source\PSoC6\pdl\drivers/peripheral/gpio/cy_gpio.h **** void Cy_GPIO_Port_Deinit(GPIO_PRT_Type* base);
 538:Generated_Source\PSoC6\pdl\drivers/peripheral/gpio/cy_gpio.h **** __STATIC_INLINE void Cy_GPIO_SetHSIOM(GPIO_PRT_Type* base, uint32_t pinNum, en_hsiom_sel_t value);
 539:Generated_Source\PSoC6\pdl\drivers/peripheral/gpio/cy_gpio.h **** __STATIC_INLINE en_hsiom_sel_t Cy_GPIO_GetHSIOM(GPIO_PRT_Type* base, uint32_t pinNum);
 540:Generated_Source\PSoC6\pdl\drivers/peripheral/gpio/cy_gpio.h **** __STATIC_INLINE GPIO_PRT_Type* Cy_GPIO_PortToAddr(uint32_t portNum);
 541:Generated_Source\PSoC6\pdl\drivers/peripheral/gpio/cy_gpio.h **** 
 542:Generated_Source\PSoC6\pdl\drivers/peripheral/gpio/cy_gpio.h **** /** \} group_gpio_functions_init */
 543:Generated_Source\PSoC6\pdl\drivers/peripheral/gpio/cy_gpio.h **** 
 544:Generated_Source\PSoC6\pdl\drivers/peripheral/gpio/cy_gpio.h **** /**
 545:Generated_Source\PSoC6\pdl\drivers/peripheral/gpio/cy_gpio.h **** * \addtogroup group_gpio_functions_gpio
 546:Generated_Source\PSoC6\pdl\drivers/peripheral/gpio/cy_gpio.h **** * \{
 547:Generated_Source\PSoC6\pdl\drivers/peripheral/gpio/cy_gpio.h **** */
 548:Generated_Source\PSoC6\pdl\drivers/peripheral/gpio/cy_gpio.h **** 
ARM GAS  C:\Users\dmr85\AppData\Local\Temp\ccSmIU8b.s 			page 43


 549:Generated_Source\PSoC6\pdl\drivers/peripheral/gpio/cy_gpio.h **** void Cy_GPIO_SetAmuxSplit(cy_en_amux_split_t switchCtrl, cy_en_gpio_amuxconnect_t amuxConnect, cy_e
 550:Generated_Source\PSoC6\pdl\drivers/peripheral/gpio/cy_gpio.h **** cy_en_gpio_amuxconnect_t Cy_GPIO_GetAmuxSplit(cy_en_amux_split_t switchCtrl, cy_en_gpio_amuxselect_
 551:Generated_Source\PSoC6\pdl\drivers/peripheral/gpio/cy_gpio.h **** 
 552:Generated_Source\PSoC6\pdl\drivers/peripheral/gpio/cy_gpio.h **** __STATIC_INLINE uint32_t Cy_GPIO_Read(GPIO_PRT_Type* base, uint32_t pinNum);
 553:Generated_Source\PSoC6\pdl\drivers/peripheral/gpio/cy_gpio.h **** __STATIC_INLINE void Cy_GPIO_Write(GPIO_PRT_Type* base, uint32_t pinNum, uint32_t value);
 554:Generated_Source\PSoC6\pdl\drivers/peripheral/gpio/cy_gpio.h **** __STATIC_INLINE uint32_t Cy_GPIO_ReadOut(GPIO_PRT_Type* base, uint32_t pinNum);
 555:Generated_Source\PSoC6\pdl\drivers/peripheral/gpio/cy_gpio.h **** __STATIC_INLINE void Cy_GPIO_Set(GPIO_PRT_Type* base, uint32_t pinNum);
 556:Generated_Source\PSoC6\pdl\drivers/peripheral/gpio/cy_gpio.h **** __STATIC_INLINE void Cy_GPIO_Clr(GPIO_PRT_Type* base, uint32_t pinNum);
 557:Generated_Source\PSoC6\pdl\drivers/peripheral/gpio/cy_gpio.h **** __STATIC_INLINE void Cy_GPIO_Inv(GPIO_PRT_Type* base, uint32_t pinNum);
 558:Generated_Source\PSoC6\pdl\drivers/peripheral/gpio/cy_gpio.h **** __STATIC_INLINE void Cy_GPIO_SetDrivemode(GPIO_PRT_Type* base, uint32_t pinNum, uint32_t value);
 559:Generated_Source\PSoC6\pdl\drivers/peripheral/gpio/cy_gpio.h **** __STATIC_INLINE uint32_t Cy_GPIO_GetDrivemode(GPIO_PRT_Type* base, uint32_t pinNum);
 560:Generated_Source\PSoC6\pdl\drivers/peripheral/gpio/cy_gpio.h **** __STATIC_INLINE void Cy_GPIO_SetVtrip(GPIO_PRT_Type* base, uint32_t pinNum, uint32_t value);
 561:Generated_Source\PSoC6\pdl\drivers/peripheral/gpio/cy_gpio.h **** __STATIC_INLINE uint32_t Cy_GPIO_GetVtrip(GPIO_PRT_Type* base, uint32_t pinNum);
 562:Generated_Source\PSoC6\pdl\drivers/peripheral/gpio/cy_gpio.h **** __STATIC_INLINE void Cy_GPIO_SetSlewRate(GPIO_PRT_Type* base, uint32_t pinNum, uint32_t value);
 563:Generated_Source\PSoC6\pdl\drivers/peripheral/gpio/cy_gpio.h **** __STATIC_INLINE uint32_t Cy_GPIO_GetSlewRate(GPIO_PRT_Type* base, uint32_t pinNum);
 564:Generated_Source\PSoC6\pdl\drivers/peripheral/gpio/cy_gpio.h **** __STATIC_INLINE void Cy_GPIO_SetDriveSel(GPIO_PRT_Type* base, uint32_t pinNum, uint32_t value);
 565:Generated_Source\PSoC6\pdl\drivers/peripheral/gpio/cy_gpio.h **** __STATIC_INLINE uint32_t Cy_GPIO_GetDriveSel(GPIO_PRT_Type* base, uint32_t pinNum);
 566:Generated_Source\PSoC6\pdl\drivers/peripheral/gpio/cy_gpio.h **** 
 567:Generated_Source\PSoC6\pdl\drivers/peripheral/gpio/cy_gpio.h **** /** \} group_gpio_functions_gpio */
 568:Generated_Source\PSoC6\pdl\drivers/peripheral/gpio/cy_gpio.h **** 
 569:Generated_Source\PSoC6\pdl\drivers/peripheral/gpio/cy_gpio.h **** /**
 570:Generated_Source\PSoC6\pdl\drivers/peripheral/gpio/cy_gpio.h **** * \addtogroup group_gpio_functions_sio
 571:Generated_Source\PSoC6\pdl\drivers/peripheral/gpio/cy_gpio.h **** * \{
 572:Generated_Source\PSoC6\pdl\drivers/peripheral/gpio/cy_gpio.h **** */
 573:Generated_Source\PSoC6\pdl\drivers/peripheral/gpio/cy_gpio.h **** 
 574:Generated_Source\PSoC6\pdl\drivers/peripheral/gpio/cy_gpio.h **** __STATIC_INLINE void Cy_GPIO_SetVregEn(GPIO_PRT_Type* base, uint32_t pinNum, uint32_t value);
 575:Generated_Source\PSoC6\pdl\drivers/peripheral/gpio/cy_gpio.h **** __STATIC_INLINE uint32_t Cy_GPIO_GetVregEn(GPIO_PRT_Type* base, uint32_t pinNum);
 576:Generated_Source\PSoC6\pdl\drivers/peripheral/gpio/cy_gpio.h **** __STATIC_INLINE void Cy_GPIO_SetIbufMode(GPIO_PRT_Type* base, uint32_t pinNum, uint32_t value);
 577:Generated_Source\PSoC6\pdl\drivers/peripheral/gpio/cy_gpio.h **** __STATIC_INLINE uint32_t Cy_GPIO_GetIbufMode(GPIO_PRT_Type* base, uint32_t pinNum);
 578:Generated_Source\PSoC6\pdl\drivers/peripheral/gpio/cy_gpio.h **** __STATIC_INLINE void Cy_GPIO_SetVtripSel(GPIO_PRT_Type* base, uint32_t pinNum, uint32_t value);
 579:Generated_Source\PSoC6\pdl\drivers/peripheral/gpio/cy_gpio.h **** __STATIC_INLINE uint32_t Cy_GPIO_GetVtripSel(GPIO_PRT_Type* base, uint32_t pinNum);
 580:Generated_Source\PSoC6\pdl\drivers/peripheral/gpio/cy_gpio.h **** __STATIC_INLINE void Cy_GPIO_SetVrefSel(GPIO_PRT_Type* base, uint32_t pinNum, uint32_t value);
 581:Generated_Source\PSoC6\pdl\drivers/peripheral/gpio/cy_gpio.h **** __STATIC_INLINE uint32_t Cy_GPIO_GetVrefSel(GPIO_PRT_Type* base, uint32_t pinNum);
 582:Generated_Source\PSoC6\pdl\drivers/peripheral/gpio/cy_gpio.h **** __STATIC_INLINE void Cy_GPIO_SetVohSel(GPIO_PRT_Type* base, uint32_t pinNum, uint32_t value);
 583:Generated_Source\PSoC6\pdl\drivers/peripheral/gpio/cy_gpio.h **** __STATIC_INLINE uint32_t Cy_GPIO_GetVohSel(GPIO_PRT_Type* base, uint32_t pinNum);
 584:Generated_Source\PSoC6\pdl\drivers/peripheral/gpio/cy_gpio.h **** 
 585:Generated_Source\PSoC6\pdl\drivers/peripheral/gpio/cy_gpio.h **** /** \} group_gpio_functions_sio */
 586:Generated_Source\PSoC6\pdl\drivers/peripheral/gpio/cy_gpio.h **** 
 587:Generated_Source\PSoC6\pdl\drivers/peripheral/gpio/cy_gpio.h **** /**
 588:Generated_Source\PSoC6\pdl\drivers/peripheral/gpio/cy_gpio.h **** * \addtogroup group_gpio_functions_interrupt
 589:Generated_Source\PSoC6\pdl\drivers/peripheral/gpio/cy_gpio.h **** * \{
 590:Generated_Source\PSoC6\pdl\drivers/peripheral/gpio/cy_gpio.h **** */
 591:Generated_Source\PSoC6\pdl\drivers/peripheral/gpio/cy_gpio.h **** 
 592:Generated_Source\PSoC6\pdl\drivers/peripheral/gpio/cy_gpio.h **** __STATIC_INLINE uint32_t Cy_GPIO_GetInterruptStatus(GPIO_PRT_Type* base, uint32_t pinNum);
 593:Generated_Source\PSoC6\pdl\drivers/peripheral/gpio/cy_gpio.h **** __STATIC_INLINE void Cy_GPIO_ClearInterrupt(GPIO_PRT_Type* base, uint32_t pinNum);
 594:Generated_Source\PSoC6\pdl\drivers/peripheral/gpio/cy_gpio.h **** __STATIC_INLINE void Cy_GPIO_SetInterruptMask(GPIO_PRT_Type* base, uint32_t pinNum, uint32_t value)
 595:Generated_Source\PSoC6\pdl\drivers/peripheral/gpio/cy_gpio.h **** __STATIC_INLINE uint32_t Cy_GPIO_GetInterruptMask(GPIO_PRT_Type* base, uint32_t pinNum);
 596:Generated_Source\PSoC6\pdl\drivers/peripheral/gpio/cy_gpio.h **** __STATIC_INLINE uint32_t Cy_GPIO_GetInterruptStatusMasked(GPIO_PRT_Type* base, uint32_t pinNum);
 597:Generated_Source\PSoC6\pdl\drivers/peripheral/gpio/cy_gpio.h **** __STATIC_INLINE void Cy_GPIO_SetSwInterrupt(GPIO_PRT_Type* base, uint32_t pinNum);
 598:Generated_Source\PSoC6\pdl\drivers/peripheral/gpio/cy_gpio.h **** __STATIC_INLINE void Cy_GPIO_SetInterruptEdge(GPIO_PRT_Type* base, uint32_t pinNum, uint32_t value)
 599:Generated_Source\PSoC6\pdl\drivers/peripheral/gpio/cy_gpio.h **** __STATIC_INLINE uint32_t Cy_GPIO_GetInterruptEdge(GPIO_PRT_Type* base, uint32_t pinNum);
 600:Generated_Source\PSoC6\pdl\drivers/peripheral/gpio/cy_gpio.h **** __STATIC_INLINE void Cy_GPIO_SetFilter(GPIO_PRT_Type* base, uint32_t value);
 601:Generated_Source\PSoC6\pdl\drivers/peripheral/gpio/cy_gpio.h **** __STATIC_INLINE uint32_t Cy_GPIO_GetFilter(GPIO_PRT_Type* base);
 602:Generated_Source\PSoC6\pdl\drivers/peripheral/gpio/cy_gpio.h **** 
 603:Generated_Source\PSoC6\pdl\drivers/peripheral/gpio/cy_gpio.h **** __STATIC_INLINE uint32_t Cy_GPIO_GetInterruptCause0(void);
 604:Generated_Source\PSoC6\pdl\drivers/peripheral/gpio/cy_gpio.h **** __STATIC_INLINE uint32_t Cy_GPIO_GetInterruptCause1(void);
 605:Generated_Source\PSoC6\pdl\drivers/peripheral/gpio/cy_gpio.h **** __STATIC_INLINE uint32_t Cy_GPIO_GetInterruptCause2(void);
ARM GAS  C:\Users\dmr85\AppData\Local\Temp\ccSmIU8b.s 			page 44


 606:Generated_Source\PSoC6\pdl\drivers/peripheral/gpio/cy_gpio.h **** __STATIC_INLINE uint32_t Cy_GPIO_GetInterruptCause3(void);
 607:Generated_Source\PSoC6\pdl\drivers/peripheral/gpio/cy_gpio.h **** 
 608:Generated_Source\PSoC6\pdl\drivers/peripheral/gpio/cy_gpio.h **** /** \} group_gpio_functions_interrupt */
 609:Generated_Source\PSoC6\pdl\drivers/peripheral/gpio/cy_gpio.h **** 
 610:Generated_Source\PSoC6\pdl\drivers/peripheral/gpio/cy_gpio.h **** 
 611:Generated_Source\PSoC6\pdl\drivers/peripheral/gpio/cy_gpio.h **** /**
 612:Generated_Source\PSoC6\pdl\drivers/peripheral/gpio/cy_gpio.h **** * \addtogroup group_gpio_functions_init
 613:Generated_Source\PSoC6\pdl\drivers/peripheral/gpio/cy_gpio.h **** * \{
 614:Generated_Source\PSoC6\pdl\drivers/peripheral/gpio/cy_gpio.h **** */
 615:Generated_Source\PSoC6\pdl\drivers/peripheral/gpio/cy_gpio.h **** 
 616:Generated_Source\PSoC6\pdl\drivers/peripheral/gpio/cy_gpio.h **** /*******************************************************************************
 617:Generated_Source\PSoC6\pdl\drivers/peripheral/gpio/cy_gpio.h **** * Function Name: Cy_GPIO_SetHSIOM
 618:Generated_Source\PSoC6\pdl\drivers/peripheral/gpio/cy_gpio.h **** ****************************************************************************//**
 619:Generated_Source\PSoC6\pdl\drivers/peripheral/gpio/cy_gpio.h **** *
 620:Generated_Source\PSoC6\pdl\drivers/peripheral/gpio/cy_gpio.h **** * Configures the HSIOM connection to the pin.
 621:Generated_Source\PSoC6\pdl\drivers/peripheral/gpio/cy_gpio.h **** *
 622:Generated_Source\PSoC6\pdl\drivers/peripheral/gpio/cy_gpio.h **** * Connects the specified High-Speed Input Output Multiplexer (HSIOM) selection
 623:Generated_Source\PSoC6\pdl\drivers/peripheral/gpio/cy_gpio.h **** * to the pin.
 624:Generated_Source\PSoC6\pdl\drivers/peripheral/gpio/cy_gpio.h **** *
 625:Generated_Source\PSoC6\pdl\drivers/peripheral/gpio/cy_gpio.h **** * \param base
 626:Generated_Source\PSoC6\pdl\drivers/peripheral/gpio/cy_gpio.h **** * Pointer to the pin's port register base address
 627:Generated_Source\PSoC6\pdl\drivers/peripheral/gpio/cy_gpio.h **** *
 628:Generated_Source\PSoC6\pdl\drivers/peripheral/gpio/cy_gpio.h **** * \param pinNum
 629:Generated_Source\PSoC6\pdl\drivers/peripheral/gpio/cy_gpio.h **** * Position of the pin bit-field within the port register
 630:Generated_Source\PSoC6\pdl\drivers/peripheral/gpio/cy_gpio.h **** *
 631:Generated_Source\PSoC6\pdl\drivers/peripheral/gpio/cy_gpio.h **** * \param value
 632:Generated_Source\PSoC6\pdl\drivers/peripheral/gpio/cy_gpio.h **** * HSIOM input selection
 633:Generated_Source\PSoC6\pdl\drivers/peripheral/gpio/cy_gpio.h **** *
 634:Generated_Source\PSoC6\pdl\drivers/peripheral/gpio/cy_gpio.h **** * \note 
 635:Generated_Source\PSoC6\pdl\drivers/peripheral/gpio/cy_gpio.h **** * This function modifies a port register in a read-modify-write operation. It is
 636:Generated_Source\PSoC6\pdl\drivers/peripheral/gpio/cy_gpio.h **** * not thread safe as the resource is shared among multiple pins on a port.
 637:Generated_Source\PSoC6\pdl\drivers/peripheral/gpio/cy_gpio.h **** *
 638:Generated_Source\PSoC6\pdl\drivers/peripheral/gpio/cy_gpio.h **** * \funcusage
 639:Generated_Source\PSoC6\pdl\drivers/peripheral/gpio/cy_gpio.h **** * \snippet gpio/gpio_v1_10_sut_01.cydsn/main_cm4.c snippet_Cy_GPIO_SetHSIOM
 640:Generated_Source\PSoC6\pdl\drivers/peripheral/gpio/cy_gpio.h **** *
 641:Generated_Source\PSoC6\pdl\drivers/peripheral/gpio/cy_gpio.h **** *******************************************************************************/
 642:Generated_Source\PSoC6\pdl\drivers/peripheral/gpio/cy_gpio.h **** __STATIC_INLINE void Cy_GPIO_SetHSIOM(GPIO_PRT_Type* base, uint32_t pinNum, en_hsiom_sel_t value)
 643:Generated_Source\PSoC6\pdl\drivers/peripheral/gpio/cy_gpio.h **** {
 644:Generated_Source\PSoC6\pdl\drivers/peripheral/gpio/cy_gpio.h ****     uint32_t portNum;
 645:Generated_Source\PSoC6\pdl\drivers/peripheral/gpio/cy_gpio.h ****     uint32_t tempReg;
 646:Generated_Source\PSoC6\pdl\drivers/peripheral/gpio/cy_gpio.h ****     HSIOM_PRT_V1_Type* portAddrHSIOM;
 647:Generated_Source\PSoC6\pdl\drivers/peripheral/gpio/cy_gpio.h **** 
 648:Generated_Source\PSoC6\pdl\drivers/peripheral/gpio/cy_gpio.h ****     CY_ASSERT_L2(CY_GPIO_IS_PIN_VALID(pinNum));
 649:Generated_Source\PSoC6\pdl\drivers/peripheral/gpio/cy_gpio.h ****     CY_ASSERT_L2(CY_GPIO_IS_HSIOM_VALID(value));
 650:Generated_Source\PSoC6\pdl\drivers/peripheral/gpio/cy_gpio.h **** 
 651:Generated_Source\PSoC6\pdl\drivers/peripheral/gpio/cy_gpio.h ****     portNum = ((uint32_t)(base) - CY_GPIO_BASE) / GPIO_PRT_SECTION_SIZE;
 652:Generated_Source\PSoC6\pdl\drivers/peripheral/gpio/cy_gpio.h ****     portAddrHSIOM = (HSIOM_PRT_V1_Type*)(CY_HSIOM_BASE + (HSIOM_PRT_SECTION_SIZE * portNum));
 653:Generated_Source\PSoC6\pdl\drivers/peripheral/gpio/cy_gpio.h **** 
 654:Generated_Source\PSoC6\pdl\drivers/peripheral/gpio/cy_gpio.h ****     if(pinNum < CY_GPIO_PRT_HALF)
 655:Generated_Source\PSoC6\pdl\drivers/peripheral/gpio/cy_gpio.h ****     {
 656:Generated_Source\PSoC6\pdl\drivers/peripheral/gpio/cy_gpio.h ****         tempReg = HSIOM_PRT_PORT_SEL0(portAddrHSIOM) & ~(CY_GPIO_HSIOM_MASK << (pinNum << CY_GPIO_H
 657:Generated_Source\PSoC6\pdl\drivers/peripheral/gpio/cy_gpio.h ****         HSIOM_PRT_PORT_SEL0(portAddrHSIOM) = tempReg | ((value & CY_GPIO_HSIOM_MASK) << (pinNum << 
 658:Generated_Source\PSoC6\pdl\drivers/peripheral/gpio/cy_gpio.h ****     }
 659:Generated_Source\PSoC6\pdl\drivers/peripheral/gpio/cy_gpio.h ****     else
 660:Generated_Source\PSoC6\pdl\drivers/peripheral/gpio/cy_gpio.h ****     {
 661:Generated_Source\PSoC6\pdl\drivers/peripheral/gpio/cy_gpio.h ****         pinNum -= CY_GPIO_PRT_HALF;
 662:Generated_Source\PSoC6\pdl\drivers/peripheral/gpio/cy_gpio.h ****         tempReg = HSIOM_PRT_PORT_SEL1(portAddrHSIOM) & ~(CY_GPIO_HSIOM_MASK << (pinNum << CY_GPIO_H
ARM GAS  C:\Users\dmr85\AppData\Local\Temp\ccSmIU8b.s 			page 45


 663:Generated_Source\PSoC6\pdl\drivers/peripheral/gpio/cy_gpio.h ****         HSIOM_PRT_PORT_SEL1(portAddrHSIOM) = tempReg | ((value & CY_GPIO_HSIOM_MASK) << (pinNum << 
 664:Generated_Source\PSoC6\pdl\drivers/peripheral/gpio/cy_gpio.h ****     }
 665:Generated_Source\PSoC6\pdl\drivers/peripheral/gpio/cy_gpio.h **** }
 666:Generated_Source\PSoC6\pdl\drivers/peripheral/gpio/cy_gpio.h **** 
 667:Generated_Source\PSoC6\pdl\drivers/peripheral/gpio/cy_gpio.h **** 
 668:Generated_Source\PSoC6\pdl\drivers/peripheral/gpio/cy_gpio.h **** /*******************************************************************************
 669:Generated_Source\PSoC6\pdl\drivers/peripheral/gpio/cy_gpio.h **** * Function Name: Cy_GPIO_GetHSIOM
 670:Generated_Source\PSoC6\pdl\drivers/peripheral/gpio/cy_gpio.h **** ****************************************************************************//**
 671:Generated_Source\PSoC6\pdl\drivers/peripheral/gpio/cy_gpio.h **** *
 672:Generated_Source\PSoC6\pdl\drivers/peripheral/gpio/cy_gpio.h **** * Returns the current HSIOM multiplexer connection to the pin.
 673:Generated_Source\PSoC6\pdl\drivers/peripheral/gpio/cy_gpio.h **** *
 674:Generated_Source\PSoC6\pdl\drivers/peripheral/gpio/cy_gpio.h **** * \param base
 675:Generated_Source\PSoC6\pdl\drivers/peripheral/gpio/cy_gpio.h **** * Pointer to the pin's port register base address
 676:Generated_Source\PSoC6\pdl\drivers/peripheral/gpio/cy_gpio.h **** *
 677:Generated_Source\PSoC6\pdl\drivers/peripheral/gpio/cy_gpio.h **** * \param pinNum
 678:Generated_Source\PSoC6\pdl\drivers/peripheral/gpio/cy_gpio.h **** * Position of the pin bit-field within the port register
 679:Generated_Source\PSoC6\pdl\drivers/peripheral/gpio/cy_gpio.h **** *
 680:Generated_Source\PSoC6\pdl\drivers/peripheral/gpio/cy_gpio.h **** * \return
 681:Generated_Source\PSoC6\pdl\drivers/peripheral/gpio/cy_gpio.h **** * HSIOM input selection
 682:Generated_Source\PSoC6\pdl\drivers/peripheral/gpio/cy_gpio.h **** *
 683:Generated_Source\PSoC6\pdl\drivers/peripheral/gpio/cy_gpio.h **** * \funcusage
 684:Generated_Source\PSoC6\pdl\drivers/peripheral/gpio/cy_gpio.h **** * \snippet gpio/gpio_v1_10_sut_01.cydsn/main_cm4.c snippet_Cy_GPIO_SetHSIOM
 685:Generated_Source\PSoC6\pdl\drivers/peripheral/gpio/cy_gpio.h **** *
 686:Generated_Source\PSoC6\pdl\drivers/peripheral/gpio/cy_gpio.h **** *******************************************************************************/
 687:Generated_Source\PSoC6\pdl\drivers/peripheral/gpio/cy_gpio.h **** __STATIC_INLINE en_hsiom_sel_t Cy_GPIO_GetHSIOM(GPIO_PRT_Type* base, uint32_t pinNum)
 688:Generated_Source\PSoC6\pdl\drivers/peripheral/gpio/cy_gpio.h **** {
 689:Generated_Source\PSoC6\pdl\drivers/peripheral/gpio/cy_gpio.h ****     uint32_t returnValue;
 690:Generated_Source\PSoC6\pdl\drivers/peripheral/gpio/cy_gpio.h ****     uint32_t portNum;
 691:Generated_Source\PSoC6\pdl\drivers/peripheral/gpio/cy_gpio.h ****     HSIOM_PRT_V1_Type* portAddrHSIOM;
 692:Generated_Source\PSoC6\pdl\drivers/peripheral/gpio/cy_gpio.h ****     
 693:Generated_Source\PSoC6\pdl\drivers/peripheral/gpio/cy_gpio.h ****     CY_ASSERT_L2(CY_GPIO_IS_PIN_VALID(pinNum));
 694:Generated_Source\PSoC6\pdl\drivers/peripheral/gpio/cy_gpio.h **** 
 695:Generated_Source\PSoC6\pdl\drivers/peripheral/gpio/cy_gpio.h ****     portNum = ((uint32_t)(base) - CY_GPIO_BASE) / GPIO_PRT_SECTION_SIZE;
 696:Generated_Source\PSoC6\pdl\drivers/peripheral/gpio/cy_gpio.h ****     portAddrHSIOM = (HSIOM_PRT_V1_Type*)(CY_HSIOM_BASE + (HSIOM_PRT_SECTION_SIZE * portNum));
 697:Generated_Source\PSoC6\pdl\drivers/peripheral/gpio/cy_gpio.h **** 
 698:Generated_Source\PSoC6\pdl\drivers/peripheral/gpio/cy_gpio.h ****     if(pinNum < CY_GPIO_PRT_HALF)
 699:Generated_Source\PSoC6\pdl\drivers/peripheral/gpio/cy_gpio.h ****     {
 700:Generated_Source\PSoC6\pdl\drivers/peripheral/gpio/cy_gpio.h ****         returnValue = (HSIOM_PRT_PORT_SEL0(portAddrHSIOM) >> (pinNum << CY_GPIO_HSIOM_OFFSET)) & CY
 701:Generated_Source\PSoC6\pdl\drivers/peripheral/gpio/cy_gpio.h ****     }
 702:Generated_Source\PSoC6\pdl\drivers/peripheral/gpio/cy_gpio.h ****     else
 703:Generated_Source\PSoC6\pdl\drivers/peripheral/gpio/cy_gpio.h ****     {
 704:Generated_Source\PSoC6\pdl\drivers/peripheral/gpio/cy_gpio.h ****         pinNum -= CY_GPIO_PRT_HALF;
 705:Generated_Source\PSoC6\pdl\drivers/peripheral/gpio/cy_gpio.h ****         returnValue = (HSIOM_PRT_PORT_SEL1(portAddrHSIOM) >> (pinNum << CY_GPIO_HSIOM_OFFSET)) & CY
 706:Generated_Source\PSoC6\pdl\drivers/peripheral/gpio/cy_gpio.h ****     }
 707:Generated_Source\PSoC6\pdl\drivers/peripheral/gpio/cy_gpio.h **** 
 708:Generated_Source\PSoC6\pdl\drivers/peripheral/gpio/cy_gpio.h ****     return (en_hsiom_sel_t)returnValue;
 709:Generated_Source\PSoC6\pdl\drivers/peripheral/gpio/cy_gpio.h **** }
 710:Generated_Source\PSoC6\pdl\drivers/peripheral/gpio/cy_gpio.h **** 
 711:Generated_Source\PSoC6\pdl\drivers/peripheral/gpio/cy_gpio.h **** 
 712:Generated_Source\PSoC6\pdl\drivers/peripheral/gpio/cy_gpio.h **** /*******************************************************************************
 713:Generated_Source\PSoC6\pdl\drivers/peripheral/gpio/cy_gpio.h **** * Function Name: Cy_GPIO_PortToAddr
 714:Generated_Source\PSoC6\pdl\drivers/peripheral/gpio/cy_gpio.h **** ****************************************************************************//**
 715:Generated_Source\PSoC6\pdl\drivers/peripheral/gpio/cy_gpio.h **** *
 716:Generated_Source\PSoC6\pdl\drivers/peripheral/gpio/cy_gpio.h **** * Retrieves the port address based on the given port number.
 717:Generated_Source\PSoC6\pdl\drivers/peripheral/gpio/cy_gpio.h **** *
 718:Generated_Source\PSoC6\pdl\drivers/peripheral/gpio/cy_gpio.h **** * This is a helper function to calculate the port base address when given a port
 719:Generated_Source\PSoC6\pdl\drivers/peripheral/gpio/cy_gpio.h **** * number. It is to be used when pin access needs to be calculated at runtime.
ARM GAS  C:\Users\dmr85\AppData\Local\Temp\ccSmIU8b.s 			page 46


 720:Generated_Source\PSoC6\pdl\drivers/peripheral/gpio/cy_gpio.h **** *
 721:Generated_Source\PSoC6\pdl\drivers/peripheral/gpio/cy_gpio.h **** * \param portNum
 722:Generated_Source\PSoC6\pdl\drivers/peripheral/gpio/cy_gpio.h **** * Port number
 723:Generated_Source\PSoC6\pdl\drivers/peripheral/gpio/cy_gpio.h **** *
 724:Generated_Source\PSoC6\pdl\drivers/peripheral/gpio/cy_gpio.h **** * \return
 725:Generated_Source\PSoC6\pdl\drivers/peripheral/gpio/cy_gpio.h **** * Base address of the port register structure
 726:Generated_Source\PSoC6\pdl\drivers/peripheral/gpio/cy_gpio.h **** *
 727:Generated_Source\PSoC6\pdl\drivers/peripheral/gpio/cy_gpio.h **** * \funcusage
 728:Generated_Source\PSoC6\pdl\drivers/peripheral/gpio/cy_gpio.h **** * \snippet gpio/gpio_v1_10_sut_01.cydsn/main_cm4.c snippet_Cy_GPIO_PortToAddr
 729:Generated_Source\PSoC6\pdl\drivers/peripheral/gpio/cy_gpio.h **** *
 730:Generated_Source\PSoC6\pdl\drivers/peripheral/gpio/cy_gpio.h **** *******************************************************************************/
 731:Generated_Source\PSoC6\pdl\drivers/peripheral/gpio/cy_gpio.h **** __STATIC_INLINE GPIO_PRT_Type* Cy_GPIO_PortToAddr(uint32_t portNum)
 732:Generated_Source\PSoC6\pdl\drivers/peripheral/gpio/cy_gpio.h **** {
 733:Generated_Source\PSoC6\pdl\drivers/peripheral/gpio/cy_gpio.h ****     GPIO_PRT_Type* portBase;
 734:Generated_Source\PSoC6\pdl\drivers/peripheral/gpio/cy_gpio.h ****     
 735:Generated_Source\PSoC6\pdl\drivers/peripheral/gpio/cy_gpio.h ****     if(portNum < (uint32_t)IOSS_GPIO_GPIO_PORT_NR)
 736:Generated_Source\PSoC6\pdl\drivers/peripheral/gpio/cy_gpio.h ****     {
 737:Generated_Source\PSoC6\pdl\drivers/peripheral/gpio/cy_gpio.h ****         portBase = (GPIO_PRT_Type *)(CY_GPIO_BASE + (GPIO_PRT_SECTION_SIZE * portNum));
 738:Generated_Source\PSoC6\pdl\drivers/peripheral/gpio/cy_gpio.h ****     }
 739:Generated_Source\PSoC6\pdl\drivers/peripheral/gpio/cy_gpio.h ****     else
 740:Generated_Source\PSoC6\pdl\drivers/peripheral/gpio/cy_gpio.h ****     {
 741:Generated_Source\PSoC6\pdl\drivers/peripheral/gpio/cy_gpio.h ****         /* Error: Return default base address */
 742:Generated_Source\PSoC6\pdl\drivers/peripheral/gpio/cy_gpio.h ****         portBase = (GPIO_PRT_Type *)(CY_GPIO_BASE);
 743:Generated_Source\PSoC6\pdl\drivers/peripheral/gpio/cy_gpio.h ****     }
 744:Generated_Source\PSoC6\pdl\drivers/peripheral/gpio/cy_gpio.h **** 
 745:Generated_Source\PSoC6\pdl\drivers/peripheral/gpio/cy_gpio.h ****     return (portBase);
 746:Generated_Source\PSoC6\pdl\drivers/peripheral/gpio/cy_gpio.h **** }
 747:Generated_Source\PSoC6\pdl\drivers/peripheral/gpio/cy_gpio.h **** 
 748:Generated_Source\PSoC6\pdl\drivers/peripheral/gpio/cy_gpio.h **** /** \} group_gpio_functions_init */
 749:Generated_Source\PSoC6\pdl\drivers/peripheral/gpio/cy_gpio.h **** 
 750:Generated_Source\PSoC6\pdl\drivers/peripheral/gpio/cy_gpio.h **** /**
 751:Generated_Source\PSoC6\pdl\drivers/peripheral/gpio/cy_gpio.h **** * \addtogroup group_gpio_functions_gpio
 752:Generated_Source\PSoC6\pdl\drivers/peripheral/gpio/cy_gpio.h **** * \{
 753:Generated_Source\PSoC6\pdl\drivers/peripheral/gpio/cy_gpio.h **** */
 754:Generated_Source\PSoC6\pdl\drivers/peripheral/gpio/cy_gpio.h **** 
 755:Generated_Source\PSoC6\pdl\drivers/peripheral/gpio/cy_gpio.h **** /*******************************************************************************
 756:Generated_Source\PSoC6\pdl\drivers/peripheral/gpio/cy_gpio.h **** * Function Name: Cy_GPIO_Read
 757:Generated_Source\PSoC6\pdl\drivers/peripheral/gpio/cy_gpio.h **** ****************************************************************************//**
 758:Generated_Source\PSoC6\pdl\drivers/peripheral/gpio/cy_gpio.h **** *
 759:Generated_Source\PSoC6\pdl\drivers/peripheral/gpio/cy_gpio.h **** * Reads the current logic level on the input buffer of the pin.
 760:Generated_Source\PSoC6\pdl\drivers/peripheral/gpio/cy_gpio.h **** *
 761:Generated_Source\PSoC6\pdl\drivers/peripheral/gpio/cy_gpio.h **** * \param base
 762:Generated_Source\PSoC6\pdl\drivers/peripheral/gpio/cy_gpio.h **** * Pointer to the pin's port register base address
 763:Generated_Source\PSoC6\pdl\drivers/peripheral/gpio/cy_gpio.h **** *
 764:Generated_Source\PSoC6\pdl\drivers/peripheral/gpio/cy_gpio.h **** * \param pinNum
 765:Generated_Source\PSoC6\pdl\drivers/peripheral/gpio/cy_gpio.h **** * Position of the pin bit-field within the port register.
 766:Generated_Source\PSoC6\pdl\drivers/peripheral/gpio/cy_gpio.h **** * Bit position 8 is the routed pin through the port glitch filter.
 767:Generated_Source\PSoC6\pdl\drivers/peripheral/gpio/cy_gpio.h **** *
 768:Generated_Source\PSoC6\pdl\drivers/peripheral/gpio/cy_gpio.h **** * \return
 769:Generated_Source\PSoC6\pdl\drivers/peripheral/gpio/cy_gpio.h **** * Logic level present on the pin
 770:Generated_Source\PSoC6\pdl\drivers/peripheral/gpio/cy_gpio.h **** *
 771:Generated_Source\PSoC6\pdl\drivers/peripheral/gpio/cy_gpio.h **** * \funcusage
 772:Generated_Source\PSoC6\pdl\drivers/peripheral/gpio/cy_gpio.h **** * \snippet gpio/gpio_v1_10_sut_01.cydsn/main_cm4.c snippet_Cy_GPIO_Read
 773:Generated_Source\PSoC6\pdl\drivers/peripheral/gpio/cy_gpio.h **** *
 774:Generated_Source\PSoC6\pdl\drivers/peripheral/gpio/cy_gpio.h **** *******************************************************************************/
 775:Generated_Source\PSoC6\pdl\drivers/peripheral/gpio/cy_gpio.h **** __STATIC_INLINE uint32_t Cy_GPIO_Read(GPIO_PRT_Type* base, uint32_t pinNum)
 776:Generated_Source\PSoC6\pdl\drivers/peripheral/gpio/cy_gpio.h **** {
ARM GAS  C:\Users\dmr85\AppData\Local\Temp\ccSmIU8b.s 			page 47


 777:Generated_Source\PSoC6\pdl\drivers/peripheral/gpio/cy_gpio.h ****     CY_ASSERT_L2(CY_GPIO_IS_FILTER_PIN_VALID(pinNum));
 778:Generated_Source\PSoC6\pdl\drivers/peripheral/gpio/cy_gpio.h ****     
 779:Generated_Source\PSoC6\pdl\drivers/peripheral/gpio/cy_gpio.h ****     return (GPIO_PRT_IN(base) >> (pinNum)) & CY_GPIO_IN_MASK;
 725              		.loc 3 779 0
 726 0016 4F4B     		ldr	r3, .L35+4
 727 0018 1B69     		ldr	r3, [r3, #16]
 728              	.LVL81:
 729              	.LBE70:
 730              	.LBE69:
 731              		.file 4 "ads1299_spi_adapt.h"
   1:ads1299_spi_adapt.h **** /* ========================================
   2:ads1299_spi_adapt.h ****  *
   3:ads1299_spi_adapt.h ****  * Copyright YOUR COMPANY, THE YEAR
   4:ads1299_spi_adapt.h ****  * All Rights Reserved
   5:ads1299_spi_adapt.h ****  * UNPUBLISHED, LICENSED SOFTWARE.
   6:ads1299_spi_adapt.h ****  *
   7:ads1299_spi_adapt.h ****  * CONFIDENTIAL AND PROPRIETARY INFORMATION
   8:ads1299_spi_adapt.h ****  * WHICH IS THE PROPERTY OF your company.
   9:ads1299_spi_adapt.h ****  *
  10:ads1299_spi_adapt.h ****  * ========================================
  11:ads1299_spi_adapt.h **** */
  12:ads1299_spi_adapt.h **** 
  13:ads1299_spi_adapt.h **** #ifndef _ADS1299_SPI_ADAPT_H_
  14:ads1299_spi_adapt.h **** #define _ADS1299_SPI_ADAPT_H_
  15:ads1299_spi_adapt.h **** #endif
  16:ads1299_spi_adapt.h **** 
  17:ads1299_spi_adapt.h **** /* [] END OF FILE */
  18:ads1299_spi_adapt.h **** 
  19:ads1299_spi_adapt.h **** #include <project.h>
  20:ads1299_spi_adapt.h **** #include <comms.h>
  21:ads1299_spi_adapt.h **** #include <stdio.h>
  22:ads1299_spi_adapt.h **** #include <stdlib.h>
  23:ads1299_spi_adapt.h **** 
  24:ads1299_spi_adapt.h **** uint8_t spi;
  25:ads1299_spi_adapt.h **** #define SPI_ADDRESS (&spi)
  26:ads1299_spi_adapt.h **** #define MAX_EEG_CHANNELS 8
  27:ads1299_spi_adapt.h **** #define UC3 1u
  28:ads1299_spi_adapt.h **** 
  29:ads1299_spi_adapt.h **** #define ADS1299_PIN_PWDN		1
  30:ads1299_spi_adapt.h **** #define ADS1299_PIN_DRDY		2
  31:ads1299_spi_adapt.h **** #define ADS1299_PIN_START		3
  32:ads1299_spi_adapt.h **** #define ADS1299_PIN_RESET		4
  33:ads1299_spi_adapt.h **** #define ADS1299_PIN_CS          5
  34:ads1299_spi_adapt.h **** #define ADS1299_PIN_CLKSEL      6
  35:ads1299_spi_adapt.h **** #define SPI_TIMEOUT             15000
  36:ads1299_spi_adapt.h **** #define ERR_TIMEOUT             -3
  37:ads1299_spi_adapt.h **** #define DSP_PREBUFFER_NB_SAMPLES    256	
  38:ads1299_spi_adapt.h **** 
  39:ads1299_spi_adapt.h **** cy_en_scb_spi_status_t spi_put(volatile uint8_t *spi, uint8_t opcode);
  40:ads1299_spi_adapt.h **** cy_en_scb_spi_status_t spi_get(volatile uint8_t *spi, uint8_t rxBuffer[]);
  41:ads1299_spi_adapt.h **** void spi_selectChip(volatile uint8_t *spi, uint8_t chip_select);
  42:ads1299_spi_adapt.h **** void spi_unselectChip(volatile uint8_t *spi, uint8_t chip_select);
  43:ads1299_spi_adapt.h **** void delay_s(int delay);
  44:ads1299_spi_adapt.h **** void delay_ms(int delay);
  45:ads1299_spi_adapt.h **** void delay_us(int delay);
  46:ads1299_spi_adapt.h **** void gpio_set_gpio_pin(uint32_t pin);
  47:ads1299_spi_adapt.h **** void gpio_clr_gpio_pin(uint32_t pin);
ARM GAS  C:\Users\dmr85\AppData\Local\Temp\ccSmIU8b.s 			page 48


  48:ads1299_spi_adapt.h **** uint32_t spi_write_packet(uint8_t txBuffer[], uint8_t packet_size);
  49:ads1299_spi_adapt.h **** uint32_t spi_read_packet(uint8_t *data, uint8_t packet_size);
  50:ads1299_spi_adapt.h **** void HandleError(void);
  51:ads1299_spi_adapt.h **** 
  52:ads1299_spi_adapt.h **** /*static void spi_write_single(volatile uint8_t *spi, uint8_t data)
  53:ads1299_spi_adapt.h **** {
  54:ads1299_spi_adapt.h **** 	spi_put(spi,(uint16_t)data);
  55:ads1299_spi_adapt.h **** }
  56:ads1299_spi_adapt.h **** 
  57:ads1299_spi_adapt.h **** static void spi_read_single(volatile uint8_t *spi, uint8_t *data)
  58:ads1299_spi_adapt.h **** {
  59:ads1299_spi_adapt.h **** 	*data = (uint8_t)spi_get(spi);
  60:ads1299_spi_adapt.h **** }*/
  61:ads1299_spi_adapt.h **** 
  62:ads1299_spi_adapt.h **** static inline uint8 spi_is_tx_ready(volatile uint8_t *spi){
  63:ads1299_spi_adapt.h **** 	return SPI_GetTxFifoStatus() != 0;
  64:ads1299_spi_adapt.h **** }
  65:ads1299_spi_adapt.h **** static inline uint8 spi_is_rx_ready(volatile uint8_t *spi){
  66:ads1299_spi_adapt.h **** 	return SPI_GetRxFifoStatus() != 0;
  67:ads1299_spi_adapt.h **** }
  68:ads1299_spi_adapt.h **** static inline uint8 spi_is_tx_empty(volatile uint8_t *spi)
  69:ads1299_spi_adapt.h **** {
  70:ads1299_spi_adapt.h **** 	return SPI_IsTxComplete(); // spi_STS_SPI_IDLE
  71:ads1299_spi_adapt.h **** }
  72:ads1299_spi_adapt.h **** 
  73:ads1299_spi_adapt.h **** static inline uint8 spi_data_ready(volatile uint8_t *spi)
  74:ads1299_spi_adapt.h **** {
  75:ads1299_spi_adapt.h **** 	if (Cy_GPIO_Read(PIN_ADS1299_DRDY_0_PORT, PIN_ADS1299_DRDY_0_NUM) == 0) {
 732              		.loc 4 75 0
 733 001a 13F0100F 		tst	r3, #16
 734 001e 01D1     		bne	.L33
  76:ads1299_spi_adapt.h ****         //UART_PutString("drdy0");
  77:ads1299_spi_adapt.h ****         return 1;
 735              		.loc 4 77 0
 736 0020 0123     		movs	r3, #1
 737 0022 00E0     		b	.L27
 738              	.L33:
  78:ads1299_spi_adapt.h ****     } else {
  79:ads1299_spi_adapt.h ****         //UART_PutString("1");
  80:ads1299_spi_adapt.h ****         return 0;
 739              		.loc 4 80 0
 740 0024 0023     		movs	r3, #0
 741              	.L27:
 742              	.LVL82:
 743              	.LBE68:
 744              	.LBE67:
 331:ads1299.c     **** 	
 332:ads1299.c     **** 	/* Function assumes we've already sent RDATA command or are in RDATAC mode */
 333:ads1299.c     **** 	// check if DRDY
 334:ads1299.c     ****     
 335:ads1299.c     ****     
 336:ads1299.c     ****     int j = 0;
 337:ads1299.c     ****     while (spi_data_ready(SPI_ADDRESS) == 0) {
 745              		.loc 1 337 0
 746 0026 002B     		cmp	r3, #0
 747 0028 F5D0     		beq	.L28
 748              	.LVL83:
ARM GAS  C:\Users\dmr85\AppData\Local\Temp\ccSmIU8b.s 			page 49


 749              	.LBB71:
 750              	.LBB72:
 751              	.LBB73:
 735:ads1299.h     **** 	ads1299_send_byte_no_cs(opcode);
 752              		.loc 2 735 0
 753 002a 494E     		ldr	r6, .L35
 754 002c 2946     		mov	r1, r5
 755 002e 3046     		mov	r0, r6
 756 0030 FFF7FEFF 		bl	spi_selectChip
 757              	.LVL84:
 758              	.LBB74:
 759              	.LBB75:
 717:ads1299.h     ****     return spi_write_packet(tx_buf, 1);
 760              		.loc 2 717 0
 761 0034 0AAF     		add	r7, sp, #40
 762 0036 0A23     		movs	r3, #10
 763 0038 07F8203D 		strb	r3, [r7, #-32]!
 718:ads1299.h     **** }
 764              		.loc 2 718 0
 765 003c 0121     		movs	r1, #1
 766 003e 3846     		mov	r0, r7
 767 0040 FFF7FEFF 		bl	spi_write_packet
 768              	.LVL85:
 769              	.LBE75:
 770              	.LBE74:
 771              		.loc 2 737 0
 772 0044 2946     		mov	r1, r5
 773 0046 3046     		mov	r0, r6
 774 0048 FFF7FEFF 		bl	spi_unselectChip
 775              	.LVL86:
 776              	.LBE73:
 777              	.LBE72:
 778              	.LBE71:
 338:ads1299.c     ****         j++;
 339:ads1299.c     ****     }
 340:ads1299.c     ****     ads1299_soft_stop_conversion(chip_select);
 341:ads1299.c     ****     
 342:ads1299.c     **** 	transfer_status = spi_read_packet(sigtemp, 27);
 779              		.loc 1 342 0
 780 004c 1B21     		movs	r1, #27
 781 004e 03A8     		add	r0, sp, #12
 782 0050 FFF7FEFF 		bl	spi_read_packet
 783              	.LVL87:
 343:ads1299.c     ****     
 344:ads1299.c     ****     
 345:ads1299.c     **** 	spi_unselectChip(SPI_ADDRESS, chip_select);
 784              		.loc 1 345 0
 785 0054 2946     		mov	r1, r5
 786 0056 3046     		mov	r0, r6
 787 0058 FFF7FEFF 		bl	spi_unselectChip
 788              	.LVL88:
 789              	.LBB76:
 790              	.LBB77:
 791              	.LBB78:
 735:ads1299.h     **** 	ads1299_send_byte_no_cs(opcode);
 792              		.loc 2 735 0
 793 005c 2946     		mov	r1, r5
ARM GAS  C:\Users\dmr85\AppData\Local\Temp\ccSmIU8b.s 			page 50


 794 005e 3046     		mov	r0, r6
 795 0060 FFF7FEFF 		bl	spi_selectChip
 796              	.LVL89:
 797              	.LBB79:
 798              	.LBB80:
 717:ads1299.h     ****     return spi_write_packet(tx_buf, 1);
 799              		.loc 2 717 0
 800 0064 0823     		movs	r3, #8
 801 0066 8DF80830 		strb	r3, [sp, #8]
 718:ads1299.h     **** }
 802              		.loc 2 718 0
 803 006a 0121     		movs	r1, #1
 804 006c 3846     		mov	r0, r7
 805 006e FFF7FEFF 		bl	spi_write_packet
 806              	.LVL90:
 807              	.LBE80:
 808              	.LBE79:
 809              		.loc 2 737 0
 810 0072 2946     		mov	r1, r5
 811 0074 3046     		mov	r0, r6
 812 0076 FFF7FEFF 		bl	spi_unselectChip
 813              	.LVL91:
 814              	.LBE78:
 815              	.LBE77:
 816              	.LBE76:
 346:ads1299.c     **** 	
 347:ads1299.c     ****     ads1299_soft_start_conversion(chip_select);
 348:ads1299.c     ****     
 349:ads1299.c     ****     // split data
 350:ads1299.c     ****     
 351:ads1299.c     ****     status_array[0] = sigtemp[1];
 817              		.loc 1 351 0
 818 007a 9DF80D30 		ldrb	r3, [sp, #13]	@ zero_extendqisi2
 819 007e 88F80030 		strb	r3, [r8]
 352:ads1299.c     ****     status_array[1] = sigtemp[2];
 820              		.loc 1 352 0
 821 0082 9DF80E30 		ldrb	r3, [sp, #14]	@ zero_extendqisi2
 822 0086 88F80130 		strb	r3, [r8, #1]
 353:ads1299.c     ****     status_array[2] = sigtemp[3];
 823              		.loc 1 353 0
 824 008a 9DF80F30 		ldrb	r3, [sp, #15]	@ zero_extendqisi2
 825 008e 88F80230 		strb	r3, [r8, #2]
 354:ads1299.c     ****     
 355:ads1299.c     ****     
 356:ads1299.c     ****     for (channel_idx = 0; channel_idx < MAX_EEG_CHANNELS; channel_idx++)
 826              		.loc 1 356 0
 827 0092 0023     		movs	r3, #0
 828 0094 8DF82730 		strb	r3, [sp, #39]
 829 0098 51E0     		b	.L29
 830              	.L32:
 357:ads1299.c     **** 	{
 358:ads1299.c     **** 		data_array[sample_idx][channel_idx][0] = sigtemp[4+channel_idx*3];
 831              		.loc 1 358 0
 832 009a 019B     		ldr	r3, [sp, #4]
 833 009c 03EB4303 		add	r3, r3, r3, lsl #1
 834 00a0 DA00     		lsls	r2, r3, #3
 835 00a2 A118     		adds	r1, r4, r2
ARM GAS  C:\Users\dmr85\AppData\Local\Temp\ccSmIU8b.s 			page 51


 836 00a4 9DF82720 		ldrb	r2, [sp, #39]	@ zero_extendqisi2
 837 00a8 9DF82730 		ldrb	r3, [sp, #39]	@ zero_extendqisi2
 838 00ac 03EB4303 		add	r3, r3, r3, lsl #1
 839 00b0 0433     		adds	r3, r3, #4
 840 00b2 0AA8     		add	r0, sp, #40
 841 00b4 0344     		add	r3, r3, r0
 842 00b6 13F81C3C 		ldrb	r3, [r3, #-28]	@ zero_extendqisi2
 843 00ba 02EB4202 		add	r2, r2, r2, lsl #1
 844 00be 8B54     		strb	r3, [r1, r2]
 359:ads1299.c     **** 		data_array[sample_idx][channel_idx][1] = sigtemp[4+channel_idx*3+1];
 845              		.loc 1 359 0
 846 00c0 019B     		ldr	r3, [sp, #4]
 847 00c2 03EB4303 		add	r3, r3, r3, lsl #1
 848 00c6 DA00     		lsls	r2, r3, #3
 849 00c8 A118     		adds	r1, r4, r2
 850 00ca 9DF82720 		ldrb	r2, [sp, #39]	@ zero_extendqisi2
 851 00ce 9DF82730 		ldrb	r3, [sp, #39]	@ zero_extendqisi2
 852 00d2 03EB4303 		add	r3, r3, r3, lsl #1
 853 00d6 0533     		adds	r3, r3, #5
 854 00d8 0344     		add	r3, r3, r0
 855 00da 13F81C3C 		ldrb	r3, [r3, #-28]	@ zero_extendqisi2
 856 00de 02EB4202 		add	r2, r2, r2, lsl #1
 857 00e2 0A44     		add	r2, r2, r1
 858 00e4 5370     		strb	r3, [r2, #1]
 360:ads1299.c     ****         if (channel_idx == 7)
 859              		.loc 1 360 0
 860 00e6 9DF82730 		ldrb	r3, [sp, #39]	@ zero_extendqisi2
 861 00ea DBB2     		uxtb	r3, r3
 862 00ec 072B     		cmp	r3, #7
 863 00ee 0CD1     		bne	.L30
 361:ads1299.c     ****             data_array[sample_idx][channel_idx][2] = 0xff;
 864              		.loc 1 361 0
 865 00f0 019A     		ldr	r2, [sp, #4]
 866 00f2 02EB4202 		add	r2, r2, r2, lsl #1
 867 00f6 D300     		lsls	r3, r2, #3
 868 00f8 E218     		adds	r2, r4, r3
 869 00fa 9DF82730 		ldrb	r3, [sp, #39]	@ zero_extendqisi2
 870 00fe 03EB4303 		add	r3, r3, r3, lsl #1
 871 0102 1344     		add	r3, r3, r2
 872 0104 FF22     		movs	r2, #255
 873 0106 9A70     		strb	r2, [r3, #2]
 874 0108 13E0     		b	.L31
 875              	.L30:
 362:ads1299.c     **** 		else
 363:ads1299.c     ****             data_array[sample_idx][channel_idx][2] = sigtemp[4+channel_idx*3+2];
 876              		.loc 1 363 0
 877 010a 019B     		ldr	r3, [sp, #4]
 878 010c 03EB4303 		add	r3, r3, r3, lsl #1
 879 0110 DA00     		lsls	r2, r3, #3
 880 0112 A118     		adds	r1, r4, r2
 881 0114 9DF82720 		ldrb	r2, [sp, #39]	@ zero_extendqisi2
 882 0118 9DF82730 		ldrb	r3, [sp, #39]	@ zero_extendqisi2
 883 011c 03EB4303 		add	r3, r3, r3, lsl #1
 884 0120 0633     		adds	r3, r3, #6
 885 0122 0AA8     		add	r0, sp, #40
 886 0124 0344     		add	r3, r3, r0
 887 0126 13F81C3C 		ldrb	r3, [r3, #-28]	@ zero_extendqisi2
ARM GAS  C:\Users\dmr85\AppData\Local\Temp\ccSmIU8b.s 			page 52


 888 012a 02EB4202 		add	r2, r2, r2, lsl #1
 889 012e 0A44     		add	r2, r2, r1
 890 0130 9370     		strb	r3, [r2, #2]
 891              	.L31:
 356:ads1299.c     **** 	{
 892              		.loc 1 356 0 discriminator 2
 893 0132 9DF82730 		ldrb	r3, [sp, #39]	@ zero_extendqisi2
 894 0136 0133     		adds	r3, r3, #1
 895 0138 DBB2     		uxtb	r3, r3
 896 013a 8DF82730 		strb	r3, [sp, #39]
 897              	.L29:
 356:ads1299.c     **** 	{
 898              		.loc 1 356 0 is_stmt 0 discriminator 1
 899 013e 9DF82730 		ldrb	r3, [sp, #39]	@ zero_extendqisi2
 900 0142 DBB2     		uxtb	r3, r3
 901 0144 072B     		cmp	r3, #7
 902 0146 A8D9     		bls	.L32
 364:ads1299.c     **** 	}
 365:ads1299.c     **** 	
 366:ads1299.c     **** 	return ADS1299_STATUS_OK;
 367:ads1299.c     **** }
 903              		.loc 1 367 0 is_stmt 1
 904 0148 0020     		movs	r0, #0
 905 014a 0AB0     		add	sp, sp, #40
 906              		.cfi_def_cfa_offset 24
 907              		@ sp needed
 908 014c BDE8F081 		pop	{r4, r5, r6, r7, r8, pc}
 909              	.LVL92:
 910              	.L36:
 911              		.align	2
 912              	.L35:
 913 0150 00000000 		.word	spi
 914 0154 80023240 		.word	1077019264
 915              		.cfi_endproc
 916              	.LFE557:
 917              		.size	ads1299_rdata24_generic, .-ads1299_rdata24_generic
 918              		.section	.text.ads1299_rdata32_generic,"ax",%progbits
 919              		.align	2
 920              		.global	ads1299_rdata32_generic
 921              		.thumb
 922              		.thumb_func
 923              		.type	ads1299_rdata32_generic, %function
 924              	ads1299_rdata32_generic:
 925              	.LFB558:
 368:ads1299.c     **** 
 369:ads1299.c     **** ads1299_error_t ads1299_rdata32_generic(uint8_t chip_select, volatile uint32_t sample_idx, volatile
 370:ads1299.c     **** {
 926              		.loc 1 370 0
 927              		.cfi_startproc
 928              		@ args = 0, pretend = 0, frame = 24
 929              		@ frame_needed = 0, uses_anonymous_args = 0
 930              	.LVL93:
 931 0000 70B5     		push	{r4, r5, r6, lr}
 932              		.cfi_def_cfa_offset 16
 933              		.cfi_offset 4, -16
 934              		.cfi_offset 5, -12
 935              		.cfi_offset 6, -8
ARM GAS  C:\Users\dmr85\AppData\Local\Temp\ccSmIU8b.s 			page 53


 936              		.cfi_offset 14, -4
 937 0002 86B0     		sub	sp, sp, #24
 938              		.cfi_def_cfa_offset 40
 939 0004 0546     		mov	r5, r0
 940 0006 0191     		str	r1, [sp, #4]
 941 0008 0092     		str	r2, [sp]
 942 000a 1C46     		mov	r4, r3
 371:ads1299.c     **** 	//#if UC3
 372:ads1299.c     **** 	volatile uint8_t channel_idx;
 373:ads1299.c     **** 	union {
 374:ads1299.c     **** 		uint32_t raw;
 375:ads1299.c     **** 		uint8_t status[4];
 376:ads1299.c     **** 	} __attribute__((packed)) statustemp;
 377:ads1299.c     **** 	union {
 378:ads1299.c     **** 		int32_t raw;
 379:ads1299.c     **** 		uint8_t data[4];
 380:ads1299.c     **** 	} __attribute__((packed)) sigtemp;
 381:ads1299.c     **** 	statustemp.raw = 0;
 943              		.loc 1 381 0
 944 000c 0026     		movs	r6, #0
 945 000e 0496     		str	r6, [sp, #16]
 382:ads1299.c     **** 	sigtemp.raw = 0;
 946              		.loc 1 382 0
 947 0010 0396     		str	r6, [sp, #12]
 383:ads1299.c     **** 	
 384:ads1299.c     **** 	/* Begin SPI comms */
 385:ads1299.c     **** 	spi_selectChip(SPI_ADDRESS, chip_select);
 948              		.loc 1 385 0
 949 0012 0146     		mov	r1, r0
 950              	.LVL94:
 951 0014 1848     		ldr	r0, .L41
 952              	.LVL95:
 953 0016 FFF7FEFF 		bl	spi_selectChip
 954              	.LVL96:
 386:ads1299.c     **** 	
 387:ads1299.c     **** 	/* Function assumes we've already sent RDATA command or are in RDATAC mode */
 388:ads1299.c     **** 	
 389:ads1299.c     **** 	/* Read in status word first (24 bits) */
 390:ads1299.c     **** 	spi_read_packet(&statustemp.status[1], 3);
 955              		.loc 1 390 0
 956 001a 0321     		movs	r1, #3
 957 001c 0DF11100 		add	r0, sp, #17
 958 0020 FFF7FEFF 		bl	spi_read_packet
 959              	.LVL97:
 391:ads1299.c     **** 	status = statustemp.raw;
 960              		.loc 1 391 0
 961 0024 049B     		ldr	r3, [sp, #16]
 962 0026 0093     		str	r3, [sp]
 392:ads1299.c     **** 	
 393:ads1299.c     **** 	/* Begin reading in data */
 394:ads1299.c     **** 	/* Begin reading in data */
 395:ads1299.c     **** 	for (channel_idx = 0; channel_idx < MAX_EEG_CHANNELS; channel_idx++)
 963              		.loc 1 395 0
 964 0028 8DF81760 		strb	r6, [sp, #23]
 965 002c 17E0     		b	.L38
 966              	.L39:
 396:ads1299.c     **** 	{
ARM GAS  C:\Users\dmr85\AppData\Local\Temp\ccSmIU8b.s 			page 54


 397:ads1299.c     **** 		spi_read_packet(&sigtemp.data[1], 3);
 967              		.loc 1 397 0 discriminator 3
 968 002e 0321     		movs	r1, #3
 969 0030 0DF10D00 		add	r0, sp, #13
 970 0034 FFF7FEFF 		bl	spi_read_packet
 971              	.LVL98:
 398:ads1299.c     **** 		data_array[sample_idx][channel_idx] = SIGN_EXT_24(sigtemp.raw);
 972              		.loc 1 398 0 discriminator 3
 973 0038 019A     		ldr	r2, [sp, #4]
 974 003a 04EB4212 		add	r2, r4, r2, lsl #5
 975 003e 9DF81710 		ldrb	r1, [sp, #23]	@ zero_extendqisi2
 976 0042 C9B2     		uxtb	r1, r1
 977 0044 039B     		ldr	r3, [sp, #12]
 978 0046 83F40003 		eor	r3, r3, #8388608
 979 004a A3F50003 		sub	r3, r3, #8388608
 980 004e 42F82130 		str	r3, [r2, r1, lsl #2]
 395:ads1299.c     **** 	{
 981              		.loc 1 395 0 discriminator 3
 982 0052 9DF81730 		ldrb	r3, [sp, #23]	@ zero_extendqisi2
 983 0056 0133     		adds	r3, r3, #1
 984 0058 DBB2     		uxtb	r3, r3
 985 005a 8DF81730 		strb	r3, [sp, #23]
 986              	.L38:
 395:ads1299.c     **** 	{
 987              		.loc 1 395 0 is_stmt 0 discriminator 1
 988 005e 9DF81730 		ldrb	r3, [sp, #23]	@ zero_extendqisi2
 989 0062 DBB2     		uxtb	r3, r3
 990 0064 072B     		cmp	r3, #7
 991 0066 E2D9     		bls	.L39
 399:ads1299.c     **** 	}
 400:ads1299.c     **** 	
 401:ads1299.c     **** 	spi_unselectChip(SPI_ADDRESS, chip_select);
 992              		.loc 1 401 0 is_stmt 1
 993 0068 2946     		mov	r1, r5
 994 006a 0348     		ldr	r0, .L41
 995 006c FFF7FEFF 		bl	spi_unselectChip
 996              	.LVL99:
 402:ads1299.c     **** 	
 403:ads1299.c     **** 	//#else
 404:ads1299.c     **** 	//#endif	/* #if UC3 */
 405:ads1299.c     **** 	return ADS1299_STATUS_OK;
 406:ads1299.c     **** }
 997              		.loc 1 406 0
 998 0070 0020     		movs	r0, #0
 999 0072 06B0     		add	sp, sp, #24
 1000              		.cfi_def_cfa_offset 16
 1001              	.LVL100:
 1002              		@ sp needed
 1003 0074 70BD     		pop	{r4, r5, r6, pc}
 1004              	.LVL101:
 1005              	.L42:
 1006 0076 00BF     		.align	2
 1007              	.L41:
 1008 0078 00000000 		.word	spi
 1009              		.cfi_endproc
 1010              	.LFE558:
 1011              		.size	ads1299_rdata32_generic, .-ads1299_rdata32_generic
ARM GAS  C:\Users\dmr85\AppData\Local\Temp\ccSmIU8b.s 			page 55


 1012              		.comm	spi,1,1
 1013              		.section	.rodata.str1.4,"aMS",%progbits,1
 1014              		.align	2
 1015              	.LC0:
 1016 0000 72656776 		.ascii	"regval %x \000"
 1016      616C2025 
 1016      782000
 1017              		.text
 1018              	.Letext0:
 1019              		.file 5 "c:\\program files (x86)\\cypress\\psoc creator\\4.2\\psoc creator\\import\\gnu\\arm\\5.4.
 1020              		.file 6 "c:\\program files (x86)\\cypress\\psoc creator\\4.2\\psoc creator\\import\\gnu\\arm\\5.4.
 1021              		.file 7 "Generated_Source\\PSoC6\\pdl\\devices/psoc6/include/ip/cyip_gpio.h"
 1022              		.file 8 "Generated_Source\\PSoC6\\pdl\\devices/psoc6/include/psoc6_01_config.h"
 1023              		.file 9 "Generated_Source\\PSoC6\\pdl\\drivers/peripheral/device/cy_device.h"
 1024              		.file 10 "Generated_Source\\PSoC6\\pdl\\drivers/peripheral/syslib/cy_syslib.h"
 1025              		.file 11 "Generated_Source\\PSoC6\\pdl\\drivers/peripheral/scb/cy_scb_spi.h"
 1026              		.file 12 "Generated_Source\\PSoC6\\pdl\\drivers/peripheral/scb/cy_scb_uart.h"
 1027              		.file 13 "Generated_Source\\PSoC6\\pdl\\middleware/ble/cy_ble_stack_host_main.h"
 1028              		.file 14 "Generated_Source\\PSoC6\\pdl\\middleware/ble/cy_ble_stack.h"
 1029              		.file 15 "Generated_Source\\PSoC6\\pdl\\middleware/ble/cy_ble_gap.h"
 1030              		.file 16 "./comms.h"
 1031              		.file 17 "Generated_Source\\PSoC6\\pdl\\cmsis/include/core_cm4.h"
 1032              		.file 18 "Generated_Source\\PSoC6/SPI.h"
 1033              		.file 19 "Generated_Source\\PSoC6/UART.h"
 1034              		.file 20 "c:\\program files (x86)\\cypress\\psoc creator\\4.2\\psoc creator\\import\\gnu\\arm\\5.4
 1035              		.section	.debug_info,"",%progbits
 1036              	.Ldebug_info0:
 1037 0000 2E1D0000 		.4byte	0x1d2e
 1038 0004 0400     		.2byte	0x4
 1039 0006 00000000 		.4byte	.Ldebug_abbrev0
 1040 000a 04       		.byte	0x4
 1041 000b 01       		.uleb128 0x1
 1042 000c 09050000 		.4byte	.LASF358
 1043 0010 0C       		.byte	0xc
 1044 0011 FF040000 		.4byte	.LASF359
 1045 0015 9D0A0000 		.4byte	.LASF360
 1046 0019 00000000 		.4byte	.Ldebug_ranges0+0
 1047 001d 00000000 		.4byte	0
 1048 0021 00000000 		.4byte	.Ldebug_line0
 1049 0025 02       		.uleb128 0x2
 1050 0026 02       		.byte	0x2
 1051 0027 05       		.byte	0x5
 1052 0028 C2160000 		.4byte	.LASF0
 1053 002c 02       		.uleb128 0x2
 1054 002d 01       		.byte	0x1
 1055 002e 06       		.byte	0x6
 1056 002f 8E1C0000 		.4byte	.LASF1
 1057 0033 03       		.uleb128 0x3
 1058 0034 BC180000 		.4byte	.LASF3
 1059 0038 05       		.byte	0x5
 1060 0039 1D       		.byte	0x1d
 1061 003a 3E000000 		.4byte	0x3e
 1062 003e 02       		.uleb128 0x2
 1063 003f 01       		.byte	0x1
 1064 0040 08       		.byte	0x8
 1065 0041 771A0000 		.4byte	.LASF2
 1066 0045 03       		.uleb128 0x3
ARM GAS  C:\Users\dmr85\AppData\Local\Temp\ccSmIU8b.s 			page 56


 1067 0046 14060000 		.4byte	.LASF4
 1068 004a 05       		.byte	0x5
 1069 004b 29       		.byte	0x29
 1070 004c 25000000 		.4byte	0x25
 1071 0050 03       		.uleb128 0x3
 1072 0051 6C0D0000 		.4byte	.LASF5
 1073 0055 05       		.byte	0x5
 1074 0056 2B       		.byte	0x2b
 1075 0057 5B000000 		.4byte	0x5b
 1076 005b 02       		.uleb128 0x2
 1077 005c 02       		.byte	0x2
 1078 005d 07       		.byte	0x7
 1079 005e 48140000 		.4byte	.LASF6
 1080 0062 03       		.uleb128 0x3
 1081 0063 23030000 		.4byte	.LASF7
 1082 0067 05       		.byte	0x5
 1083 0068 3F       		.byte	0x3f
 1084 0069 6D000000 		.4byte	0x6d
 1085 006d 02       		.uleb128 0x2
 1086 006e 04       		.byte	0x4
 1087 006f 05       		.byte	0x5
 1088 0070 F8160000 		.4byte	.LASF8
 1089 0074 03       		.uleb128 0x3
 1090 0075 AA1A0000 		.4byte	.LASF9
 1091 0079 05       		.byte	0x5
 1092 007a 41       		.byte	0x41
 1093 007b 7F000000 		.4byte	0x7f
 1094 007f 02       		.uleb128 0x2
 1095 0080 04       		.byte	0x4
 1096 0081 07       		.byte	0x7
 1097 0082 CB190000 		.4byte	.LASF10
 1098 0086 02       		.uleb128 0x2
 1099 0087 08       		.byte	0x8
 1100 0088 05       		.byte	0x5
 1101 0089 DB0B0000 		.4byte	.LASF11
 1102 008d 02       		.uleb128 0x2
 1103 008e 08       		.byte	0x8
 1104 008f 07       		.byte	0x7
 1105 0090 C6080000 		.4byte	.LASF12
 1106 0094 04       		.uleb128 0x4
 1107 0095 04       		.byte	0x4
 1108 0096 05       		.byte	0x5
 1109 0097 696E7400 		.ascii	"int\000"
 1110 009b 02       		.uleb128 0x2
 1111 009c 04       		.byte	0x4
 1112 009d 07       		.byte	0x7
 1113 009e 58020000 		.4byte	.LASF13
 1114 00a2 03       		.uleb128 0x3
 1115 00a3 960F0000 		.4byte	.LASF14
 1116 00a7 06       		.byte	0x6
 1117 00a8 18       		.byte	0x18
 1118 00a9 33000000 		.4byte	0x33
 1119 00ad 03       		.uleb128 0x3
 1120 00ae 86080000 		.4byte	.LASF15
 1121 00b2 06       		.byte	0x6
 1122 00b3 20       		.byte	0x20
 1123 00b4 45000000 		.4byte	0x45
ARM GAS  C:\Users\dmr85\AppData\Local\Temp\ccSmIU8b.s 			page 57


 1124 00b8 03       		.uleb128 0x3
 1125 00b9 AB140000 		.4byte	.LASF16
 1126 00bd 06       		.byte	0x6
 1127 00be 24       		.byte	0x24
 1128 00bf 50000000 		.4byte	0x50
 1129 00c3 03       		.uleb128 0x3
 1130 00c4 EF190000 		.4byte	.LASF17
 1131 00c8 06       		.byte	0x6
 1132 00c9 2C       		.byte	0x2c
 1133 00ca 62000000 		.4byte	0x62
 1134 00ce 03       		.uleb128 0x3
 1135 00cf 0E070000 		.4byte	.LASF18
 1136 00d3 06       		.byte	0x6
 1137 00d4 30       		.byte	0x30
 1138 00d5 74000000 		.4byte	0x74
 1139 00d9 02       		.uleb128 0x2
 1140 00da 04       		.byte	0x4
 1141 00db 07       		.byte	0x7
 1142 00dc EC150000 		.4byte	.LASF19
 1143 00e0 05       		.uleb128 0x5
 1144 00e1 CE000000 		.4byte	0xce
 1145 00e5 05       		.uleb128 0x5
 1146 00e6 A2000000 		.4byte	0xa2
 1147 00ea 06       		.uleb128 0x6
 1148 00eb E0000000 		.4byte	0xe0
 1149 00ef 07       		.uleb128 0x7
 1150 00f0 E5000000 		.4byte	0xe5
 1151 00f4 FF000000 		.4byte	0xff
 1152 00f8 08       		.uleb128 0x8
 1153 00f9 D9000000 		.4byte	0xd9
 1154 00fd 02       		.byte	0x2
 1155 00fe 00       		.byte	0
 1156 00ff 07       		.uleb128 0x7
 1157 0100 EA000000 		.4byte	0xea
 1158 0104 0F010000 		.4byte	0x10f
 1159 0108 08       		.uleb128 0x8
 1160 0109 D9000000 		.4byte	0xd9
 1161 010d 0F       		.byte	0xf
 1162 010e 00       		.byte	0
 1163 010f 07       		.uleb128 0x7
 1164 0110 A2000000 		.4byte	0xa2
 1165 0114 1F010000 		.4byte	0x11f
 1166 0118 08       		.uleb128 0x8
 1167 0119 D9000000 		.4byte	0xd9
 1168 011d 02       		.byte	0x2
 1169 011e 00       		.byte	0
 1170 011f 07       		.uleb128 0x7
 1171 0120 A2000000 		.4byte	0xa2
 1172 0124 2F010000 		.4byte	0x12f
 1173 0128 08       		.uleb128 0x8
 1174 0129 D9000000 		.4byte	0xd9
 1175 012d 03       		.byte	0x3
 1176 012e 00       		.byte	0
 1177 012f 09       		.uleb128 0x9
 1178 0130 80       		.byte	0x80
 1179 0131 07       		.byte	0x7
 1180 0132 22       		.byte	0x22
ARM GAS  C:\Users\dmr85\AppData\Local\Temp\ccSmIU8b.s 			page 58


 1181 0133 03020000 		.4byte	0x203
 1182 0137 0A       		.uleb128 0xa
 1183 0138 4F555400 		.ascii	"OUT\000"
 1184 013c 07       		.byte	0x7
 1185 013d 23       		.byte	0x23
 1186 013e E0000000 		.4byte	0xe0
 1187 0142 00       		.byte	0
 1188 0143 0B       		.uleb128 0xb
 1189 0144 7E080000 		.4byte	.LASF20
 1190 0148 07       		.byte	0x7
 1191 0149 24       		.byte	0x24
 1192 014a E0000000 		.4byte	0xe0
 1193 014e 04       		.byte	0x4
 1194 014f 0B       		.uleb128 0xb
 1195 0150 510B0000 		.4byte	.LASF21
 1196 0154 07       		.byte	0x7
 1197 0155 25       		.byte	0x25
 1198 0156 E0000000 		.4byte	0xe0
 1199 015a 08       		.byte	0x8
 1200 015b 0B       		.uleb128 0xb
 1201 015c 9F180000 		.4byte	.LASF22
 1202 0160 07       		.byte	0x7
 1203 0161 26       		.byte	0x26
 1204 0162 E0000000 		.4byte	0xe0
 1205 0166 0C       		.byte	0xc
 1206 0167 0A       		.uleb128 0xa
 1207 0168 494E00   		.ascii	"IN\000"
 1208 016b 07       		.byte	0x7
 1209 016c 27       		.byte	0x27
 1210 016d EA000000 		.4byte	0xea
 1211 0171 10       		.byte	0x10
 1212 0172 0B       		.uleb128 0xb
 1213 0173 18120000 		.4byte	.LASF23
 1214 0177 07       		.byte	0x7
 1215 0178 28       		.byte	0x28
 1216 0179 E0000000 		.4byte	0xe0
 1217 017d 14       		.byte	0x14
 1218 017e 0B       		.uleb128 0xb
 1219 017f 770D0000 		.4byte	.LASF24
 1220 0183 07       		.byte	0x7
 1221 0184 29       		.byte	0x29
 1222 0185 E0000000 		.4byte	0xe0
 1223 0189 18       		.byte	0x18
 1224 018a 0B       		.uleb128 0xb
 1225 018b 89190000 		.4byte	.LASF25
 1226 018f 07       		.byte	0x7
 1227 0190 2A       		.byte	0x2a
 1228 0191 EA000000 		.4byte	0xea
 1229 0195 1C       		.byte	0x1c
 1230 0196 0B       		.uleb128 0xb
 1231 0197 53040000 		.4byte	.LASF26
 1232 019b 07       		.byte	0x7
 1233 019c 2B       		.byte	0x2b
 1234 019d E0000000 		.4byte	0xe0
 1235 01a1 20       		.byte	0x20
 1236 01a2 0B       		.uleb128 0xb
 1237 01a3 D31A0000 		.4byte	.LASF27
ARM GAS  C:\Users\dmr85\AppData\Local\Temp\ccSmIU8b.s 			page 59


 1238 01a7 07       		.byte	0x7
 1239 01a8 2C       		.byte	0x2c
 1240 01a9 E0000000 		.4byte	0xe0
 1241 01ad 24       		.byte	0x24
 1242 01ae 0A       		.uleb128 0xa
 1243 01af 43464700 		.ascii	"CFG\000"
 1244 01b3 07       		.byte	0x7
 1245 01b4 2D       		.byte	0x2d
 1246 01b5 E0000000 		.4byte	0xe0
 1247 01b9 28       		.byte	0x28
 1248 01ba 0B       		.uleb128 0xb
 1249 01bb A2060000 		.4byte	.LASF28
 1250 01bf 07       		.byte	0x7
 1251 01c0 2E       		.byte	0x2e
 1252 01c1 E0000000 		.4byte	0xe0
 1253 01c5 2C       		.byte	0x2c
 1254 01c6 0B       		.uleb128 0xb
 1255 01c7 AF0B0000 		.4byte	.LASF29
 1256 01cb 07       		.byte	0x7
 1257 01cc 2F       		.byte	0x2f
 1258 01cd E0000000 		.4byte	0xe0
 1259 01d1 30       		.byte	0x30
 1260 01d2 0B       		.uleb128 0xb
 1261 01d3 1B030000 		.4byte	.LASF30
 1262 01d7 07       		.byte	0x7
 1263 01d8 30       		.byte	0x30
 1264 01d9 E0000000 		.4byte	0xe0
 1265 01dd 34       		.byte	0x34
 1266 01de 0B       		.uleb128 0xb
 1267 01df 36000000 		.4byte	.LASF31
 1268 01e3 07       		.byte	0x7
 1269 01e4 31       		.byte	0x31
 1270 01e5 EA000000 		.4byte	0xea
 1271 01e9 38       		.byte	0x38
 1272 01ea 0B       		.uleb128 0xb
 1273 01eb F5170000 		.4byte	.LASF32
 1274 01ef 07       		.byte	0x7
 1275 01f0 32       		.byte	0x32
 1276 01f1 E0000000 		.4byte	0xe0
 1277 01f5 3C       		.byte	0x3c
 1278 01f6 0B       		.uleb128 0xb
 1279 01f7 791D0000 		.4byte	.LASF33
 1280 01fb 07       		.byte	0x7
 1281 01fc 33       		.byte	0x33
 1282 01fd 08020000 		.4byte	0x208
 1283 0201 40       		.byte	0x40
 1284 0202 00       		.byte	0
 1285 0203 05       		.uleb128 0x5
 1286 0204 FF000000 		.4byte	0xff
 1287 0208 06       		.uleb128 0x6
 1288 0209 03020000 		.4byte	0x203
 1289 020d 03       		.uleb128 0x3
 1290 020e 93170000 		.4byte	.LASF34
 1291 0212 07       		.byte	0x7
 1292 0213 34       		.byte	0x34
 1293 0214 2F010000 		.4byte	0x12f
 1294 0218 0C       		.uleb128 0xc
ARM GAS  C:\Users\dmr85\AppData\Local\Temp\ccSmIU8b.s 			page 60


 1295 0219 2440     		.2byte	0x4024
 1296 021b 07       		.byte	0x7
 1297 021c 39       		.byte	0x39
 1298 021d A3020000 		.4byte	0x2a3
 1299 0221 0A       		.uleb128 0xa
 1300 0222 50525400 		.ascii	"PRT\000"
 1301 0226 07       		.byte	0x7
 1302 0227 3A       		.byte	0x3a
 1303 0228 A3020000 		.4byte	0x2a3
 1304 022c 00       		.byte	0
 1305 022d 0D       		.uleb128 0xd
 1306 022e 4A000000 		.4byte	.LASF35
 1307 0232 07       		.byte	0x7
 1308 0233 3B       		.byte	0x3b
 1309 0234 EA000000 		.4byte	0xea
 1310 0238 0040     		.2byte	0x4000
 1311 023a 0D       		.uleb128 0xd
 1312 023b 56000000 		.4byte	.LASF36
 1313 023f 07       		.byte	0x7
 1314 0240 3C       		.byte	0x3c
 1315 0241 EA000000 		.4byte	0xea
 1316 0245 0440     		.2byte	0x4004
 1317 0247 0D       		.uleb128 0xd
 1318 0248 F40F0000 		.4byte	.LASF37
 1319 024c 07       		.byte	0x7
 1320 024d 3D       		.byte	0x3d
 1321 024e EA000000 		.4byte	0xea
 1322 0252 0840     		.2byte	0x4008
 1323 0254 0D       		.uleb128 0xd
 1324 0255 00100000 		.4byte	.LASF38
 1325 0259 07       		.byte	0x7
 1326 025a 3E       		.byte	0x3e
 1327 025b EA000000 		.4byte	0xea
 1328 025f 0C40     		.2byte	0x400c
 1329 0261 0D       		.uleb128 0xd
 1330 0262 3F000000 		.4byte	.LASF39
 1331 0266 07       		.byte	0x7
 1332 0267 3F       		.byte	0x3f
 1333 0268 EA000000 		.4byte	0xea
 1334 026c 1040     		.2byte	0x4010
 1335 026e 0D       		.uleb128 0xd
 1336 026f 2E0C0000 		.4byte	.LASF40
 1337 0273 07       		.byte	0x7
 1338 0274 40       		.byte	0x40
 1339 0275 E0000000 		.4byte	0xe0
 1340 0279 1440     		.2byte	0x4014
 1341 027b 0D       		.uleb128 0xd
 1342 027c 731C0000 		.4byte	.LASF41
 1343 0280 07       		.byte	0x7
 1344 0281 41       		.byte	0x41
 1345 0282 E0000000 		.4byte	0xe0
 1346 0286 1840     		.2byte	0x4018
 1347 0288 0D       		.uleb128 0xd
 1348 0289 13140000 		.4byte	.LASF42
 1349 028d 07       		.byte	0x7
 1350 028e 42       		.byte	0x42
 1351 028f EA000000 		.4byte	0xea
ARM GAS  C:\Users\dmr85\AppData\Local\Temp\ccSmIU8b.s 			page 61


 1352 0293 1C40     		.2byte	0x401c
 1353 0295 0D       		.uleb128 0xd
 1354 0296 BD140000 		.4byte	.LASF43
 1355 029a 07       		.byte	0x7
 1356 029b 43       		.byte	0x43
 1357 029c E0000000 		.4byte	0xe0
 1358 02a0 2040     		.2byte	0x4020
 1359 02a2 00       		.byte	0
 1360 02a3 07       		.uleb128 0x7
 1361 02a4 0D020000 		.4byte	0x20d
 1362 02a8 B3020000 		.4byte	0x2b3
 1363 02ac 08       		.uleb128 0x8
 1364 02ad D9000000 		.4byte	0xd9
 1365 02b1 7F       		.byte	0x7f
 1366 02b2 00       		.byte	0
 1367 02b3 03       		.uleb128 0x3
 1368 02b4 5F070000 		.4byte	.LASF44
 1369 02b8 07       		.byte	0x7
 1370 02b9 44       		.byte	0x44
 1371 02ba 18020000 		.4byte	0x218
 1372 02be 0E       		.uleb128 0xe
 1373 02bf 330D0000 		.4byte	.LASF45
 1374 02c3 08       		.byte	0x8
 1375 02c4 3106     		.2byte	0x631
 1376 02c6 0D020000 		.4byte	0x20d
 1377 02ca 0E       		.uleb128 0xe
 1378 02cb B51A0000 		.4byte	.LASF46
 1379 02cf 08       		.byte	0x8
 1380 02d0 3206     		.2byte	0x632
 1381 02d2 B3020000 		.4byte	0x2b3
 1382 02d6 02       		.uleb128 0x2
 1383 02d7 08       		.byte	0x8
 1384 02d8 04       		.byte	0x4
 1385 02d9 76140000 		.4byte	.LASF47
 1386 02dd 09       		.uleb128 0x9
 1387 02de B8       		.byte	0xb8
 1388 02df 09       		.byte	0x9
 1389 02e0 34       		.byte	0x34
 1390 02e1 EE060000 		.4byte	0x6ee
 1391 02e5 0B       		.uleb128 0xb
 1392 02e6 2D030000 		.4byte	.LASF48
 1393 02ea 09       		.byte	0x9
 1394 02eb 37       		.byte	0x37
 1395 02ec CE000000 		.4byte	0xce
 1396 02f0 00       		.byte	0
 1397 02f1 0B       		.uleb128 0xb
 1398 02f2 230E0000 		.4byte	.LASF49
 1399 02f6 09       		.byte	0x9
 1400 02f7 38       		.byte	0x38
 1401 02f8 CE000000 		.4byte	0xce
 1402 02fc 04       		.byte	0x4
 1403 02fd 0B       		.uleb128 0xb
 1404 02fe CA010000 		.4byte	.LASF50
 1405 0302 09       		.byte	0x9
 1406 0303 39       		.byte	0x39
 1407 0304 CE000000 		.4byte	0xce
 1408 0308 08       		.byte	0x8
ARM GAS  C:\Users\dmr85\AppData\Local\Temp\ccSmIU8b.s 			page 62


 1409 0309 0B       		.uleb128 0xb
 1410 030a 7B090000 		.4byte	.LASF51
 1411 030e 09       		.byte	0x9
 1412 030f 3A       		.byte	0x3a
 1413 0310 CE000000 		.4byte	0xce
 1414 0314 0C       		.byte	0xc
 1415 0315 0B       		.uleb128 0xb
 1416 0316 B4140000 		.4byte	.LASF52
 1417 031a 09       		.byte	0x9
 1418 031b 3B       		.byte	0x3b
 1419 031c CE000000 		.4byte	0xce
 1420 0320 10       		.byte	0x10
 1421 0321 0B       		.uleb128 0xb
 1422 0322 DB110000 		.4byte	.LASF53
 1423 0326 09       		.byte	0x9
 1424 0327 3C       		.byte	0x3c
 1425 0328 CE000000 		.4byte	0xce
 1426 032c 14       		.byte	0x14
 1427 032d 0B       		.uleb128 0xb
 1428 032e 790B0000 		.4byte	.LASF54
 1429 0332 09       		.byte	0x9
 1430 0333 3D       		.byte	0x3d
 1431 0334 CE000000 		.4byte	0xce
 1432 0338 18       		.byte	0x18
 1433 0339 0B       		.uleb128 0xb
 1434 033a 701D0000 		.4byte	.LASF55
 1435 033e 09       		.byte	0x9
 1436 033f 3E       		.byte	0x3e
 1437 0340 CE000000 		.4byte	0xce
 1438 0344 1C       		.byte	0x1c
 1439 0345 0B       		.uleb128 0xb
 1440 0346 05110000 		.4byte	.LASF56
 1441 034a 09       		.byte	0x9
 1442 034b 3F       		.byte	0x3f
 1443 034c CE000000 		.4byte	0xce
 1444 0350 20       		.byte	0x20
 1445 0351 0B       		.uleb128 0xb
 1446 0352 1C110000 		.4byte	.LASF57
 1447 0356 09       		.byte	0x9
 1448 0357 40       		.byte	0x40
 1449 0358 CE000000 		.4byte	0xce
 1450 035c 24       		.byte	0x24
 1451 035d 0B       		.uleb128 0xb
 1452 035e 01170000 		.4byte	.LASF58
 1453 0362 09       		.byte	0x9
 1454 0363 43       		.byte	0x43
 1455 0364 A2000000 		.4byte	0xa2
 1456 0368 28       		.byte	0x28
 1457 0369 0B       		.uleb128 0xb
 1458 036a 0D080000 		.4byte	.LASF59
 1459 036e 09       		.byte	0x9
 1460 036f 44       		.byte	0x44
 1461 0370 A2000000 		.4byte	0xa2
 1462 0374 29       		.byte	0x29
 1463 0375 0B       		.uleb128 0xb
 1464 0376 23150000 		.4byte	.LASF60
 1465 037a 09       		.byte	0x9
ARM GAS  C:\Users\dmr85\AppData\Local\Temp\ccSmIU8b.s 			page 63


 1466 037b 45       		.byte	0x45
 1467 037c A2000000 		.4byte	0xa2
 1468 0380 2A       		.byte	0x2a
 1469 0381 0B       		.uleb128 0xb
 1470 0382 48170000 		.4byte	.LASF61
 1471 0386 09       		.byte	0x9
 1472 0387 46       		.byte	0x46
 1473 0388 A2000000 		.4byte	0xa2
 1474 038c 2B       		.byte	0x2b
 1475 038d 0B       		.uleb128 0xb
 1476 038e 1B170000 		.4byte	.LASF62
 1477 0392 09       		.byte	0x9
 1478 0393 47       		.byte	0x47
 1479 0394 A2000000 		.4byte	0xa2
 1480 0398 2C       		.byte	0x2c
 1481 0399 0B       		.uleb128 0xb
 1482 039a BE190000 		.4byte	.LASF63
 1483 039e 09       		.byte	0x9
 1484 039f 48       		.byte	0x48
 1485 03a0 A2000000 		.4byte	0xa2
 1486 03a4 2D       		.byte	0x2d
 1487 03a5 0B       		.uleb128 0xb
 1488 03a6 5B1E0000 		.4byte	.LASF64
 1489 03aa 09       		.byte	0x9
 1490 03ab 49       		.byte	0x49
 1491 03ac A2000000 		.4byte	0xa2
 1492 03b0 2E       		.byte	0x2e
 1493 03b1 0B       		.uleb128 0xb
 1494 03b2 301D0000 		.4byte	.LASF65
 1495 03b6 09       		.byte	0x9
 1496 03b7 4A       		.byte	0x4a
 1497 03b8 A2000000 		.4byte	0xa2
 1498 03bc 2F       		.byte	0x2f
 1499 03bd 0B       		.uleb128 0xb
 1500 03be E60C0000 		.4byte	.LASF66
 1501 03c2 09       		.byte	0x9
 1502 03c3 4B       		.byte	0x4b
 1503 03c4 A2000000 		.4byte	0xa2
 1504 03c8 30       		.byte	0x30
 1505 03c9 0B       		.uleb128 0xb
 1506 03ca AC120000 		.4byte	.LASF67
 1507 03ce 09       		.byte	0x9
 1508 03cf 4E       		.byte	0x4e
 1509 03d0 A2000000 		.4byte	0xa2
 1510 03d4 31       		.byte	0x31
 1511 03d5 0B       		.uleb128 0xb
 1512 03d6 A51C0000 		.4byte	.LASF68
 1513 03da 09       		.byte	0x9
 1514 03db 4F       		.byte	0x4f
 1515 03dc A2000000 		.4byte	0xa2
 1516 03e0 32       		.byte	0x32
 1517 03e1 0B       		.uleb128 0xb
 1518 03e2 44120000 		.4byte	.LASF69
 1519 03e6 09       		.byte	0x9
 1520 03e7 50       		.byte	0x50
 1521 03e8 A2000000 		.4byte	0xa2
 1522 03ec 33       		.byte	0x33
ARM GAS  C:\Users\dmr85\AppData\Local\Temp\ccSmIU8b.s 			page 64


 1523 03ed 0B       		.uleb128 0xb
 1524 03ee E80D0000 		.4byte	.LASF70
 1525 03f2 09       		.byte	0x9
 1526 03f3 51       		.byte	0x51
 1527 03f4 A2000000 		.4byte	0xa2
 1528 03f8 34       		.byte	0x34
 1529 03f9 0B       		.uleb128 0xb
 1530 03fa 811C0000 		.4byte	.LASF71
 1531 03fe 09       		.byte	0x9
 1532 03ff 52       		.byte	0x52
 1533 0400 AD000000 		.4byte	0xad
 1534 0404 36       		.byte	0x36
 1535 0405 0B       		.uleb128 0xb
 1536 0406 78030000 		.4byte	.LASF72
 1537 040a 09       		.byte	0x9
 1538 040b 53       		.byte	0x53
 1539 040c AD000000 		.4byte	0xad
 1540 0410 38       		.byte	0x38
 1541 0411 0B       		.uleb128 0xb
 1542 0412 CC030000 		.4byte	.LASF73
 1543 0416 09       		.byte	0x9
 1544 0417 54       		.byte	0x54
 1545 0418 AD000000 		.4byte	0xad
 1546 041c 3A       		.byte	0x3a
 1547 041d 0B       		.uleb128 0xb
 1548 041e 831D0000 		.4byte	.LASF74
 1549 0422 09       		.byte	0x9
 1550 0423 55       		.byte	0x55
 1551 0424 A2000000 		.4byte	0xa2
 1552 0428 3C       		.byte	0x3c
 1553 0429 0B       		.uleb128 0xb
 1554 042a 270B0000 		.4byte	.LASF75
 1555 042e 09       		.byte	0x9
 1556 042f 56       		.byte	0x56
 1557 0430 A2000000 		.4byte	0xa2
 1558 0434 3D       		.byte	0x3d
 1559 0435 0B       		.uleb128 0xb
 1560 0436 15150000 		.4byte	.LASF76
 1561 043a 09       		.byte	0x9
 1562 043b 57       		.byte	0x57
 1563 043c A2000000 		.4byte	0xa2
 1564 0440 3E       		.byte	0x3e
 1565 0441 0B       		.uleb128 0xb
 1566 0442 2D010000 		.4byte	.LASF77
 1567 0446 09       		.byte	0x9
 1568 0447 58       		.byte	0x58
 1569 0448 A2000000 		.4byte	0xa2
 1570 044c 3F       		.byte	0x3f
 1571 044d 0B       		.uleb128 0xb
 1572 044e DA020000 		.4byte	.LASF78
 1573 0452 09       		.byte	0x9
 1574 0453 59       		.byte	0x59
 1575 0454 A2000000 		.4byte	0xa2
 1576 0458 40       		.byte	0x40
 1577 0459 0B       		.uleb128 0xb
 1578 045a 07130000 		.4byte	.LASF79
 1579 045e 09       		.byte	0x9
ARM GAS  C:\Users\dmr85\AppData\Local\Temp\ccSmIU8b.s 			page 65


 1580 045f 5A       		.byte	0x5a
 1581 0460 A2000000 		.4byte	0xa2
 1582 0464 41       		.byte	0x41
 1583 0465 0B       		.uleb128 0xb
 1584 0466 35080000 		.4byte	.LASF80
 1585 046a 09       		.byte	0x9
 1586 046b 5B       		.byte	0x5b
 1587 046c A2000000 		.4byte	0xa2
 1588 0470 42       		.byte	0x42
 1589 0471 0B       		.uleb128 0xb
 1590 0472 280D0000 		.4byte	.LASF81
 1591 0476 09       		.byte	0x9
 1592 0477 5C       		.byte	0x5c
 1593 0478 A2000000 		.4byte	0xa2
 1594 047c 43       		.byte	0x43
 1595 047d 0B       		.uleb128 0xb
 1596 047e B90E0000 		.4byte	.LASF82
 1597 0482 09       		.byte	0x9
 1598 0483 5D       		.byte	0x5d
 1599 0484 A2000000 		.4byte	0xa2
 1600 0488 44       		.byte	0x44
 1601 0489 0B       		.uleb128 0xb
 1602 048a 56170000 		.4byte	.LASF83
 1603 048e 09       		.byte	0x9
 1604 048f 5E       		.byte	0x5e
 1605 0490 CE000000 		.4byte	0xce
 1606 0494 48       		.byte	0x48
 1607 0495 0B       		.uleb128 0xb
 1608 0496 CA0E0000 		.4byte	.LASF84
 1609 049a 09       		.byte	0x9
 1610 049b 5F       		.byte	0x5f
 1611 049c CE000000 		.4byte	0xce
 1612 04a0 4C       		.byte	0x4c
 1613 04a1 0B       		.uleb128 0xb
 1614 04a2 161C0000 		.4byte	.LASF85
 1615 04a6 09       		.byte	0x9
 1616 04a7 60       		.byte	0x60
 1617 04a8 A2000000 		.4byte	0xa2
 1618 04ac 50       		.byte	0x50
 1619 04ad 0B       		.uleb128 0xb
 1620 04ae 940B0000 		.4byte	.LASF86
 1621 04b2 09       		.byte	0x9
 1622 04b3 61       		.byte	0x61
 1623 04b4 A2000000 		.4byte	0xa2
 1624 04b8 51       		.byte	0x51
 1625 04b9 0B       		.uleb128 0xb
 1626 04ba F20C0000 		.4byte	.LASF87
 1627 04be 09       		.byte	0x9
 1628 04bf 62       		.byte	0x62
 1629 04c0 A2000000 		.4byte	0xa2
 1630 04c4 52       		.byte	0x52
 1631 04c5 0B       		.uleb128 0xb
 1632 04c6 23140000 		.4byte	.LASF88
 1633 04ca 09       		.byte	0x9
 1634 04cb 63       		.byte	0x63
 1635 04cc A2000000 		.4byte	0xa2
 1636 04d0 53       		.byte	0x53
ARM GAS  C:\Users\dmr85\AppData\Local\Temp\ccSmIU8b.s 			page 66


 1637 04d1 0B       		.uleb128 0xb
 1638 04d2 7A1B0000 		.4byte	.LASF89
 1639 04d6 09       		.byte	0x9
 1640 04d7 64       		.byte	0x64
 1641 04d8 A2000000 		.4byte	0xa2
 1642 04dc 54       		.byte	0x54
 1643 04dd 0B       		.uleb128 0xb
 1644 04de F80B0000 		.4byte	.LASF90
 1645 04e2 09       		.byte	0x9
 1646 04e3 65       		.byte	0x65
 1647 04e4 A2000000 		.4byte	0xa2
 1648 04e8 55       		.byte	0x55
 1649 04e9 0B       		.uleb128 0xb
 1650 04ea 00000000 		.4byte	.LASF91
 1651 04ee 09       		.byte	0x9
 1652 04ef 66       		.byte	0x66
 1653 04f0 A2000000 		.4byte	0xa2
 1654 04f4 56       		.byte	0x56
 1655 04f5 0B       		.uleb128 0xb
 1656 04f6 2D150000 		.4byte	.LASF92
 1657 04fa 09       		.byte	0x9
 1658 04fb 67       		.byte	0x67
 1659 04fc A2000000 		.4byte	0xa2
 1660 0500 57       		.byte	0x57
 1661 0501 0B       		.uleb128 0xb
 1662 0502 F30A0000 		.4byte	.LASF93
 1663 0506 09       		.byte	0x9
 1664 0507 68       		.byte	0x68
 1665 0508 A2000000 		.4byte	0xa2
 1666 050c 58       		.byte	0x58
 1667 050d 0B       		.uleb128 0xb
 1668 050e 921D0000 		.4byte	.LASF94
 1669 0512 09       		.byte	0x9
 1670 0513 69       		.byte	0x69
 1671 0514 A2000000 		.4byte	0xa2
 1672 0518 59       		.byte	0x59
 1673 0519 0B       		.uleb128 0xb
 1674 051a 9A1C0000 		.4byte	.LASF95
 1675 051e 09       		.byte	0x9
 1676 051f 6E       		.byte	0x6e
 1677 0520 B8000000 		.4byte	0xb8
 1678 0524 5A       		.byte	0x5a
 1679 0525 0B       		.uleb128 0xb
 1680 0526 2B020000 		.4byte	.LASF96
 1681 052a 09       		.byte	0x9
 1682 052b 6F       		.byte	0x6f
 1683 052c B8000000 		.4byte	0xb8
 1684 0530 5C       		.byte	0x5c
 1685 0531 0B       		.uleb128 0xb
 1686 0532 0D110000 		.4byte	.LASF97
 1687 0536 09       		.byte	0x9
 1688 0537 70       		.byte	0x70
 1689 0538 A2000000 		.4byte	0xa2
 1690 053c 5E       		.byte	0x5e
 1691 053d 0B       		.uleb128 0xb
 1692 053e BB1C0000 		.4byte	.LASF98
 1693 0542 09       		.byte	0x9
ARM GAS  C:\Users\dmr85\AppData\Local\Temp\ccSmIU8b.s 			page 67


 1694 0543 71       		.byte	0x71
 1695 0544 A2000000 		.4byte	0xa2
 1696 0548 5F       		.byte	0x5f
 1697 0549 0B       		.uleb128 0xb
 1698 054a 5B0D0000 		.4byte	.LASF99
 1699 054e 09       		.byte	0x9
 1700 054f 72       		.byte	0x72
 1701 0550 A2000000 		.4byte	0xa2
 1702 0554 60       		.byte	0x60
 1703 0555 0B       		.uleb128 0xb
 1704 0556 850F0000 		.4byte	.LASF100
 1705 055a 09       		.byte	0x9
 1706 055b 73       		.byte	0x73
 1707 055c CE000000 		.4byte	0xce
 1708 0560 64       		.byte	0x64
 1709 0561 0B       		.uleb128 0xb
 1710 0562 901E0000 		.4byte	.LASF101
 1711 0566 09       		.byte	0x9
 1712 0567 76       		.byte	0x76
 1713 0568 B8000000 		.4byte	0xb8
 1714 056c 68       		.byte	0x68
 1715 056d 0B       		.uleb128 0xb
 1716 056e CA140000 		.4byte	.LASF102
 1717 0572 09       		.byte	0x9
 1718 0573 77       		.byte	0x77
 1719 0574 B8000000 		.4byte	0xb8
 1720 0578 6A       		.byte	0x6a
 1721 0579 0B       		.uleb128 0xb
 1722 057a 09120000 		.4byte	.LASF103
 1723 057e 09       		.byte	0x9
 1724 057f 78       		.byte	0x78
 1725 0580 B8000000 		.4byte	0xb8
 1726 0584 6C       		.byte	0x6c
 1727 0585 0B       		.uleb128 0xb
 1728 0586 00040000 		.4byte	.LASF104
 1729 058a 09       		.byte	0x9
 1730 058b 79       		.byte	0x79
 1731 058c B8000000 		.4byte	0xb8
 1732 0590 6E       		.byte	0x6e
 1733 0591 0B       		.uleb128 0xb
 1734 0592 E00F0000 		.4byte	.LASF105
 1735 0596 09       		.byte	0x9
 1736 0597 7B       		.byte	0x7b
 1737 0598 A2000000 		.4byte	0xa2
 1738 059c 70       		.byte	0x70
 1739 059d 0B       		.uleb128 0xb
 1740 059e 36060000 		.4byte	.LASF106
 1741 05a2 09       		.byte	0x9
 1742 05a3 7C       		.byte	0x7c
 1743 05a4 A2000000 		.4byte	0xa2
 1744 05a8 71       		.byte	0x71
 1745 05a9 0B       		.uleb128 0xb
 1746 05aa B3090000 		.4byte	.LASF107
 1747 05ae 09       		.byte	0x9
 1748 05af 7D       		.byte	0x7d
 1749 05b0 A2000000 		.4byte	0xa2
 1750 05b4 72       		.byte	0x72
ARM GAS  C:\Users\dmr85\AppData\Local\Temp\ccSmIU8b.s 			page 68


 1751 05b5 0B       		.uleb128 0xb
 1752 05b6 39090000 		.4byte	.LASF108
 1753 05ba 09       		.byte	0x9
 1754 05bb 7E       		.byte	0x7e
 1755 05bc A2000000 		.4byte	0xa2
 1756 05c0 73       		.byte	0x73
 1757 05c1 0B       		.uleb128 0xb
 1758 05c2 5B160000 		.4byte	.LASF109
 1759 05c6 09       		.byte	0x9
 1760 05c7 80       		.byte	0x80
 1761 05c8 B8000000 		.4byte	0xb8
 1762 05cc 74       		.byte	0x74
 1763 05cd 0B       		.uleb128 0xb
 1764 05ce 35140000 		.4byte	.LASF110
 1765 05d2 09       		.byte	0x9
 1766 05d3 81       		.byte	0x81
 1767 05d4 B8000000 		.4byte	0xb8
 1768 05d8 76       		.byte	0x76
 1769 05d9 0B       		.uleb128 0xb
 1770 05da 4D100000 		.4byte	.LASF111
 1771 05de 09       		.byte	0x9
 1772 05df 82       		.byte	0x82
 1773 05e0 B8000000 		.4byte	0xb8
 1774 05e4 78       		.byte	0x78
 1775 05e5 0B       		.uleb128 0xb
 1776 05e6 DD080000 		.4byte	.LASF112
 1777 05ea 09       		.byte	0x9
 1778 05eb 83       		.byte	0x83
 1779 05ec B8000000 		.4byte	0xb8
 1780 05f0 7A       		.byte	0x7a
 1781 05f1 0B       		.uleb128 0xb
 1782 05f2 CC180000 		.4byte	.LASF113
 1783 05f6 09       		.byte	0x9
 1784 05f7 86       		.byte	0x86
 1785 05f8 A2000000 		.4byte	0xa2
 1786 05fc 7C       		.byte	0x7c
 1787 05fd 0B       		.uleb128 0xb
 1788 05fe 4C1C0000 		.4byte	.LASF114
 1789 0602 09       		.byte	0x9
 1790 0603 87       		.byte	0x87
 1791 0604 A2000000 		.4byte	0xa2
 1792 0608 7D       		.byte	0x7d
 1793 0609 0B       		.uleb128 0xb
 1794 060a 8E080000 		.4byte	.LASF115
 1795 060e 09       		.byte	0x9
 1796 060f 88       		.byte	0x88
 1797 0610 A2000000 		.4byte	0xa2
 1798 0614 7E       		.byte	0x7e
 1799 0615 0B       		.uleb128 0xb
 1800 0616 96070000 		.4byte	.LASF116
 1801 061a 09       		.byte	0x9
 1802 061b 89       		.byte	0x89
 1803 061c A2000000 		.4byte	0xa2
 1804 0620 7F       		.byte	0x7f
 1805 0621 0B       		.uleb128 0xb
 1806 0622 F2080000 		.4byte	.LASF117
 1807 0626 09       		.byte	0x9
ARM GAS  C:\Users\dmr85\AppData\Local\Temp\ccSmIU8b.s 			page 69


 1808 0627 8A       		.byte	0x8a
 1809 0628 A2000000 		.4byte	0xa2
 1810 062c 80       		.byte	0x80
 1811 062d 0B       		.uleb128 0xb
 1812 062e 16010000 		.4byte	.LASF118
 1813 0632 09       		.byte	0x9
 1814 0633 8D       		.byte	0x8d
 1815 0634 CE000000 		.4byte	0xce
 1816 0638 84       		.byte	0x84
 1817 0639 0B       		.uleb128 0xb
 1818 063a 53190000 		.4byte	.LASF119
 1819 063e 09       		.byte	0x9
 1820 063f 8E       		.byte	0x8e
 1821 0640 CE000000 		.4byte	0xce
 1822 0644 88       		.byte	0x88
 1823 0645 0B       		.uleb128 0xb
 1824 0646 F2120000 		.4byte	.LASF120
 1825 064a 09       		.byte	0x9
 1826 064b 8F       		.byte	0x8f
 1827 064c CE000000 		.4byte	0xce
 1828 0650 8C       		.byte	0x8c
 1829 0651 0B       		.uleb128 0xb
 1830 0652 46160000 		.4byte	.LASF121
 1831 0656 09       		.byte	0x9
 1832 0657 90       		.byte	0x90
 1833 0658 CE000000 		.4byte	0xce
 1834 065c 90       		.byte	0x90
 1835 065d 0B       		.uleb128 0xb
 1836 065e A7180000 		.4byte	.LASF122
 1837 0662 09       		.byte	0x9
 1838 0663 91       		.byte	0x91
 1839 0664 CE000000 		.4byte	0xce
 1840 0668 94       		.byte	0x94
 1841 0669 0B       		.uleb128 0xb
 1842 066a 4B060000 		.4byte	.LASF123
 1843 066e 09       		.byte	0x9
 1844 066f 92       		.byte	0x92
 1845 0670 CE000000 		.4byte	0xce
 1846 0674 98       		.byte	0x98
 1847 0675 0B       		.uleb128 0xb
 1848 0676 95190000 		.4byte	.LASF124
 1849 067a 09       		.byte	0x9
 1850 067b 93       		.byte	0x93
 1851 067c CE000000 		.4byte	0xce
 1852 0680 9C       		.byte	0x9c
 1853 0681 0B       		.uleb128 0xb
 1854 0682 65020000 		.4byte	.LASF125
 1855 0686 09       		.byte	0x9
 1856 0687 94       		.byte	0x94
 1857 0688 CE000000 		.4byte	0xce
 1858 068c A0       		.byte	0xa0
 1859 068d 0B       		.uleb128 0xb
 1860 068e 16020000 		.4byte	.LASF126
 1861 0692 09       		.byte	0x9
 1862 0693 95       		.byte	0x95
 1863 0694 B8000000 		.4byte	0xb8
 1864 0698 A4       		.byte	0xa4
ARM GAS  C:\Users\dmr85\AppData\Local\Temp\ccSmIU8b.s 			page 70


 1865 0699 0B       		.uleb128 0xb
 1866 069a 31160000 		.4byte	.LASF127
 1867 069e 09       		.byte	0x9
 1868 069f 96       		.byte	0x96
 1869 06a0 B8000000 		.4byte	0xb8
 1870 06a4 A6       		.byte	0xa6
 1871 06a5 0B       		.uleb128 0xb
 1872 06a6 DD190000 		.4byte	.LASF128
 1873 06aa 09       		.byte	0x9
 1874 06ab 97       		.byte	0x97
 1875 06ac B8000000 		.4byte	0xb8
 1876 06b0 A8       		.byte	0xa8
 1877 06b1 0B       		.uleb128 0xb
 1878 06b2 ED100000 		.4byte	.LASF129
 1879 06b6 09       		.byte	0x9
 1880 06b7 98       		.byte	0x98
 1881 06b8 B8000000 		.4byte	0xb8
 1882 06bc AA       		.byte	0xaa
 1883 06bd 0B       		.uleb128 0xb
 1884 06be 75040000 		.4byte	.LASF130
 1885 06c2 09       		.byte	0x9
 1886 06c3 99       		.byte	0x99
 1887 06c4 B8000000 		.4byte	0xb8
 1888 06c8 AC       		.byte	0xac
 1889 06c9 0B       		.uleb128 0xb
 1890 06ca 17130000 		.4byte	.LASF131
 1891 06ce 09       		.byte	0x9
 1892 06cf 9A       		.byte	0x9a
 1893 06d0 B8000000 		.4byte	0xb8
 1894 06d4 AE       		.byte	0xae
 1895 06d5 0B       		.uleb128 0xb
 1896 06d6 AB040000 		.4byte	.LASF132
 1897 06da 09       		.byte	0x9
 1898 06db 9D       		.byte	0x9d
 1899 06dc B8000000 		.4byte	0xb8
 1900 06e0 B0       		.byte	0xb0
 1901 06e1 0B       		.uleb128 0xb
 1902 06e2 BF1A0000 		.4byte	.LASF133
 1903 06e6 09       		.byte	0x9
 1904 06e7 9E       		.byte	0x9e
 1905 06e8 CE000000 		.4byte	0xce
 1906 06ec B4       		.byte	0xb4
 1907 06ed 00       		.byte	0
 1908 06ee 03       		.uleb128 0x3
 1909 06ef 201D0000 		.4byte	.LASF134
 1910 06f3 09       		.byte	0x9
 1911 06f4 9F       		.byte	0x9f
 1912 06f5 DD020000 		.4byte	0x2dd
 1913 06f9 0E       		.uleb128 0xe
 1914 06fa C6170000 		.4byte	.LASF135
 1915 06fe 0A       		.byte	0xa
 1916 06ff F601     		.2byte	0x1f6
 1917 0701 05070000 		.4byte	0x705
 1918 0705 02       		.uleb128 0x2
 1919 0706 01       		.byte	0x1
 1920 0707 08       		.byte	0x8
 1921 0708 2E0E0000 		.4byte	.LASF136
ARM GAS  C:\Users\dmr85\AppData\Local\Temp\ccSmIU8b.s 			page 71


 1922 070c 02       		.uleb128 0x2
 1923 070d 04       		.byte	0x4
 1924 070e 04       		.byte	0x4
 1925 070f E9190000 		.4byte	.LASF137
 1926 0713 02       		.uleb128 0x2
 1927 0714 08       		.byte	0x8
 1928 0715 04       		.byte	0x4
 1929 0716 691D0000 		.4byte	.LASF138
 1930 071a 0E       		.uleb128 0xe
 1931 071b 631D0000 		.4byte	.LASF139
 1932 071f 0A       		.byte	0xa
 1933 0720 EA03     		.2byte	0x3ea
 1934 0722 A2000000 		.4byte	0xa2
 1935 0726 0F       		.uleb128 0xf
 1936 0727 04       		.byte	0x4
 1937 0728 02       		.uleb128 0x2
 1938 0729 01       		.byte	0x1
 1939 072a 02       		.byte	0x2
 1940 072b D50B0000 		.4byte	.LASF140
 1941 072f 10       		.uleb128 0x10
 1942 0730 04       		.byte	0x4
 1943 0731 35070000 		.4byte	0x735
 1944 0735 11       		.uleb128 0x11
 1945 0736 40070000 		.4byte	0x740
 1946 073a 12       		.uleb128 0x12
 1947 073b CE000000 		.4byte	0xce
 1948 073f 00       		.byte	0
 1949 0740 10       		.uleb128 0x10
 1950 0741 04       		.byte	0x4
 1951 0742 A2000000 		.4byte	0xa2
 1952 0746 0E       		.uleb128 0xe
 1953 0747 82000000 		.4byte	.LASF141
 1954 074b 0B       		.byte	0xb
 1955 074c F201     		.2byte	0x1f2
 1956 074e 2F070000 		.4byte	0x72f
 1957 0752 13       		.uleb128 0x13
 1958 0753 541B0000 		.4byte	.LASF153
 1959 0757 24       		.byte	0x24
 1960 0758 0B       		.byte	0xb
 1961 0759 7402     		.2byte	0x274
 1962 075b D5070000 		.4byte	0x7d5
 1963 075f 14       		.uleb128 0x14
 1964 0760 AE0F0000 		.4byte	.LASF142
 1965 0764 0B       		.byte	0xb
 1966 0765 7702     		.2byte	0x277
 1967 0767 E0000000 		.4byte	0xe0
 1968 076b 00       		.byte	0
 1969 076c 14       		.uleb128 0x14
 1970 076d 970A0000 		.4byte	.LASF143
 1971 0771 0B       		.byte	0xb
 1972 0772 7902     		.2byte	0x279
 1973 0774 26070000 		.4byte	0x726
 1974 0778 04       		.byte	0x4
 1975 0779 14       		.uleb128 0x14
 1976 077a A01E0000 		.4byte	.LASF144
 1977 077e 0B       		.byte	0xb
 1978 077f 7A02     		.2byte	0x27a
ARM GAS  C:\Users\dmr85\AppData\Local\Temp\ccSmIU8b.s 			page 72


 1979 0781 CE000000 		.4byte	0xce
 1980 0785 08       		.byte	0x8
 1981 0786 14       		.uleb128 0x14
 1982 0787 4A0F0000 		.4byte	.LASF145
 1983 078b 0B       		.byte	0xb
 1984 078c 7B02     		.2byte	0x27b
 1985 078e E0000000 		.4byte	0xe0
 1986 0792 0C       		.byte	0xc
 1987 0793 14       		.uleb128 0x14
 1988 0794 0D140000 		.4byte	.LASF146
 1989 0798 0B       		.byte	0xb
 1990 0799 7D02     		.2byte	0x27d
 1991 079b 26070000 		.4byte	0x726
 1992 079f 10       		.byte	0x10
 1993 07a0 14       		.uleb128 0x14
 1994 07a1 A2120000 		.4byte	.LASF147
 1995 07a5 0B       		.byte	0xb
 1996 07a6 7E02     		.2byte	0x27e
 1997 07a8 CE000000 		.4byte	0xce
 1998 07ac 14       		.byte	0x14
 1999 07ad 14       		.uleb128 0x14
 2000 07ae 12030000 		.4byte	.LASF148
 2001 07b2 0B       		.byte	0xb
 2002 07b3 7F02     		.2byte	0x27f
 2003 07b5 E0000000 		.4byte	0xe0
 2004 07b9 18       		.byte	0x18
 2005 07ba 14       		.uleb128 0x14
 2006 07bb A60B0000 		.4byte	.LASF149
 2007 07bf 0B       		.byte	0xb
 2008 07c0 8502     		.2byte	0x285
 2009 07c2 46070000 		.4byte	0x746
 2010 07c6 1C       		.byte	0x1c
 2011 07c7 14       		.uleb128 0x14
 2012 07c8 7D0F0000 		.4byte	.LASF150
 2013 07cc 0B       		.byte	0xb
 2014 07cd 8802     		.2byte	0x288
 2015 07cf CE000000 		.4byte	0xce
 2016 07d3 20       		.byte	0x20
 2017 07d4 00       		.byte	0
 2018 07d5 0E       		.uleb128 0xe
 2019 07d6 1D120000 		.4byte	.LASF151
 2020 07da 0B       		.byte	0xb
 2021 07db 8B02     		.2byte	0x28b
 2022 07dd 52070000 		.4byte	0x752
 2023 07e1 0E       		.uleb128 0xe
 2024 07e2 72100000 		.4byte	.LASF152
 2025 07e6 0C       		.byte	0xc
 2026 07e7 D901     		.2byte	0x1d9
 2027 07e9 2F070000 		.4byte	0x72f
 2028 07ed 13       		.uleb128 0x13
 2029 07ee 66080000 		.4byte	.LASF154
 2030 07f2 38       		.byte	0x38
 2031 07f3 0C       		.byte	0xc
 2032 07f4 7502     		.2byte	0x275
 2033 07f6 B1080000 		.4byte	0x8b1
 2034 07fa 14       		.uleb128 0x14
 2035 07fb C1010000 		.4byte	.LASF155
ARM GAS  C:\Users\dmr85\AppData\Local\Temp\ccSmIU8b.s 			page 73


 2036 07ff 0C       		.byte	0xc
 2037 0800 7802     		.2byte	0x278
 2038 0802 E0000000 		.4byte	0xe0
 2039 0806 00       		.byte	0
 2040 0807 14       		.uleb128 0x14
 2041 0808 8E0A0000 		.4byte	.LASF156
 2042 080c 0C       		.byte	0xc
 2043 080d 7902     		.2byte	0x279
 2044 080f E0000000 		.4byte	0xe0
 2045 0813 04       		.byte	0x4
 2046 0814 14       		.uleb128 0x14
 2047 0815 6C140000 		.4byte	.LASF157
 2048 0819 0C       		.byte	0xc
 2049 081a 7B02     		.2byte	0x27b
 2050 081c 26070000 		.4byte	0x726
 2051 0820 08       		.byte	0x8
 2052 0821 14       		.uleb128 0x14
 2053 0822 F2030000 		.4byte	.LASF158
 2054 0826 0C       		.byte	0xc
 2055 0827 7C02     		.2byte	0x27c
 2056 0829 CE000000 		.4byte	0xce
 2057 082d 0C       		.byte	0xc
 2058 082e 14       		.uleb128 0x14
 2059 082f 36120000 		.4byte	.LASF159
 2060 0833 0C       		.byte	0xc
 2061 0834 7D02     		.2byte	0x27d
 2062 0836 E0000000 		.4byte	0xe0
 2063 083a 10       		.byte	0x10
 2064 083b 14       		.uleb128 0x14
 2065 083c A10E0000 		.4byte	.LASF160
 2066 0840 0C       		.byte	0xc
 2067 0841 7E02     		.2byte	0x27e
 2068 0843 E0000000 		.4byte	0xe0
 2069 0847 14       		.byte	0x14
 2070 0848 14       		.uleb128 0x14
 2071 0849 970A0000 		.4byte	.LASF143
 2072 084d 0C       		.byte	0xc
 2073 084e 8002     		.2byte	0x280
 2074 0850 26070000 		.4byte	0x726
 2075 0854 18       		.byte	0x18
 2076 0855 14       		.uleb128 0x14
 2077 0856 A01E0000 		.4byte	.LASF144
 2078 085a 0C       		.byte	0xc
 2079 085b 8102     		.2byte	0x281
 2080 085d CE000000 		.4byte	0xce
 2081 0861 1C       		.byte	0x1c
 2082 0862 14       		.uleb128 0x14
 2083 0863 4A0F0000 		.4byte	.LASF145
 2084 0867 0C       		.byte	0xc
 2085 0868 8202     		.2byte	0x282
 2086 086a E0000000 		.4byte	0xe0
 2087 086e 20       		.byte	0x20
 2088 086f 14       		.uleb128 0x14
 2089 0870 0D140000 		.4byte	.LASF146
 2090 0874 0C       		.byte	0xc
 2091 0875 8402     		.2byte	0x284
 2092 0877 26070000 		.4byte	0x726
ARM GAS  C:\Users\dmr85\AppData\Local\Temp\ccSmIU8b.s 			page 74


 2093 087b 24       		.byte	0x24
 2094 087c 14       		.uleb128 0x14
 2095 087d A2120000 		.4byte	.LASF147
 2096 0881 0C       		.byte	0xc
 2097 0882 8502     		.2byte	0x285
 2098 0884 CE000000 		.4byte	0xce
 2099 0888 28       		.byte	0x28
 2100 0889 14       		.uleb128 0x14
 2101 088a 25180000 		.4byte	.LASF161
 2102 088e 0C       		.byte	0xc
 2103 088f 8602     		.2byte	0x286
 2104 0891 E0000000 		.4byte	0xe0
 2105 0895 2C       		.byte	0x2c
 2106 0896 14       		.uleb128 0x14
 2107 0897 A60B0000 		.4byte	.LASF149
 2108 089b 0C       		.byte	0xc
 2109 089c 8B02     		.2byte	0x28b
 2110 089e E1070000 		.4byte	0x7e1
 2111 08a2 30       		.byte	0x30
 2112 08a3 14       		.uleb128 0x14
 2113 08a4 7D0F0000 		.4byte	.LASF150
 2114 08a8 0C       		.byte	0xc
 2115 08a9 8E02     		.2byte	0x28e
 2116 08ab CE000000 		.4byte	0xce
 2117 08af 34       		.byte	0x34
 2118 08b0 00       		.byte	0
 2119 08b1 0E       		.uleb128 0xe
 2120 08b2 1B080000 		.4byte	.LASF162
 2121 08b6 0C       		.byte	0xc
 2122 08b7 9102     		.2byte	0x291
 2123 08b9 ED070000 		.4byte	0x7ed
 2124 08bd 15       		.uleb128 0x15
 2125 08be 02       		.byte	0x2
 2126 08bf 5B000000 		.4byte	0x5b
 2127 08c3 0E       		.byte	0xe
 2128 08c4 5401     		.2byte	0x154
 2129 08c6 FD0B0000 		.4byte	0xbfd
 2130 08ca 16       		.uleb128 0x16
 2131 08cb 29040000 		.4byte	.LASF163
 2132 08cf 00       		.byte	0
 2133 08d0 17       		.uleb128 0x17
 2134 08d1 F2010000 		.4byte	.LASF164
 2135 08d5 0010     		.2byte	0x1000
 2136 08d7 17       		.uleb128 0x17
 2137 08d8 AB190000 		.4byte	.LASF165
 2138 08dc 0110     		.2byte	0x1001
 2139 08de 17       		.uleb128 0x17
 2140 08df 0B0D0000 		.4byte	.LASF166
 2141 08e3 0210     		.2byte	0x1002
 2142 08e5 17       		.uleb128 0x17
 2143 08e6 50090000 		.4byte	.LASF167
 2144 08ea 0310     		.2byte	0x1003
 2145 08ec 17       		.uleb128 0x17
 2146 08ed F7000000 		.4byte	.LASF168
 2147 08f1 0410     		.2byte	0x1004
 2148 08f3 17       		.uleb128 0x17
 2149 08f4 C51D0000 		.4byte	.LASF169
ARM GAS  C:\Users\dmr85\AppData\Local\Temp\ccSmIU8b.s 			page 75


 2150 08f8 0510     		.2byte	0x1005
 2151 08fa 17       		.uleb128 0x17
 2152 08fb FB140000 		.4byte	.LASF170
 2153 08ff 0020     		.2byte	0x2000
 2154 0901 17       		.uleb128 0x17
 2155 0902 56180000 		.4byte	.LASF171
 2156 0906 0120     		.2byte	0x2001
 2157 0908 17       		.uleb128 0x17
 2158 0909 82140000 		.4byte	.LASF172
 2159 090d 0220     		.2byte	0x2002
 2160 090f 17       		.uleb128 0x17
 2161 0910 A8030000 		.4byte	.LASF173
 2162 0914 0320     		.2byte	0x2003
 2163 0916 17       		.uleb128 0x17
 2164 0917 240F0000 		.4byte	.LASF174
 2165 091b 0420     		.2byte	0x2004
 2166 091d 17       		.uleb128 0x17
 2167 091e 77110000 		.4byte	.LASF175
 2168 0922 0520     		.2byte	0x2005
 2169 0924 17       		.uleb128 0x17
 2170 0925 A70C0000 		.4byte	.LASF176
 2171 0929 0620     		.2byte	0x2006
 2172 092b 17       		.uleb128 0x17
 2173 092c E1180000 		.4byte	.LASF177
 2174 0930 0720     		.2byte	0x2007
 2175 0932 17       		.uleb128 0x17
 2176 0933 0E1B0000 		.4byte	.LASF178
 2177 0937 0820     		.2byte	0x2008
 2178 0939 17       		.uleb128 0x17
 2179 093a F3090000 		.4byte	.LASF179
 2180 093e 0920     		.2byte	0x2009
 2181 0940 17       		.uleb128 0x17
 2182 0941 D8070000 		.4byte	.LASF180
 2183 0945 0A20     		.2byte	0x200a
 2184 0947 17       		.uleb128 0x17
 2185 0948 37030000 		.4byte	.LASF181
 2186 094c 0B20     		.2byte	0x200b
 2187 094e 17       		.uleb128 0x17
 2188 094f DC140000 		.4byte	.LASF182
 2189 0953 0C20     		.2byte	0x200c
 2190 0955 17       		.uleb128 0x17
 2191 0956 17070000 		.4byte	.LASF183
 2192 095a 0D20     		.2byte	0x200d
 2193 095c 17       		.uleb128 0x17
 2194 095d FA0E0000 		.4byte	.LASF184
 2195 0961 0E20     		.2byte	0x200e
 2196 0963 17       		.uleb128 0x17
 2197 0964 A6150000 		.4byte	.LASF185
 2198 0968 0F20     		.2byte	0x200f
 2199 096a 17       		.uleb128 0x17
 2200 096b 47110000 		.4byte	.LASF186
 2201 096f 1020     		.2byte	0x2010
 2202 0971 17       		.uleb128 0x17
 2203 0972 75120000 		.4byte	.LASF187
 2204 0976 1120     		.2byte	0x2011
 2205 0978 17       		.uleb128 0x17
 2206 0979 DC1A0000 		.4byte	.LASF188
ARM GAS  C:\Users\dmr85\AppData\Local\Temp\ccSmIU8b.s 			page 76


 2207 097d 1220     		.2byte	0x2012
 2208 097f 17       		.uleb128 0x17
 2209 0980 650A0000 		.4byte	.LASF189
 2210 0984 1320     		.2byte	0x2013
 2211 0986 17       		.uleb128 0x17
 2212 0987 29100000 		.4byte	.LASF190
 2213 098b 1420     		.2byte	0x2014
 2214 098d 17       		.uleb128 0x17
 2215 098e B9040000 		.4byte	.LASF191
 2216 0992 1520     		.2byte	0x2015
 2217 0994 17       		.uleb128 0x17
 2218 0995 A9060000 		.4byte	.LASF192
 2219 0999 1620     		.2byte	0x2016
 2220 099b 17       		.uleb128 0x17
 2221 099c 83030000 		.4byte	.LASF193
 2222 09a0 1720     		.2byte	0x2017
 2223 09a2 17       		.uleb128 0x17
 2224 09a3 6C070000 		.4byte	.LASF194
 2225 09a7 0030     		.2byte	0x3000
 2226 09a9 17       		.uleb128 0x17
 2227 09aa 320B0000 		.4byte	.LASF195
 2228 09ae 0130     		.2byte	0x3001
 2229 09b0 17       		.uleb128 0x17
 2230 09b1 C9090000 		.4byte	.LASF196
 2231 09b5 0230     		.2byte	0x3002
 2232 09b7 17       		.uleb128 0x17
 2233 09b8 0F190000 		.4byte	.LASF197
 2234 09bc 0330     		.2byte	0x3003
 2235 09be 17       		.uleb128 0x17
 2236 09bf 1C090000 		.4byte	.LASF198
 2237 09c3 0430     		.2byte	0x3004
 2238 09c5 17       		.uleb128 0x17
 2239 09c6 6A190000 		.4byte	.LASF199
 2240 09ca 0530     		.2byte	0x3005
 2241 09cc 17       		.uleb128 0x17
 2242 09cd D3010000 		.4byte	.LASF200
 2243 09d1 0630     		.2byte	0x3006
 2244 09d3 17       		.uleb128 0x17
 2245 09d4 F01C0000 		.4byte	.LASF201
 2246 09d8 0730     		.2byte	0x3007
 2247 09da 17       		.uleb128 0x17
 2248 09db B8110000 		.4byte	.LASF202
 2249 09df 0830     		.2byte	0x3008
 2250 09e1 17       		.uleb128 0x17
 2251 09e2 370C0000 		.4byte	.LASF203
 2252 09e6 0930     		.2byte	0x3009
 2253 09e8 17       		.uleb128 0x17
 2254 09e9 33190000 		.4byte	.LASF204
 2255 09ed 0A30     		.2byte	0x300a
 2256 09ef 17       		.uleb128 0x17
 2257 09f0 330E0000 		.4byte	.LASF205
 2258 09f4 0B30     		.2byte	0x300b
 2259 09f6 17       		.uleb128 0x17
 2260 09f7 39010000 		.4byte	.LASF206
 2261 09fb 0C30     		.2byte	0x300c
 2262 09fd 17       		.uleb128 0x17
 2263 09fe B50F0000 		.4byte	.LASF207
ARM GAS  C:\Users\dmr85\AppData\Local\Temp\ccSmIU8b.s 			page 77


 2264 0a02 1130     		.2byte	0x3011
 2265 0a04 17       		.uleb128 0x17
 2266 0a05 F5150000 		.4byte	.LASF208
 2267 0a09 1230     		.2byte	0x3012
 2268 0a0b 17       		.uleb128 0x17
 2269 0a0c F7190000 		.4byte	.LASF209
 2270 0a10 1330     		.2byte	0x3013
 2271 0a12 17       		.uleb128 0x17
 2272 0a13 80180000 		.4byte	.LASF210
 2273 0a17 1430     		.2byte	0x3014
 2274 0a19 17       		.uleb128 0x17
 2275 0a1a 27170000 		.4byte	.LASF211
 2276 0a1e 1530     		.2byte	0x3015
 2277 0a20 17       		.uleb128 0x17
 2278 0a21 CA100000 		.4byte	.LASF212
 2279 0a25 1630     		.2byte	0x3016
 2280 0a27 17       		.uleb128 0x17
 2281 0a28 A8100000 		.4byte	.LASF213
 2282 0a2c 1730     		.2byte	0x3017
 2283 0a2e 17       		.uleb128 0x17
 2284 0a2f A20D0000 		.4byte	.LASF214
 2285 0a33 1830     		.2byte	0x3018
 2286 0a35 17       		.uleb128 0x17
 2287 0a36 D7160000 		.4byte	.LASF215
 2288 0a3a 1930     		.2byte	0x3019
 2289 0a3c 17       		.uleb128 0x17
 2290 0a3d 25130000 		.4byte	.LASF216
 2291 0a41 0040     		.2byte	0x4000
 2292 0a43 17       		.uleb128 0x17
 2293 0a44 4D0A0000 		.4byte	.LASF217
 2294 0a48 0140     		.2byte	0x4001
 2295 0a4a 17       		.uleb128 0x17
 2296 0a4b 271C0000 		.4byte	.LASF218
 2297 0a4f 0240     		.2byte	0x4002
 2298 0a51 17       		.uleb128 0x17
 2299 0a52 381A0000 		.4byte	.LASF219
 2300 0a56 0340     		.2byte	0x4003
 2301 0a58 17       		.uleb128 0x17
 2302 0a59 0C100000 		.4byte	.LASF220
 2303 0a5d 0440     		.2byte	0x4004
 2304 0a5f 17       		.uleb128 0x17
 2305 0a60 1A1E0000 		.4byte	.LASF221
 2306 0a64 0540     		.2byte	0x4005
 2307 0a66 17       		.uleb128 0x17
 2308 0a67 A0000000 		.4byte	.LASF222
 2309 0a6b 0640     		.2byte	0x4006
 2310 0a6d 17       		.uleb128 0x17
 2311 0a6e 070B0000 		.4byte	.LASF223
 2312 0a72 0740     		.2byte	0x4007
 2313 0a74 17       		.uleb128 0x17
 2314 0a75 EF020000 		.4byte	.LASF224
 2315 0a79 0840     		.2byte	0x4008
 2316 0a7b 17       		.uleb128 0x17
 2317 0a7c 95090000 		.4byte	.LASF225
 2318 0a80 0940     		.2byte	0x4009
 2319 0a82 17       		.uleb128 0x17
 2320 0a83 D41E0000 		.4byte	.LASF226
ARM GAS  C:\Users\dmr85\AppData\Local\Temp\ccSmIU8b.s 			page 78


 2321 0a87 0A40     		.2byte	0x400a
 2322 0a89 17       		.uleb128 0x17
 2323 0a8a 570E0000 		.4byte	.LASF227
 2324 0a8e 0B40     		.2byte	0x400b
 2325 0a90 17       		.uleb128 0x17
 2326 0a91 50120000 		.4byte	.LASF228
 2327 0a95 0C40     		.2byte	0x400c
 2328 0a97 17       		.uleb128 0x17
 2329 0a98 530F0000 		.4byte	.LASF229
 2330 0a9c 0D40     		.2byte	0x400d
 2331 0a9e 17       		.uleb128 0x17
 2332 0a9f 8A130000 		.4byte	.LASF230
 2333 0aa3 0E40     		.2byte	0x400e
 2334 0aa5 17       		.uleb128 0x17
 2335 0aa6 770E0000 		.4byte	.LASF231
 2336 0aaa 0F40     		.2byte	0x400f
 2337 0aac 17       		.uleb128 0x17
 2338 0aad A1080000 		.4byte	.LASF232
 2339 0ab1 1040     		.2byte	0x4010
 2340 0ab3 17       		.uleb128 0x17
 2341 0ab4 321B0000 		.4byte	.LASF233
 2342 0ab8 1140     		.2byte	0x4011
 2343 0aba 17       		.uleb128 0x17
 2344 0abb 7F0C0000 		.4byte	.LASF234
 2345 0abf 1240     		.2byte	0x4012
 2346 0ac1 17       		.uleb128 0x17
 2347 0ac2 CD170000 		.4byte	.LASF235
 2348 0ac6 1340     		.2byte	0x4013
 2349 0ac8 17       		.uleb128 0x17
 2350 0ac9 69130000 		.4byte	.LASF236
 2351 0acd 1440     		.2byte	0x4014
 2352 0acf 17       		.uleb128 0x17
 2353 0ad0 BC050000 		.4byte	.LASF237
 2354 0ad4 1540     		.2byte	0x4015
 2355 0ad6 17       		.uleb128 0x17
 2356 0ad7 DE1D0000 		.4byte	.LASF238
 2357 0adb 1640     		.2byte	0x4016
 2358 0add 17       		.uleb128 0x17
 2359 0ade A5020000 		.4byte	.LASF239
 2360 0ae2 1740     		.2byte	0x4017
 2361 0ae4 17       		.uleb128 0x17
 2362 0ae5 2E110000 		.4byte	.LASF240
 2363 0ae9 1840     		.2byte	0x4018
 2364 0aeb 17       		.uleb128 0x17
 2365 0aec 6D160000 		.4byte	.LASF241
 2366 0af0 1940     		.2byte	0x4019
 2367 0af2 17       		.uleb128 0x17
 2368 0af3 B7120000 		.4byte	.LASF242
 2369 0af7 1A40     		.2byte	0x401a
 2370 0af9 17       		.uleb128 0x17
 2371 0afa 63150000 		.4byte	.LASF243
 2372 0afe 0050     		.2byte	0x5000
 2373 0b00 17       		.uleb128 0x17
 2374 0b01 0D040000 		.4byte	.LASF244
 2375 0b05 0150     		.2byte	0x5001
 2376 0b07 17       		.uleb128 0x17
 2377 0b08 8A1B0000 		.4byte	.LASF245
ARM GAS  C:\Users\dmr85\AppData\Local\Temp\ccSmIU8b.s 			page 79


 2378 0b0c 0250     		.2byte	0x5002
 2379 0b0e 17       		.uleb128 0x17
 2380 0b0f D41B0000 		.4byte	.LASF246
 2381 0b13 0350     		.2byte	0x5003
 2382 0b15 17       		.uleb128 0x17
 2383 0b16 61060000 		.4byte	.LASF247
 2384 0b1a 0450     		.2byte	0x5004
 2385 0b1c 17       		.uleb128 0x17
 2386 0b1d 7E150000 		.4byte	.LASF248
 2387 0b21 0550     		.2byte	0x5005
 2388 0b23 17       		.uleb128 0x17
 2389 0b24 D80E0000 		.4byte	.LASF249
 2390 0b28 0650     		.2byte	0x5006
 2391 0b2a 17       		.uleb128 0x17
 2392 0b2b 59030000 		.4byte	.LASF250
 2393 0b2f 0750     		.2byte	0x5007
 2394 0b31 17       		.uleb128 0x17
 2395 0b32 83040000 		.4byte	.LASF251
 2396 0b36 0850     		.2byte	0x5008
 2397 0b38 17       		.uleb128 0x17
 2398 0b39 D5060000 		.4byte	.LASF252
 2399 0b3d 0950     		.2byte	0x5009
 2400 0b3f 17       		.uleb128 0x17
 2401 0b40 EF060000 		.4byte	.LASF253
 2402 0b44 0A50     		.2byte	0x500a
 2403 0b46 17       		.uleb128 0x17
 2404 0b47 68170000 		.4byte	.LASF254
 2405 0b4b 0B50     		.2byte	0x500b
 2406 0b4d 17       		.uleb128 0x17
 2407 0b4e D1150000 		.4byte	.LASF255
 2408 0b52 0C50     		.2byte	0x500c
 2409 0b54 17       		.uleb128 0x17
 2410 0b55 CB0C0000 		.4byte	.LASF256
 2411 0b59 0D50     		.2byte	0x500d
 2412 0b5b 17       		.uleb128 0x17
 2413 0b5c D11C0000 		.4byte	.LASF257
 2414 0b60 0E50     		.2byte	0x500e
 2415 0b62 17       		.uleb128 0x17
 2416 0b63 590B0000 		.4byte	.LASF258
 2417 0b67 0F50     		.2byte	0x500f
 2418 0b69 17       		.uleb128 0x17
 2419 0b6a 36180000 		.4byte	.LASF259
 2420 0b6e 1050     		.2byte	0x5010
 2421 0b70 17       		.uleb128 0x17
 2422 0b71 A91B0000 		.4byte	.LASF260
 2423 0b75 1150     		.2byte	0x5011
 2424 0b77 17       		.uleb128 0x17
 2425 0b78 5D010000 		.4byte	.LASF261
 2426 0b7c 1250     		.2byte	0x5012
 2427 0b7e 17       		.uleb128 0x17
 2428 0b7f 41150000 		.4byte	.LASF262
 2429 0b83 1350     		.2byte	0x5013
 2430 0b85 17       		.uleb128 0x17
 2431 0b86 80060000 		.4byte	.LASF263
 2432 0b8a 1450     		.2byte	0x5014
 2433 0b8c 17       		.uleb128 0x17
 2434 0b8d 851A0000 		.4byte	.LASF264
ARM GAS  C:\Users\dmr85\AppData\Local\Temp\ccSmIU8b.s 			page 80


 2435 0b91 1550     		.2byte	0x5015
 2436 0b93 17       		.uleb128 0x17
 2437 0b94 F31B0000 		.4byte	.LASF265
 2438 0b98 1650     		.2byte	0x5016
 2439 0b9a 17       		.uleb128 0x17
 2440 0b9b D5040000 		.4byte	.LASF266
 2441 0b9f 1750     		.2byte	0x5017
 2442 0ba1 17       		.uleb128 0x17
 2443 0ba2 E5110000 		.4byte	.LASF267
 2444 0ba6 1850     		.2byte	0x5018
 2445 0ba8 17       		.uleb128 0x17
 2446 0ba9 3C1D0000 		.4byte	.LASF268
 2447 0bad 0060     		.2byte	0x6000
 2448 0baf 17       		.uleb128 0x17
 2449 0bb0 9B160000 		.4byte	.LASF269
 2450 0bb4 0160     		.2byte	0x6001
 2451 0bb6 17       		.uleb128 0x17
 2452 0bb7 1B1A0000 		.4byte	.LASF270
 2453 0bbb 0260     		.2byte	0x6002
 2454 0bbd 17       		.uleb128 0x17
 2455 0bbe 4A130000 		.4byte	.LASF271
 2456 0bc2 0360     		.2byte	0x6003
 2457 0bc4 17       		.uleb128 0x17
 2458 0bc5 B9070000 		.4byte	.LASF272
 2459 0bc9 0460     		.2byte	0x6004
 2460 0bcb 17       		.uleb128 0x17
 2461 0bcc 03180000 		.4byte	.LASF273
 2462 0bd0 0560     		.2byte	0x6005
 2463 0bd2 17       		.uleb128 0x17
 2464 0bd3 0C0C0000 		.4byte	.LASF274
 2465 0bd7 0660     		.2byte	0x6006
 2466 0bd9 17       		.uleb128 0x17
 2467 0bda 62000000 		.4byte	.LASF275
 2468 0bde 0760     		.2byte	0x6007
 2469 0be0 17       		.uleb128 0x17
 2470 0be1 34020000 		.4byte	.LASF276
 2471 0be5 0860     		.2byte	0x6008
 2472 0be7 17       		.uleb128 0x17
 2473 0be8 D3000000 		.4byte	.LASF277
 2474 0bec 0960     		.2byte	0x6009
 2475 0bee 17       		.uleb128 0x17
 2476 0bef CD120000 		.4byte	.LASF278
 2477 0bf3 0A60     		.2byte	0x600a
 2478 0bf5 17       		.uleb128 0x17
 2479 0bf6 E90B0000 		.4byte	.LASF279
 2480 0bfa FFFF     		.2byte	0xffff
 2481 0bfc 00       		.byte	0
 2482 0bfd 18       		.uleb128 0x18
 2483 0bfe 02       		.byte	0x2
 2484 0bff 0D       		.byte	0xd
 2485 0c00 6001     		.2byte	0x160
 2486 0c02 210C0000 		.4byte	0xc21
 2487 0c06 14       		.uleb128 0x14
 2488 0c07 5D1C0000 		.4byte	.LASF280
 2489 0c0b 0D       		.byte	0xd
 2490 0c0c 6A01     		.2byte	0x16a
 2491 0c0e A2000000 		.4byte	0xa2
ARM GAS  C:\Users\dmr85\AppData\Local\Temp\ccSmIU8b.s 			page 81


 2492 0c12 00       		.byte	0
 2493 0c13 14       		.uleb128 0x14
 2494 0c14 ED090000 		.4byte	.LASF281
 2495 0c18 0D       		.byte	0xd
 2496 0c19 6E01     		.2byte	0x16e
 2497 0c1b A2000000 		.4byte	0xa2
 2498 0c1f 01       		.byte	0x1
 2499 0c20 00       		.byte	0
 2500 0c21 0E       		.uleb128 0xe
 2501 0c22 18160000 		.4byte	.LASF282
 2502 0c26 0D       		.byte	0xd
 2503 0c27 7001     		.2byte	0x170
 2504 0c29 FD0B0000 		.4byte	0xbfd
 2505 0c2d 19       		.uleb128 0x19
 2506 0c2e 01       		.byte	0x1
 2507 0c2f 3E000000 		.4byte	0x3e
 2508 0c33 0F       		.byte	0xf
 2509 0c34 7E       		.byte	0x7e
 2510 0c35 520C0000 		.4byte	0xc52
 2511 0c39 16       		.uleb128 0x16
 2512 0c3a 5C040000 		.4byte	.LASF283
 2513 0c3e 00       		.byte	0
 2514 0c3f 16       		.uleb128 0x16
 2515 0c40 A61D0000 		.4byte	.LASF284
 2516 0c44 01       		.byte	0x1
 2517 0c45 16       		.uleb128 0x16
 2518 0c46 620C0000 		.4byte	.LASF285
 2519 0c4a 02       		.byte	0x2
 2520 0c4b 16       		.uleb128 0x16
 2521 0c4c C80D0000 		.4byte	.LASF286
 2522 0c50 03       		.byte	0x3
 2523 0c51 00       		.byte	0
 2524 0c52 03       		.uleb128 0x3
 2525 0c53 06090000 		.4byte	.LASF287
 2526 0c57 0F       		.byte	0xf
 2527 0c58 83       		.byte	0x83
 2528 0c59 2D0C0000 		.4byte	0xc2d
 2529 0c5d 19       		.uleb128 0x19
 2530 0c5e 01       		.byte	0x1
 2531 0c5f 3E000000 		.4byte	0x3e
 2532 0c63 0F       		.byte	0xf
 2533 0c64 87       		.byte	0x87
 2534 0c65 9A0C0000 		.4byte	0xc9a
 2535 0c69 16       		.uleb128 0x16
 2536 0c6a 351E0000 		.4byte	.LASF288
 2537 0c6e 00       		.byte	0
 2538 0c6f 16       		.uleb128 0x16
 2539 0c70 E3050000 		.4byte	.LASF289
 2540 0c74 01       		.byte	0x1
 2541 0c75 16       		.uleb128 0x16
 2542 0c76 DA130000 		.4byte	.LASF290
 2543 0c7a 02       		.byte	0x2
 2544 0c7b 16       		.uleb128 0x16
 2545 0c7c 661E0000 		.4byte	.LASF291
 2546 0c80 03       		.byte	0x3
 2547 0c81 16       		.uleb128 0x16
 2548 0c82 110A0000 		.4byte	.LASF292
ARM GAS  C:\Users\dmr85\AppData\Local\Temp\ccSmIU8b.s 			page 82


 2549 0c86 04       		.byte	0x4
 2550 0c87 16       		.uleb128 0x16
 2551 0c88 F90D0000 		.4byte	.LASF293
 2552 0c8c 05       		.byte	0x5
 2553 0c8d 16       		.uleb128 0x16
 2554 0c8e AF130000 		.4byte	.LASF294
 2555 0c92 06       		.byte	0x6
 2556 0c93 16       		.uleb128 0x16
 2557 0c94 91010000 		.4byte	.LASF295
 2558 0c98 07       		.byte	0x7
 2559 0c99 00       		.byte	0
 2560 0c9a 03       		.uleb128 0x3
 2561 0c9b 91100000 		.4byte	.LASF296
 2562 0c9f 0F       		.byte	0xf
 2563 0ca0 90       		.byte	0x90
 2564 0ca1 5D0C0000 		.4byte	0xc5d
 2565 0ca5 09       		.uleb128 0x9
 2566 0ca6 33       		.byte	0x33
 2567 0ca7 10       		.byte	0x10
 2568 0ca8 75       		.byte	0x75
 2569 0ca9 EA0C0000 		.4byte	0xcea
 2570 0cad 0B       		.uleb128 0xb
 2571 0cae C6180000 		.4byte	.LASF297
 2572 0cb2 10       		.byte	0x10
 2573 0cb3 77       		.byte	0x77
 2574 0cb4 B8000000 		.4byte	0xb8
 2575 0cb8 00       		.byte	0
 2576 0cb9 0B       		.uleb128 0xb
 2577 0cba FB100000 		.4byte	.LASF298
 2578 0cbe 10       		.byte	0x10
 2579 0cbf 78       		.byte	0x78
 2580 0cc0 A2000000 		.4byte	0xa2
 2581 0cc4 02       		.byte	0x2
 2582 0cc5 0B       		.uleb128 0xb
 2583 0cc6 D0020000 		.4byte	.LASF299
 2584 0cca 10       		.byte	0x10
 2585 0ccb 79       		.byte	0x79
 2586 0ccc E0000000 		.4byte	0xe0
 2587 0cd0 03       		.byte	0x3
 2588 0cd1 0B       		.uleb128 0xb
 2589 0cd2 B31C0000 		.4byte	.LASF300
 2590 0cd6 10       		.byte	0x10
 2591 0cd7 7A       		.byte	0x7a
 2592 0cd8 050D0000 		.4byte	0xd05
 2593 0cdc 07       		.byte	0x7
 2594 0cdd 0B       		.uleb128 0xb
 2595 0cde E7020000 		.4byte	.LASF301
 2596 0ce2 10       		.byte	0x10
 2597 0ce3 7B       		.byte	0x7b
 2598 0ce4 250D0000 		.4byte	0xd25
 2599 0ce8 27       		.byte	0x27
 2600 0ce9 00       		.byte	0
 2601 0cea 07       		.uleb128 0x7
 2602 0ceb 000D0000 		.4byte	0xd00
 2603 0cef 000D0000 		.4byte	0xd00
 2604 0cf3 08       		.uleb128 0x8
 2605 0cf4 D9000000 		.4byte	0xd9
ARM GAS  C:\Users\dmr85\AppData\Local\Temp\ccSmIU8b.s 			page 83


 2606 0cf8 00       		.byte	0
 2607 0cf9 08       		.uleb128 0x8
 2608 0cfa D9000000 		.4byte	0xd9
 2609 0cfe 07       		.byte	0x7
 2610 0cff 00       		.byte	0
 2611 0d00 05       		.uleb128 0x5
 2612 0d01 C3000000 		.4byte	0xc3
 2613 0d05 05       		.uleb128 0x5
 2614 0d06 EA0C0000 		.4byte	0xcea
 2615 0d0a 07       		.uleb128 0x7
 2616 0d0b 200D0000 		.4byte	0xd20
 2617 0d0f 200D0000 		.4byte	0xd20
 2618 0d13 08       		.uleb128 0x8
 2619 0d14 D9000000 		.4byte	0xd9
 2620 0d18 00       		.byte	0
 2621 0d19 08       		.uleb128 0x8
 2622 0d1a D9000000 		.4byte	0xd9
 2623 0d1e 05       		.byte	0x5
 2624 0d1f 00       		.byte	0
 2625 0d20 05       		.uleb128 0x5
 2626 0d21 AD000000 		.4byte	0xad
 2627 0d25 05       		.uleb128 0x5
 2628 0d26 0A0D0000 		.4byte	0xd0a
 2629 0d2a 03       		.uleb128 0x3
 2630 0d2b 810D0000 		.4byte	.LASF302
 2631 0d2f 10       		.byte	0x10
 2632 0d30 7C       		.byte	0x7c
 2633 0d31 A50C0000 		.4byte	0xca5
 2634 0d35 09       		.uleb128 0x9
 2635 0d36 2A       		.byte	0x2a
 2636 0d37 10       		.byte	0x10
 2637 0d38 83       		.byte	0x83
 2638 0d39 7A0D0000 		.4byte	0xd7a
 2639 0d3d 0B       		.uleb128 0xb
 2640 0d3e C6180000 		.4byte	.LASF297
 2641 0d42 10       		.byte	0x10
 2642 0d43 85       		.byte	0x85
 2643 0d44 B8000000 		.4byte	0xb8
 2644 0d48 00       		.byte	0
 2645 0d49 0B       		.uleb128 0xb
 2646 0d4a FB100000 		.4byte	.LASF298
 2647 0d4e 10       		.byte	0x10
 2648 0d4f 86       		.byte	0x86
 2649 0d50 A2000000 		.4byte	0xa2
 2650 0d54 02       		.byte	0x2
 2651 0d55 0B       		.uleb128 0xb
 2652 0d56 D0020000 		.4byte	.LASF299
 2653 0d5a 10       		.byte	0x10
 2654 0d5b 87       		.byte	0x87
 2655 0d5c 7A0D0000 		.4byte	0xd7a
 2656 0d60 03       		.byte	0x3
 2657 0d61 0B       		.uleb128 0xb
 2658 0d62 B31C0000 		.4byte	.LASF300
 2659 0d66 10       		.byte	0x10
 2660 0d67 88       		.byte	0x88
 2661 0d68 9B0D0000 		.4byte	0xd9b
 2662 0d6c 06       		.byte	0x6
ARM GAS  C:\Users\dmr85\AppData\Local\Temp\ccSmIU8b.s 			page 84


 2663 0d6d 0B       		.uleb128 0xb
 2664 0d6e E7020000 		.4byte	.LASF301
 2665 0d72 10       		.byte	0x10
 2666 0d73 89       		.byte	0x89
 2667 0d74 A00D0000 		.4byte	0xda0
 2668 0d78 1E       		.byte	0x1e
 2669 0d79 00       		.byte	0
 2670 0d7a 05       		.uleb128 0x5
 2671 0d7b EF000000 		.4byte	0xef
 2672 0d7f 07       		.uleb128 0x7
 2673 0d80 E5000000 		.4byte	0xe5
 2674 0d84 9B0D0000 		.4byte	0xd9b
 2675 0d88 08       		.uleb128 0x8
 2676 0d89 D9000000 		.4byte	0xd9
 2677 0d8d 00       		.byte	0
 2678 0d8e 08       		.uleb128 0x8
 2679 0d8f D9000000 		.4byte	0xd9
 2680 0d93 07       		.byte	0x7
 2681 0d94 08       		.uleb128 0x8
 2682 0d95 D9000000 		.4byte	0xd9
 2683 0d99 02       		.byte	0x2
 2684 0d9a 00       		.byte	0
 2685 0d9b 05       		.uleb128 0x5
 2686 0d9c 7F0D0000 		.4byte	0xd7f
 2687 0da0 05       		.uleb128 0x5
 2688 0da1 0A0D0000 		.4byte	0xd0a
 2689 0da5 03       		.uleb128 0x3
 2690 0da6 410D0000 		.4byte	.LASF303
 2691 0daa 10       		.byte	0x10
 2692 0dab 8A       		.byte	0x8a
 2693 0dac 350D0000 		.4byte	0xd35
 2694 0db0 19       		.uleb128 0x19
 2695 0db1 01       		.byte	0x1
 2696 0db2 3E000000 		.4byte	0x3e
 2697 0db6 02       		.byte	0x2
 2698 0db7 6B       		.byte	0x6b
 2699 0db8 C90D0000 		.4byte	0xdc9
 2700 0dbc 16       		.uleb128 0x16
 2701 0dbd 3B0A0000 		.4byte	.LASF304
 2702 0dc1 00       		.byte	0
 2703 0dc2 16       		.uleb128 0x16
 2704 0dc3 45070000 		.4byte	.LASF305
 2705 0dc7 01       		.byte	0x1
 2706 0dc8 00       		.byte	0
 2707 0dc9 03       		.uleb128 0x3
 2708 0dca 9E0F0000 		.4byte	.LASF306
 2709 0dce 02       		.byte	0x2
 2710 0dcf 6F       		.byte	0x6f
 2711 0dd0 B00D0000 		.4byte	0xdb0
 2712 0dd4 1A       		.uleb128 0x1a
 2713 0dd5 7B020000 		.4byte	.LASF307
 2714 0dd9 02       		.byte	0x2
 2715 0dda CB02     		.2byte	0x2cb
 2716 0ddc CE000000 		.4byte	0xce
 2717 0de0 03       		.byte	0x3
 2718 0de1 FE0D0000 		.4byte	0xdfe
 2719 0de5 1B       		.uleb128 0x1b
ARM GAS  C:\Users\dmr85\AppData\Local\Temp\ccSmIU8b.s 			page 85


 2720 0de6 541E0000 		.4byte	.LASF309
 2721 0dea 02       		.byte	0x2
 2722 0deb CB02     		.2byte	0x2cb
 2723 0ded A2000000 		.4byte	0xa2
 2724 0df1 1C       		.uleb128 0x1c
 2725 0df2 9B0D0000 		.4byte	.LASF322
 2726 0df6 02       		.byte	0x2
 2727 0df7 CD02     		.2byte	0x2cd
 2728 0df9 FE0D0000 		.4byte	0xdfe
 2729 0dfd 00       		.byte	0
 2730 0dfe 07       		.uleb128 0x7
 2731 0dff A2000000 		.4byte	0xa2
 2732 0e03 0E0E0000 		.4byte	0xe0e
 2733 0e07 08       		.uleb128 0x8
 2734 0e08 D9000000 		.4byte	0xd9
 2735 0e0c 00       		.byte	0
 2736 0e0d 00       		.byte	0
 2737 0e0e 1A       		.uleb128 0x1a
 2738 0e0f 131D0000 		.4byte	.LASF308
 2739 0e13 03       		.byte	0x3
 2740 0e14 0703     		.2byte	0x307
 2741 0e16 CE000000 		.4byte	0xce
 2742 0e1a 03       		.byte	0x3
 2743 0e1b 380E0000 		.4byte	0xe38
 2744 0e1f 1B       		.uleb128 0x1b
 2745 0e20 41080000 		.4byte	.LASF310
 2746 0e24 03       		.byte	0x3
 2747 0e25 0703     		.2byte	0x307
 2748 0e27 380E0000 		.4byte	0xe38
 2749 0e2b 1B       		.uleb128 0x1b
 2750 0e2c 141A0000 		.4byte	.LASF311
 2751 0e30 03       		.byte	0x3
 2752 0e31 0703     		.2byte	0x307
 2753 0e33 CE000000 		.4byte	0xce
 2754 0e37 00       		.byte	0
 2755 0e38 10       		.uleb128 0x10
 2756 0e39 04       		.byte	0x4
 2757 0e3a BE020000 		.4byte	0x2be
 2758 0e3e 1A       		.uleb128 0x1a
 2759 0e3f A9170000 		.4byte	.LASF312
 2760 0e43 02       		.byte	0x2
 2761 0e44 5803     		.2byte	0x358
 2762 0e46 C90D0000 		.4byte	0xdc9
 2763 0e4a 03       		.byte	0x3
 2764 0e4b 5C0E0000 		.4byte	0xe5c
 2765 0e4f 1B       		.uleb128 0x1b
 2766 0e50 AC110000 		.4byte	.LASF313
 2767 0e54 02       		.byte	0x2
 2768 0e55 5803     		.2byte	0x358
 2769 0e57 A2000000 		.4byte	0xa2
 2770 0e5b 00       		.byte	0
 2771 0e5c 1D       		.uleb128 0x1d
 2772 0e5d 6B1B0000 		.4byte	.LASF314
 2773 0e61 04       		.byte	0x4
 2774 0e62 49       		.byte	0x49
 2775 0e63 1A070000 		.4byte	0x71a
 2776 0e67 03       		.byte	0x3
ARM GAS  C:\Users\dmr85\AppData\Local\Temp\ccSmIU8b.s 			page 86


 2777 0e68 780E0000 		.4byte	0xe78
 2778 0e6c 1E       		.uleb128 0x1e
 2779 0e6d 73706900 		.ascii	"spi\000"
 2780 0e71 04       		.byte	0x4
 2781 0e72 49       		.byte	0x49
 2782 0e73 780E0000 		.4byte	0xe78
 2783 0e77 00       		.byte	0
 2784 0e78 10       		.uleb128 0x10
 2785 0e79 04       		.byte	0x4
 2786 0e7a E5000000 		.4byte	0xe5
 2787 0e7e 1A       		.uleb128 0x1a
 2788 0e7f B70B0000 		.4byte	.LASF315
 2789 0e83 02       		.byte	0x2
 2790 0e84 4103     		.2byte	0x341
 2791 0e86 C90D0000 		.4byte	0xdc9
 2792 0e8a 03       		.byte	0x3
 2793 0e8b 9C0E0000 		.4byte	0xe9c
 2794 0e8f 1B       		.uleb128 0x1b
 2795 0e90 AC110000 		.4byte	.LASF313
 2796 0e94 02       		.byte	0x2
 2797 0e95 4103     		.2byte	0x341
 2798 0e97 A2000000 		.4byte	0xa2
 2799 0e9b 00       		.byte	0
 2800 0e9c 1A       		.uleb128 0x1a
 2801 0e9d 83090000 		.4byte	.LASF316
 2802 0ea1 02       		.byte	0x2
 2803 0ea2 DC02     		.2byte	0x2dc
 2804 0ea4 C90D0000 		.4byte	0xdc9
 2805 0ea8 03       		.byte	0x3
 2806 0ea9 C60E0000 		.4byte	0xec6
 2807 0ead 1B       		.uleb128 0x1b
 2808 0eae AC110000 		.4byte	.LASF313
 2809 0eb2 02       		.byte	0x2
 2810 0eb3 DC02     		.2byte	0x2dc
 2811 0eb5 A2000000 		.4byte	0xa2
 2812 0eb9 1B       		.uleb128 0x1b
 2813 0eba 541E0000 		.4byte	.LASF309
 2814 0ebe 02       		.byte	0x2
 2815 0ebf DC02     		.2byte	0x2dc
 2816 0ec1 A2000000 		.4byte	0xa2
 2817 0ec5 00       		.byte	0
 2818 0ec6 1F       		.uleb128 0x1f
 2819 0ec7 810A0000 		.4byte	.LASF319
 2820 0ecb 01       		.byte	0x1
 2821 0ecc BD       		.byte	0xbd
 2822 0ecd C90D0000 		.4byte	0xdc9
 2823 0ed1 00000000 		.4byte	.LFB553
 2824 0ed5 80000000 		.4byte	.LFE553-.LFB553
 2825 0ed9 01       		.uleb128 0x1
 2826 0eda 9C       		.byte	0x9c
 2827 0edb B4100000 		.4byte	0x10b4
 2828 0edf 20       		.uleb128 0x20
 2829 0ee0 AC110000 		.4byte	.LASF313
 2830 0ee4 01       		.byte	0x1
 2831 0ee5 BD       		.byte	0xbd
 2832 0ee6 A2000000 		.4byte	0xa2
 2833 0eea 00000000 		.4byte	.LLST0
ARM GAS  C:\Users\dmr85\AppData\Local\Temp\ccSmIU8b.s 			page 87


 2834 0eee 20       		.uleb128 0x20
 2835 0eef EF160000 		.4byte	.LASF317
 2836 0ef3 01       		.byte	0x1
 2837 0ef4 BD       		.byte	0xbd
 2838 0ef5 A2000000 		.4byte	0xa2
 2839 0ef9 21000000 		.4byte	.LLST1
 2840 0efd 20       		.uleb128 0x20
 2841 0efe 6A090000 		.4byte	.LASF318
 2842 0f02 01       		.byte	0x1
 2843 0f03 BD       		.byte	0xbd
 2844 0f04 40070000 		.4byte	0x740
 2845 0f08 42000000 		.4byte	.LLST2
 2846 0f0c 21       		.uleb128 0x21
 2847 0f0d 9B0D0000 		.4byte	.LASF322
 2848 0f11 01       		.byte	0x1
 2849 0f12 CC       		.byte	0xcc
 2850 0f13 0F010000 		.4byte	0x10f
 2851 0f17 02       		.uleb128 0x2
 2852 0f18 91       		.byte	0x91
 2853 0f19 64       		.sleb128 -28
 2854 0f1a 22       		.uleb128 0x22
 2855 0f1b 9C0E0000 		.4byte	0xe9c
 2856 0f1f 08000000 		.4byte	.LBB26
 2857 0f23 22000000 		.4byte	.LBE26-.LBB26
 2858 0f27 01       		.byte	0x1
 2859 0f28 C0       		.byte	0xc0
 2860 0f29 B50F0000 		.4byte	0xfb5
 2861 0f2d 23       		.uleb128 0x23
 2862 0f2e B90E0000 		.4byte	0xeb9
 2863 0f32 63000000 		.4byte	.LLST3
 2864 0f36 23       		.uleb128 0x23
 2865 0f37 AD0E0000 		.4byte	0xead
 2866 0f3b 77000000 		.4byte	.LLST4
 2867 0f3f 24       		.uleb128 0x24
 2868 0f40 D40D0000 		.4byte	0xdd4
 2869 0f44 12000000 		.4byte	.LBB28
 2870 0f48 10000000 		.4byte	.LBE28-.LBB28
 2871 0f4c 02       		.byte	0x2
 2872 0f4d E002     		.2byte	0x2e0
 2873 0f4f 840F0000 		.4byte	0xf84
 2874 0f53 23       		.uleb128 0x23
 2875 0f54 E50D0000 		.4byte	0xde5
 2876 0f58 98000000 		.4byte	.LLST5
 2877 0f5c 25       		.uleb128 0x25
 2878 0f5d 12000000 		.4byte	.LBB29
 2879 0f61 10000000 		.4byte	.LBE29-.LBB29
 2880 0f65 26       		.uleb128 0x26
 2881 0f66 F10D0000 		.4byte	0xdf1
 2882 0f6a 02       		.uleb128 0x2
 2883 0f6b 91       		.byte	0x91
 2884 0f6c 60       		.sleb128 -32
 2885 0f6d 27       		.uleb128 0x27
 2886 0f6e 22000000 		.4byte	.LVL5
 2887 0f72 CD1C0000 		.4byte	0x1ccd
 2888 0f76 28       		.uleb128 0x28
 2889 0f77 01       		.uleb128 0x1
 2890 0f78 50       		.byte	0x50
ARM GAS  C:\Users\dmr85\AppData\Local\Temp\ccSmIU8b.s 			page 88


 2891 0f79 02       		.uleb128 0x2
 2892 0f7a 76       		.byte	0x76
 2893 0f7b 00       		.sleb128 0
 2894 0f7c 28       		.uleb128 0x28
 2895 0f7d 01       		.uleb128 0x1
 2896 0f7e 51       		.byte	0x51
 2897 0f7f 01       		.uleb128 0x1
 2898 0f80 31       		.byte	0x31
 2899 0f81 00       		.byte	0
 2900 0f82 00       		.byte	0
 2901 0f83 00       		.byte	0
 2902 0f84 29       		.uleb128 0x29
 2903 0f85 12000000 		.4byte	.LVL4
 2904 0f89 D81C0000 		.4byte	0x1cd8
 2905 0f8d 9E0F0000 		.4byte	0xf9e
 2906 0f91 28       		.uleb128 0x28
 2907 0f92 01       		.uleb128 0x1
 2908 0f93 50       		.byte	0x50
 2909 0f94 02       		.uleb128 0x2
 2910 0f95 74       		.byte	0x74
 2911 0f96 00       		.sleb128 0
 2912 0f97 28       		.uleb128 0x28
 2913 0f98 01       		.uleb128 0x1
 2914 0f99 51       		.byte	0x51
 2915 0f9a 02       		.uleb128 0x2
 2916 0f9b 75       		.byte	0x75
 2917 0f9c 00       		.sleb128 0
 2918 0f9d 00       		.byte	0
 2919 0f9e 27       		.uleb128 0x27
 2920 0f9f 2A000000 		.4byte	.LVL6
 2921 0fa3 E31C0000 		.4byte	0x1ce3
 2922 0fa7 28       		.uleb128 0x28
 2923 0fa8 01       		.uleb128 0x1
 2924 0fa9 50       		.byte	0x50
 2925 0faa 02       		.uleb128 0x2
 2926 0fab 74       		.byte	0x74
 2927 0fac 00       		.sleb128 0
 2928 0fad 28       		.uleb128 0x28
 2929 0fae 01       		.uleb128 0x1
 2930 0faf 51       		.byte	0x51
 2931 0fb0 02       		.uleb128 0x2
 2932 0fb1 75       		.byte	0x75
 2933 0fb2 00       		.sleb128 0
 2934 0fb3 00       		.byte	0
 2935 0fb4 00       		.byte	0
 2936 0fb5 22       		.uleb128 0x22
 2937 0fb6 3E0E0000 		.4byte	0xe3e
 2938 0fba 2A000000 		.4byte	.LBB30
 2939 0fbe 1E000000 		.4byte	.LBE30-.LBB30
 2940 0fc2 01       		.byte	0x1
 2941 0fc3 C2       		.byte	0xc2
 2942 0fc4 6A100000 		.4byte	0x106a
 2943 0fc8 23       		.uleb128 0x23
 2944 0fc9 4F0E0000 		.4byte	0xe4f
 2945 0fcd AC000000 		.4byte	.LLST6
 2946 0fd1 2A       		.uleb128 0x2a
 2947 0fd2 9C0E0000 		.4byte	0xe9c
ARM GAS  C:\Users\dmr85\AppData\Local\Temp\ccSmIU8b.s 			page 89


 2948 0fd6 2A000000 		.4byte	.LBB31
 2949 0fda 1E000000 		.4byte	.LBE31-.LBB31
 2950 0fde 02       		.byte	0x2
 2951 0fdf 5B03     		.2byte	0x35b
 2952 0fe1 23       		.uleb128 0x23
 2953 0fe2 B90E0000 		.4byte	0xeb9
 2954 0fe6 BF000000 		.4byte	.LLST7
 2955 0fea 23       		.uleb128 0x23
 2956 0feb AD0E0000 		.4byte	0xead
 2957 0fef AC000000 		.4byte	.LLST6
 2958 0ff3 24       		.uleb128 0x24
 2959 0ff4 D40D0000 		.4byte	0xdd4
 2960 0ff8 32000000 		.4byte	.LBB33
 2961 0ffc 0E000000 		.4byte	.LBE33-.LBB33
 2962 1000 02       		.byte	0x2
 2963 1001 E002     		.2byte	0x2e0
 2964 1003 38100000 		.4byte	0x1038
 2965 1007 23       		.uleb128 0x23
 2966 1008 E50D0000 		.4byte	0xde5
 2967 100c D3000000 		.4byte	.LLST9
 2968 1010 25       		.uleb128 0x25
 2969 1011 32000000 		.4byte	.LBB34
 2970 1015 0E000000 		.4byte	.LBE34-.LBB34
 2971 1019 26       		.uleb128 0x26
 2972 101a F10D0000 		.4byte	0xdf1
 2973 101e 02       		.uleb128 0x2
 2974 101f 91       		.byte	0x91
 2975 1020 60       		.sleb128 -32
 2976 1021 27       		.uleb128 0x27
 2977 1022 40000000 		.4byte	.LVL8
 2978 1026 CD1C0000 		.4byte	0x1ccd
 2979 102a 28       		.uleb128 0x28
 2980 102b 01       		.uleb128 0x1
 2981 102c 50       		.byte	0x50
 2982 102d 02       		.uleb128 0x2
 2983 102e 76       		.byte	0x76
 2984 102f 00       		.sleb128 0
 2985 1030 28       		.uleb128 0x28
 2986 1031 01       		.uleb128 0x1
 2987 1032 51       		.byte	0x51
 2988 1033 01       		.uleb128 0x1
 2989 1034 31       		.byte	0x31
 2990 1035 00       		.byte	0
 2991 1036 00       		.byte	0
 2992 1037 00       		.byte	0
 2993 1038 29       		.uleb128 0x29
 2994 1039 32000000 		.4byte	.LVL7
 2995 103d D81C0000 		.4byte	0x1cd8
 2996 1041 52100000 		.4byte	0x1052
 2997 1045 28       		.uleb128 0x28
 2998 1046 01       		.uleb128 0x1
 2999 1047 50       		.byte	0x50
 3000 1048 02       		.uleb128 0x2
 3001 1049 74       		.byte	0x74
 3002 104a 00       		.sleb128 0
 3003 104b 28       		.uleb128 0x28
 3004 104c 01       		.uleb128 0x1
ARM GAS  C:\Users\dmr85\AppData\Local\Temp\ccSmIU8b.s 			page 90


 3005 104d 51       		.byte	0x51
 3006 104e 02       		.uleb128 0x2
 3007 104f 75       		.byte	0x75
 3008 1050 00       		.sleb128 0
 3009 1051 00       		.byte	0
 3010 1052 27       		.uleb128 0x27
 3011 1053 48000000 		.4byte	.LVL9
 3012 1057 E31C0000 		.4byte	0x1ce3
 3013 105b 28       		.uleb128 0x28
 3014 105c 01       		.uleb128 0x1
 3015 105d 50       		.byte	0x50
 3016 105e 02       		.uleb128 0x2
 3017 105f 74       		.byte	0x74
 3018 1060 00       		.sleb128 0
 3019 1061 28       		.uleb128 0x28
 3020 1062 01       		.uleb128 0x1
 3021 1063 51       		.byte	0x51
 3022 1064 02       		.uleb128 0x2
 3023 1065 75       		.byte	0x75
 3024 1066 00       		.sleb128 0
 3025 1067 00       		.byte	0
 3026 1068 00       		.byte	0
 3027 1069 00       		.byte	0
 3028 106a 29       		.uleb128 0x29
 3029 106b 50000000 		.4byte	.LVL10
 3030 106f D81C0000 		.4byte	0x1cd8
 3031 1073 84100000 		.4byte	0x1084
 3032 1077 28       		.uleb128 0x28
 3033 1078 01       		.uleb128 0x1
 3034 1079 50       		.byte	0x50
 3035 107a 02       		.uleb128 0x2
 3036 107b 74       		.byte	0x74
 3037 107c 00       		.sleb128 0
 3038 107d 28       		.uleb128 0x28
 3039 107e 01       		.uleb128 0x1
 3040 107f 51       		.byte	0x51
 3041 1080 02       		.uleb128 0x2
 3042 1081 75       		.byte	0x75
 3043 1082 00       		.sleb128 0
 3044 1083 00       		.byte	0
 3045 1084 29       		.uleb128 0x29
 3046 1085 6C000000 		.4byte	.LVL11
 3047 1089 CD1C0000 		.4byte	0x1ccd
 3048 108d 9D100000 		.4byte	0x109d
 3049 1091 28       		.uleb128 0x28
 3050 1092 01       		.uleb128 0x1
 3051 1093 50       		.byte	0x50
 3052 1094 02       		.uleb128 0x2
 3053 1095 91       		.byte	0x91
 3054 1096 64       		.sleb128 -28
 3055 1097 28       		.uleb128 0x28
 3056 1098 01       		.uleb128 0x1
 3057 1099 51       		.byte	0x51
 3058 109a 01       		.uleb128 0x1
 3059 109b 33       		.byte	0x33
 3060 109c 00       		.byte	0
 3061 109d 27       		.uleb128 0x27
ARM GAS  C:\Users\dmr85\AppData\Local\Temp\ccSmIU8b.s 			page 91


 3062 109e 74000000 		.4byte	.LVL12
 3063 10a2 E31C0000 		.4byte	0x1ce3
 3064 10a6 28       		.uleb128 0x28
 3065 10a7 01       		.uleb128 0x1
 3066 10a8 50       		.byte	0x50
 3067 10a9 02       		.uleb128 0x2
 3068 10aa 74       		.byte	0x74
 3069 10ab 00       		.sleb128 0
 3070 10ac 28       		.uleb128 0x28
 3071 10ad 01       		.uleb128 0x1
 3072 10ae 51       		.byte	0x51
 3073 10af 02       		.uleb128 0x2
 3074 10b0 75       		.byte	0x75
 3075 10b1 00       		.sleb128 0
 3076 10b2 00       		.byte	0
 3077 10b3 00       		.byte	0
 3078 10b4 1F       		.uleb128 0x1f
 3079 10b5 C8060000 		.4byte	.LASF320
 3080 10b9 01       		.byte	0x1
 3081 10ba E2       		.byte	0xe2
 3082 10bb C90D0000 		.4byte	0xdc9
 3083 10bf 00000000 		.4byte	.LFB554
 3084 10c3 24000000 		.4byte	.LFE554-.LFB554
 3085 10c7 01       		.uleb128 0x1
 3086 10c8 9C       		.byte	0x9c
 3087 10c9 1E110000 		.4byte	0x111e
 3088 10cd 20       		.uleb128 0x20
 3089 10ce AC110000 		.4byte	.LASF313
 3090 10d2 01       		.byte	0x1
 3091 10d3 E2       		.byte	0xe2
 3092 10d4 A2000000 		.4byte	0xa2
 3093 10d8 E7000000 		.4byte	.LLST10
 3094 10dc 20       		.uleb128 0x20
 3095 10dd EF160000 		.4byte	.LASF317
 3096 10e1 01       		.byte	0x1
 3097 10e2 E2       		.byte	0xe2
 3098 10e3 A2000000 		.4byte	0xa2
 3099 10e7 08010000 		.4byte	.LLST11
 3100 10eb 20       		.uleb128 0x20
 3101 10ec AA1E0000 		.4byte	.LASF321
 3102 10f0 01       		.byte	0x1
 3103 10f1 E2       		.byte	0xe2
 3104 10f2 A2000000 		.4byte	0xa2
 3105 10f6 29010000 		.4byte	.LLST12
 3106 10fa 21       		.uleb128 0x21
 3107 10fb 9B0D0000 		.4byte	.LASF322
 3108 10ff 01       		.byte	0x1
 3109 1100 E6       		.byte	0xe6
 3110 1101 0F010000 		.4byte	0x10f
 3111 1105 02       		.uleb128 0x2
 3112 1106 91       		.byte	0x91
 3113 1107 74       		.sleb128 -12
 3114 1108 27       		.uleb128 0x27
 3115 1109 1E000000 		.4byte	.LVL16
 3116 110d CD1C0000 		.4byte	0x1ccd
 3117 1111 28       		.uleb128 0x28
 3118 1112 01       		.uleb128 0x1
ARM GAS  C:\Users\dmr85\AppData\Local\Temp\ccSmIU8b.s 			page 92


 3119 1113 50       		.byte	0x50
 3120 1114 02       		.uleb128 0x2
 3121 1115 91       		.byte	0x91
 3122 1116 74       		.sleb128 -12
 3123 1117 28       		.uleb128 0x28
 3124 1118 01       		.uleb128 0x1
 3125 1119 51       		.byte	0x51
 3126 111a 01       		.uleb128 0x1
 3127 111b 33       		.byte	0x33
 3128 111c 00       		.byte	0
 3129 111d 00       		.byte	0
 3130 111e 1F       		.uleb128 0x1f
 3131 111f F9070000 		.4byte	.LASF323
 3132 1123 01       		.byte	0x1
 3133 1124 33       		.byte	0x33
 3134 1125 C90D0000 		.4byte	0xdc9
 3135 1129 00000000 		.4byte	.LFB551
 3136 112d 6C010000 		.4byte	.LFE551-.LFB551
 3137 1131 01       		.uleb128 0x1
 3138 1132 9C       		.byte	0x9c
 3139 1133 BC150000 		.4byte	0x15bc
 3140 1137 20       		.uleb128 0x20
 3141 1138 AC110000 		.4byte	.LASF313
 3142 113c 01       		.byte	0x1
 3143 113d 33       		.byte	0x33
 3144 113e A2000000 		.4byte	0xa2
 3145 1142 4A010000 		.4byte	.LLST13
 3146 1146 20       		.uleb128 0x20
 3147 1147 AF0E0000 		.4byte	.LASF324
 3148 114b 01       		.byte	0x1
 3149 114c 33       		.byte	0x33
 3150 114d A2000000 		.4byte	0xa2
 3151 1151 6B010000 		.4byte	.LLST14
 3152 1155 21       		.uleb128 0x21
 3153 1156 5A0C0000 		.4byte	.LASF325
 3154 115a 01       		.byte	0x1
 3155 115b A1       		.byte	0xa1
 3156 115c FE0D0000 		.4byte	0xdfe
 3157 1160 02       		.uleb128 0x2
 3158 1161 91       		.byte	0x91
 3159 1162 64       		.sleb128 -28
 3160 1163 22       		.uleb128 0x22
 3161 1164 9C0E0000 		.4byte	0xe9c
 3162 1168 68000000 		.4byte	.LBB43
 3163 116c 20000000 		.4byte	.LBE43-.LBB43
 3164 1170 01       		.byte	0x1
 3165 1171 51       		.byte	0x51
 3166 1172 FE110000 		.4byte	0x11fe
 3167 1176 23       		.uleb128 0x23
 3168 1177 B90E0000 		.4byte	0xeb9
 3169 117b 8C010000 		.4byte	.LLST15
 3170 117f 23       		.uleb128 0x23
 3171 1180 AD0E0000 		.4byte	0xead
 3172 1184 A0010000 		.4byte	.LLST16
 3173 1188 24       		.uleb128 0x24
 3174 1189 D40D0000 		.4byte	0xdd4
 3175 118d 70000000 		.4byte	.LBB45
ARM GAS  C:\Users\dmr85\AppData\Local\Temp\ccSmIU8b.s 			page 93


 3176 1191 10000000 		.4byte	.LBE45-.LBB45
 3177 1195 02       		.byte	0x2
 3178 1196 E002     		.2byte	0x2e0
 3179 1198 CD110000 		.4byte	0x11cd
 3180 119c 23       		.uleb128 0x23
 3181 119d E50D0000 		.4byte	0xde5
 3182 11a1 B3010000 		.4byte	.LLST17
 3183 11a5 25       		.uleb128 0x25
 3184 11a6 70000000 		.4byte	.LBB46
 3185 11aa 10000000 		.4byte	.LBE46-.LBB46
 3186 11ae 26       		.uleb128 0x26
 3187 11af F10D0000 		.4byte	0xdf1
 3188 11b3 02       		.uleb128 0x2
 3189 11b4 91       		.byte	0x91
 3190 11b5 60       		.sleb128 -32
 3191 11b6 27       		.uleb128 0x27
 3192 11b7 80000000 		.4byte	.LVL33
 3193 11bb CD1C0000 		.4byte	0x1ccd
 3194 11bf 28       		.uleb128 0x28
 3195 11c0 01       		.uleb128 0x1
 3196 11c1 50       		.byte	0x50
 3197 11c2 02       		.uleb128 0x2
 3198 11c3 76       		.byte	0x76
 3199 11c4 00       		.sleb128 0
 3200 11c5 28       		.uleb128 0x28
 3201 11c6 01       		.uleb128 0x1
 3202 11c7 51       		.byte	0x51
 3203 11c8 01       		.uleb128 0x1
 3204 11c9 31       		.byte	0x31
 3205 11ca 00       		.byte	0
 3206 11cb 00       		.byte	0
 3207 11cc 00       		.byte	0
 3208 11cd 29       		.uleb128 0x29
 3209 11ce 70000000 		.4byte	.LVL32
 3210 11d2 D81C0000 		.4byte	0x1cd8
 3211 11d6 E7110000 		.4byte	0x11e7
 3212 11da 28       		.uleb128 0x28
 3213 11db 01       		.uleb128 0x1
 3214 11dc 50       		.byte	0x50
 3215 11dd 02       		.uleb128 0x2
 3216 11de 75       		.byte	0x75
 3217 11df 00       		.sleb128 0
 3218 11e0 28       		.uleb128 0x28
 3219 11e1 01       		.uleb128 0x1
 3220 11e2 51       		.byte	0x51
 3221 11e3 02       		.uleb128 0x2
 3222 11e4 74       		.byte	0x74
 3223 11e5 00       		.sleb128 0
 3224 11e6 00       		.byte	0
 3225 11e7 27       		.uleb128 0x27
 3226 11e8 88000000 		.4byte	.LVL34
 3227 11ec E31C0000 		.4byte	0x1ce3
 3228 11f0 28       		.uleb128 0x28
 3229 11f1 01       		.uleb128 0x1
 3230 11f2 50       		.byte	0x50
 3231 11f3 02       		.uleb128 0x2
 3232 11f4 75       		.byte	0x75
ARM GAS  C:\Users\dmr85\AppData\Local\Temp\ccSmIU8b.s 			page 94


 3233 11f5 00       		.sleb128 0
 3234 11f6 28       		.uleb128 0x28
 3235 11f7 01       		.uleb128 0x1
 3236 11f8 51       		.byte	0x51
 3237 11f9 02       		.uleb128 0x2
 3238 11fa 74       		.byte	0x74
 3239 11fb 00       		.sleb128 0
 3240 11fc 00       		.byte	0
 3241 11fd 00       		.byte	0
 3242 11fe 22       		.uleb128 0x22
 3243 11ff 9C0E0000 		.4byte	0xe9c
 3244 1203 8E000000 		.4byte	.LBB47
 3245 1207 1E000000 		.4byte	.LBE47-.LBB47
 3246 120b 01       		.byte	0x1
 3247 120c 53       		.byte	0x53
 3248 120d 99120000 		.4byte	0x1299
 3249 1211 23       		.uleb128 0x23
 3250 1212 B90E0000 		.4byte	0xeb9
 3251 1216 C7010000 		.4byte	.LLST18
 3252 121a 23       		.uleb128 0x23
 3253 121b AD0E0000 		.4byte	0xead
 3254 121f DB010000 		.4byte	.LLST19
 3255 1223 24       		.uleb128 0x24
 3256 1224 D40D0000 		.4byte	0xdd4
 3257 1228 96000000 		.4byte	.LBB49
 3258 122c 0E000000 		.4byte	.LBE49-.LBB49
 3259 1230 02       		.byte	0x2
 3260 1231 E002     		.2byte	0x2e0
 3261 1233 68120000 		.4byte	0x1268
 3262 1237 23       		.uleb128 0x23
 3263 1238 E50D0000 		.4byte	0xde5
 3264 123c EE010000 		.4byte	.LLST20
 3265 1240 25       		.uleb128 0x25
 3266 1241 96000000 		.4byte	.LBB50
 3267 1245 0E000000 		.4byte	.LBE50-.LBB50
 3268 1249 26       		.uleb128 0x26
 3269 124a F10D0000 		.4byte	0xdf1
 3270 124e 02       		.uleb128 0x2
 3271 124f 91       		.byte	0x91
 3272 1250 60       		.sleb128 -32
 3273 1251 27       		.uleb128 0x27
 3274 1252 A4000000 		.4byte	.LVL37
 3275 1256 CD1C0000 		.4byte	0x1ccd
 3276 125a 28       		.uleb128 0x28
 3277 125b 01       		.uleb128 0x1
 3278 125c 50       		.byte	0x50
 3279 125d 02       		.uleb128 0x2
 3280 125e 76       		.byte	0x76
 3281 125f 00       		.sleb128 0
 3282 1260 28       		.uleb128 0x28
 3283 1261 01       		.uleb128 0x1
 3284 1262 51       		.byte	0x51
 3285 1263 01       		.uleb128 0x1
 3286 1264 31       		.byte	0x31
 3287 1265 00       		.byte	0
 3288 1266 00       		.byte	0
 3289 1267 00       		.byte	0
ARM GAS  C:\Users\dmr85\AppData\Local\Temp\ccSmIU8b.s 			page 95


 3290 1268 29       		.uleb128 0x29
 3291 1269 96000000 		.4byte	.LVL36
 3292 126d D81C0000 		.4byte	0x1cd8
 3293 1271 82120000 		.4byte	0x1282
 3294 1275 28       		.uleb128 0x28
 3295 1276 01       		.uleb128 0x1
 3296 1277 50       		.byte	0x50
 3297 1278 02       		.uleb128 0x2
 3298 1279 75       		.byte	0x75
 3299 127a 00       		.sleb128 0
 3300 127b 28       		.uleb128 0x28
 3301 127c 01       		.uleb128 0x1
 3302 127d 51       		.byte	0x51
 3303 127e 02       		.uleb128 0x2
 3304 127f 74       		.byte	0x74
 3305 1280 00       		.sleb128 0
 3306 1281 00       		.byte	0
 3307 1282 27       		.uleb128 0x27
 3308 1283 AC000000 		.4byte	.LVL38
 3309 1287 E31C0000 		.4byte	0x1ce3
 3310 128b 28       		.uleb128 0x28
 3311 128c 01       		.uleb128 0x1
 3312 128d 50       		.byte	0x50
 3313 128e 02       		.uleb128 0x2
 3314 128f 75       		.byte	0x75
 3315 1290 00       		.sleb128 0
 3316 1291 28       		.uleb128 0x28
 3317 1292 01       		.uleb128 0x1
 3318 1293 51       		.byte	0x51
 3319 1294 02       		.uleb128 0x2
 3320 1295 74       		.byte	0x74
 3321 1296 00       		.sleb128 0
 3322 1297 00       		.byte	0
 3323 1298 00       		.byte	0
 3324 1299 29       		.uleb128 0x29
 3325 129a 10000000 		.4byte	.LVL19
 3326 129e EE1C0000 		.4byte	0x1cee
 3327 12a2 AC120000 		.4byte	0x12ac
 3328 12a6 28       		.uleb128 0x28
 3329 12a7 01       		.uleb128 0x1
 3330 12a8 50       		.byte	0x50
 3331 12a9 01       		.uleb128 0x1
 3332 12aa 36       		.byte	0x36
 3333 12ab 00       		.byte	0
 3334 12ac 29       		.uleb128 0x29
 3335 12ad 16000000 		.4byte	.LVL20
 3336 12b1 EE1C0000 		.4byte	0x1cee
 3337 12b5 BF120000 		.4byte	0x12bf
 3338 12b9 28       		.uleb128 0x28
 3339 12ba 01       		.uleb128 0x1
 3340 12bb 50       		.byte	0x50
 3341 12bc 01       		.uleb128 0x1
 3342 12bd 31       		.byte	0x31
 3343 12be 00       		.byte	0
 3344 12bf 29       		.uleb128 0x29
 3345 12c0 1C000000 		.4byte	.LVL21
 3346 12c4 EE1C0000 		.4byte	0x1cee
ARM GAS  C:\Users\dmr85\AppData\Local\Temp\ccSmIU8b.s 			page 96


 3347 12c8 D2120000 		.4byte	0x12d2
 3348 12cc 28       		.uleb128 0x28
 3349 12cd 01       		.uleb128 0x1
 3350 12ce 50       		.byte	0x50
 3351 12cf 01       		.uleb128 0x1
 3352 12d0 34       		.byte	0x34
 3353 12d1 00       		.byte	0
 3354 12d2 29       		.uleb128 0x29
 3355 12d3 24000000 		.4byte	.LVL22
 3356 12d7 F91C0000 		.4byte	0x1cf9
 3357 12db E7120000 		.4byte	0x12e7
 3358 12df 28       		.uleb128 0x28
 3359 12e0 01       		.uleb128 0x1
 3360 12e1 50       		.byte	0x50
 3361 12e2 03       		.uleb128 0x3
 3362 12e3 0A       		.byte	0xa
 3363 12e4 E803     		.2byte	0x3e8
 3364 12e6 00       		.byte	0
 3365 12e7 29       		.uleb128 0x29
 3366 12e8 2A000000 		.4byte	.LVL23
 3367 12ec 051D0000 		.4byte	0x1d05
 3368 12f0 FA120000 		.4byte	0x12fa
 3369 12f4 28       		.uleb128 0x28
 3370 12f5 01       		.uleb128 0x1
 3371 12f6 50       		.byte	0x50
 3372 12f7 01       		.uleb128 0x1
 3373 12f8 34       		.byte	0x34
 3374 12f9 00       		.byte	0
 3375 12fa 29       		.uleb128 0x29
 3376 12fb 32000000 		.4byte	.LVL24
 3377 12ff F91C0000 		.4byte	0x1cf9
 3378 1303 0F130000 		.4byte	0x130f
 3379 1307 28       		.uleb128 0x28
 3380 1308 01       		.uleb128 0x1
 3381 1309 50       		.byte	0x50
 3382 130a 03       		.uleb128 0x3
 3383 130b 0A       		.byte	0xa
 3384 130c E803     		.2byte	0x3e8
 3385 130e 00       		.byte	0
 3386 130f 29       		.uleb128 0x29
 3387 1310 38000000 		.4byte	.LVL25
 3388 1314 EE1C0000 		.4byte	0x1cee
 3389 1318 22130000 		.4byte	0x1322
 3390 131c 28       		.uleb128 0x28
 3391 131d 01       		.uleb128 0x1
 3392 131e 50       		.byte	0x50
 3393 131f 01       		.uleb128 0x1
 3394 1320 34       		.byte	0x34
 3395 1321 00       		.byte	0
 3396 1322 29       		.uleb128 0x29
 3397 1323 3E000000 		.4byte	.LVL26
 3398 1327 F91C0000 		.4byte	0x1cf9
 3399 132b 35130000 		.4byte	0x1335
 3400 132f 28       		.uleb128 0x28
 3401 1330 01       		.uleb128 0x1
 3402 1331 50       		.byte	0x50
 3403 1332 01       		.uleb128 0x1
ARM GAS  C:\Users\dmr85\AppData\Local\Temp\ccSmIU8b.s 			page 97


 3404 1333 3A       		.byte	0x3a
 3405 1334 00       		.byte	0
 3406 1335 29       		.uleb128 0x29
 3407 1336 46000000 		.4byte	.LVL27
 3408 133a F91C0000 		.4byte	0x1cf9
 3409 133e 4A130000 		.4byte	0x134a
 3410 1342 28       		.uleb128 0x28
 3411 1343 01       		.uleb128 0x1
 3412 1344 50       		.byte	0x50
 3413 1345 03       		.uleb128 0x3
 3414 1346 0A       		.byte	0xa
 3415 1347 E803     		.2byte	0x3e8
 3416 1349 00       		.byte	0
 3417 134a 29       		.uleb128 0x29
 3418 134b 50000000 		.4byte	.LVL28
 3419 134f D81C0000 		.4byte	0x1cd8
 3420 1353 64130000 		.4byte	0x1364
 3421 1357 28       		.uleb128 0x28
 3422 1358 01       		.uleb128 0x1
 3423 1359 50       		.byte	0x50
 3424 135a 02       		.uleb128 0x2
 3425 135b 75       		.byte	0x75
 3426 135c 00       		.sleb128 0
 3427 135d 28       		.uleb128 0x28
 3428 135e 01       		.uleb128 0x1
 3429 135f 51       		.byte	0x51
 3430 1360 02       		.uleb128 0x2
 3431 1361 74       		.byte	0x74
 3432 1362 00       		.sleb128 0
 3433 1363 00       		.byte	0
 3434 1364 29       		.uleb128 0x29
 3435 1365 58000000 		.4byte	.LVL29
 3436 1369 F91C0000 		.4byte	0x1cf9
 3437 136d 79130000 		.4byte	0x1379
 3438 1371 28       		.uleb128 0x28
 3439 1372 01       		.uleb128 0x1
 3440 1373 50       		.byte	0x50
 3441 1374 03       		.uleb128 0x3
 3442 1375 0A       		.byte	0xa
 3443 1376 E803     		.2byte	0x3e8
 3444 1378 00       		.byte	0
 3445 1379 29       		.uleb128 0x29
 3446 137a 60000000 		.4byte	.LVL30
 3447 137e E31C0000 		.4byte	0x1ce3
 3448 1382 93130000 		.4byte	0x1393
 3449 1386 28       		.uleb128 0x28
 3450 1387 01       		.uleb128 0x1
 3451 1388 50       		.byte	0x50
 3452 1389 02       		.uleb128 0x2
 3453 138a 75       		.byte	0x75
 3454 138b 00       		.sleb128 0
 3455 138c 28       		.uleb128 0x28
 3456 138d 01       		.uleb128 0x1
 3457 138e 51       		.byte	0x51
 3458 138f 02       		.uleb128 0x2
 3459 1390 74       		.byte	0x74
 3460 1391 00       		.sleb128 0
ARM GAS  C:\Users\dmr85\AppData\Local\Temp\ccSmIU8b.s 			page 98


 3461 1392 00       		.byte	0
 3462 1393 29       		.uleb128 0x29
 3463 1394 68000000 		.4byte	.LVL31
 3464 1398 F91C0000 		.4byte	0x1cf9
 3465 139c A8130000 		.4byte	0x13a8
 3466 13a0 28       		.uleb128 0x28
 3467 13a1 01       		.uleb128 0x1
 3468 13a2 50       		.byte	0x50
 3469 13a3 03       		.uleb128 0x3
 3470 13a4 0A       		.byte	0xa
 3471 13a5 F401     		.2byte	0x1f4
 3472 13a7 00       		.byte	0
 3473 13a8 29       		.uleb128 0x29
 3474 13a9 8E000000 		.4byte	.LVL35
 3475 13ad F91C0000 		.4byte	0x1cf9
 3476 13b1 BB130000 		.4byte	0x13bb
 3477 13b5 28       		.uleb128 0x28
 3478 13b6 01       		.uleb128 0x1
 3479 13b7 50       		.byte	0x50
 3480 13b8 01       		.uleb128 0x1
 3481 13b9 3A       		.byte	0x3a
 3482 13ba 00       		.byte	0
 3483 13bb 29       		.uleb128 0x29
 3484 13bc B2000000 		.4byte	.LVL39
 3485 13c0 F91C0000 		.4byte	0x1cf9
 3486 13c4 CF130000 		.4byte	0x13cf
 3487 13c8 28       		.uleb128 0x28
 3488 13c9 01       		.uleb128 0x1
 3489 13ca 50       		.byte	0x50
 3490 13cb 02       		.uleb128 0x2
 3491 13cc 77       		.byte	0x77
 3492 13cd 00       		.sleb128 0
 3493 13ce 00       		.byte	0
 3494 13cf 29       		.uleb128 0x29
 3495 13d0 C2000000 		.4byte	.LVL40
 3496 13d4 B4100000 		.4byte	0x10b4
 3497 13d8 ED130000 		.4byte	0x13ed
 3498 13dc 28       		.uleb128 0x28
 3499 13dd 01       		.uleb128 0x1
 3500 13de 50       		.byte	0x50
 3501 13df 02       		.uleb128 0x2
 3502 13e0 74       		.byte	0x74
 3503 13e1 00       		.sleb128 0
 3504 13e2 28       		.uleb128 0x28
 3505 13e3 01       		.uleb128 0x1
 3506 13e4 51       		.byte	0x51
 3507 13e5 01       		.uleb128 0x1
 3508 13e6 44       		.byte	0x44
 3509 13e7 28       		.uleb128 0x28
 3510 13e8 01       		.uleb128 0x1
 3511 13e9 52       		.byte	0x52
 3512 13ea 01       		.uleb128 0x1
 3513 13eb 30       		.byte	0x30
 3514 13ec 00       		.byte	0
 3515 13ed 29       		.uleb128 0x29
 3516 13ee CC000000 		.4byte	.LVL41
 3517 13f2 B4100000 		.4byte	0x10b4
ARM GAS  C:\Users\dmr85\AppData\Local\Temp\ccSmIU8b.s 			page 99


 3518 13f6 0C140000 		.4byte	0x140c
 3519 13fa 28       		.uleb128 0x28
 3520 13fb 01       		.uleb128 0x1
 3521 13fc 50       		.byte	0x50
 3522 13fd 02       		.uleb128 0x2
 3523 13fe 74       		.byte	0x74
 3524 13ff 00       		.sleb128 0
 3525 1400 28       		.uleb128 0x28
 3526 1401 01       		.uleb128 0x1
 3527 1402 51       		.byte	0x51
 3528 1403 01       		.uleb128 0x1
 3529 1404 31       		.byte	0x31
 3530 1405 28       		.uleb128 0x28
 3531 1406 01       		.uleb128 0x1
 3532 1407 52       		.byte	0x52
 3533 1408 02       		.uleb128 0x2
 3534 1409 09       		.byte	0x9
 3535 140a 96       		.byte	0x96
 3536 140b 00       		.byte	0
 3537 140c 29       		.uleb128 0x29
 3538 140d D6000000 		.4byte	.LVL42
 3539 1411 B4100000 		.4byte	0x10b4
 3540 1415 2B140000 		.4byte	0x142b
 3541 1419 28       		.uleb128 0x28
 3542 141a 01       		.uleb128 0x1
 3543 141b 50       		.byte	0x50
 3544 141c 02       		.uleb128 0x2
 3545 141d 74       		.byte	0x74
 3546 141e 00       		.sleb128 0
 3547 141f 28       		.uleb128 0x28
 3548 1420 01       		.uleb128 0x1
 3549 1421 51       		.byte	0x51
 3550 1422 01       		.uleb128 0x1
 3551 1423 32       		.byte	0x32
 3552 1424 28       		.uleb128 0x28
 3553 1425 01       		.uleb128 0x1
 3554 1426 52       		.byte	0x52
 3555 1427 02       		.uleb128 0x2
 3556 1428 09       		.byte	0x9
 3557 1429 D0       		.byte	0xd0
 3558 142a 00       		.byte	0
 3559 142b 29       		.uleb128 0x29
 3560 142c E0000000 		.4byte	.LVL43
 3561 1430 B4100000 		.4byte	0x10b4
 3562 1434 4A140000 		.4byte	0x144a
 3563 1438 28       		.uleb128 0x28
 3564 1439 01       		.uleb128 0x1
 3565 143a 50       		.byte	0x50
 3566 143b 02       		.uleb128 0x2
 3567 143c 74       		.byte	0x74
 3568 143d 00       		.sleb128 0
 3569 143e 28       		.uleb128 0x28
 3570 143f 01       		.uleb128 0x1
 3571 1440 51       		.byte	0x51
 3572 1441 01       		.uleb128 0x1
 3573 1442 33       		.byte	0x33
 3574 1443 28       		.uleb128 0x28
ARM GAS  C:\Users\dmr85\AppData\Local\Temp\ccSmIU8b.s 			page 100


 3575 1444 01       		.uleb128 0x1
 3576 1445 52       		.byte	0x52
 3577 1446 02       		.uleb128 0x2
 3578 1447 09       		.byte	0x9
 3579 1448 84       		.byte	0x84
 3580 1449 00       		.byte	0
 3581 144a 29       		.uleb128 0x29
 3582 144b E6000000 		.4byte	.LVL44
 3583 144f 101D0000 		.4byte	0x1d10
 3584 1453 5E140000 		.4byte	0x145e
 3585 1457 28       		.uleb128 0x28
 3586 1458 01       		.uleb128 0x1
 3587 1459 50       		.byte	0x50
 3588 145a 02       		.uleb128 0x2
 3589 145b 08       		.byte	0x8
 3590 145c 96       		.byte	0x96
 3591 145d 00       		.byte	0
 3592 145e 29       		.uleb128 0x29
 3593 145f F0000000 		.4byte	.LVL45
 3594 1463 B4100000 		.4byte	0x10b4
 3595 1467 7D140000 		.4byte	0x147d
 3596 146b 28       		.uleb128 0x28
 3597 146c 01       		.uleb128 0x1
 3598 146d 50       		.byte	0x50
 3599 146e 02       		.uleb128 0x2
 3600 146f 74       		.byte	0x74
 3601 1470 00       		.sleb128 0
 3602 1471 28       		.uleb128 0x28
 3603 1472 01       		.uleb128 0x1
 3604 1473 51       		.byte	0x51
 3605 1474 01       		.uleb128 0x1
 3606 1475 35       		.byte	0x35
 3607 1476 28       		.uleb128 0x28
 3608 1477 01       		.uleb128 0x1
 3609 1478 52       		.byte	0x52
 3610 1479 02       		.uleb128 0x2
 3611 147a 08       		.byte	0x8
 3612 147b 20       		.byte	0x20
 3613 147c 00       		.byte	0
 3614 147d 29       		.uleb128 0x29
 3615 147e FA000000 		.4byte	.LVL46
 3616 1482 B4100000 		.4byte	0x10b4
 3617 1486 9C140000 		.4byte	0x149c
 3618 148a 28       		.uleb128 0x28
 3619 148b 01       		.uleb128 0x1
 3620 148c 50       		.byte	0x50
 3621 148d 02       		.uleb128 0x2
 3622 148e 74       		.byte	0x74
 3623 148f 00       		.sleb128 0
 3624 1490 28       		.uleb128 0x28
 3625 1491 01       		.uleb128 0x1
 3626 1492 51       		.byte	0x51
 3627 1493 01       		.uleb128 0x1
 3628 1494 36       		.byte	0x36
 3629 1495 28       		.uleb128 0x28
 3630 1496 01       		.uleb128 0x1
 3631 1497 52       		.byte	0x52
ARM GAS  C:\Users\dmr85\AppData\Local\Temp\ccSmIU8b.s 			page 101


 3632 1498 02       		.uleb128 0x2
 3633 1499 08       		.byte	0x8
 3634 149a 20       		.byte	0x20
 3635 149b 00       		.byte	0
 3636 149c 29       		.uleb128 0x29
 3637 149d 04010000 		.4byte	.LVL47
 3638 14a1 B4100000 		.4byte	0x10b4
 3639 14a5 BB140000 		.4byte	0x14bb
 3640 14a9 28       		.uleb128 0x28
 3641 14aa 01       		.uleb128 0x1
 3642 14ab 50       		.byte	0x50
 3643 14ac 02       		.uleb128 0x2
 3644 14ad 74       		.byte	0x74
 3645 14ae 00       		.sleb128 0
 3646 14af 28       		.uleb128 0x28
 3647 14b0 01       		.uleb128 0x1
 3648 14b1 51       		.byte	0x51
 3649 14b2 01       		.uleb128 0x1
 3650 14b3 37       		.byte	0x37
 3651 14b4 28       		.uleb128 0x28
 3652 14b5 01       		.uleb128 0x1
 3653 14b6 52       		.byte	0x52
 3654 14b7 02       		.uleb128 0x2
 3655 14b8 09       		.byte	0x9
 3656 14b9 A0       		.byte	0xa0
 3657 14ba 00       		.byte	0
 3658 14bb 29       		.uleb128 0x29
 3659 14bc 0E010000 		.4byte	.LVL48
 3660 14c0 B4100000 		.4byte	0x10b4
 3661 14c4 DA140000 		.4byte	0x14da
 3662 14c8 28       		.uleb128 0x28
 3663 14c9 01       		.uleb128 0x1
 3664 14ca 50       		.byte	0x50
 3665 14cb 02       		.uleb128 0x2
 3666 14cc 74       		.byte	0x74
 3667 14cd 00       		.sleb128 0
 3668 14ce 28       		.uleb128 0x28
 3669 14cf 01       		.uleb128 0x1
 3670 14d0 51       		.byte	0x51
 3671 14d1 01       		.uleb128 0x1
 3672 14d2 38       		.byte	0x38
 3673 14d3 28       		.uleb128 0x28
 3674 14d4 01       		.uleb128 0x1
 3675 14d5 52       		.byte	0x52
 3676 14d6 02       		.uleb128 0x2
 3677 14d7 09       		.byte	0x9
 3678 14d8 A0       		.byte	0xa0
 3679 14d9 00       		.byte	0
 3680 14da 29       		.uleb128 0x29
 3681 14db 18010000 		.4byte	.LVL49
 3682 14df B4100000 		.4byte	0x10b4
 3683 14e3 F9140000 		.4byte	0x14f9
 3684 14e7 28       		.uleb128 0x28
 3685 14e8 01       		.uleb128 0x1
 3686 14e9 50       		.byte	0x50
 3687 14ea 02       		.uleb128 0x2
 3688 14eb 74       		.byte	0x74
ARM GAS  C:\Users\dmr85\AppData\Local\Temp\ccSmIU8b.s 			page 102


 3689 14ec 00       		.sleb128 0
 3690 14ed 28       		.uleb128 0x28
 3691 14ee 01       		.uleb128 0x1
 3692 14ef 51       		.byte	0x51
 3693 14f0 01       		.uleb128 0x1
 3694 14f1 39       		.byte	0x39
 3695 14f2 28       		.uleb128 0x28
 3696 14f3 01       		.uleb128 0x1
 3697 14f4 52       		.byte	0x52
 3698 14f5 02       		.uleb128 0x2
 3699 14f6 09       		.byte	0x9
 3700 14f7 A0       		.byte	0xa0
 3701 14f8 00       		.byte	0
 3702 14f9 29       		.uleb128 0x29
 3703 14fa 22010000 		.4byte	.LVL50
 3704 14fe B4100000 		.4byte	0x10b4
 3705 1502 19150000 		.4byte	0x1519
 3706 1506 28       		.uleb128 0x28
 3707 1507 01       		.uleb128 0x1
 3708 1508 50       		.byte	0x50
 3709 1509 02       		.uleb128 0x2
 3710 150a 74       		.byte	0x74
 3711 150b 00       		.sleb128 0
 3712 150c 28       		.uleb128 0x28
 3713 150d 01       		.uleb128 0x1
 3714 150e 51       		.byte	0x51
 3715 150f 02       		.uleb128 0x2
 3716 1510 77       		.byte	0x77
 3717 1511 00       		.sleb128 0
 3718 1512 28       		.uleb128 0x28
 3719 1513 01       		.uleb128 0x1
 3720 1514 52       		.byte	0x52
 3721 1515 02       		.uleb128 0x2
 3722 1516 09       		.byte	0x9
 3723 1517 A0       		.byte	0xa0
 3724 1518 00       		.byte	0
 3725 1519 29       		.uleb128 0x29
 3726 151a 2C010000 		.4byte	.LVL51
 3727 151e B4100000 		.4byte	0x10b4
 3728 1522 38150000 		.4byte	0x1538
 3729 1526 28       		.uleb128 0x28
 3730 1527 01       		.uleb128 0x1
 3731 1528 50       		.byte	0x50
 3732 1529 02       		.uleb128 0x2
 3733 152a 74       		.byte	0x74
 3734 152b 00       		.sleb128 0
 3735 152c 28       		.uleb128 0x28
 3736 152d 01       		.uleb128 0x1
 3737 152e 51       		.byte	0x51
 3738 152f 01       		.uleb128 0x1
 3739 1530 3B       		.byte	0x3b
 3740 1531 28       		.uleb128 0x28
 3741 1532 01       		.uleb128 0x1
 3742 1533 52       		.byte	0x52
 3743 1534 02       		.uleb128 0x2
 3744 1535 09       		.byte	0x9
 3745 1536 A0       		.byte	0xa0
ARM GAS  C:\Users\dmr85\AppData\Local\Temp\ccSmIU8b.s 			page 103


 3746 1537 00       		.byte	0
 3747 1538 29       		.uleb128 0x29
 3748 1539 36010000 		.4byte	.LVL52
 3749 153d B4100000 		.4byte	0x10b4
 3750 1541 57150000 		.4byte	0x1557
 3751 1545 28       		.uleb128 0x28
 3752 1546 01       		.uleb128 0x1
 3753 1547 50       		.byte	0x50
 3754 1548 02       		.uleb128 0x2
 3755 1549 74       		.byte	0x74
 3756 154a 00       		.sleb128 0
 3757 154b 28       		.uleb128 0x28
 3758 154c 01       		.uleb128 0x1
 3759 154d 51       		.byte	0x51
 3760 154e 01       		.uleb128 0x1
 3761 154f 3C       		.byte	0x3c
 3762 1550 28       		.uleb128 0x28
 3763 1551 01       		.uleb128 0x1
 3764 1552 52       		.byte	0x52
 3765 1553 02       		.uleb128 0x2
 3766 1554 09       		.byte	0x9
 3767 1555 A0       		.byte	0xa0
 3768 1556 00       		.byte	0
 3769 1557 29       		.uleb128 0x29
 3770 1558 40010000 		.4byte	.LVL53
 3771 155c B4100000 		.4byte	0x10b4
 3772 1560 76150000 		.4byte	0x1576
 3773 1564 28       		.uleb128 0x28
 3774 1565 01       		.uleb128 0x1
 3775 1566 50       		.byte	0x50
 3776 1567 02       		.uleb128 0x2
 3777 1568 74       		.byte	0x74
 3778 1569 00       		.sleb128 0
 3779 156a 28       		.uleb128 0x28
 3780 156b 01       		.uleb128 0x1
 3781 156c 51       		.byte	0x51
 3782 156d 01       		.uleb128 0x1
 3783 156e 45       		.byte	0x45
 3784 156f 28       		.uleb128 0x28
 3785 1570 01       		.uleb128 0x1
 3786 1571 52       		.byte	0x52
 3787 1572 02       		.uleb128 0x2
 3788 1573 08       		.byte	0x8
 3789 1574 20       		.byte	0x20
 3790 1575 00       		.byte	0
 3791 1576 29       		.uleb128 0x29
 3792 1577 46010000 		.4byte	.LVL54
 3793 157b F91C0000 		.4byte	0x1cf9
 3794 157f 8A150000 		.4byte	0x158a
 3795 1583 28       		.uleb128 0x28
 3796 1584 01       		.uleb128 0x1
 3797 1585 50       		.byte	0x50
 3798 1586 02       		.uleb128 0x2
 3799 1587 08       		.byte	0x8
 3800 1588 64       		.byte	0x64
 3801 1589 00       		.byte	0
 3802 158a 29       		.uleb128 0x29
ARM GAS  C:\Users\dmr85\AppData\Local\Temp\ccSmIU8b.s 			page 104


 3803 158b 50010000 		.4byte	.LVL55
 3804 158f C60E0000 		.4byte	0xec6
 3805 1593 A8150000 		.4byte	0x15a8
 3806 1597 28       		.uleb128 0x28
 3807 1598 01       		.uleb128 0x1
 3808 1599 50       		.byte	0x50
 3809 159a 01       		.uleb128 0x1
 3810 159b 30       		.byte	0x30
 3811 159c 28       		.uleb128 0x28
 3812 159d 01       		.uleb128 0x1
 3813 159e 51       		.byte	0x51
 3814 159f 01       		.uleb128 0x1
 3815 15a0 33       		.byte	0x33
 3816 15a1 28       		.uleb128 0x28
 3817 15a2 01       		.uleb128 0x1
 3818 15a3 52       		.byte	0x52
 3819 15a4 02       		.uleb128 0x2
 3820 15a5 91       		.byte	0x91
 3821 15a6 64       		.sleb128 -28
 3822 15a7 00       		.byte	0
 3823 15a8 27       		.uleb128 0x27
 3824 15a9 5A010000 		.4byte	.LVL56
 3825 15ad 1B1D0000 		.4byte	0x1d1b
 3826 15b1 28       		.uleb128 0x28
 3827 15b2 01       		.uleb128 0x1
 3828 15b3 50       		.byte	0x50
 3829 15b4 05       		.uleb128 0x5
 3830 15b5 03       		.byte	0x3
 3831 15b6 00000000 		.4byte	.LC0
 3832 15ba 00       		.byte	0
 3833 15bb 00       		.byte	0
 3834 15bc 1F       		.uleb128 0x1f
 3835 15bd 14000000 		.4byte	.LASF326
 3836 15c1 01       		.byte	0x1
 3837 15c2 AA       		.byte	0xaa
 3838 15c3 C90D0000 		.4byte	0xdc9
 3839 15c7 00000000 		.4byte	.LFB552
 3840 15cb 24000000 		.4byte	.LFE552-.LFB552
 3841 15cf 01       		.uleb128 0x1
 3842 15d0 9C       		.byte	0x9c
 3843 15d1 3C160000 		.4byte	0x163c
 3844 15d5 20       		.uleb128 0x20
 3845 15d6 AC110000 		.4byte	.LASF313
 3846 15da 01       		.byte	0x1
 3847 15db AA       		.byte	0xaa
 3848 15dc A2000000 		.4byte	0xa2
 3849 15e0 02020000 		.4byte	.LLST21
 3850 15e4 29       		.uleb128 0x29
 3851 15e5 0C000000 		.4byte	.LVL58
 3852 15e9 B4100000 		.4byte	0x10b4
 3853 15ed 02160000 		.4byte	0x1602
 3854 15f1 28       		.uleb128 0x28
 3855 15f2 01       		.uleb128 0x1
 3856 15f3 50       		.byte	0x50
 3857 15f4 02       		.uleb128 0x2
 3858 15f5 74       		.byte	0x74
 3859 15f6 00       		.sleb128 0
ARM GAS  C:\Users\dmr85\AppData\Local\Temp\ccSmIU8b.s 			page 105


 3860 15f7 28       		.uleb128 0x28
 3861 15f8 01       		.uleb128 0x1
 3862 15f9 51       		.byte	0x51
 3863 15fa 01       		.uleb128 0x1
 3864 15fb 34       		.byte	0x34
 3865 15fc 28       		.uleb128 0x28
 3866 15fd 01       		.uleb128 0x1
 3867 15fe 52       		.byte	0x52
 3868 15ff 01       		.uleb128 0x1
 3869 1600 33       		.byte	0x33
 3870 1601 00       		.byte	0
 3871 1602 29       		.uleb128 0x29
 3872 1603 16000000 		.4byte	.LVL59
 3873 1607 B4100000 		.4byte	0x10b4
 3874 160b 20160000 		.4byte	0x1620
 3875 160f 28       		.uleb128 0x28
 3876 1610 01       		.uleb128 0x1
 3877 1611 50       		.byte	0x50
 3878 1612 02       		.uleb128 0x2
 3879 1613 74       		.byte	0x74
 3880 1614 00       		.sleb128 0
 3881 1615 28       		.uleb128 0x28
 3882 1616 01       		.uleb128 0x1
 3883 1617 51       		.byte	0x51
 3884 1618 01       		.uleb128 0x1
 3885 1619 47       		.byte	0x47
 3886 161a 28       		.uleb128 0x28
 3887 161b 01       		.uleb128 0x1
 3888 161c 52       		.byte	0x52
 3889 161d 01       		.uleb128 0x1
 3890 161e 32       		.byte	0x32
 3891 161f 00       		.byte	0
 3892 1620 27       		.uleb128 0x27
 3893 1621 20000000 		.4byte	.LVL60
 3894 1625 B4100000 		.4byte	0x10b4
 3895 1629 28       		.uleb128 0x28
 3896 162a 01       		.uleb128 0x1
 3897 162b 50       		.byte	0x50
 3898 162c 02       		.uleb128 0x2
 3899 162d 74       		.byte	0x74
 3900 162e 00       		.sleb128 0
 3901 162f 28       		.uleb128 0x28
 3902 1630 01       		.uleb128 0x1
 3903 1631 51       		.byte	0x51
 3904 1632 01       		.uleb128 0x1
 3905 1633 3F       		.byte	0x3f
 3906 1634 28       		.uleb128 0x28
 3907 1635 01       		.uleb128 0x1
 3908 1636 52       		.byte	0x52
 3909 1637 02       		.uleb128 0x2
 3910 1638 09       		.byte	0x9
 3911 1639 FF       		.byte	0xff
 3912 163a 00       		.byte	0
 3913 163b 00       		.byte	0
 3914 163c 1F       		.uleb128 0x1f
 3915 163d 3C040000 		.4byte	.LASF327
 3916 1641 01       		.byte	0x1
ARM GAS  C:\Users\dmr85\AppData\Local\Temp\ccSmIU8b.s 			page 106


 3917 1642 FB       		.byte	0xfb
 3918 1643 C90D0000 		.4byte	0xdc9
 3919 1647 00000000 		.4byte	.LFB555
 3920 164b 7C000000 		.4byte	.LFE555-.LFB555
 3921 164f 01       		.uleb128 0x1
 3922 1650 9C       		.byte	0x9c
 3923 1651 5A170000 		.4byte	0x175a
 3924 1655 20       		.uleb128 0x20
 3925 1656 AC110000 		.4byte	.LASF313
 3926 165a 01       		.byte	0x1
 3927 165b FB       		.byte	0xfb
 3928 165c A2000000 		.4byte	0xa2
 3929 1660 23020000 		.4byte	.LLST22
 3930 1664 20       		.uleb128 0x20
 3931 1665 88170000 		.4byte	.LASF328
 3932 1669 01       		.byte	0x1
 3933 166a FB       		.byte	0xfb
 3934 166b E0000000 		.4byte	0xe0
 3935 166f 44020000 		.4byte	.LLST23
 3936 1673 20       		.uleb128 0x20
 3937 1674 C91B0000 		.4byte	.LASF329
 3938 1678 01       		.byte	0x1
 3939 1679 FB       		.byte	0xfb
 3940 167a 5A170000 		.4byte	0x175a
 3941 167e 6F020000 		.4byte	.LLST24
 3942 1682 21       		.uleb128 0x21
 3943 1683 B5010000 		.4byte	.LASF330
 3944 1687 01       		.byte	0x1
 3945 1688 FE       		.byte	0xfe
 3946 1689 E5000000 		.4byte	0xe5
 3947 168d 02       		.uleb128 0x2
 3948 168e 91       		.byte	0x91
 3949 168f 6F       		.sleb128 -17
 3950 1690 2B       		.uleb128 0x2b
 3951 1691 04       		.byte	0x4
 3952 1692 01       		.byte	0x1
 3953 1693 FF       		.byte	0xff
 3954 1694 B1160000 		.4byte	0x16b1
 3955 1698 2C       		.uleb128 0x2c
 3956 1699 72617700 		.ascii	"raw\000"
 3957 169d 01       		.byte	0x1
 3958 169e 0001     		.2byte	0x100
 3959 16a0 CE000000 		.4byte	0xce
 3960 16a4 2D       		.uleb128 0x2d
 3961 16a5 AE0F0000 		.4byte	.LASF142
 3962 16a9 01       		.byte	0x1
 3963 16aa 0101     		.2byte	0x101
 3964 16ac 1F010000 		.4byte	0x11f
 3965 16b0 00       		.byte	0
 3966 16b1 2E       		.uleb128 0x2e
 3967 16b2 CC160000 		.4byte	.LASF331
 3968 16b6 01       		.byte	0x1
 3969 16b7 0201     		.2byte	0x102
 3970 16b9 90160000 		.4byte	0x1690
 3971 16bd 02       		.uleb128 0x2
 3972 16be 91       		.byte	0x91
 3973 16bf 68       		.sleb128 -24
ARM GAS  C:\Users\dmr85\AppData\Local\Temp\ccSmIU8b.s 			page 107


 3974 16c0 2F       		.uleb128 0x2f
 3975 16c1 04       		.byte	0x4
 3976 16c2 01       		.byte	0x1
 3977 16c3 0301     		.2byte	0x103
 3978 16c5 E2160000 		.4byte	0x16e2
 3979 16c9 2C       		.uleb128 0x2c
 3980 16ca 72617700 		.ascii	"raw\000"
 3981 16ce 01       		.byte	0x1
 3982 16cf 0401     		.2byte	0x104
 3983 16d1 C3000000 		.4byte	0xc3
 3984 16d5 2D       		.uleb128 0x2d
 3985 16d6 1F0F0000 		.4byte	.LASF332
 3986 16da 01       		.byte	0x1
 3987 16db 0501     		.2byte	0x105
 3988 16dd 1F010000 		.4byte	0x11f
 3989 16e1 00       		.byte	0
 3990 16e2 2E       		.uleb128 0x2e
 3991 16e3 A4110000 		.4byte	.LASF333
 3992 16e7 01       		.byte	0x1
 3993 16e8 0601     		.2byte	0x106
 3994 16ea C0160000 		.4byte	0x16c0
 3995 16ee 02       		.uleb128 0x2
 3996 16ef 91       		.byte	0x91
 3997 16f0 64       		.sleb128 -28
 3998 16f1 29       		.uleb128 0x29
 3999 16f2 18000000 		.4byte	.LVL64
 4000 16f6 D81C0000 		.4byte	0x1cd8
 4001 16fa 0E170000 		.4byte	0x170e
 4002 16fe 28       		.uleb128 0x28
 4003 16ff 01       		.uleb128 0x1
 4004 1700 50       		.byte	0x50
 4005 1701 05       		.uleb128 0x5
 4006 1702 03       		.byte	0x3
 4007 1703 00000000 		.4byte	spi
 4008 1707 28       		.uleb128 0x28
 4009 1708 01       		.uleb128 0x1
 4010 1709 51       		.byte	0x51
 4011 170a 02       		.uleb128 0x2
 4012 170b 75       		.byte	0x75
 4013 170c 00       		.sleb128 0
 4014 170d 00       		.byte	0
 4015 170e 29       		.uleb128 0x29
 4016 170f 22000000 		.4byte	.LVL65
 4017 1713 261D0000 		.4byte	0x1d26
 4018 1717 27170000 		.4byte	0x1727
 4019 171b 28       		.uleb128 0x28
 4020 171c 01       		.uleb128 0x1
 4021 171d 50       		.byte	0x50
 4022 171e 02       		.uleb128 0x2
 4023 171f 91       		.byte	0x91
 4024 1720 69       		.sleb128 -23
 4025 1721 28       		.uleb128 0x28
 4026 1722 01       		.uleb128 0x1
 4027 1723 51       		.byte	0x51
 4028 1724 01       		.uleb128 0x1
 4029 1725 33       		.byte	0x33
 4030 1726 00       		.byte	0
ARM GAS  C:\Users\dmr85\AppData\Local\Temp\ccSmIU8b.s 			page 108


 4031 1727 29       		.uleb128 0x29
 4032 1728 38000000 		.4byte	.LVL66
 4033 172c 261D0000 		.4byte	0x1d26
 4034 1730 40170000 		.4byte	0x1740
 4035 1734 28       		.uleb128 0x28
 4036 1735 01       		.uleb128 0x1
 4037 1736 50       		.byte	0x50
 4038 1737 02       		.uleb128 0x2
 4039 1738 91       		.byte	0x91
 4040 1739 65       		.sleb128 -27
 4041 173a 28       		.uleb128 0x28
 4042 173b 01       		.uleb128 0x1
 4043 173c 51       		.byte	0x51
 4044 173d 01       		.uleb128 0x1
 4045 173e 33       		.byte	0x33
 4046 173f 00       		.byte	0
 4047 1740 27       		.uleb128 0x27
 4048 1741 72000000 		.4byte	.LVL67
 4049 1745 E31C0000 		.4byte	0x1ce3
 4050 1749 28       		.uleb128 0x28
 4051 174a 01       		.uleb128 0x1
 4052 174b 50       		.byte	0x50
 4053 174c 05       		.uleb128 0x5
 4054 174d 03       		.byte	0x3
 4055 174e 00000000 		.4byte	spi
 4056 1752 28       		.uleb128 0x28
 4057 1753 01       		.uleb128 0x1
 4058 1754 51       		.byte	0x51
 4059 1755 02       		.uleb128 0x2
 4060 1756 75       		.byte	0x75
 4061 1757 00       		.sleb128 0
 4062 1758 00       		.byte	0
 4063 1759 00       		.byte	0
 4064 175a 10       		.uleb128 0x10
 4065 175b 04       		.byte	0x4
 4066 175c 2A0D0000 		.4byte	0xd2a
 4067 1760 30       		.uleb128 0x30
 4068 1761 F6130000 		.4byte	.LASF334
 4069 1765 01       		.byte	0x1
 4070 1766 2101     		.2byte	0x121
 4071 1768 C90D0000 		.4byte	0xdc9
 4072 176c 00000000 		.4byte	.LFB556
 4073 1770 B4000000 		.4byte	.LFE556-.LFB556
 4074 1774 01       		.uleb128 0x1
 4075 1775 9C       		.byte	0x9c
 4076 1776 31180000 		.4byte	0x1831
 4077 177a 31       		.uleb128 0x31
 4078 177b AC110000 		.4byte	.LASF313
 4079 177f 01       		.byte	0x1
 4080 1780 2101     		.2byte	0x121
 4081 1782 A2000000 		.4byte	0xa2
 4082 1786 9B020000 		.4byte	.LLST25
 4083 178a 31       		.uleb128 0x31
 4084 178b 88170000 		.4byte	.LASF328
 4085 178f 01       		.byte	0x1
 4086 1790 2101     		.2byte	0x121
 4087 1792 E0000000 		.4byte	0xe0
ARM GAS  C:\Users\dmr85\AppData\Local\Temp\ccSmIU8b.s 			page 109


 4088 1796 BC020000 		.4byte	.LLST26
 4089 179a 31       		.uleb128 0x31
 4090 179b C91B0000 		.4byte	.LASF329
 4091 179f 01       		.byte	0x1
 4092 17a0 2101     		.2byte	0x121
 4093 17a2 31180000 		.4byte	0x1831
 4094 17a6 E7020000 		.4byte	.LLST27
 4095 17aa 2E       		.uleb128 0x2e
 4096 17ab B5010000 		.4byte	.LASF330
 4097 17af 01       		.byte	0x1
 4098 17b0 2401     		.2byte	0x124
 4099 17b2 E5000000 		.4byte	0xe5
 4100 17b6 02       		.uleb128 0x2
 4101 17b7 91       		.byte	0x91
 4102 17b8 6F       		.sleb128 -17
 4103 17b9 2E       		.uleb128 0x2e
 4104 17ba A4170000 		.4byte	.LASF335
 4105 17be 01       		.byte	0x1
 4106 17bf 2601     		.2byte	0x126
 4107 17c1 37180000 		.4byte	0x1837
 4108 17c5 02       		.uleb128 0x2
 4109 17c6 91       		.byte	0x91
 4110 17c7 54       		.sleb128 -44
 4111 17c8 29       		.uleb128 0x29
 4112 17c9 12000000 		.4byte	.LVL72
 4113 17cd D81C0000 		.4byte	0x1cd8
 4114 17d1 E5170000 		.4byte	0x17e5
 4115 17d5 28       		.uleb128 0x28
 4116 17d6 01       		.uleb128 0x1
 4117 17d7 50       		.byte	0x50
 4118 17d8 05       		.uleb128 0x5
 4119 17d9 03       		.byte	0x3
 4120 17da 00000000 		.4byte	spi
 4121 17de 28       		.uleb128 0x28
 4122 17df 01       		.uleb128 0x1
 4123 17e0 51       		.byte	0x51
 4124 17e1 02       		.uleb128 0x2
 4125 17e2 75       		.byte	0x75
 4126 17e3 00       		.sleb128 0
 4127 17e4 00       		.byte	0
 4128 17e5 29       		.uleb128 0x29
 4129 17e6 1A000000 		.4byte	.LVL73
 4130 17ea 261D0000 		.4byte	0x1d26
 4131 17ee FE170000 		.4byte	0x17fe
 4132 17f2 28       		.uleb128 0x28
 4133 17f3 01       		.uleb128 0x1
 4134 17f4 50       		.byte	0x50
 4135 17f5 02       		.uleb128 0x2
 4136 17f6 91       		.byte	0x91
 4137 17f7 54       		.sleb128 -44
 4138 17f8 28       		.uleb128 0x28
 4139 17f9 01       		.uleb128 0x1
 4140 17fa 51       		.byte	0x51
 4141 17fb 01       		.uleb128 0x1
 4142 17fc 33       		.byte	0x33
 4143 17fd 00       		.byte	0
 4144 17fe 29       		.uleb128 0x29
ARM GAS  C:\Users\dmr85\AppData\Local\Temp\ccSmIU8b.s 			page 110


 4145 17ff 3C000000 		.4byte	.LVL74
 4146 1803 261D0000 		.4byte	0x1d26
 4147 1807 17180000 		.4byte	0x1817
 4148 180b 28       		.uleb128 0x28
 4149 180c 01       		.uleb128 0x1
 4150 180d 50       		.byte	0x50
 4151 180e 02       		.uleb128 0x2
 4152 180f 91       		.byte	0x91
 4153 1810 54       		.sleb128 -44
 4154 1811 28       		.uleb128 0x28
 4155 1812 01       		.uleb128 0x1
 4156 1813 51       		.byte	0x51
 4157 1814 01       		.uleb128 0x1
 4158 1815 33       		.byte	0x33
 4159 1816 00       		.byte	0
 4160 1817 27       		.uleb128 0x27
 4161 1818 A8000000 		.4byte	.LVL75
 4162 181c E31C0000 		.4byte	0x1ce3
 4163 1820 28       		.uleb128 0x28
 4164 1821 01       		.uleb128 0x1
 4165 1822 50       		.byte	0x50
 4166 1823 05       		.uleb128 0x5
 4167 1824 03       		.byte	0x3
 4168 1825 00000000 		.4byte	spi
 4169 1829 28       		.uleb128 0x28
 4170 182a 01       		.uleb128 0x1
 4171 182b 51       		.byte	0x51
 4172 182c 02       		.uleb128 0x2
 4173 182d 75       		.byte	0x75
 4174 182e 00       		.sleb128 0
 4175 182f 00       		.byte	0
 4176 1830 00       		.byte	0
 4177 1831 10       		.uleb128 0x10
 4178 1832 04       		.byte	0x4
 4179 1833 A50D0000 		.4byte	0xda5
 4180 1837 07       		.uleb128 0x7
 4181 1838 A2000000 		.4byte	0xa2
 4182 183c 47180000 		.4byte	0x1847
 4183 1840 08       		.uleb128 0x8
 4184 1841 D9000000 		.4byte	0xd9
 4185 1845 1A       		.byte	0x1a
 4186 1846 00       		.byte	0
 4187 1847 30       		.uleb128 0x30
 4188 1848 1E060000 		.4byte	.LASF336
 4189 184c 01       		.byte	0x1
 4190 184d 4301     		.2byte	0x143
 4191 184f C90D0000 		.4byte	0xdc9
 4192 1853 00000000 		.4byte	.LFB557
 4193 1857 58010000 		.4byte	.LFE557-.LFB557
 4194 185b 01       		.uleb128 0x1
 4195 185c 9C       		.byte	0x9c
 4196 185d CE1A0000 		.4byte	0x1ace
 4197 1861 31       		.uleb128 0x31
 4198 1862 AC110000 		.4byte	.LASF313
 4199 1866 01       		.byte	0x1
 4200 1867 4301     		.2byte	0x143
 4201 1869 A2000000 		.4byte	0xa2
ARM GAS  C:\Users\dmr85\AppData\Local\Temp\ccSmIU8b.s 			page 111


 4202 186d 13030000 		.4byte	.LLST28
 4203 1871 31       		.uleb128 0x31
 4204 1872 88170000 		.4byte	.LASF328
 4205 1876 01       		.byte	0x1
 4206 1877 4301     		.2byte	0x143
 4207 1879 E0000000 		.4byte	0xe0
 4208 187d 34030000 		.4byte	.LLST29
 4209 1881 31       		.uleb128 0x31
 4210 1882 97110000 		.4byte	.LASF337
 4211 1886 01       		.byte	0x1
 4212 1887 4301     		.2byte	0x143
 4213 1889 780E0000 		.4byte	0xe78
 4214 188d 5F030000 		.4byte	.LLST30
 4215 1891 31       		.uleb128 0x31
 4216 1892 3A070000 		.4byte	.LASF338
 4217 1896 01       		.byte	0x1
 4218 1897 4301     		.2byte	0x143
 4219 1899 E41A0000 		.4byte	0x1ae4
 4220 189d 8B030000 		.4byte	.LLST31
 4221 18a1 1C       		.uleb128 0x1c
 4222 18a2 56080000 		.4byte	.LASF339
 4223 18a6 01       		.byte	0x1
 4224 18a7 4501     		.2byte	0x145
 4225 18a9 CE000000 		.4byte	0xce
 4226 18ad 2E       		.uleb128 0x2e
 4227 18ae B5010000 		.4byte	.LASF330
 4228 18b2 01       		.byte	0x1
 4229 18b3 4601     		.2byte	0x146
 4230 18b5 E5000000 		.4byte	0xe5
 4231 18b9 02       		.uleb128 0x2
 4232 18ba 91       		.byte	0x91
 4233 18bb 67       		.sleb128 -25
 4234 18bc 2E       		.uleb128 0x2e
 4235 18bd A4110000 		.4byte	.LASF333
 4236 18c1 01       		.byte	0x1
 4237 18c2 4701     		.2byte	0x147
 4238 18c4 37180000 		.4byte	0x1837
 4239 18c8 02       		.uleb128 0x2
 4240 18c9 91       		.byte	0x91
 4241 18ca 4C       		.sleb128 -52
 4242 18cb 32       		.uleb128 0x32
 4243 18cc 6A00     		.ascii	"j\000"
 4244 18ce 01       		.byte	0x1
 4245 18cf 5001     		.2byte	0x150
 4246 18d1 94000000 		.4byte	0x94
 4247 18d5 24       		.uleb128 0x24
 4248 18d6 5C0E0000 		.4byte	0xe5c
 4249 18da 16000000 		.4byte	.LBB67
 4250 18de 10000000 		.4byte	.LBE67-.LBB67
 4251 18e2 01       		.byte	0x1
 4252 18e3 5101     		.2byte	0x151
 4253 18e5 15190000 		.4byte	0x1915
 4254 18e9 23       		.uleb128 0x23
 4255 18ea 6C0E0000 		.4byte	0xe6c
 4256 18ee B7030000 		.4byte	.LLST32
 4257 18f2 33       		.uleb128 0x33
 4258 18f3 0E0E0000 		.4byte	0xe0e
ARM GAS  C:\Users\dmr85\AppData\Local\Temp\ccSmIU8b.s 			page 112


 4259 18f7 16000000 		.4byte	.LBB69
 4260 18fb 04000000 		.4byte	.LBE69-.LBB69
 4261 18ff 04       		.byte	0x4
 4262 1900 4B       		.byte	0x4b
 4263 1901 23       		.uleb128 0x23
 4264 1902 2B0E0000 		.4byte	0xe2b
 4265 1906 CF030000 		.4byte	.LLST33
 4266 190a 23       		.uleb128 0x23
 4267 190b 1F0E0000 		.4byte	0xe1f
 4268 190f E3030000 		.4byte	.LLST34
 4269 1913 00       		.byte	0
 4270 1914 00       		.byte	0
 4271 1915 24       		.uleb128 0x24
 4272 1916 3E0E0000 		.4byte	0xe3e
 4273 191a 2A000000 		.4byte	.LBB71
 4274 191e 22000000 		.4byte	.LBE71-.LBB71
 4275 1922 01       		.byte	0x1
 4276 1923 5401     		.2byte	0x154
 4277 1925 CB190000 		.4byte	0x19cb
 4278 1929 23       		.uleb128 0x23
 4279 192a 4F0E0000 		.4byte	0xe4f
 4280 192e FB030000 		.4byte	.LLST35
 4281 1932 2A       		.uleb128 0x2a
 4282 1933 9C0E0000 		.4byte	0xe9c
 4283 1937 2A000000 		.4byte	.LBB72
 4284 193b 22000000 		.4byte	.LBE72-.LBB72
 4285 193f 02       		.byte	0x2
 4286 1940 5B03     		.2byte	0x35b
 4287 1942 23       		.uleb128 0x23
 4288 1943 B90E0000 		.4byte	0xeb9
 4289 1947 0E040000 		.4byte	.LLST36
 4290 194b 23       		.uleb128 0x23
 4291 194c AD0E0000 		.4byte	0xead
 4292 1950 FB030000 		.4byte	.LLST35
 4293 1954 24       		.uleb128 0x24
 4294 1955 D40D0000 		.4byte	0xdd4
 4295 1959 34000000 		.4byte	.LBB74
 4296 195d 10000000 		.4byte	.LBE74-.LBB74
 4297 1961 02       		.byte	0x2
 4298 1962 E002     		.2byte	0x2e0
 4299 1964 99190000 		.4byte	0x1999
 4300 1968 23       		.uleb128 0x23
 4301 1969 E50D0000 		.4byte	0xde5
 4302 196d 22040000 		.4byte	.LLST38
 4303 1971 25       		.uleb128 0x25
 4304 1972 34000000 		.4byte	.LBB75
 4305 1976 10000000 		.4byte	.LBE75-.LBB75
 4306 197a 26       		.uleb128 0x26
 4307 197b F10D0000 		.4byte	0xdf1
 4308 197f 02       		.uleb128 0x2
 4309 1980 91       		.byte	0x91
 4310 1981 48       		.sleb128 -56
 4311 1982 27       		.uleb128 0x27
 4312 1983 44000000 		.4byte	.LVL85
 4313 1987 CD1C0000 		.4byte	0x1ccd
 4314 198b 28       		.uleb128 0x28
 4315 198c 01       		.uleb128 0x1
ARM GAS  C:\Users\dmr85\AppData\Local\Temp\ccSmIU8b.s 			page 113


 4316 198d 50       		.byte	0x50
 4317 198e 02       		.uleb128 0x2
 4318 198f 77       		.byte	0x77
 4319 1990 00       		.sleb128 0
 4320 1991 28       		.uleb128 0x28
 4321 1992 01       		.uleb128 0x1
 4322 1993 51       		.byte	0x51
 4323 1994 01       		.uleb128 0x1
 4324 1995 31       		.byte	0x31
 4325 1996 00       		.byte	0
 4326 1997 00       		.byte	0
 4327 1998 00       		.byte	0
 4328 1999 29       		.uleb128 0x29
 4329 199a 34000000 		.4byte	.LVL84
 4330 199e D81C0000 		.4byte	0x1cd8
 4331 19a2 B3190000 		.4byte	0x19b3
 4332 19a6 28       		.uleb128 0x28
 4333 19a7 01       		.uleb128 0x1
 4334 19a8 50       		.byte	0x50
 4335 19a9 02       		.uleb128 0x2
 4336 19aa 76       		.byte	0x76
 4337 19ab 00       		.sleb128 0
 4338 19ac 28       		.uleb128 0x28
 4339 19ad 01       		.uleb128 0x1
 4340 19ae 51       		.byte	0x51
 4341 19af 02       		.uleb128 0x2
 4342 19b0 75       		.byte	0x75
 4343 19b1 00       		.sleb128 0
 4344 19b2 00       		.byte	0
 4345 19b3 27       		.uleb128 0x27
 4346 19b4 4C000000 		.4byte	.LVL86
 4347 19b8 E31C0000 		.4byte	0x1ce3
 4348 19bc 28       		.uleb128 0x28
 4349 19bd 01       		.uleb128 0x1
 4350 19be 50       		.byte	0x50
 4351 19bf 02       		.uleb128 0x2
 4352 19c0 76       		.byte	0x76
 4353 19c1 00       		.sleb128 0
 4354 19c2 28       		.uleb128 0x28
 4355 19c3 01       		.uleb128 0x1
 4356 19c4 51       		.byte	0x51
 4357 19c5 02       		.uleb128 0x2
 4358 19c6 75       		.byte	0x75
 4359 19c7 00       		.sleb128 0
 4360 19c8 00       		.byte	0
 4361 19c9 00       		.byte	0
 4362 19ca 00       		.byte	0
 4363 19cb 24       		.uleb128 0x24
 4364 19cc 7E0E0000 		.4byte	0xe7e
 4365 19d0 5C000000 		.4byte	.LBB76
 4366 19d4 1E000000 		.4byte	.LBE76-.LBB76
 4367 19d8 01       		.byte	0x1
 4368 19d9 5B01     		.2byte	0x15b
 4369 19db 811A0000 		.4byte	0x1a81
 4370 19df 23       		.uleb128 0x23
 4371 19e0 8F0E0000 		.4byte	0xe8f
 4372 19e4 36040000 		.4byte	.LLST39
ARM GAS  C:\Users\dmr85\AppData\Local\Temp\ccSmIU8b.s 			page 114


 4373 19e8 2A       		.uleb128 0x2a
 4374 19e9 9C0E0000 		.4byte	0xe9c
 4375 19ed 5C000000 		.4byte	.LBB77
 4376 19f1 1E000000 		.4byte	.LBE77-.LBB77
 4377 19f5 02       		.byte	0x2
 4378 19f6 4403     		.2byte	0x344
 4379 19f8 23       		.uleb128 0x23
 4380 19f9 B90E0000 		.4byte	0xeb9
 4381 19fd 49040000 		.4byte	.LLST40
 4382 1a01 23       		.uleb128 0x23
 4383 1a02 AD0E0000 		.4byte	0xead
 4384 1a06 36040000 		.4byte	.LLST39
 4385 1a0a 24       		.uleb128 0x24
 4386 1a0b D40D0000 		.4byte	0xdd4
 4387 1a0f 64000000 		.4byte	.LBB79
 4388 1a13 0E000000 		.4byte	.LBE79-.LBB79
 4389 1a17 02       		.byte	0x2
 4390 1a18 E002     		.2byte	0x2e0
 4391 1a1a 4F1A0000 		.4byte	0x1a4f
 4392 1a1e 23       		.uleb128 0x23
 4393 1a1f E50D0000 		.4byte	0xde5
 4394 1a23 5D040000 		.4byte	.LLST42
 4395 1a27 25       		.uleb128 0x25
 4396 1a28 64000000 		.4byte	.LBB80
 4397 1a2c 0E000000 		.4byte	.LBE80-.LBB80
 4398 1a30 26       		.uleb128 0x26
 4399 1a31 F10D0000 		.4byte	0xdf1
 4400 1a35 02       		.uleb128 0x2
 4401 1a36 91       		.byte	0x91
 4402 1a37 48       		.sleb128 -56
 4403 1a38 27       		.uleb128 0x27
 4404 1a39 72000000 		.4byte	.LVL90
 4405 1a3d CD1C0000 		.4byte	0x1ccd
 4406 1a41 28       		.uleb128 0x28
 4407 1a42 01       		.uleb128 0x1
 4408 1a43 50       		.byte	0x50
 4409 1a44 02       		.uleb128 0x2
 4410 1a45 77       		.byte	0x77
 4411 1a46 00       		.sleb128 0
 4412 1a47 28       		.uleb128 0x28
 4413 1a48 01       		.uleb128 0x1
 4414 1a49 51       		.byte	0x51
 4415 1a4a 01       		.uleb128 0x1
 4416 1a4b 31       		.byte	0x31
 4417 1a4c 00       		.byte	0
 4418 1a4d 00       		.byte	0
 4419 1a4e 00       		.byte	0
 4420 1a4f 29       		.uleb128 0x29
 4421 1a50 64000000 		.4byte	.LVL89
 4422 1a54 D81C0000 		.4byte	0x1cd8
 4423 1a58 691A0000 		.4byte	0x1a69
 4424 1a5c 28       		.uleb128 0x28
 4425 1a5d 01       		.uleb128 0x1
 4426 1a5e 50       		.byte	0x50
 4427 1a5f 02       		.uleb128 0x2
 4428 1a60 76       		.byte	0x76
 4429 1a61 00       		.sleb128 0
ARM GAS  C:\Users\dmr85\AppData\Local\Temp\ccSmIU8b.s 			page 115


 4430 1a62 28       		.uleb128 0x28
 4431 1a63 01       		.uleb128 0x1
 4432 1a64 51       		.byte	0x51
 4433 1a65 02       		.uleb128 0x2
 4434 1a66 75       		.byte	0x75
 4435 1a67 00       		.sleb128 0
 4436 1a68 00       		.byte	0
 4437 1a69 27       		.uleb128 0x27
 4438 1a6a 7A000000 		.4byte	.LVL91
 4439 1a6e E31C0000 		.4byte	0x1ce3
 4440 1a72 28       		.uleb128 0x28
 4441 1a73 01       		.uleb128 0x1
 4442 1a74 50       		.byte	0x50
 4443 1a75 02       		.uleb128 0x2
 4444 1a76 76       		.byte	0x76
 4445 1a77 00       		.sleb128 0
 4446 1a78 28       		.uleb128 0x28
 4447 1a79 01       		.uleb128 0x1
 4448 1a7a 51       		.byte	0x51
 4449 1a7b 02       		.uleb128 0x2
 4450 1a7c 75       		.byte	0x75
 4451 1a7d 00       		.sleb128 0
 4452 1a7e 00       		.byte	0
 4453 1a7f 00       		.byte	0
 4454 1a80 00       		.byte	0
 4455 1a81 29       		.uleb128 0x29
 4456 1a82 16000000 		.4byte	.LVL80
 4457 1a86 D81C0000 		.4byte	0x1cd8
 4458 1a8a 9E1A0000 		.4byte	0x1a9e
 4459 1a8e 28       		.uleb128 0x28
 4460 1a8f 01       		.uleb128 0x1
 4461 1a90 50       		.byte	0x50
 4462 1a91 05       		.uleb128 0x5
 4463 1a92 03       		.byte	0x3
 4464 1a93 00000000 		.4byte	spi
 4465 1a97 28       		.uleb128 0x28
 4466 1a98 01       		.uleb128 0x1
 4467 1a99 51       		.byte	0x51
 4468 1a9a 02       		.uleb128 0x2
 4469 1a9b 75       		.byte	0x75
 4470 1a9c 00       		.sleb128 0
 4471 1a9d 00       		.byte	0
 4472 1a9e 29       		.uleb128 0x29
 4473 1a9f 54000000 		.4byte	.LVL87
 4474 1aa3 261D0000 		.4byte	0x1d26
 4475 1aa7 B71A0000 		.4byte	0x1ab7
 4476 1aab 28       		.uleb128 0x28
 4477 1aac 01       		.uleb128 0x1
 4478 1aad 50       		.byte	0x50
 4479 1aae 02       		.uleb128 0x2
 4480 1aaf 91       		.byte	0x91
 4481 1ab0 4C       		.sleb128 -52
 4482 1ab1 28       		.uleb128 0x28
 4483 1ab2 01       		.uleb128 0x1
 4484 1ab3 51       		.byte	0x51
 4485 1ab4 01       		.uleb128 0x1
 4486 1ab5 4B       		.byte	0x4b
ARM GAS  C:\Users\dmr85\AppData\Local\Temp\ccSmIU8b.s 			page 116


 4487 1ab6 00       		.byte	0
 4488 1ab7 27       		.uleb128 0x27
 4489 1ab8 5C000000 		.4byte	.LVL88
 4490 1abc E31C0000 		.4byte	0x1ce3
 4491 1ac0 28       		.uleb128 0x28
 4492 1ac1 01       		.uleb128 0x1
 4493 1ac2 50       		.byte	0x50
 4494 1ac3 02       		.uleb128 0x2
 4495 1ac4 76       		.byte	0x76
 4496 1ac5 00       		.sleb128 0
 4497 1ac6 28       		.uleb128 0x28
 4498 1ac7 01       		.uleb128 0x1
 4499 1ac8 51       		.byte	0x51
 4500 1ac9 02       		.uleb128 0x2
 4501 1aca 75       		.byte	0x75
 4502 1acb 00       		.sleb128 0
 4503 1acc 00       		.byte	0
 4504 1acd 00       		.byte	0
 4505 1ace 07       		.uleb128 0x7
 4506 1acf E5000000 		.4byte	0xe5
 4507 1ad3 E41A0000 		.4byte	0x1ae4
 4508 1ad7 08       		.uleb128 0x8
 4509 1ad8 D9000000 		.4byte	0xd9
 4510 1adc 07       		.byte	0x7
 4511 1add 08       		.uleb128 0x8
 4512 1ade D9000000 		.4byte	0xd9
 4513 1ae2 02       		.byte	0x2
 4514 1ae3 00       		.byte	0
 4515 1ae4 10       		.uleb128 0x10
 4516 1ae5 04       		.byte	0x4
 4517 1ae6 CE1A0000 		.4byte	0x1ace
 4518 1aea 30       		.uleb128 0x30
 4519 1aeb 5F1A0000 		.4byte	.LASF340
 4520 1aef 01       		.byte	0x1
 4521 1af0 7101     		.2byte	0x171
 4522 1af2 C90D0000 		.4byte	0xdc9
 4523 1af6 00000000 		.4byte	.LFB558
 4524 1afa 7C000000 		.4byte	.LFE558-.LFB558
 4525 1afe 01       		.uleb128 0x1
 4526 1aff 9C       		.byte	0x9c
 4527 1b00 1E1C0000 		.4byte	0x1c1e
 4528 1b04 31       		.uleb128 0x31
 4529 1b05 AC110000 		.4byte	.LASF313
 4530 1b09 01       		.byte	0x1
 4531 1b0a 7101     		.2byte	0x171
 4532 1b0c A2000000 		.4byte	0xa2
 4533 1b10 71040000 		.4byte	.LLST43
 4534 1b14 31       		.uleb128 0x31
 4535 1b15 88170000 		.4byte	.LASF328
 4536 1b19 01       		.byte	0x1
 4537 1b1a 7101     		.2byte	0x171
 4538 1b1c E0000000 		.4byte	0xe0
 4539 1b20 92040000 		.4byte	.LLST44
 4540 1b24 31       		.uleb128 0x31
 4541 1b25 AE0F0000 		.4byte	.LASF142
 4542 1b29 01       		.byte	0x1
 4543 1b2a 7101     		.2byte	0x171
ARM GAS  C:\Users\dmr85\AppData\Local\Temp\ccSmIU8b.s 			page 117


 4544 1b2c E0000000 		.4byte	0xe0
 4545 1b30 B3040000 		.4byte	.LLST45
 4546 1b34 31       		.uleb128 0x31
 4547 1b35 3A070000 		.4byte	.LASF338
 4548 1b39 01       		.byte	0x1
 4549 1b3a 7101     		.2byte	0x171
 4550 1b3c 2E1C0000 		.4byte	0x1c2e
 4551 1b40 EA040000 		.4byte	.LLST46
 4552 1b44 2E       		.uleb128 0x2e
 4553 1b45 B5010000 		.4byte	.LASF330
 4554 1b49 01       		.byte	0x1
 4555 1b4a 7401     		.2byte	0x174
 4556 1b4c E5000000 		.4byte	0xe5
 4557 1b50 02       		.uleb128 0x2
 4558 1b51 91       		.byte	0x91
 4559 1b52 6F       		.sleb128 -17
 4560 1b53 2F       		.uleb128 0x2f
 4561 1b54 04       		.byte	0x4
 4562 1b55 01       		.byte	0x1
 4563 1b56 7501     		.2byte	0x175
 4564 1b58 751B0000 		.4byte	0x1b75
 4565 1b5c 2C       		.uleb128 0x2c
 4566 1b5d 72617700 		.ascii	"raw\000"
 4567 1b61 01       		.byte	0x1
 4568 1b62 7601     		.2byte	0x176
 4569 1b64 CE000000 		.4byte	0xce
 4570 1b68 2D       		.uleb128 0x2d
 4571 1b69 AE0F0000 		.4byte	.LASF142
 4572 1b6d 01       		.byte	0x1
 4573 1b6e 7701     		.2byte	0x177
 4574 1b70 1F010000 		.4byte	0x11f
 4575 1b74 00       		.byte	0
 4576 1b75 2E       		.uleb128 0x2e
 4577 1b76 CC160000 		.4byte	.LASF331
 4578 1b7a 01       		.byte	0x1
 4579 1b7b 7801     		.2byte	0x178
 4580 1b7d 531B0000 		.4byte	0x1b53
 4581 1b81 02       		.uleb128 0x2
 4582 1b82 91       		.byte	0x91
 4583 1b83 68       		.sleb128 -24
 4584 1b84 2F       		.uleb128 0x2f
 4585 1b85 04       		.byte	0x4
 4586 1b86 01       		.byte	0x1
 4587 1b87 7901     		.2byte	0x179
 4588 1b89 A61B0000 		.4byte	0x1ba6
 4589 1b8d 2C       		.uleb128 0x2c
 4590 1b8e 72617700 		.ascii	"raw\000"
 4591 1b92 01       		.byte	0x1
 4592 1b93 7A01     		.2byte	0x17a
 4593 1b95 C3000000 		.4byte	0xc3
 4594 1b99 2D       		.uleb128 0x2d
 4595 1b9a 1F0F0000 		.4byte	.LASF332
 4596 1b9e 01       		.byte	0x1
 4597 1b9f 7B01     		.2byte	0x17b
 4598 1ba1 1F010000 		.4byte	0x11f
 4599 1ba5 00       		.byte	0
 4600 1ba6 2E       		.uleb128 0x2e
ARM GAS  C:\Users\dmr85\AppData\Local\Temp\ccSmIU8b.s 			page 118


 4601 1ba7 A4110000 		.4byte	.LASF333
 4602 1bab 01       		.byte	0x1
 4603 1bac 7C01     		.2byte	0x17c
 4604 1bae 841B0000 		.4byte	0x1b84
 4605 1bb2 02       		.uleb128 0x2
 4606 1bb3 91       		.byte	0x91
 4607 1bb4 64       		.sleb128 -28
 4608 1bb5 29       		.uleb128 0x29
 4609 1bb6 1A000000 		.4byte	.LVL96
 4610 1bba D81C0000 		.4byte	0x1cd8
 4611 1bbe D21B0000 		.4byte	0x1bd2
 4612 1bc2 28       		.uleb128 0x28
 4613 1bc3 01       		.uleb128 0x1
 4614 1bc4 50       		.byte	0x50
 4615 1bc5 05       		.uleb128 0x5
 4616 1bc6 03       		.byte	0x3
 4617 1bc7 00000000 		.4byte	spi
 4618 1bcb 28       		.uleb128 0x28
 4619 1bcc 01       		.uleb128 0x1
 4620 1bcd 51       		.byte	0x51
 4621 1bce 02       		.uleb128 0x2
 4622 1bcf 75       		.byte	0x75
 4623 1bd0 00       		.sleb128 0
 4624 1bd1 00       		.byte	0
 4625 1bd2 29       		.uleb128 0x29
 4626 1bd3 24000000 		.4byte	.LVL97
 4627 1bd7 261D0000 		.4byte	0x1d26
 4628 1bdb EB1B0000 		.4byte	0x1beb
 4629 1bdf 28       		.uleb128 0x28
 4630 1be0 01       		.uleb128 0x1
 4631 1be1 50       		.byte	0x50
 4632 1be2 02       		.uleb128 0x2
 4633 1be3 91       		.byte	0x91
 4634 1be4 69       		.sleb128 -23
 4635 1be5 28       		.uleb128 0x28
 4636 1be6 01       		.uleb128 0x1
 4637 1be7 51       		.byte	0x51
 4638 1be8 01       		.uleb128 0x1
 4639 1be9 33       		.byte	0x33
 4640 1bea 00       		.byte	0
 4641 1beb 29       		.uleb128 0x29
 4642 1bec 38000000 		.4byte	.LVL98
 4643 1bf0 261D0000 		.4byte	0x1d26
 4644 1bf4 041C0000 		.4byte	0x1c04
 4645 1bf8 28       		.uleb128 0x28
 4646 1bf9 01       		.uleb128 0x1
 4647 1bfa 50       		.byte	0x50
 4648 1bfb 02       		.uleb128 0x2
 4649 1bfc 91       		.byte	0x91
 4650 1bfd 65       		.sleb128 -27
 4651 1bfe 28       		.uleb128 0x28
 4652 1bff 01       		.uleb128 0x1
 4653 1c00 51       		.byte	0x51
 4654 1c01 01       		.uleb128 0x1
 4655 1c02 33       		.byte	0x33
 4656 1c03 00       		.byte	0
 4657 1c04 27       		.uleb128 0x27
ARM GAS  C:\Users\dmr85\AppData\Local\Temp\ccSmIU8b.s 			page 119


 4658 1c05 70000000 		.4byte	.LVL99
 4659 1c09 E31C0000 		.4byte	0x1ce3
 4660 1c0d 28       		.uleb128 0x28
 4661 1c0e 01       		.uleb128 0x1
 4662 1c0f 50       		.byte	0x50
 4663 1c10 05       		.uleb128 0x5
 4664 1c11 03       		.byte	0x3
 4665 1c12 00000000 		.4byte	spi
 4666 1c16 28       		.uleb128 0x28
 4667 1c17 01       		.uleb128 0x1
 4668 1c18 51       		.byte	0x51
 4669 1c19 02       		.uleb128 0x2
 4670 1c1a 75       		.byte	0x75
 4671 1c1b 00       		.sleb128 0
 4672 1c1c 00       		.byte	0
 4673 1c1d 00       		.byte	0
 4674 1c1e 07       		.uleb128 0x7
 4675 1c1f 000D0000 		.4byte	0xd00
 4676 1c23 2E1C0000 		.4byte	0x1c2e
 4677 1c27 08       		.uleb128 0x8
 4678 1c28 D9000000 		.4byte	0xd9
 4679 1c2c 07       		.byte	0x7
 4680 1c2d 00       		.byte	0
 4681 1c2e 10       		.uleb128 0x10
 4682 1c2f 04       		.byte	0x4
 4683 1c30 1E1C0000 		.4byte	0x1c1e
 4684 1c34 34       		.uleb128 0x34
 4685 1c35 0E170000 		.4byte	.LASF341
 4686 1c39 11       		.byte	0x11
 4687 1c3a F907     		.2byte	0x7f9
 4688 1c3c 000D0000 		.4byte	0xd00
 4689 1c40 35       		.uleb128 0x35
 4690 1c41 C9000000 		.4byte	.LASF342
 4691 1c45 09       		.byte	0x9
 4692 1c46 A7       		.byte	0xa7
 4693 1c47 4B1C0000 		.4byte	0x1c4b
 4694 1c4b 10       		.uleb128 0x10
 4695 1c4c 04       		.byte	0x4
 4696 1c4d 511C0000 		.4byte	0x1c51
 4697 1c51 06       		.uleb128 0x6
 4698 1c52 EE060000 		.4byte	0x6ee
 4699 1c56 34       		.uleb128 0x34
 4700 1c57 62100000 		.4byte	.LASF343
 4701 1c5b 0F       		.byte	0xf
 4702 1c5c 2202     		.2byte	0x222
 4703 1c5e 520C0000 		.4byte	0xc52
 4704 1c62 07       		.uleb128 0x7
 4705 1c63 210C0000 		.4byte	0xc21
 4706 1c67 721C0000 		.4byte	0x1c72
 4707 1c6b 08       		.uleb128 0x8
 4708 1c6c D9000000 		.4byte	0xd9
 4709 1c70 00       		.byte	0
 4710 1c71 00       		.byte	0
 4711 1c72 34       		.uleb128 0x34
 4712 1c73 93020000 		.4byte	.LASF344
 4713 1c77 0F       		.byte	0xf
 4714 1c78 2C02     		.2byte	0x22c
ARM GAS  C:\Users\dmr85\AppData\Local\Temp\ccSmIU8b.s 			page 120


 4715 1c7a 621C0000 		.4byte	0x1c62
 4716 1c7e 07       		.uleb128 0x7
 4717 1c7f 9A0C0000 		.4byte	0xc9a
 4718 1c83 8E1C0000 		.4byte	0x1c8e
 4719 1c87 08       		.uleb128 0x8
 4720 1c88 D9000000 		.4byte	0xd9
 4721 1c8c 00       		.byte	0
 4722 1c8d 00       		.byte	0
 4723 1c8e 34       		.uleb128 0x34
 4724 1c8f 25000000 		.4byte	.LASF345
 4725 1c93 0F       		.byte	0xf
 4726 1c94 2D02     		.2byte	0x22d
 4727 1c96 7E1C0000 		.4byte	0x1c7e
 4728 1c9a 34       		.uleb128 0x34
 4729 1c9b BB1E0000 		.4byte	.LASF346
 4730 1c9f 0F       		.byte	0xf
 4731 1ca0 5202     		.2byte	0x252
 4732 1ca2 A2000000 		.4byte	0xa2
 4733 1ca6 35       		.uleb128 0x35
 4734 1ca7 0E1E0000 		.4byte	.LASF347
 4735 1cab 12       		.byte	0x12
 4736 1cac 5E       		.byte	0x5e
 4737 1cad D5070000 		.4byte	0x7d5
 4738 1cb1 35       		.uleb128 0x35
 4739 1cb2 661C0000 		.4byte	.LASF348
 4740 1cb6 13       		.byte	0x13
 4741 1cb7 87       		.byte	0x87
 4742 1cb8 B1080000 		.4byte	0x8b1
 4743 1cbc 36       		.uleb128 0x36
 4744 1cbd 73706900 		.ascii	"spi\000"
 4745 1cc1 04       		.byte	0x4
 4746 1cc2 18       		.byte	0x18
 4747 1cc3 A2000000 		.4byte	0xa2
 4748 1cc7 05       		.uleb128 0x5
 4749 1cc8 03       		.byte	0x3
 4750 1cc9 00000000 		.4byte	spi
 4751 1ccd 37       		.uleb128 0x37
 4752 1cce E1030000 		.4byte	.LASF349
 4753 1cd2 E1030000 		.4byte	.LASF349
 4754 1cd6 04       		.byte	0x4
 4755 1cd7 30       		.byte	0x30
 4756 1cd8 37       		.uleb128 0x37
 4757 1cd9 AA070000 		.4byte	.LASF350
 4758 1cdd AA070000 		.4byte	.LASF350
 4759 1ce1 04       		.byte	0x4
 4760 1ce2 29       		.byte	0x29
 4761 1ce3 37       		.uleb128 0x37
 4762 1ce4 5B140000 		.4byte	.LASF351
 4763 1ce8 5B140000 		.4byte	.LASF351
 4764 1cec 04       		.byte	0x4
 4765 1ced 2A       		.byte	0x2a
 4766 1cee 37       		.uleb128 0x37
 4767 1cef 7F010000 		.4byte	.LASF352
 4768 1cf3 7F010000 		.4byte	.LASF352
 4769 1cf7 04       		.byte	0x4
 4770 1cf8 2E       		.byte	0x2e
 4771 1cf9 38       		.uleb128 0x38
ARM GAS  C:\Users\dmr85\AppData\Local\Temp\ccSmIU8b.s 			page 121


 4772 1cfa 46080000 		.4byte	.LASF353
 4773 1cfe 46080000 		.4byte	.LASF353
 4774 1d02 0A       		.byte	0xa
 4775 1d03 8903     		.2byte	0x389
 4776 1d05 37       		.uleb128 0x37
 4777 1d06 820B0000 		.4byte	.LASF354
 4778 1d0a 820B0000 		.4byte	.LASF354
 4779 1d0e 04       		.byte	0x4
 4780 1d0f 2F       		.byte	0x2f
 4781 1d10 37       		.uleb128 0x37
 4782 1d11 020D0000 		.4byte	.LASF355
 4783 1d15 020D0000 		.4byte	.LASF355
 4784 1d19 04       		.byte	0x4
 4785 1d1a 2C       		.byte	0x2c
 4786 1d1b 37       		.uleb128 0x37
 4787 1d1c 27110000 		.4byte	.LASF356
 4788 1d20 27110000 		.4byte	.LASF356
 4789 1d24 14       		.byte	0x14
 4790 1d25 BB       		.byte	0xbb
 4791 1d26 37       		.uleb128 0x37
 4792 1d27 06020000 		.4byte	.LASF357
 4793 1d2b 06020000 		.4byte	.LASF357
 4794 1d2f 04       		.byte	0x4
 4795 1d30 31       		.byte	0x31
 4796 1d31 00       		.byte	0
 4797              		.section	.debug_abbrev,"",%progbits
 4798              	.Ldebug_abbrev0:
 4799 0000 01       		.uleb128 0x1
 4800 0001 11       		.uleb128 0x11
 4801 0002 01       		.byte	0x1
 4802 0003 25       		.uleb128 0x25
 4803 0004 0E       		.uleb128 0xe
 4804 0005 13       		.uleb128 0x13
 4805 0006 0B       		.uleb128 0xb
 4806 0007 03       		.uleb128 0x3
 4807 0008 0E       		.uleb128 0xe
 4808 0009 1B       		.uleb128 0x1b
 4809 000a 0E       		.uleb128 0xe
 4810 000b 55       		.uleb128 0x55
 4811 000c 17       		.uleb128 0x17
 4812 000d 11       		.uleb128 0x11
 4813 000e 01       		.uleb128 0x1
 4814 000f 10       		.uleb128 0x10
 4815 0010 17       		.uleb128 0x17
 4816 0011 00       		.byte	0
 4817 0012 00       		.byte	0
 4818 0013 02       		.uleb128 0x2
 4819 0014 24       		.uleb128 0x24
 4820 0015 00       		.byte	0
 4821 0016 0B       		.uleb128 0xb
 4822 0017 0B       		.uleb128 0xb
 4823 0018 3E       		.uleb128 0x3e
 4824 0019 0B       		.uleb128 0xb
 4825 001a 03       		.uleb128 0x3
 4826 001b 0E       		.uleb128 0xe
 4827 001c 00       		.byte	0
 4828 001d 00       		.byte	0
ARM GAS  C:\Users\dmr85\AppData\Local\Temp\ccSmIU8b.s 			page 122


 4829 001e 03       		.uleb128 0x3
 4830 001f 16       		.uleb128 0x16
 4831 0020 00       		.byte	0
 4832 0021 03       		.uleb128 0x3
 4833 0022 0E       		.uleb128 0xe
 4834 0023 3A       		.uleb128 0x3a
 4835 0024 0B       		.uleb128 0xb
 4836 0025 3B       		.uleb128 0x3b
 4837 0026 0B       		.uleb128 0xb
 4838 0027 49       		.uleb128 0x49
 4839 0028 13       		.uleb128 0x13
 4840 0029 00       		.byte	0
 4841 002a 00       		.byte	0
 4842 002b 04       		.uleb128 0x4
 4843 002c 24       		.uleb128 0x24
 4844 002d 00       		.byte	0
 4845 002e 0B       		.uleb128 0xb
 4846 002f 0B       		.uleb128 0xb
 4847 0030 3E       		.uleb128 0x3e
 4848 0031 0B       		.uleb128 0xb
 4849 0032 03       		.uleb128 0x3
 4850 0033 08       		.uleb128 0x8
 4851 0034 00       		.byte	0
 4852 0035 00       		.byte	0
 4853 0036 05       		.uleb128 0x5
 4854 0037 35       		.uleb128 0x35
 4855 0038 00       		.byte	0
 4856 0039 49       		.uleb128 0x49
 4857 003a 13       		.uleb128 0x13
 4858 003b 00       		.byte	0
 4859 003c 00       		.byte	0
 4860 003d 06       		.uleb128 0x6
 4861 003e 26       		.uleb128 0x26
 4862 003f 00       		.byte	0
 4863 0040 49       		.uleb128 0x49
 4864 0041 13       		.uleb128 0x13
 4865 0042 00       		.byte	0
 4866 0043 00       		.byte	0
 4867 0044 07       		.uleb128 0x7
 4868 0045 01       		.uleb128 0x1
 4869 0046 01       		.byte	0x1
 4870 0047 49       		.uleb128 0x49
 4871 0048 13       		.uleb128 0x13
 4872 0049 01       		.uleb128 0x1
 4873 004a 13       		.uleb128 0x13
 4874 004b 00       		.byte	0
 4875 004c 00       		.byte	0
 4876 004d 08       		.uleb128 0x8
 4877 004e 21       		.uleb128 0x21
 4878 004f 00       		.byte	0
 4879 0050 49       		.uleb128 0x49
 4880 0051 13       		.uleb128 0x13
 4881 0052 2F       		.uleb128 0x2f
 4882 0053 0B       		.uleb128 0xb
 4883 0054 00       		.byte	0
 4884 0055 00       		.byte	0
 4885 0056 09       		.uleb128 0x9
ARM GAS  C:\Users\dmr85\AppData\Local\Temp\ccSmIU8b.s 			page 123


 4886 0057 13       		.uleb128 0x13
 4887 0058 01       		.byte	0x1
 4888 0059 0B       		.uleb128 0xb
 4889 005a 0B       		.uleb128 0xb
 4890 005b 3A       		.uleb128 0x3a
 4891 005c 0B       		.uleb128 0xb
 4892 005d 3B       		.uleb128 0x3b
 4893 005e 0B       		.uleb128 0xb
 4894 005f 01       		.uleb128 0x1
 4895 0060 13       		.uleb128 0x13
 4896 0061 00       		.byte	0
 4897 0062 00       		.byte	0
 4898 0063 0A       		.uleb128 0xa
 4899 0064 0D       		.uleb128 0xd
 4900 0065 00       		.byte	0
 4901 0066 03       		.uleb128 0x3
 4902 0067 08       		.uleb128 0x8
 4903 0068 3A       		.uleb128 0x3a
 4904 0069 0B       		.uleb128 0xb
 4905 006a 3B       		.uleb128 0x3b
 4906 006b 0B       		.uleb128 0xb
 4907 006c 49       		.uleb128 0x49
 4908 006d 13       		.uleb128 0x13
 4909 006e 38       		.uleb128 0x38
 4910 006f 0B       		.uleb128 0xb
 4911 0070 00       		.byte	0
 4912 0071 00       		.byte	0
 4913 0072 0B       		.uleb128 0xb
 4914 0073 0D       		.uleb128 0xd
 4915 0074 00       		.byte	0
 4916 0075 03       		.uleb128 0x3
 4917 0076 0E       		.uleb128 0xe
 4918 0077 3A       		.uleb128 0x3a
 4919 0078 0B       		.uleb128 0xb
 4920 0079 3B       		.uleb128 0x3b
 4921 007a 0B       		.uleb128 0xb
 4922 007b 49       		.uleb128 0x49
 4923 007c 13       		.uleb128 0x13
 4924 007d 38       		.uleb128 0x38
 4925 007e 0B       		.uleb128 0xb
 4926 007f 00       		.byte	0
 4927 0080 00       		.byte	0
 4928 0081 0C       		.uleb128 0xc
 4929 0082 13       		.uleb128 0x13
 4930 0083 01       		.byte	0x1
 4931 0084 0B       		.uleb128 0xb
 4932 0085 05       		.uleb128 0x5
 4933 0086 3A       		.uleb128 0x3a
 4934 0087 0B       		.uleb128 0xb
 4935 0088 3B       		.uleb128 0x3b
 4936 0089 0B       		.uleb128 0xb
 4937 008a 01       		.uleb128 0x1
 4938 008b 13       		.uleb128 0x13
 4939 008c 00       		.byte	0
 4940 008d 00       		.byte	0
 4941 008e 0D       		.uleb128 0xd
 4942 008f 0D       		.uleb128 0xd
ARM GAS  C:\Users\dmr85\AppData\Local\Temp\ccSmIU8b.s 			page 124


 4943 0090 00       		.byte	0
 4944 0091 03       		.uleb128 0x3
 4945 0092 0E       		.uleb128 0xe
 4946 0093 3A       		.uleb128 0x3a
 4947 0094 0B       		.uleb128 0xb
 4948 0095 3B       		.uleb128 0x3b
 4949 0096 0B       		.uleb128 0xb
 4950 0097 49       		.uleb128 0x49
 4951 0098 13       		.uleb128 0x13
 4952 0099 38       		.uleb128 0x38
 4953 009a 05       		.uleb128 0x5
 4954 009b 00       		.byte	0
 4955 009c 00       		.byte	0
 4956 009d 0E       		.uleb128 0xe
 4957 009e 16       		.uleb128 0x16
 4958 009f 00       		.byte	0
 4959 00a0 03       		.uleb128 0x3
 4960 00a1 0E       		.uleb128 0xe
 4961 00a2 3A       		.uleb128 0x3a
 4962 00a3 0B       		.uleb128 0xb
 4963 00a4 3B       		.uleb128 0x3b
 4964 00a5 05       		.uleb128 0x5
 4965 00a6 49       		.uleb128 0x49
 4966 00a7 13       		.uleb128 0x13
 4967 00a8 00       		.byte	0
 4968 00a9 00       		.byte	0
 4969 00aa 0F       		.uleb128 0xf
 4970 00ab 0F       		.uleb128 0xf
 4971 00ac 00       		.byte	0
 4972 00ad 0B       		.uleb128 0xb
 4973 00ae 0B       		.uleb128 0xb
 4974 00af 00       		.byte	0
 4975 00b0 00       		.byte	0
 4976 00b1 10       		.uleb128 0x10
 4977 00b2 0F       		.uleb128 0xf
 4978 00b3 00       		.byte	0
 4979 00b4 0B       		.uleb128 0xb
 4980 00b5 0B       		.uleb128 0xb
 4981 00b6 49       		.uleb128 0x49
 4982 00b7 13       		.uleb128 0x13
 4983 00b8 00       		.byte	0
 4984 00b9 00       		.byte	0
 4985 00ba 11       		.uleb128 0x11
 4986 00bb 15       		.uleb128 0x15
 4987 00bc 01       		.byte	0x1
 4988 00bd 27       		.uleb128 0x27
 4989 00be 19       		.uleb128 0x19
 4990 00bf 01       		.uleb128 0x1
 4991 00c0 13       		.uleb128 0x13
 4992 00c1 00       		.byte	0
 4993 00c2 00       		.byte	0
 4994 00c3 12       		.uleb128 0x12
 4995 00c4 05       		.uleb128 0x5
 4996 00c5 00       		.byte	0
 4997 00c6 49       		.uleb128 0x49
 4998 00c7 13       		.uleb128 0x13
 4999 00c8 00       		.byte	0
ARM GAS  C:\Users\dmr85\AppData\Local\Temp\ccSmIU8b.s 			page 125


 5000 00c9 00       		.byte	0
 5001 00ca 13       		.uleb128 0x13
 5002 00cb 13       		.uleb128 0x13
 5003 00cc 01       		.byte	0x1
 5004 00cd 03       		.uleb128 0x3
 5005 00ce 0E       		.uleb128 0xe
 5006 00cf 0B       		.uleb128 0xb
 5007 00d0 0B       		.uleb128 0xb
 5008 00d1 3A       		.uleb128 0x3a
 5009 00d2 0B       		.uleb128 0xb
 5010 00d3 3B       		.uleb128 0x3b
 5011 00d4 05       		.uleb128 0x5
 5012 00d5 01       		.uleb128 0x1
 5013 00d6 13       		.uleb128 0x13
 5014 00d7 00       		.byte	0
 5015 00d8 00       		.byte	0
 5016 00d9 14       		.uleb128 0x14
 5017 00da 0D       		.uleb128 0xd
 5018 00db 00       		.byte	0
 5019 00dc 03       		.uleb128 0x3
 5020 00dd 0E       		.uleb128 0xe
 5021 00de 3A       		.uleb128 0x3a
 5022 00df 0B       		.uleb128 0xb
 5023 00e0 3B       		.uleb128 0x3b
 5024 00e1 05       		.uleb128 0x5
 5025 00e2 49       		.uleb128 0x49
 5026 00e3 13       		.uleb128 0x13
 5027 00e4 38       		.uleb128 0x38
 5028 00e5 0B       		.uleb128 0xb
 5029 00e6 00       		.byte	0
 5030 00e7 00       		.byte	0
 5031 00e8 15       		.uleb128 0x15
 5032 00e9 04       		.uleb128 0x4
 5033 00ea 01       		.byte	0x1
 5034 00eb 0B       		.uleb128 0xb
 5035 00ec 0B       		.uleb128 0xb
 5036 00ed 49       		.uleb128 0x49
 5037 00ee 13       		.uleb128 0x13
 5038 00ef 3A       		.uleb128 0x3a
 5039 00f0 0B       		.uleb128 0xb
 5040 00f1 3B       		.uleb128 0x3b
 5041 00f2 05       		.uleb128 0x5
 5042 00f3 01       		.uleb128 0x1
 5043 00f4 13       		.uleb128 0x13
 5044 00f5 00       		.byte	0
 5045 00f6 00       		.byte	0
 5046 00f7 16       		.uleb128 0x16
 5047 00f8 28       		.uleb128 0x28
 5048 00f9 00       		.byte	0
 5049 00fa 03       		.uleb128 0x3
 5050 00fb 0E       		.uleb128 0xe
 5051 00fc 1C       		.uleb128 0x1c
 5052 00fd 0B       		.uleb128 0xb
 5053 00fe 00       		.byte	0
 5054 00ff 00       		.byte	0
 5055 0100 17       		.uleb128 0x17
 5056 0101 28       		.uleb128 0x28
ARM GAS  C:\Users\dmr85\AppData\Local\Temp\ccSmIU8b.s 			page 126


 5057 0102 00       		.byte	0
 5058 0103 03       		.uleb128 0x3
 5059 0104 0E       		.uleb128 0xe
 5060 0105 1C       		.uleb128 0x1c
 5061 0106 05       		.uleb128 0x5
 5062 0107 00       		.byte	0
 5063 0108 00       		.byte	0
 5064 0109 18       		.uleb128 0x18
 5065 010a 13       		.uleb128 0x13
 5066 010b 01       		.byte	0x1
 5067 010c 0B       		.uleb128 0xb
 5068 010d 0B       		.uleb128 0xb
 5069 010e 3A       		.uleb128 0x3a
 5070 010f 0B       		.uleb128 0xb
 5071 0110 3B       		.uleb128 0x3b
 5072 0111 05       		.uleb128 0x5
 5073 0112 01       		.uleb128 0x1
 5074 0113 13       		.uleb128 0x13
 5075 0114 00       		.byte	0
 5076 0115 00       		.byte	0
 5077 0116 19       		.uleb128 0x19
 5078 0117 04       		.uleb128 0x4
 5079 0118 01       		.byte	0x1
 5080 0119 0B       		.uleb128 0xb
 5081 011a 0B       		.uleb128 0xb
 5082 011b 49       		.uleb128 0x49
 5083 011c 13       		.uleb128 0x13
 5084 011d 3A       		.uleb128 0x3a
 5085 011e 0B       		.uleb128 0xb
 5086 011f 3B       		.uleb128 0x3b
 5087 0120 0B       		.uleb128 0xb
 5088 0121 01       		.uleb128 0x1
 5089 0122 13       		.uleb128 0x13
 5090 0123 00       		.byte	0
 5091 0124 00       		.byte	0
 5092 0125 1A       		.uleb128 0x1a
 5093 0126 2E       		.uleb128 0x2e
 5094 0127 01       		.byte	0x1
 5095 0128 03       		.uleb128 0x3
 5096 0129 0E       		.uleb128 0xe
 5097 012a 3A       		.uleb128 0x3a
 5098 012b 0B       		.uleb128 0xb
 5099 012c 3B       		.uleb128 0x3b
 5100 012d 05       		.uleb128 0x5
 5101 012e 27       		.uleb128 0x27
 5102 012f 19       		.uleb128 0x19
 5103 0130 49       		.uleb128 0x49
 5104 0131 13       		.uleb128 0x13
 5105 0132 20       		.uleb128 0x20
 5106 0133 0B       		.uleb128 0xb
 5107 0134 01       		.uleb128 0x1
 5108 0135 13       		.uleb128 0x13
 5109 0136 00       		.byte	0
 5110 0137 00       		.byte	0
 5111 0138 1B       		.uleb128 0x1b
 5112 0139 05       		.uleb128 0x5
 5113 013a 00       		.byte	0
ARM GAS  C:\Users\dmr85\AppData\Local\Temp\ccSmIU8b.s 			page 127


 5114 013b 03       		.uleb128 0x3
 5115 013c 0E       		.uleb128 0xe
 5116 013d 3A       		.uleb128 0x3a
 5117 013e 0B       		.uleb128 0xb
 5118 013f 3B       		.uleb128 0x3b
 5119 0140 05       		.uleb128 0x5
 5120 0141 49       		.uleb128 0x49
 5121 0142 13       		.uleb128 0x13
 5122 0143 00       		.byte	0
 5123 0144 00       		.byte	0
 5124 0145 1C       		.uleb128 0x1c
 5125 0146 34       		.uleb128 0x34
 5126 0147 00       		.byte	0
 5127 0148 03       		.uleb128 0x3
 5128 0149 0E       		.uleb128 0xe
 5129 014a 3A       		.uleb128 0x3a
 5130 014b 0B       		.uleb128 0xb
 5131 014c 3B       		.uleb128 0x3b
 5132 014d 05       		.uleb128 0x5
 5133 014e 49       		.uleb128 0x49
 5134 014f 13       		.uleb128 0x13
 5135 0150 00       		.byte	0
 5136 0151 00       		.byte	0
 5137 0152 1D       		.uleb128 0x1d
 5138 0153 2E       		.uleb128 0x2e
 5139 0154 01       		.byte	0x1
 5140 0155 03       		.uleb128 0x3
 5141 0156 0E       		.uleb128 0xe
 5142 0157 3A       		.uleb128 0x3a
 5143 0158 0B       		.uleb128 0xb
 5144 0159 3B       		.uleb128 0x3b
 5145 015a 0B       		.uleb128 0xb
 5146 015b 27       		.uleb128 0x27
 5147 015c 19       		.uleb128 0x19
 5148 015d 49       		.uleb128 0x49
 5149 015e 13       		.uleb128 0x13
 5150 015f 20       		.uleb128 0x20
 5151 0160 0B       		.uleb128 0xb
 5152 0161 01       		.uleb128 0x1
 5153 0162 13       		.uleb128 0x13
 5154 0163 00       		.byte	0
 5155 0164 00       		.byte	0
 5156 0165 1E       		.uleb128 0x1e
 5157 0166 05       		.uleb128 0x5
 5158 0167 00       		.byte	0
 5159 0168 03       		.uleb128 0x3
 5160 0169 08       		.uleb128 0x8
 5161 016a 3A       		.uleb128 0x3a
 5162 016b 0B       		.uleb128 0xb
 5163 016c 3B       		.uleb128 0x3b
 5164 016d 0B       		.uleb128 0xb
 5165 016e 49       		.uleb128 0x49
 5166 016f 13       		.uleb128 0x13
 5167 0170 00       		.byte	0
 5168 0171 00       		.byte	0
 5169 0172 1F       		.uleb128 0x1f
 5170 0173 2E       		.uleb128 0x2e
ARM GAS  C:\Users\dmr85\AppData\Local\Temp\ccSmIU8b.s 			page 128


 5171 0174 01       		.byte	0x1
 5172 0175 3F       		.uleb128 0x3f
 5173 0176 19       		.uleb128 0x19
 5174 0177 03       		.uleb128 0x3
 5175 0178 0E       		.uleb128 0xe
 5176 0179 3A       		.uleb128 0x3a
 5177 017a 0B       		.uleb128 0xb
 5178 017b 3B       		.uleb128 0x3b
 5179 017c 0B       		.uleb128 0xb
 5180 017d 27       		.uleb128 0x27
 5181 017e 19       		.uleb128 0x19
 5182 017f 49       		.uleb128 0x49
 5183 0180 13       		.uleb128 0x13
 5184 0181 11       		.uleb128 0x11
 5185 0182 01       		.uleb128 0x1
 5186 0183 12       		.uleb128 0x12
 5187 0184 06       		.uleb128 0x6
 5188 0185 40       		.uleb128 0x40
 5189 0186 18       		.uleb128 0x18
 5190 0187 9742     		.uleb128 0x2117
 5191 0189 19       		.uleb128 0x19
 5192 018a 01       		.uleb128 0x1
 5193 018b 13       		.uleb128 0x13
 5194 018c 00       		.byte	0
 5195 018d 00       		.byte	0
 5196 018e 20       		.uleb128 0x20
 5197 018f 05       		.uleb128 0x5
 5198 0190 00       		.byte	0
 5199 0191 03       		.uleb128 0x3
 5200 0192 0E       		.uleb128 0xe
 5201 0193 3A       		.uleb128 0x3a
 5202 0194 0B       		.uleb128 0xb
 5203 0195 3B       		.uleb128 0x3b
 5204 0196 0B       		.uleb128 0xb
 5205 0197 49       		.uleb128 0x49
 5206 0198 13       		.uleb128 0x13
 5207 0199 02       		.uleb128 0x2
 5208 019a 17       		.uleb128 0x17
 5209 019b 00       		.byte	0
 5210 019c 00       		.byte	0
 5211 019d 21       		.uleb128 0x21
 5212 019e 34       		.uleb128 0x34
 5213 019f 00       		.byte	0
 5214 01a0 03       		.uleb128 0x3
 5215 01a1 0E       		.uleb128 0xe
 5216 01a2 3A       		.uleb128 0x3a
 5217 01a3 0B       		.uleb128 0xb
 5218 01a4 3B       		.uleb128 0x3b
 5219 01a5 0B       		.uleb128 0xb
 5220 01a6 49       		.uleb128 0x49
 5221 01a7 13       		.uleb128 0x13
 5222 01a8 02       		.uleb128 0x2
 5223 01a9 18       		.uleb128 0x18
 5224 01aa 00       		.byte	0
 5225 01ab 00       		.byte	0
 5226 01ac 22       		.uleb128 0x22
 5227 01ad 1D       		.uleb128 0x1d
ARM GAS  C:\Users\dmr85\AppData\Local\Temp\ccSmIU8b.s 			page 129


 5228 01ae 01       		.byte	0x1
 5229 01af 31       		.uleb128 0x31
 5230 01b0 13       		.uleb128 0x13
 5231 01b1 11       		.uleb128 0x11
 5232 01b2 01       		.uleb128 0x1
 5233 01b3 12       		.uleb128 0x12
 5234 01b4 06       		.uleb128 0x6
 5235 01b5 58       		.uleb128 0x58
 5236 01b6 0B       		.uleb128 0xb
 5237 01b7 59       		.uleb128 0x59
 5238 01b8 0B       		.uleb128 0xb
 5239 01b9 01       		.uleb128 0x1
 5240 01ba 13       		.uleb128 0x13
 5241 01bb 00       		.byte	0
 5242 01bc 00       		.byte	0
 5243 01bd 23       		.uleb128 0x23
 5244 01be 05       		.uleb128 0x5
 5245 01bf 00       		.byte	0
 5246 01c0 31       		.uleb128 0x31
 5247 01c1 13       		.uleb128 0x13
 5248 01c2 02       		.uleb128 0x2
 5249 01c3 17       		.uleb128 0x17
 5250 01c4 00       		.byte	0
 5251 01c5 00       		.byte	0
 5252 01c6 24       		.uleb128 0x24
 5253 01c7 1D       		.uleb128 0x1d
 5254 01c8 01       		.byte	0x1
 5255 01c9 31       		.uleb128 0x31
 5256 01ca 13       		.uleb128 0x13
 5257 01cb 11       		.uleb128 0x11
 5258 01cc 01       		.uleb128 0x1
 5259 01cd 12       		.uleb128 0x12
 5260 01ce 06       		.uleb128 0x6
 5261 01cf 58       		.uleb128 0x58
 5262 01d0 0B       		.uleb128 0xb
 5263 01d1 59       		.uleb128 0x59
 5264 01d2 05       		.uleb128 0x5
 5265 01d3 01       		.uleb128 0x1
 5266 01d4 13       		.uleb128 0x13
 5267 01d5 00       		.byte	0
 5268 01d6 00       		.byte	0
 5269 01d7 25       		.uleb128 0x25
 5270 01d8 0B       		.uleb128 0xb
 5271 01d9 01       		.byte	0x1
 5272 01da 11       		.uleb128 0x11
 5273 01db 01       		.uleb128 0x1
 5274 01dc 12       		.uleb128 0x12
 5275 01dd 06       		.uleb128 0x6
 5276 01de 00       		.byte	0
 5277 01df 00       		.byte	0
 5278 01e0 26       		.uleb128 0x26
 5279 01e1 34       		.uleb128 0x34
 5280 01e2 00       		.byte	0
 5281 01e3 31       		.uleb128 0x31
 5282 01e4 13       		.uleb128 0x13
 5283 01e5 02       		.uleb128 0x2
 5284 01e6 18       		.uleb128 0x18
ARM GAS  C:\Users\dmr85\AppData\Local\Temp\ccSmIU8b.s 			page 130


 5285 01e7 00       		.byte	0
 5286 01e8 00       		.byte	0
 5287 01e9 27       		.uleb128 0x27
 5288 01ea 898201   		.uleb128 0x4109
 5289 01ed 01       		.byte	0x1
 5290 01ee 11       		.uleb128 0x11
 5291 01ef 01       		.uleb128 0x1
 5292 01f0 31       		.uleb128 0x31
 5293 01f1 13       		.uleb128 0x13
 5294 01f2 00       		.byte	0
 5295 01f3 00       		.byte	0
 5296 01f4 28       		.uleb128 0x28
 5297 01f5 8A8201   		.uleb128 0x410a
 5298 01f8 00       		.byte	0
 5299 01f9 02       		.uleb128 0x2
 5300 01fa 18       		.uleb128 0x18
 5301 01fb 9142     		.uleb128 0x2111
 5302 01fd 18       		.uleb128 0x18
 5303 01fe 00       		.byte	0
 5304 01ff 00       		.byte	0
 5305 0200 29       		.uleb128 0x29
 5306 0201 898201   		.uleb128 0x4109
 5307 0204 01       		.byte	0x1
 5308 0205 11       		.uleb128 0x11
 5309 0206 01       		.uleb128 0x1
 5310 0207 31       		.uleb128 0x31
 5311 0208 13       		.uleb128 0x13
 5312 0209 01       		.uleb128 0x1
 5313 020a 13       		.uleb128 0x13
 5314 020b 00       		.byte	0
 5315 020c 00       		.byte	0
 5316 020d 2A       		.uleb128 0x2a
 5317 020e 1D       		.uleb128 0x1d
 5318 020f 01       		.byte	0x1
 5319 0210 31       		.uleb128 0x31
 5320 0211 13       		.uleb128 0x13
 5321 0212 11       		.uleb128 0x11
 5322 0213 01       		.uleb128 0x1
 5323 0214 12       		.uleb128 0x12
 5324 0215 06       		.uleb128 0x6
 5325 0216 58       		.uleb128 0x58
 5326 0217 0B       		.uleb128 0xb
 5327 0218 59       		.uleb128 0x59
 5328 0219 05       		.uleb128 0x5
 5329 021a 00       		.byte	0
 5330 021b 00       		.byte	0
 5331 021c 2B       		.uleb128 0x2b
 5332 021d 17       		.uleb128 0x17
 5333 021e 01       		.byte	0x1
 5334 021f 0B       		.uleb128 0xb
 5335 0220 0B       		.uleb128 0xb
 5336 0221 3A       		.uleb128 0x3a
 5337 0222 0B       		.uleb128 0xb
 5338 0223 3B       		.uleb128 0x3b
 5339 0224 0B       		.uleb128 0xb
 5340 0225 01       		.uleb128 0x1
 5341 0226 13       		.uleb128 0x13
ARM GAS  C:\Users\dmr85\AppData\Local\Temp\ccSmIU8b.s 			page 131


 5342 0227 00       		.byte	0
 5343 0228 00       		.byte	0
 5344 0229 2C       		.uleb128 0x2c
 5345 022a 0D       		.uleb128 0xd
 5346 022b 00       		.byte	0
 5347 022c 03       		.uleb128 0x3
 5348 022d 08       		.uleb128 0x8
 5349 022e 3A       		.uleb128 0x3a
 5350 022f 0B       		.uleb128 0xb
 5351 0230 3B       		.uleb128 0x3b
 5352 0231 05       		.uleb128 0x5
 5353 0232 49       		.uleb128 0x49
 5354 0233 13       		.uleb128 0x13
 5355 0234 00       		.byte	0
 5356 0235 00       		.byte	0
 5357 0236 2D       		.uleb128 0x2d
 5358 0237 0D       		.uleb128 0xd
 5359 0238 00       		.byte	0
 5360 0239 03       		.uleb128 0x3
 5361 023a 0E       		.uleb128 0xe
 5362 023b 3A       		.uleb128 0x3a
 5363 023c 0B       		.uleb128 0xb
 5364 023d 3B       		.uleb128 0x3b
 5365 023e 05       		.uleb128 0x5
 5366 023f 49       		.uleb128 0x49
 5367 0240 13       		.uleb128 0x13
 5368 0241 00       		.byte	0
 5369 0242 00       		.byte	0
 5370 0243 2E       		.uleb128 0x2e
 5371 0244 34       		.uleb128 0x34
 5372 0245 00       		.byte	0
 5373 0246 03       		.uleb128 0x3
 5374 0247 0E       		.uleb128 0xe
 5375 0248 3A       		.uleb128 0x3a
 5376 0249 0B       		.uleb128 0xb
 5377 024a 3B       		.uleb128 0x3b
 5378 024b 05       		.uleb128 0x5
 5379 024c 49       		.uleb128 0x49
 5380 024d 13       		.uleb128 0x13
 5381 024e 02       		.uleb128 0x2
 5382 024f 18       		.uleb128 0x18
 5383 0250 00       		.byte	0
 5384 0251 00       		.byte	0
 5385 0252 2F       		.uleb128 0x2f
 5386 0253 17       		.uleb128 0x17
 5387 0254 01       		.byte	0x1
 5388 0255 0B       		.uleb128 0xb
 5389 0256 0B       		.uleb128 0xb
 5390 0257 3A       		.uleb128 0x3a
 5391 0258 0B       		.uleb128 0xb
 5392 0259 3B       		.uleb128 0x3b
 5393 025a 05       		.uleb128 0x5
 5394 025b 01       		.uleb128 0x1
 5395 025c 13       		.uleb128 0x13
 5396 025d 00       		.byte	0
 5397 025e 00       		.byte	0
 5398 025f 30       		.uleb128 0x30
ARM GAS  C:\Users\dmr85\AppData\Local\Temp\ccSmIU8b.s 			page 132


 5399 0260 2E       		.uleb128 0x2e
 5400 0261 01       		.byte	0x1
 5401 0262 3F       		.uleb128 0x3f
 5402 0263 19       		.uleb128 0x19
 5403 0264 03       		.uleb128 0x3
 5404 0265 0E       		.uleb128 0xe
 5405 0266 3A       		.uleb128 0x3a
 5406 0267 0B       		.uleb128 0xb
 5407 0268 3B       		.uleb128 0x3b
 5408 0269 05       		.uleb128 0x5
 5409 026a 27       		.uleb128 0x27
 5410 026b 19       		.uleb128 0x19
 5411 026c 49       		.uleb128 0x49
 5412 026d 13       		.uleb128 0x13
 5413 026e 11       		.uleb128 0x11
 5414 026f 01       		.uleb128 0x1
 5415 0270 12       		.uleb128 0x12
 5416 0271 06       		.uleb128 0x6
 5417 0272 40       		.uleb128 0x40
 5418 0273 18       		.uleb128 0x18
 5419 0274 9742     		.uleb128 0x2117
 5420 0276 19       		.uleb128 0x19
 5421 0277 01       		.uleb128 0x1
 5422 0278 13       		.uleb128 0x13
 5423 0279 00       		.byte	0
 5424 027a 00       		.byte	0
 5425 027b 31       		.uleb128 0x31
 5426 027c 05       		.uleb128 0x5
 5427 027d 00       		.byte	0
 5428 027e 03       		.uleb128 0x3
 5429 027f 0E       		.uleb128 0xe
 5430 0280 3A       		.uleb128 0x3a
 5431 0281 0B       		.uleb128 0xb
 5432 0282 3B       		.uleb128 0x3b
 5433 0283 05       		.uleb128 0x5
 5434 0284 49       		.uleb128 0x49
 5435 0285 13       		.uleb128 0x13
 5436 0286 02       		.uleb128 0x2
 5437 0287 17       		.uleb128 0x17
 5438 0288 00       		.byte	0
 5439 0289 00       		.byte	0
 5440 028a 32       		.uleb128 0x32
 5441 028b 34       		.uleb128 0x34
 5442 028c 00       		.byte	0
 5443 028d 03       		.uleb128 0x3
 5444 028e 08       		.uleb128 0x8
 5445 028f 3A       		.uleb128 0x3a
 5446 0290 0B       		.uleb128 0xb
 5447 0291 3B       		.uleb128 0x3b
 5448 0292 05       		.uleb128 0x5
 5449 0293 49       		.uleb128 0x49
 5450 0294 13       		.uleb128 0x13
 5451 0295 00       		.byte	0
 5452 0296 00       		.byte	0
 5453 0297 33       		.uleb128 0x33
 5454 0298 1D       		.uleb128 0x1d
 5455 0299 01       		.byte	0x1
ARM GAS  C:\Users\dmr85\AppData\Local\Temp\ccSmIU8b.s 			page 133


 5456 029a 31       		.uleb128 0x31
 5457 029b 13       		.uleb128 0x13
 5458 029c 11       		.uleb128 0x11
 5459 029d 01       		.uleb128 0x1
 5460 029e 12       		.uleb128 0x12
 5461 029f 06       		.uleb128 0x6
 5462 02a0 58       		.uleb128 0x58
 5463 02a1 0B       		.uleb128 0xb
 5464 02a2 59       		.uleb128 0x59
 5465 02a3 0B       		.uleb128 0xb
 5466 02a4 00       		.byte	0
 5467 02a5 00       		.byte	0
 5468 02a6 34       		.uleb128 0x34
 5469 02a7 34       		.uleb128 0x34
 5470 02a8 00       		.byte	0
 5471 02a9 03       		.uleb128 0x3
 5472 02aa 0E       		.uleb128 0xe
 5473 02ab 3A       		.uleb128 0x3a
 5474 02ac 0B       		.uleb128 0xb
 5475 02ad 3B       		.uleb128 0x3b
 5476 02ae 05       		.uleb128 0x5
 5477 02af 49       		.uleb128 0x49
 5478 02b0 13       		.uleb128 0x13
 5479 02b1 3F       		.uleb128 0x3f
 5480 02b2 19       		.uleb128 0x19
 5481 02b3 3C       		.uleb128 0x3c
 5482 02b4 19       		.uleb128 0x19
 5483 02b5 00       		.byte	0
 5484 02b6 00       		.byte	0
 5485 02b7 35       		.uleb128 0x35
 5486 02b8 34       		.uleb128 0x34
 5487 02b9 00       		.byte	0
 5488 02ba 03       		.uleb128 0x3
 5489 02bb 0E       		.uleb128 0xe
 5490 02bc 3A       		.uleb128 0x3a
 5491 02bd 0B       		.uleb128 0xb
 5492 02be 3B       		.uleb128 0x3b
 5493 02bf 0B       		.uleb128 0xb
 5494 02c0 49       		.uleb128 0x49
 5495 02c1 13       		.uleb128 0x13
 5496 02c2 3F       		.uleb128 0x3f
 5497 02c3 19       		.uleb128 0x19
 5498 02c4 3C       		.uleb128 0x3c
 5499 02c5 19       		.uleb128 0x19
 5500 02c6 00       		.byte	0
 5501 02c7 00       		.byte	0
 5502 02c8 36       		.uleb128 0x36
 5503 02c9 34       		.uleb128 0x34
 5504 02ca 00       		.byte	0
 5505 02cb 03       		.uleb128 0x3
 5506 02cc 08       		.uleb128 0x8
 5507 02cd 3A       		.uleb128 0x3a
 5508 02ce 0B       		.uleb128 0xb
 5509 02cf 3B       		.uleb128 0x3b
 5510 02d0 0B       		.uleb128 0xb
 5511 02d1 49       		.uleb128 0x49
 5512 02d2 13       		.uleb128 0x13
ARM GAS  C:\Users\dmr85\AppData\Local\Temp\ccSmIU8b.s 			page 134


 5513 02d3 3F       		.uleb128 0x3f
 5514 02d4 19       		.uleb128 0x19
 5515 02d5 02       		.uleb128 0x2
 5516 02d6 18       		.uleb128 0x18
 5517 02d7 00       		.byte	0
 5518 02d8 00       		.byte	0
 5519 02d9 37       		.uleb128 0x37
 5520 02da 2E       		.uleb128 0x2e
 5521 02db 00       		.byte	0
 5522 02dc 3F       		.uleb128 0x3f
 5523 02dd 19       		.uleb128 0x19
 5524 02de 3C       		.uleb128 0x3c
 5525 02df 19       		.uleb128 0x19
 5526 02e0 6E       		.uleb128 0x6e
 5527 02e1 0E       		.uleb128 0xe
 5528 02e2 03       		.uleb128 0x3
 5529 02e3 0E       		.uleb128 0xe
 5530 02e4 3A       		.uleb128 0x3a
 5531 02e5 0B       		.uleb128 0xb
 5532 02e6 3B       		.uleb128 0x3b
 5533 02e7 0B       		.uleb128 0xb
 5534 02e8 00       		.byte	0
 5535 02e9 00       		.byte	0
 5536 02ea 38       		.uleb128 0x38
 5537 02eb 2E       		.uleb128 0x2e
 5538 02ec 00       		.byte	0
 5539 02ed 3F       		.uleb128 0x3f
 5540 02ee 19       		.uleb128 0x19
 5541 02ef 3C       		.uleb128 0x3c
 5542 02f0 19       		.uleb128 0x19
 5543 02f1 6E       		.uleb128 0x6e
 5544 02f2 0E       		.uleb128 0xe
 5545 02f3 03       		.uleb128 0x3
 5546 02f4 0E       		.uleb128 0xe
 5547 02f5 3A       		.uleb128 0x3a
 5548 02f6 0B       		.uleb128 0xb
 5549 02f7 3B       		.uleb128 0x3b
 5550 02f8 05       		.uleb128 0x5
 5551 02f9 00       		.byte	0
 5552 02fa 00       		.byte	0
 5553 02fb 00       		.byte	0
 5554              		.section	.debug_loc,"",%progbits
 5555              	.Ldebug_loc0:
 5556              	.LLST0:
 5557 0000 00000000 		.4byte	.LVL0
 5558 0004 0E000000 		.4byte	.LVL3
 5559 0008 0100     		.2byte	0x1
 5560 000a 50       		.byte	0x50
 5561 000b 0E000000 		.4byte	.LVL3
 5562 000f 80000000 		.4byte	.LFE553
 5563 0013 0400     		.2byte	0x4
 5564 0015 F3       		.byte	0xf3
 5565 0016 01       		.uleb128 0x1
 5566 0017 50       		.byte	0x50
 5567 0018 9F       		.byte	0x9f
 5568 0019 00000000 		.4byte	0
 5569 001d 00000000 		.4byte	0
ARM GAS  C:\Users\dmr85\AppData\Local\Temp\ccSmIU8b.s 			page 135


 5570              	.LLST1:
 5571 0021 00000000 		.4byte	.LVL0
 5572 0025 0C000000 		.4byte	.LVL2
 5573 0029 0100     		.2byte	0x1
 5574 002b 51       		.byte	0x51
 5575 002c 0C000000 		.4byte	.LVL2
 5576 0030 80000000 		.4byte	.LFE553
 5577 0034 0400     		.2byte	0x4
 5578 0036 F3       		.byte	0xf3
 5579 0037 01       		.uleb128 0x1
 5580 0038 51       		.byte	0x51
 5581 0039 9F       		.byte	0x9f
 5582 003a 00000000 		.4byte	0
 5583 003e 00000000 		.4byte	0
 5584              	.LLST2:
 5585 0042 00000000 		.4byte	.LVL0
 5586 0046 11000000 		.4byte	.LVL4-1
 5587 004a 0100     		.2byte	0x1
 5588 004c 52       		.byte	0x52
 5589 004d 11000000 		.4byte	.LVL4-1
 5590 0051 80000000 		.4byte	.LFE553
 5591 0055 0400     		.2byte	0x4
 5592 0057 F3       		.byte	0xf3
 5593 0058 01       		.uleb128 0x1
 5594 0059 52       		.byte	0x52
 5595 005a 9F       		.byte	0x9f
 5596 005b 00000000 		.4byte	0
 5597 005f 00000000 		.4byte	0
 5598              	.LLST3:
 5599 0063 08000000 		.4byte	.LVL1
 5600 0067 2A000000 		.4byte	.LVL6
 5601 006b 0200     		.2byte	0x2
 5602 006d 41       		.byte	0x41
 5603 006e 9F       		.byte	0x9f
 5604 006f 00000000 		.4byte	0
 5605 0073 00000000 		.4byte	0
 5606              	.LLST4:
 5607 0077 08000000 		.4byte	.LVL1
 5608 007b 0E000000 		.4byte	.LVL3
 5609 007f 0100     		.2byte	0x1
 5610 0081 50       		.byte	0x50
 5611 0082 0E000000 		.4byte	.LVL3
 5612 0086 2A000000 		.4byte	.LVL6
 5613 008a 0400     		.2byte	0x4
 5614 008c F3       		.byte	0xf3
 5615 008d 01       		.uleb128 0x1
 5616 008e 50       		.byte	0x50
 5617 008f 9F       		.byte	0x9f
 5618 0090 00000000 		.4byte	0
 5619 0094 00000000 		.4byte	0
 5620              	.LLST5:
 5621 0098 12000000 		.4byte	.LVL4
 5622 009c 22000000 		.4byte	.LVL5
 5623 00a0 0200     		.2byte	0x2
 5624 00a2 41       		.byte	0x41
 5625 00a3 9F       		.byte	0x9f
 5626 00a4 00000000 		.4byte	0
ARM GAS  C:\Users\dmr85\AppData\Local\Temp\ccSmIU8b.s 			page 136


 5627 00a8 00000000 		.4byte	0
 5628              	.LLST6:
 5629 00ac 2A000000 		.4byte	.LVL6
 5630 00b0 48000000 		.4byte	.LVL9
 5631 00b4 0100     		.2byte	0x1
 5632 00b6 55       		.byte	0x55
 5633 00b7 00000000 		.4byte	0
 5634 00bb 00000000 		.4byte	0
 5635              	.LLST7:
 5636 00bf 2A000000 		.4byte	.LVL6
 5637 00c3 48000000 		.4byte	.LVL9
 5638 00c7 0200     		.2byte	0x2
 5639 00c9 3A       		.byte	0x3a
 5640 00ca 9F       		.byte	0x9f
 5641 00cb 00000000 		.4byte	0
 5642 00cf 00000000 		.4byte	0
 5643              	.LLST9:
 5644 00d3 32000000 		.4byte	.LVL7
 5645 00d7 40000000 		.4byte	.LVL8
 5646 00db 0200     		.2byte	0x2
 5647 00dd 3A       		.byte	0x3a
 5648 00de 9F       		.byte	0x9f
 5649 00df 00000000 		.4byte	0
 5650 00e3 00000000 		.4byte	0
 5651              	.LLST10:
 5652 00e7 00000000 		.4byte	.LVL13
 5653 00eb 1A000000 		.4byte	.LVL15
 5654 00ef 0100     		.2byte	0x1
 5655 00f1 50       		.byte	0x50
 5656 00f2 1A000000 		.4byte	.LVL15
 5657 00f6 24000000 		.4byte	.LFE554
 5658 00fa 0400     		.2byte	0x4
 5659 00fc F3       		.byte	0xf3
 5660 00fd 01       		.uleb128 0x1
 5661 00fe 50       		.byte	0x50
 5662 00ff 9F       		.byte	0x9f
 5663 0100 00000000 		.4byte	0
 5664 0104 00000000 		.4byte	0
 5665              	.LLST11:
 5666 0108 00000000 		.4byte	.LVL13
 5667 010c 08000000 		.4byte	.LVL14
 5668 0110 0100     		.2byte	0x1
 5669 0112 51       		.byte	0x51
 5670 0113 08000000 		.4byte	.LVL14
 5671 0117 24000000 		.4byte	.LFE554
 5672 011b 0400     		.2byte	0x4
 5673 011d F3       		.byte	0xf3
 5674 011e 01       		.uleb128 0x1
 5675 011f 51       		.byte	0x51
 5676 0120 9F       		.byte	0x9f
 5677 0121 00000000 		.4byte	0
 5678 0125 00000000 		.4byte	0
 5679              	.LLST12:
 5680 0129 00000000 		.4byte	.LVL13
 5681 012d 1D000000 		.4byte	.LVL16-1
 5682 0131 0100     		.2byte	0x1
 5683 0133 52       		.byte	0x52
ARM GAS  C:\Users\dmr85\AppData\Local\Temp\ccSmIU8b.s 			page 137


 5684 0134 1D000000 		.4byte	.LVL16-1
 5685 0138 24000000 		.4byte	.LFE554
 5686 013c 0400     		.2byte	0x4
 5687 013e F3       		.byte	0xf3
 5688 013f 01       		.uleb128 0x1
 5689 0140 52       		.byte	0x52
 5690 0141 9F       		.byte	0x9f
 5691 0142 00000000 		.4byte	0
 5692 0146 00000000 		.4byte	0
 5693              	.LLST13:
 5694 014a 00000000 		.4byte	.LVL17
 5695 014e 0C000000 		.4byte	.LVL18
 5696 0152 0100     		.2byte	0x1
 5697 0154 50       		.byte	0x50
 5698 0155 0C000000 		.4byte	.LVL18
 5699 0159 6C010000 		.4byte	.LFE551
 5700 015d 0400     		.2byte	0x4
 5701 015f F3       		.byte	0xf3
 5702 0160 01       		.uleb128 0x1
 5703 0161 50       		.byte	0x50
 5704 0162 9F       		.byte	0x9f
 5705 0163 00000000 		.4byte	0
 5706 0167 00000000 		.4byte	0
 5707              	.LLST14:
 5708 016b 00000000 		.4byte	.LVL17
 5709 016f 0F000000 		.4byte	.LVL19-1
 5710 0173 0100     		.2byte	0x1
 5711 0175 51       		.byte	0x51
 5712 0176 0F000000 		.4byte	.LVL19-1
 5713 017a 6C010000 		.4byte	.LFE551
 5714 017e 0400     		.2byte	0x4
 5715 0180 F3       		.byte	0xf3
 5716 0181 01       		.uleb128 0x1
 5717 0182 51       		.byte	0x51
 5718 0183 9F       		.byte	0x9f
 5719 0184 00000000 		.4byte	0
 5720 0188 00000000 		.4byte	0
 5721              	.LLST15:
 5722 018c 68000000 		.4byte	.LVL31
 5723 0190 88000000 		.4byte	.LVL34
 5724 0194 0200     		.2byte	0x2
 5725 0196 41       		.byte	0x41
 5726 0197 9F       		.byte	0x9f
 5727 0198 00000000 		.4byte	0
 5728 019c 00000000 		.4byte	0
 5729              	.LLST16:
 5730 01a0 68000000 		.4byte	.LVL31
 5731 01a4 88000000 		.4byte	.LVL34
 5732 01a8 0100     		.2byte	0x1
 5733 01aa 54       		.byte	0x54
 5734 01ab 00000000 		.4byte	0
 5735 01af 00000000 		.4byte	0
 5736              	.LLST17:
 5737 01b3 70000000 		.4byte	.LVL32
 5738 01b7 80000000 		.4byte	.LVL33
 5739 01bb 0200     		.2byte	0x2
 5740 01bd 41       		.byte	0x41
ARM GAS  C:\Users\dmr85\AppData\Local\Temp\ccSmIU8b.s 			page 138


 5741 01be 9F       		.byte	0x9f
 5742 01bf 00000000 		.4byte	0
 5743 01c3 00000000 		.4byte	0
 5744              	.LLST18:
 5745 01c7 8E000000 		.4byte	.LVL35
 5746 01cb AC000000 		.4byte	.LVL38
 5747 01cf 0200     		.2byte	0x2
 5748 01d1 3A       		.byte	0x3a
 5749 01d2 9F       		.byte	0x9f
 5750 01d3 00000000 		.4byte	0
 5751 01d7 00000000 		.4byte	0
 5752              	.LLST19:
 5753 01db 8E000000 		.4byte	.LVL35
 5754 01df AC000000 		.4byte	.LVL38
 5755 01e3 0100     		.2byte	0x1
 5756 01e5 54       		.byte	0x54
 5757 01e6 00000000 		.4byte	0
 5758 01ea 00000000 		.4byte	0
 5759              	.LLST20:
 5760 01ee 96000000 		.4byte	.LVL36
 5761 01f2 A4000000 		.4byte	.LVL37
 5762 01f6 0200     		.2byte	0x2
 5763 01f8 3A       		.byte	0x3a
 5764 01f9 9F       		.byte	0x9f
 5765 01fa 00000000 		.4byte	0
 5766 01fe 00000000 		.4byte	0
 5767              	.LLST21:
 5768 0202 00000000 		.4byte	.LVL57
 5769 0206 0B000000 		.4byte	.LVL58-1
 5770 020a 0100     		.2byte	0x1
 5771 020c 50       		.byte	0x50
 5772 020d 0B000000 		.4byte	.LVL58-1
 5773 0211 24000000 		.4byte	.LFE552
 5774 0215 0400     		.2byte	0x4
 5775 0217 F3       		.byte	0xf3
 5776 0218 01       		.uleb128 0x1
 5777 0219 50       		.byte	0x50
 5778 021a 9F       		.byte	0x9f
 5779 021b 00000000 		.4byte	0
 5780 021f 00000000 		.4byte	0
 5781              	.LLST22:
 5782 0223 00000000 		.4byte	.LVL61
 5783 0227 14000000 		.4byte	.LVL63
 5784 022b 0100     		.2byte	0x1
 5785 022d 50       		.byte	0x50
 5786 022e 14000000 		.4byte	.LVL63
 5787 0232 7C000000 		.4byte	.LFE555
 5788 0236 0400     		.2byte	0x4
 5789 0238 F3       		.byte	0xf3
 5790 0239 01       		.uleb128 0x1
 5791 023a 50       		.byte	0x50
 5792 023b 9F       		.byte	0x9f
 5793 023c 00000000 		.4byte	0
 5794 0240 00000000 		.4byte	0
 5795              	.LLST23:
 5796 0244 00000000 		.4byte	.LVL61
 5797 0248 12000000 		.4byte	.LVL62
ARM GAS  C:\Users\dmr85\AppData\Local\Temp\ccSmIU8b.s 			page 139


 5798 024c 0100     		.2byte	0x1
 5799 024e 51       		.byte	0x51
 5800 024f 12000000 		.4byte	.LVL62
 5801 0253 78000000 		.4byte	.LVL68
 5802 0257 0200     		.2byte	0x2
 5803 0259 91       		.byte	0x91
 5804 025a 5C       		.sleb128 -36
 5805 025b 78000000 		.4byte	.LVL68
 5806 025f 7C000000 		.4byte	.LFE555
 5807 0263 0200     		.2byte	0x2
 5808 0265 7D       		.byte	0x7d
 5809 0266 5C       		.sleb128 -36
 5810 0267 00000000 		.4byte	0
 5811 026b 00000000 		.4byte	0
 5812              	.LLST24:
 5813 026f 00000000 		.4byte	.LVL61
 5814 0273 17000000 		.4byte	.LVL64-1
 5815 0277 0100     		.2byte	0x1
 5816 0279 52       		.byte	0x52
 5817 027a 17000000 		.4byte	.LVL64-1
 5818 027e 78000000 		.4byte	.LVL68
 5819 0282 0100     		.2byte	0x1
 5820 0284 54       		.byte	0x54
 5821 0285 78000000 		.4byte	.LVL68
 5822 0289 7C000000 		.4byte	.LFE555
 5823 028d 0400     		.2byte	0x4
 5824 028f F3       		.byte	0xf3
 5825 0290 01       		.uleb128 0x1
 5826 0291 52       		.byte	0x52
 5827 0292 9F       		.byte	0x9f
 5828 0293 00000000 		.4byte	0
 5829 0297 00000000 		.4byte	0
 5830              	.LLST25:
 5831 029b 00000000 		.4byte	.LVL69
 5832 029f 0E000000 		.4byte	.LVL71
 5833 02a3 0100     		.2byte	0x1
 5834 02a5 50       		.byte	0x50
 5835 02a6 0E000000 		.4byte	.LVL71
 5836 02aa B4000000 		.4byte	.LFE556
 5837 02ae 0400     		.2byte	0x4
 5838 02b0 F3       		.byte	0xf3
 5839 02b1 01       		.uleb128 0x1
 5840 02b2 50       		.byte	0x50
 5841 02b3 9F       		.byte	0x9f
 5842 02b4 00000000 		.4byte	0
 5843 02b8 00000000 		.4byte	0
 5844              	.LLST26:
 5845 02bc 00000000 		.4byte	.LVL69
 5846 02c0 0C000000 		.4byte	.LVL70
 5847 02c4 0100     		.2byte	0x1
 5848 02c6 51       		.byte	0x51
 5849 02c7 0C000000 		.4byte	.LVL70
 5850 02cb AE000000 		.4byte	.LVL76
 5851 02cf 0200     		.2byte	0x2
 5852 02d1 91       		.byte	0x91
 5853 02d2 4C       		.sleb128 -52
 5854 02d3 AE000000 		.4byte	.LVL76
ARM GAS  C:\Users\dmr85\AppData\Local\Temp\ccSmIU8b.s 			page 140


 5855 02d7 B4000000 		.4byte	.LFE556
 5856 02db 0200     		.2byte	0x2
 5857 02dd 7D       		.byte	0x7d
 5858 02de 4C       		.sleb128 -52
 5859 02df 00000000 		.4byte	0
 5860 02e3 00000000 		.4byte	0
 5861              	.LLST27:
 5862 02e7 00000000 		.4byte	.LVL69
 5863 02eb 11000000 		.4byte	.LVL72-1
 5864 02ef 0100     		.2byte	0x1
 5865 02f1 52       		.byte	0x52
 5866 02f2 11000000 		.4byte	.LVL72-1
 5867 02f6 AE000000 		.4byte	.LVL76
 5868 02fa 0100     		.2byte	0x1
 5869 02fc 54       		.byte	0x54
 5870 02fd AE000000 		.4byte	.LVL76
 5871 0301 B4000000 		.4byte	.LFE556
 5872 0305 0400     		.2byte	0x4
 5873 0307 F3       		.byte	0xf3
 5874 0308 01       		.uleb128 0x1
 5875 0309 52       		.byte	0x52
 5876 030a 9F       		.byte	0x9f
 5877 030b 00000000 		.4byte	0
 5878 030f 00000000 		.4byte	0
 5879              	.LLST28:
 5880 0313 00000000 		.4byte	.LVL77
 5881 0317 12000000 		.4byte	.LVL79
 5882 031b 0100     		.2byte	0x1
 5883 031d 50       		.byte	0x50
 5884 031e 12000000 		.4byte	.LVL79
 5885 0322 58010000 		.4byte	.LFE557
 5886 0326 0400     		.2byte	0x4
 5887 0328 F3       		.byte	0xf3
 5888 0329 01       		.uleb128 0x1
 5889 032a 50       		.byte	0x50
 5890 032b 9F       		.byte	0x9f
 5891 032c 00000000 		.4byte	0
 5892 0330 00000000 		.4byte	0
 5893              	.LLST29:
 5894 0334 00000000 		.4byte	.LVL77
 5895 0338 10000000 		.4byte	.LVL78
 5896 033c 0100     		.2byte	0x1
 5897 033e 51       		.byte	0x51
 5898 033f 10000000 		.4byte	.LVL78
 5899 0343 50010000 		.4byte	.LVL92
 5900 0347 0200     		.2byte	0x2
 5901 0349 91       		.byte	0x91
 5902 034a 44       		.sleb128 -60
 5903 034b 50010000 		.4byte	.LVL92
 5904 034f 58010000 		.4byte	.LFE557
 5905 0353 0200     		.2byte	0x2
 5906 0355 7D       		.byte	0x7d
 5907 0356 44       		.sleb128 -60
 5908 0357 00000000 		.4byte	0
 5909 035b 00000000 		.4byte	0
 5910              	.LLST30:
 5911 035f 00000000 		.4byte	.LVL77
ARM GAS  C:\Users\dmr85\AppData\Local\Temp\ccSmIU8b.s 			page 141


 5912 0363 15000000 		.4byte	.LVL80-1
 5913 0367 0100     		.2byte	0x1
 5914 0369 52       		.byte	0x52
 5915 036a 15000000 		.4byte	.LVL80-1
 5916 036e 50010000 		.4byte	.LVL92
 5917 0372 0100     		.2byte	0x1
 5918 0374 58       		.byte	0x58
 5919 0375 50010000 		.4byte	.LVL92
 5920 0379 58010000 		.4byte	.LFE557
 5921 037d 0400     		.2byte	0x4
 5922 037f F3       		.byte	0xf3
 5923 0380 01       		.uleb128 0x1
 5924 0381 52       		.byte	0x52
 5925 0382 9F       		.byte	0x9f
 5926 0383 00000000 		.4byte	0
 5927 0387 00000000 		.4byte	0
 5928              	.LLST31:
 5929 038b 00000000 		.4byte	.LVL77
 5930 038f 15000000 		.4byte	.LVL80-1
 5931 0393 0100     		.2byte	0x1
 5932 0395 53       		.byte	0x53
 5933 0396 15000000 		.4byte	.LVL80-1
 5934 039a 50010000 		.4byte	.LVL92
 5935 039e 0100     		.2byte	0x1
 5936 03a0 54       		.byte	0x54
 5937 03a1 50010000 		.4byte	.LVL92
 5938 03a5 58010000 		.4byte	.LFE557
 5939 03a9 0400     		.2byte	0x4
 5940 03ab F3       		.byte	0xf3
 5941 03ac 01       		.uleb128 0x1
 5942 03ad 53       		.byte	0x53
 5943 03ae 9F       		.byte	0x9f
 5944 03af 00000000 		.4byte	0
 5945 03b3 00000000 		.4byte	0
 5946              	.LLST32:
 5947 03b7 16000000 		.4byte	.LVL80
 5948 03bb 26000000 		.4byte	.LVL82
 5949 03bf 0600     		.2byte	0x6
 5950 03c1 03       		.byte	0x3
 5951 03c2 00000000 		.4byte	spi
 5952 03c6 9F       		.byte	0x9f
 5953 03c7 00000000 		.4byte	0
 5954 03cb 00000000 		.4byte	0
 5955              	.LLST33:
 5956 03cf 16000000 		.4byte	.LVL80
 5957 03d3 1A000000 		.4byte	.LVL81
 5958 03d7 0200     		.2byte	0x2
 5959 03d9 34       		.byte	0x34
 5960 03da 9F       		.byte	0x9f
 5961 03db 00000000 		.4byte	0
 5962 03df 00000000 		.4byte	0
 5963              	.LLST34:
 5964 03e3 16000000 		.4byte	.LVL80
 5965 03e7 1A000000 		.4byte	.LVL81
 5966 03eb 0600     		.2byte	0x6
 5967 03ed 0C       		.byte	0xc
 5968 03ee 80023240 		.4byte	0x40320280
ARM GAS  C:\Users\dmr85\AppData\Local\Temp\ccSmIU8b.s 			page 142


 5969 03f2 9F       		.byte	0x9f
 5970 03f3 00000000 		.4byte	0
 5971 03f7 00000000 		.4byte	0
 5972              	.LLST35:
 5973 03fb 2A000000 		.4byte	.LVL83
 5974 03ff 4C000000 		.4byte	.LVL86
 5975 0403 0100     		.2byte	0x1
 5976 0405 55       		.byte	0x55
 5977 0406 00000000 		.4byte	0
 5978 040a 00000000 		.4byte	0
 5979              	.LLST36:
 5980 040e 2A000000 		.4byte	.LVL83
 5981 0412 4C000000 		.4byte	.LVL86
 5982 0416 0200     		.2byte	0x2
 5983 0418 3A       		.byte	0x3a
 5984 0419 9F       		.byte	0x9f
 5985 041a 00000000 		.4byte	0
 5986 041e 00000000 		.4byte	0
 5987              	.LLST38:
 5988 0422 34000000 		.4byte	.LVL84
 5989 0426 44000000 		.4byte	.LVL85
 5990 042a 0200     		.2byte	0x2
 5991 042c 3A       		.byte	0x3a
 5992 042d 9F       		.byte	0x9f
 5993 042e 00000000 		.4byte	0
 5994 0432 00000000 		.4byte	0
 5995              	.LLST39:
 5996 0436 5C000000 		.4byte	.LVL88
 5997 043a 7A000000 		.4byte	.LVL91
 5998 043e 0100     		.2byte	0x1
 5999 0440 55       		.byte	0x55
 6000 0441 00000000 		.4byte	0
 6001 0445 00000000 		.4byte	0
 6002              	.LLST40:
 6003 0449 5C000000 		.4byte	.LVL88
 6004 044d 7A000000 		.4byte	.LVL91
 6005 0451 0200     		.2byte	0x2
 6006 0453 38       		.byte	0x38
 6007 0454 9F       		.byte	0x9f
 6008 0455 00000000 		.4byte	0
 6009 0459 00000000 		.4byte	0
 6010              	.LLST42:
 6011 045d 64000000 		.4byte	.LVL89
 6012 0461 72000000 		.4byte	.LVL90
 6013 0465 0200     		.2byte	0x2
 6014 0467 38       		.byte	0x38
 6015 0468 9F       		.byte	0x9f
 6016 0469 00000000 		.4byte	0
 6017 046d 00000000 		.4byte	0
 6018              	.LLST43:
 6019 0471 00000000 		.4byte	.LVL93
 6020 0475 16000000 		.4byte	.LVL95
 6021 0479 0100     		.2byte	0x1
 6022 047b 50       		.byte	0x50
 6023 047c 16000000 		.4byte	.LVL95
 6024 0480 7C000000 		.4byte	.LFE558
 6025 0484 0400     		.2byte	0x4
ARM GAS  C:\Users\dmr85\AppData\Local\Temp\ccSmIU8b.s 			page 143


 6026 0486 F3       		.byte	0xf3
 6027 0487 01       		.uleb128 0x1
 6028 0488 50       		.byte	0x50
 6029 0489 9F       		.byte	0x9f
 6030 048a 00000000 		.4byte	0
 6031 048e 00000000 		.4byte	0
 6032              	.LLST44:
 6033 0492 00000000 		.4byte	.LVL93
 6034 0496 14000000 		.4byte	.LVL94
 6035 049a 0100     		.2byte	0x1
 6036 049c 51       		.byte	0x51
 6037 049d 14000000 		.4byte	.LVL94
 6038 04a1 7C000000 		.4byte	.LFE558
 6039 04a5 0400     		.2byte	0x4
 6040 04a7 F3       		.byte	0xf3
 6041 04a8 01       		.uleb128 0x1
 6042 04a9 51       		.byte	0x51
 6043 04aa 9F       		.byte	0x9f
 6044 04ab 00000000 		.4byte	0
 6045 04af 00000000 		.4byte	0
 6046              	.LLST45:
 6047 04b3 00000000 		.4byte	.LVL93
 6048 04b7 19000000 		.4byte	.LVL96-1
 6049 04bb 0100     		.2byte	0x1
 6050 04bd 52       		.byte	0x52
 6051 04be 19000000 		.4byte	.LVL96-1
 6052 04c2 74000000 		.4byte	.LVL100
 6053 04c6 0200     		.2byte	0x2
 6054 04c8 7D       		.byte	0x7d
 6055 04c9 00       		.sleb128 0
 6056 04ca 74000000 		.4byte	.LVL100
 6057 04ce 76000000 		.4byte	.LVL101
 6058 04d2 0200     		.2byte	0x2
 6059 04d4 91       		.byte	0x91
 6060 04d5 58       		.sleb128 -40
 6061 04d6 76000000 		.4byte	.LVL101
 6062 04da 7C000000 		.4byte	.LFE558
 6063 04de 0200     		.2byte	0x2
 6064 04e0 7D       		.byte	0x7d
 6065 04e1 58       		.sleb128 -40
 6066 04e2 00000000 		.4byte	0
 6067 04e6 00000000 		.4byte	0
 6068              	.LLST46:
 6069 04ea 00000000 		.4byte	.LVL93
 6070 04ee 19000000 		.4byte	.LVL96-1
 6071 04f2 0100     		.2byte	0x1
 6072 04f4 53       		.byte	0x53
 6073 04f5 19000000 		.4byte	.LVL96-1
 6074 04f9 76000000 		.4byte	.LVL101
 6075 04fd 0100     		.2byte	0x1
 6076 04ff 54       		.byte	0x54
 6077 0500 76000000 		.4byte	.LVL101
 6078 0504 7C000000 		.4byte	.LFE558
 6079 0508 0400     		.2byte	0x4
 6080 050a F3       		.byte	0xf3
 6081 050b 01       		.uleb128 0x1
 6082 050c 53       		.byte	0x53
ARM GAS  C:\Users\dmr85\AppData\Local\Temp\ccSmIU8b.s 			page 144


 6083 050d 9F       		.byte	0x9f
 6084 050e 00000000 		.4byte	0
 6085 0512 00000000 		.4byte	0
 6086              		.section	.debug_aranges,"",%progbits
 6087 0000 54000000 		.4byte	0x54
 6088 0004 0200     		.2byte	0x2
 6089 0006 00000000 		.4byte	.Ldebug_info0
 6090 000a 04       		.byte	0x4
 6091 000b 00       		.byte	0
 6092 000c 0000     		.2byte	0
 6093 000e 0000     		.2byte	0
 6094 0010 00000000 		.4byte	.LFB553
 6095 0014 80000000 		.4byte	.LFE553-.LFB553
 6096 0018 00000000 		.4byte	.LFB554
 6097 001c 24000000 		.4byte	.LFE554-.LFB554
 6098 0020 00000000 		.4byte	.LFB551
 6099 0024 6C010000 		.4byte	.LFE551-.LFB551
 6100 0028 00000000 		.4byte	.LFB552
 6101 002c 24000000 		.4byte	.LFE552-.LFB552
 6102 0030 00000000 		.4byte	.LFB555
 6103 0034 7C000000 		.4byte	.LFE555-.LFB555
 6104 0038 00000000 		.4byte	.LFB556
 6105 003c B4000000 		.4byte	.LFE556-.LFB556
 6106 0040 00000000 		.4byte	.LFB557
 6107 0044 58010000 		.4byte	.LFE557-.LFB557
 6108 0048 00000000 		.4byte	.LFB558
 6109 004c 7C000000 		.4byte	.LFE558-.LFB558
 6110 0050 00000000 		.4byte	0
 6111 0054 00000000 		.4byte	0
 6112              		.section	.debug_ranges,"",%progbits
 6113              	.Ldebug_ranges0:
 6114 0000 00000000 		.4byte	.LFB553
 6115 0004 80000000 		.4byte	.LFE553
 6116 0008 00000000 		.4byte	.LFB554
 6117 000c 24000000 		.4byte	.LFE554
 6118 0010 00000000 		.4byte	.LFB551
 6119 0014 6C010000 		.4byte	.LFE551
 6120 0018 00000000 		.4byte	.LFB552
 6121 001c 24000000 		.4byte	.LFE552
 6122 0020 00000000 		.4byte	.LFB555
 6123 0024 7C000000 		.4byte	.LFE555
 6124 0028 00000000 		.4byte	.LFB556
 6125 002c B4000000 		.4byte	.LFE556
 6126 0030 00000000 		.4byte	.LFB557
 6127 0034 58010000 		.4byte	.LFE557
 6128 0038 00000000 		.4byte	.LFB558
 6129 003c 7C000000 		.4byte	.LFE558
 6130 0040 00000000 		.4byte	0
 6131 0044 00000000 		.4byte	0
 6132              		.section	.debug_line,"",%progbits
 6133              	.Ldebug_line0:
 6134 0000 E9050000 		.section	.debug_str,"MS",%progbits,1
 6134      02002E04 
 6134      00000201 
 6134      FB0E0D00 
 6134      01010101 
 6135              	.LASF91:
ARM GAS  C:\Users\dmr85\AppData\Local\Temp\ccSmIU8b.s 			page 145


 6136 0000 666C6173 		.ascii	"flashCtlMainWs1Freq\000"
 6136      6843746C 
 6136      4D61696E 
 6136      57733146 
 6136      72657100 
 6137              	.LASF326:
 6138 0014 61647331 		.ascii	"ads1299_lead_off\000"
 6138      3239395F 
 6138      6C656164 
 6138      5F6F6666 
 6138      00
 6139              	.LASF345:
 6140 0025 63795F62 		.ascii	"cy_ble_connState\000"
 6140      6C655F63 
 6140      6F6E6E53 
 6140      74617465 
 6140      00
 6141              	.LASF31:
 6142 0036 52455345 		.ascii	"RESERVED\000"
 6142      52564544 
 6142      00
 6143              	.LASF39:
 6144 003f 5644445F 		.ascii	"VDD_ACTIVE\000"
 6144      41435449 
 6144      564500
 6145              	.LASF35:
 6146 004a 494E5452 		.ascii	"INTR_CAUSE0\000"
 6146      5F434155 
 6146      53453000 
 6147              	.LASF36:
 6148 0056 494E5452 		.ascii	"INTR_CAUSE1\000"
 6148      5F434155 
 6148      53453100 
 6149              	.LASF275:
 6150 0062 43595F42 		.ascii	"CY_BLE_EVT_L2CAP_CBFC_DATA_READ\000"
 6150      4C455F45 
 6150      56545F4C 
 6150      32434150 
 6150      5F434246 
 6151              	.LASF141:
 6152 0082 63795F63 		.ascii	"cy_cb_scb_spi_handle_events_t\000"
 6152      625F7363 
 6152      625F7370 
 6152      695F6861 
 6152      6E646C65 
 6153              	.LASF222:
 6154 00a0 43595F42 		.ascii	"CY_BLE_EVT_GAPP_ADVERTISEMENT_START_STOP\000"
 6154      4C455F45 
 6154      56545F47 
 6154      4150505F 
 6154      41445645 
 6155              	.LASF342:
 6156 00c9 63795F64 		.ascii	"cy_device\000"
 6156      65766963 
 6156      6500
 6157              	.LASF277:
 6158 00d3 43595F42 		.ascii	"CY_BLE_EVT_L2CAP_CBFC_TX_CREDIT_IND\000"
ARM GAS  C:\Users\dmr85\AppData\Local\Temp\ccSmIU8b.s 			page 146


 6158      4C455F45 
 6158      56545F4C 
 6158      32434150 
 6158      5F434246 
 6159              	.LASF168:
 6160 00f7 43595F42 		.ascii	"CY_BLE_EVT_PENDING_FLASH_WRITE\000"
 6160      4C455F45 
 6160      56545F50 
 6160      454E4449 
 6160      4E475F46 
 6161              	.LASF118:
 6162 0116 63707573 		.ascii	"cpussCm0ClockCtlOffset\000"
 6162      73436D30 
 6162      436C6F63 
 6162      6B43746C 
 6162      4F666673 
 6163              	.LASF77:
 6164 012d 70657269 		.ascii	"periClockNr\000"
 6164      436C6F63 
 6164      6B4E7200 
 6165              	.LASF206:
 6166 0139 43595F42 		.ascii	"CY_BLE_EVT_AES_CCM_DECRYPT_COMPLETE\000"
 6166      4C455F45 
 6166      56545F41 
 6166      45535F43 
 6166      434D5F44 
 6167              	.LASF261:
 6168 015d 43595F42 		.ascii	"CY_BLE_EVT_GATTC_HANDLE_VALUE_NTF\000"
 6168      4C455F45 
 6168      56545F47 
 6168      41545443 
 6168      5F48414E 
 6169              	.LASF352:
 6170 017f 6770696F 		.ascii	"gpio_set_gpio_pin\000"
 6170      5F736574 
 6170      5F677069 
 6170      6F5F7069 
 6170      6E00
 6171              	.LASF295:
 6172 0191 43595F42 		.ascii	"CY_BLE_CONN_STATE_CLIENT_DISCOVERED\000"
 6172      4C455F43 
 6172      4F4E4E5F 
 6172      53544154 
 6172      455F434C 
 6173              	.LASF330:
 6174 01b5 6368616E 		.ascii	"channel_idx\000"
 6174      6E656C5F 
 6174      69647800 
 6175              	.LASF155:
 6176 01c1 74785374 		.ascii	"txStatus\000"
 6176      61747573 
 6176      00
 6177              	.LASF50:
 6178 01ca 70657269 		.ascii	"periBase\000"
 6178      42617365 
 6178      00
 6179              	.LASF200:
ARM GAS  C:\Users\dmr85\AppData\Local\Temp\ccSmIU8b.s 			page 147


 6180 01d3 43595F42 		.ascii	"CY_BLE_EVT_SET_TX_PWR_COMPLETE\000"
 6180      4C455F45 
 6180      56545F53 
 6180      45545F54 
 6180      585F5057 
 6181              	.LASF164:
 6182 01f2 43595F42 		.ascii	"CY_BLE_EVT_STACK_ON\000"
 6182      4C455F45 
 6182      56545F53 
 6182      5441434B 
 6182      5F4F4E00 
 6183              	.LASF357:
 6184 0206 7370695F 		.ascii	"spi_read_packet\000"
 6184      72656164 
 6184      5F706163 
 6184      6B657400 
 6185              	.LASF126:
 6186 0216 63707573 		.ascii	"cpussCm0NmiCtlOffset\000"
 6186      73436D30 
 6186      4E6D6943 
 6186      746C4F66 
 6186      66736574 
 6187              	.LASF96:
 6188 022b 64774368 		.ascii	"dwChSize\000"
 6188      53697A65 
 6188      00
 6189              	.LASF276:
 6190 0234 43595F42 		.ascii	"CY_BLE_EVT_L2CAP_CBFC_RX_CREDIT_IND\000"
 6190      4C455F45 
 6190      56545F4C 
 6190      32434150 
 6190      5F434246 
 6191              	.LASF13:
 6192 0258 756E7369 		.ascii	"unsigned int\000"
 6192      676E6564 
 6192      20696E74 
 6192      00
 6193              	.LASF125:
 6194 0265 63707573 		.ascii	"cpussSysTickCtlOffset\000"
 6194      73537973 
 6194      5469636B 
 6194      43746C4F 
 6194      66667365 
 6195              	.LASF307:
 6196 027b 61647331 		.ascii	"ads1299_send_byte_no_cs\000"
 6196      3239395F 
 6196      73656E64 
 6196      5F627974 
 6196      655F6E6F 
 6197              	.LASF344:
 6198 0293 63795F62 		.ascii	"cy_ble_connHandle\000"
 6198      6C655F63 
 6198      6F6E6E48 
 6198      616E646C 
 6198      6500
 6199              	.LASF239:
 6200 02a5 43595F42 		.ascii	"CY_BLE_EVT_GAP_CREATE_CONN_CANCEL_COMPLETE\000"
ARM GAS  C:\Users\dmr85\AppData\Local\Temp\ccSmIU8b.s 			page 148


 6200      4C455F45 
 6200      56545F47 
 6200      41505F43 
 6200      52454154 
 6201              	.LASF299:
 6202 02d0 65656773 		.ascii	"eegstatus\000"
 6202      74617475 
 6202      7300
 6203              	.LASF78:
 6204 02da 736D6966 		.ascii	"smifDeviceNr\000"
 6204      44657669 
 6204      63654E72 
 6204      00
 6205              	.LASF301:
 6206 02e7 696D7564 		.ascii	"imudata\000"
 6206      61746100 
 6207              	.LASF224:
 6208 02ef 43595F42 		.ascii	"CY_BLE_EVT_GAP_DEVICE_DISCONNECTED\000"
 6208      4C455F45 
 6208      56545F47 
 6208      41505F44 
 6208      45564943 
 6209              	.LASF148:
 6210 0312 74784275 		.ascii	"txBufIdx\000"
 6210      66496478 
 6210      00
 6211              	.LASF30:
 6212 031b 4346475F 		.ascii	"CFG_SIO\000"
 6212      53494F00 
 6213              	.LASF7:
 6214 0323 5F5F696E 		.ascii	"__int32_t\000"
 6214      7433325F 
 6214      7400
 6215              	.LASF48:
 6216 032d 63707573 		.ascii	"cpussBase\000"
 6216      73426173 
 6216      6500
 6217              	.LASF181:
 6218 0337 43595F42 		.ascii	"CY_BLE_EVT_GET_LOCAL_RPA_COMPLETE\000"
 6218      4C455F45 
 6218      56545F47 
 6218      45545F4C 
 6218      4F43414C 
 6219              	.LASF250:
 6220 0359 43595F42 		.ascii	"CY_BLE_EVT_GATTC_FIND_INFO_RSP\000"
 6220      4C455F45 
 6220      56545F47 
 6220      41545443 
 6220      5F46494E 
 6221              	.LASF72:
 6222 0378 63707573 		.ascii	"cpussFmIrq\000"
 6222      73466D49 
 6222      727100
 6223              	.LASF193:
 6224 0383 43595F42 		.ascii	"CY_BLE_EVT_SET_PRIVACY_MODE_COMPLETE\000"
 6224      4C455F45 
 6224      56545F53 
ARM GAS  C:\Users\dmr85\AppData\Local\Temp\ccSmIU8b.s 			page 149


 6224      45545F50 
 6224      52495641 
 6225              	.LASF173:
 6226 03a8 43595F42 		.ascii	"CY_BLE_EVT_GET_CHANNEL_MAP_COMPLETE\000"
 6226      4C455F45 
 6226      56545F47 
 6226      45545F43 
 6226      48414E4E 
 6227              	.LASF73:
 6228 03cc 63707573 		.ascii	"cpussNotConnectedIrq\000"
 6228      734E6F74 
 6228      436F6E6E 
 6228      65637465 
 6228      64497271 
 6229              	.LASF349:
 6230 03e1 7370695F 		.ascii	"spi_write_packet\000"
 6230      77726974 
 6230      655F7061 
 6230      636B6574 
 6230      00
 6231              	.LASF158:
 6232 03f2 72785269 		.ascii	"rxRingBufSize\000"
 6232      6E674275 
 6232      6653697A 
 6232      6500
 6233              	.LASF104:
 6234 0400 70657269 		.ascii	"periTrGrSize\000"
 6234      54724772 
 6234      53697A65 
 6234      00
 6235              	.LASF244:
 6236 040d 43595F42 		.ascii	"CY_BLE_EVT_GATT_CONNECT_IND\000"
 6236      4C455F45 
 6236      56545F47 
 6236      4154545F 
 6236      434F4E4E 
 6237              	.LASF163:
 6238 0429 43595F42 		.ascii	"CY_BLE_EVT_INVALID\000"
 6238      4C455F45 
 6238      56545F49 
 6238      4E56414C 
 6238      494400
 6239              	.LASF327:
 6240 043c 61647331 		.ascii	"ads1299_rdata32_packet\000"
 6240      3239395F 
 6240      72646174 
 6240      6133325F 
 6240      7061636B 
 6241              	.LASF26:
 6242 0453 494E5452 		.ascii	"INTR_SET\000"
 6242      5F534554 
 6242      00
 6243              	.LASF283:
 6244 045c 43595F42 		.ascii	"CY_BLE_ADV_STATE_STOPPED\000"
 6244      4C455F41 
 6244      44565F53 
 6244      54415445 
ARM GAS  C:\Users\dmr85\AppData\Local\Temp\ccSmIU8b.s 			page 150


 6244      5F53544F 
 6245              	.LASF130:
 6246 0475 63707573 		.ascii	"cpussRam1Ctl0\000"
 6246      7352616D 
 6246      3143746C 
 6246      3000
 6247              	.LASF251:
 6248 0483 43595F42 		.ascii	"CY_BLE_EVT_GATTC_FIND_BY_TYPE_VALUE_RSP\000"
 6248      4C455F45 
 6248      56545F47 
 6248      41545443 
 6248      5F46494E 
 6249              	.LASF132:
 6250 04ab 69706353 		.ascii	"ipcStructSize\000"
 6250      74727563 
 6250      7453697A 
 6250      6500
 6251              	.LASF191:
 6252 04b9 43595F42 		.ascii	"CY_BLE_EVT_SET_PHY_COMPLETE\000"
 6252      4C455F45 
 6252      56545F53 
 6252      45545F50 
 6252      48595F43 
 6253              	.LASF266:
 6254 04d5 43595F42 		.ascii	"CY_BLE_EVT_GATTS_READ_CHAR_VAL_ACCESS_REQ\000"
 6254      4C455F45 
 6254      56545F47 
 6254      41545453 
 6254      5F524541 
 6255              	.LASF359:
 6256 04ff 61647331 		.ascii	"ads1299.c\000"
 6256      3239392E 
 6256      6300
 6257              	.LASF358:
 6258 0509 474E5520 		.ascii	"GNU C11 5.4.1 20160609 (release) [ARM/embedded-5-br"
 6258      43313120 
 6258      352E342E 
 6258      31203230 
 6258      31363036 
 6259 053c 616E6368 		.ascii	"anch revision 237715] -mcpu=cortex-m4 -mfloat-abi=s"
 6259      20726576 
 6259      6973696F 
 6259      6E203233 
 6259      37373135 
 6260 056f 6F667466 		.ascii	"oftfp -mfpu=fpv4-sp-d16 -mthumb -g -Og -ffunction-s"
 6260      70202D6D 
 6260      6670753D 
 6260      66707634 
 6260      2D73702D 
 6261 05a2 65637469 		.ascii	"ections -ffat-lto-objects\000"
 6261      6F6E7320 
 6261      2D666661 
 6261      742D6C74 
 6261      6F2D6F62 
 6262              	.LASF237:
 6263 05bc 43595F42 		.ascii	"CY_BLE_EVT_GAP_RESOLVE_DEVICE_COMPLETE\000"
 6263      4C455F45 
ARM GAS  C:\Users\dmr85\AppData\Local\Temp\ccSmIU8b.s 			page 151


 6263      56545F47 
 6263      41505F52 
 6263      45534F4C 
 6264              	.LASF289:
 6265 05e3 43595F42 		.ascii	"CY_BLE_CONN_STATE_CLIENT_DISCONNECTED_DISCOVERED\000"
 6265      4C455F43 
 6265      4F4E4E5F 
 6265      53544154 
 6265      455F434C 
 6266              	.LASF4:
 6267 0614 5F5F696E 		.ascii	"__int16_t\000"
 6267      7431365F 
 6267      7400
 6268              	.LASF336:
 6269 061e 61647331 		.ascii	"ads1299_rdata24_generic\000"
 6269      3239395F 
 6269      72646174 
 6269      6132345F 
 6269      67656E65 
 6270              	.LASF106:
 6271 0636 70657269 		.ascii	"periDivCmdTypeSelPos\000"
 6271      44697643 
 6271      6D645479 
 6271      70655365 
 6271      6C506F73 
 6272              	.LASF123:
 6273 064b 63707573 		.ascii	"cpussTrimRamCtlOffset\000"
 6273      73547269 
 6273      6D52616D 
 6273      43746C4F 
 6273      66667365 
 6274              	.LASF247:
 6275 0661 43595F42 		.ascii	"CY_BLE_EVT_GATTC_XCHNG_MTU_RSP\000"
 6275      4C455F45 
 6275      56545F47 
 6275      41545443 
 6275      5F584348 
 6276              	.LASF263:
 6277 0680 43595F42 		.ascii	"CY_BLE_EVT_GATTS_HANDLE_VALUE_CNF\000"
 6277      4C455F45 
 6277      56545F47 
 6277      41545453 
 6277      5F48414E 
 6278              	.LASF28:
 6279 06a2 4346475F 		.ascii	"CFG_IN\000"
 6279      494E00
 6280              	.LASF192:
 6281 06a9 43595F42 		.ascii	"CY_BLE_EVT_PHY_UPDATE_COMPLETE\000"
 6281      4C455F45 
 6281      56545F50 
 6281      48595F55 
 6281      50444154 
 6282              	.LASF320:
 6283 06c8 61647331 		.ascii	"ads1299_wreg\000"
 6283      3239395F 
 6283      77726567 
 6283      00
ARM GAS  C:\Users\dmr85\AppData\Local\Temp\ccSmIU8b.s 			page 152


 6284              	.LASF252:
 6285 06d5 43595F42 		.ascii	"CY_BLE_EVT_GATTC_READ_RSP\000"
 6285      4C455F45 
 6285      56545F47 
 6285      41545443 
 6285      5F524541 
 6286              	.LASF253:
 6287 06ef 43595F42 		.ascii	"CY_BLE_EVT_GATTC_READ_BLOB_RSP\000"
 6287      4C455F45 
 6287      56545F47 
 6287      41545443 
 6287      5F524541 
 6288              	.LASF18:
 6289 070e 75696E74 		.ascii	"uint32_t\000"
 6289      33325F74 
 6289      00
 6290              	.LASF183:
 6291 0717 43595F42 		.ascii	"CY_BLE_EVT_SET_RPA_ENABLE_COMPLETE\000"
 6291      4C455F45 
 6291      56545F53 
 6291      45545F52 
 6291      50415F45 
 6292              	.LASF338:
 6293 073a 64617461 		.ascii	"data_array\000"
 6293      5F617272 
 6293      617900
 6294              	.LASF305:
 6295 0745 41445331 		.ascii	"ADS1299_ERROR_SPI_TIMEOUT\000"
 6295      3239395F 
 6295      4552524F 
 6295      525F5350 
 6295      495F5449 
 6296              	.LASF44:
 6297 075f 4750494F 		.ascii	"GPIO_V1_Type\000"
 6297      5F56315F 
 6297      54797065 
 6297      00
 6298              	.LASF194:
 6299 076c 43595F42 		.ascii	"CY_BLE_EVT_LL_CNTRL_PROC_PENDING_COMPLETE\000"
 6299      4C455F45 
 6299      56545F4C 
 6299      4C5F434E 
 6299      54524C5F 
 6300              	.LASF116:
 6301 0796 6770696F 		.ascii	"gpioPrtCfgOutOffset\000"
 6301      50727443 
 6301      66674F75 
 6301      744F6666 
 6301      73657400 
 6302              	.LASF350:
 6303 07aa 7370695F 		.ascii	"spi_selectChip\000"
 6303      73656C65 
 6303      63744368 
 6303      697000
 6304              	.LASF272:
 6305 07b9 43595F42 		.ascii	"CY_BLE_EVT_L2CAP_CBFC_CONN_CNF\000"
 6305      4C455F45 
ARM GAS  C:\Users\dmr85\AppData\Local\Temp\ccSmIU8b.s 			page 153


 6305      56545F4C 
 6305      32434150 
 6305      5F434246 
 6306              	.LASF180:
 6307 07d8 43595F42 		.ascii	"CY_BLE_EVT_GET_PEER_RPA_COMPLETE\000"
 6307      4C455F45 
 6307      56545F47 
 6307      45545F50 
 6307      4545525F 
 6308              	.LASF323:
 6309 07f9 61647331 		.ascii	"ads1299_device_init\000"
 6309      3239395F 
 6309      64657669 
 6309      63655F69 
 6309      6E697400 
 6310              	.LASF59:
 6311 080d 63727970 		.ascii	"cryptoVersion\000"
 6311      746F5665 
 6311      7273696F 
 6311      6E00
 6312              	.LASF162:
 6313 081b 63795F73 		.ascii	"cy_stc_scb_uart_context_t\000"
 6313      74635F73 
 6313      63625F75 
 6313      6172745F 
 6313      636F6E74 
 6314              	.LASF80:
 6315 0835 65704D6F 		.ascii	"epMonitorNr\000"
 6315      6E69746F 
 6315      724E7200 
 6316              	.LASF310:
 6317 0841 62617365 		.ascii	"base\000"
 6317      00
 6318              	.LASF353:
 6319 0846 43795F53 		.ascii	"Cy_SysLib_Delay\000"
 6319      79734C69 
 6319      625F4465 
 6319      6C617900 
 6320              	.LASF339:
 6321 0856 7472616E 		.ascii	"transfer_status\000"
 6321      73666572 
 6321      5F737461 
 6321      74757300 
 6322              	.LASF154:
 6323 0866 63795F73 		.ascii	"cy_stc_scb_uart_context\000"
 6323      74635F73 
 6323      63625F75 
 6323      6172745F 
 6323      636F6E74 
 6324              	.LASF20:
 6325 087e 4F55545F 		.ascii	"OUT_CLR\000"
 6325      434C5200 
 6326              	.LASF15:
 6327 0886 696E7431 		.ascii	"int16_t\000"
 6327      365F7400 
 6328              	.LASF115:
 6329 088e 6770696F 		.ascii	"gpioPrtCfgInOffset\000"
ARM GAS  C:\Users\dmr85\AppData\Local\Temp\ccSmIU8b.s 			page 154


 6329      50727443 
 6329      6667496E 
 6329      4F666673 
 6329      657400
 6330              	.LASF232:
 6331 08a1 43595F42 		.ascii	"CY_BLE_EVT_GAP_ENHANCE_CONN_COMPLETE\000"
 6331      4C455F45 
 6331      56545F47 
 6331      41505F45 
 6331      4E48414E 
 6332              	.LASF12:
 6333 08c6 6C6F6E67 		.ascii	"long long unsigned int\000"
 6333      206C6F6E 
 6333      6720756E 
 6333      7369676E 
 6333      65642069 
 6334              	.LASF112:
 6335 08dd 70657269 		.ascii	"periDiv24_5CtlOffset\000"
 6335      44697632 
 6335      345F3543 
 6335      746C4F66 
 6335      66736574 
 6336              	.LASF117:
 6337 08f2 6770696F 		.ascii	"gpioPrtCfgSioOffset\000"
 6337      50727443 
 6337      66675369 
 6337      6F4F6666 
 6337      73657400 
 6338              	.LASF287:
 6339 0906 63795F65 		.ascii	"cy_en_ble_adv_state_t\000"
 6339      6E5F626C 
 6339      655F6164 
 6339      765F7374 
 6339      6174655F 
 6340              	.LASF198:
 6341 091c 43595F42 		.ascii	"CY_BLE_EVT_GET_RSSI_COMPLETE\000"
 6341      4C455F45 
 6341      56545F47 
 6341      45545F52 
 6341      5353495F 
 6342              	.LASF108:
 6343 0939 70657269 		.ascii	"periDivCmdPaTypeSelPos\000"
 6343      44697643 
 6343      6D645061 
 6343      54797065 
 6343      53656C50 
 6344              	.LASF167:
 6345 0950 43595F42 		.ascii	"CY_BLE_EVT_MEMORY_REQUEST\000"
 6345      4C455F45 
 6345      56545F4D 
 6345      454D4F52 
 6345      595F5245 
 6346              	.LASF318:
 6347 096a 72656164 		.ascii	"read_reg_val_arr\000"
 6347      5F726567 
 6347      5F76616C 
 6347      5F617272 
ARM GAS  C:\Users\dmr85\AppData\Local\Temp\ccSmIU8b.s 			page 155


 6347      00
 6348              	.LASF51:
 6349 097b 75646242 		.ascii	"udbBase\000"
 6349      61736500 
 6350              	.LASF316:
 6351 0983 61647331 		.ascii	"ads1299_send_byte\000"
 6351      3239395F 
 6351      73656E64 
 6351      5F627974 
 6351      6500
 6352              	.LASF225:
 6353 0995 43595F42 		.ascii	"CY_BLE_EVT_GAP_ENCRYPT_CHANGE\000"
 6353      4C455F45 
 6353      56545F47 
 6353      41505F45 
 6353      4E435259 
 6354              	.LASF107:
 6355 09b3 70657269 		.ascii	"periDivCmdPaDivSelPos\000"
 6355      44697643 
 6355      6D645061 
 6355      44697653 
 6355      656C506F 
 6356              	.LASF196:
 6357 09c9 43595F42 		.ascii	"CY_BLE_EVT_SET_DEVICE_ADDR_COMPLETE\000"
 6357      4C455F45 
 6357      56545F53 
 6357      45545F44 
 6357      45564943 
 6358              	.LASF281:
 6359 09ed 61747449 		.ascii	"attId\000"
 6359      6400
 6360              	.LASF179:
 6361 09f3 43595F42 		.ascii	"CY_BLE_EVT_DATA_LENGTH_CHANGE\000"
 6361      4C455F45 
 6361      56545F44 
 6361      4154415F 
 6361      4C454E47 
 6362              	.LASF292:
 6363 0a11 43595F42 		.ascii	"CY_BLE_CONN_STATE_CLIENT_INCL_DISCOVERING\000"
 6363      4C455F43 
 6363      4F4E4E5F 
 6363      53544154 
 6363      455F434C 
 6364              	.LASF304:
 6365 0a3b 41445331 		.ascii	"ADS1299_STATUS_OK\000"
 6365      3239395F 
 6365      53544154 
 6365      55535F4F 
 6365      4B00
 6366              	.LASF217:
 6367 0a4d 43595F42 		.ascii	"CY_BLE_EVT_GAP_AUTH_REQ\000"
 6367      4C455F45 
 6367      56545F47 
 6367      41505F41 
 6367      5554485F 
 6368              	.LASF189:
 6369 0a65 43595F42 		.ascii	"CY_BLE_EVT_GET_PHY_COMPLETE\000"
ARM GAS  C:\Users\dmr85\AppData\Local\Temp\ccSmIU8b.s 			page 156


 6369      4C455F45 
 6369      56545F47 
 6369      45545F50 
 6369      48595F43 
 6370              	.LASF319:
 6371 0a81 61647331 		.ascii	"ads1299_rreg\000"
 6371      3239395F 
 6371      72726567 
 6371      00
 6372              	.LASF156:
 6373 0a8e 72785374 		.ascii	"rxStatus\000"
 6373      61747573 
 6373      00
 6374              	.LASF143:
 6375 0a97 72784275 		.ascii	"rxBuf\000"
 6375      6600
 6376              	.LASF360:
 6377 0a9d 433A5C55 		.ascii	"C:\\Users\\dmr85\\Documents\\PSoC Creator\\EEG\\EEG"
 6377      73657273 
 6377      5C646D72 
 6377      38355C44 
 6377      6F63756D 
 6378 0aca 6669726D 		.ascii	"firmware\\src\\Sleep Quality Monitor.cydsn\000"
 6378      77617265 
 6378      5C737263 
 6378      5C536C65 
 6378      65702051 
 6379              	.LASF93:
 6380 0af3 666C6173 		.ascii	"flashCtlMainWs3Freq\000"
 6380      6843746C 
 6380      4D61696E 
 6380      57733346 
 6380      72657100 
 6381              	.LASF223:
 6382 0b07 43595F42 		.ascii	"CY_BLE_EVT_GAP_DEVICE_CONNECTED\000"
 6382      4C455F45 
 6382      56545F47 
 6382      41505F44 
 6382      45564943 
 6383              	.LASF75:
 6384 0b27 73727373 		.ascii	"srssNumPll\000"
 6384      4E756D50 
 6384      6C6C00
 6385              	.LASF195:
 6386 0b32 43595F42 		.ascii	"CY_BLE_EVT_SOFT_RESET_COMPLETE\000"
 6386      4C455F45 
 6386      56545F53 
 6386      4F46545F 
 6386      52455345 
 6387              	.LASF21:
 6388 0b51 4F55545F 		.ascii	"OUT_SET\000"
 6388      53455400 
 6389              	.LASF258:
 6390 0b59 43595F42 		.ascii	"CY_BLE_EVT_GATTS_PREP_WRITE_REQ\000"
 6390      4C455F45 
 6390      56545F47 
 6390      41545453 
ARM GAS  C:\Users\dmr85\AppData\Local\Temp\ccSmIU8b.s 			page 157


 6390      5F505245 
 6391              	.LASF54:
 6392 0b79 6770696F 		.ascii	"gpioBase\000"
 6392      42617365 
 6392      00
 6393              	.LASF354:
 6394 0b82 6770696F 		.ascii	"gpio_clr_gpio_pin\000"
 6394      5F636C72 
 6394      5F677069 
 6394      6F5F7069 
 6394      6E00
 6395              	.LASF86:
 6396 0b94 666C6173 		.ascii	"flashPipeRequired\000"
 6396      68506970 
 6396      65526571 
 6396      75697265 
 6396      6400
 6397              	.LASF149:
 6398 0ba6 63624576 		.ascii	"cbEvents\000"
 6398      656E7473 
 6398      00
 6399              	.LASF29:
 6400 0baf 4346475F 		.ascii	"CFG_OUT\000"
 6400      4F555400 
 6401              	.LASF315:
 6402 0bb7 61647331 		.ascii	"ads1299_soft_start_conversion\000"
 6402      3239395F 
 6402      736F6674 
 6402      5F737461 
 6402      72745F63 
 6403              	.LASF140:
 6404 0bd5 5F426F6F 		.ascii	"_Bool\000"
 6404      6C00
 6405              	.LASF11:
 6406 0bdb 6C6F6E67 		.ascii	"long long int\000"
 6406      206C6F6E 
 6406      6720696E 
 6406      7400
 6407              	.LASF279:
 6408 0be9 43595F42 		.ascii	"CY_BLE_EVT_MAX\000"
 6408      4C455F45 
 6408      56545F4D 
 6408      415800
 6409              	.LASF90:
 6410 0bf8 666C6173 		.ascii	"flashCtlMainWs0Freq\000"
 6410      6843746C 
 6410      4D61696E 
 6410      57733046 
 6410      72657100 
 6411              	.LASF274:
 6412 0c0c 43595F42 		.ascii	"CY_BLE_EVT_L2CAP_CBFC_DISCONN_CNF\000"
 6412      4C455F45 
 6412      56545F4C 
 6412      32434150 
 6412      5F434246 
 6413              	.LASF40:
 6414 0c2e 5644445F 		.ascii	"VDD_INTR\000"
ARM GAS  C:\Users\dmr85\AppData\Local\Temp\ccSmIU8b.s 			page 158


 6414      494E5452 
 6414      00
 6415              	.LASF203:
 6416 0c37 43595F42 		.ascii	"CY_BLE_EVT_RANDOM_NUM_GEN_COMPLETE\000"
 6416      4C455F45 
 6416      56545F52 
 6416      414E444F 
 6416      4D5F4E55 
 6417              	.LASF325:
 6418 0c5a 7265675F 		.ascii	"reg_val\000"
 6418      76616C00 
 6419              	.LASF285:
 6420 0c62 43595F42 		.ascii	"CY_BLE_ADV_STATE_ADVERTISING\000"
 6420      4C455F41 
 6420      44565F53 
 6420      54415445 
 6420      5F414456 
 6421              	.LASF234:
 6422 0c7f 43595F42 		.ascii	"CY_BLE_EVT_GAP_SMP_NEGOTIATED_AUTH_INFO\000"
 6422      4C455F45 
 6422      56545F47 
 6422      41505F53 
 6422      4D505F4E 
 6423              	.LASF176:
 6424 0ca7 43595F42 		.ascii	"CY_BLE_EVT_SET_DATA_LENGTH_COMPLETE\000"
 6424      4C455F45 
 6424      56545F53 
 6424      45545F44 
 6424      4154415F 
 6425              	.LASF256:
 6426 0ccb 43595F42 		.ascii	"CY_BLE_EVT_GATTC_WRITE_RSP\000"
 6426      4C455F45 
 6426      56545F47 
 6426      41545443 
 6426      5F575249 
 6427              	.LASF66:
 6428 0ce6 70726F74 		.ascii	"protVersion\000"
 6428      56657273 
 6428      696F6E00 
 6429              	.LASF87:
 6430 0cf2 666C6173 		.ascii	"flashWriteDelay\000"
 6430      68577269 
 6430      74654465 
 6430      6C617900 
 6431              	.LASF355:
 6432 0d02 64656C61 		.ascii	"delay_ms\000"
 6432      795F6D73 
 6432      00
 6433              	.LASF166:
 6434 0d0b 43595F42 		.ascii	"CY_BLE_EVT_STACK_BUSY_STATUS\000"
 6434      4C455F45 
 6434      56545F53 
 6434      5441434B 
 6434      5F425553 
 6435              	.LASF81:
 6436 0d28 75646250 		.ascii	"udbPresent\000"
 6436      72657365 
ARM GAS  C:\Users\dmr85\AppData\Local\Temp\ccSmIU8b.s 			page 159


 6436      6E7400
 6437              	.LASF45:
 6438 0d33 4750494F 		.ascii	"GPIO_PRT_Type\000"
 6438      5F505254 
 6438      5F547970 
 6438      6500
 6439              	.LASF303:
 6440 0d41 62626F61 		.ascii	"bboard_data24bit_packet_t\000"
 6440      72645F64 
 6440      61746132 
 6440      34626974 
 6440      5F706163 
 6441              	.LASF99:
 6442 0d5b 64775374 		.ascii	"dwStatusChIdxPos\000"
 6442      61747573 
 6442      43684964 
 6442      78506F73 
 6442      00
 6443              	.LASF5:
 6444 0d6c 5F5F7569 		.ascii	"__uint16_t\000"
 6444      6E743136 
 6444      5F7400
 6445              	.LASF24:
 6446 0d77 494E5452 		.ascii	"INTR_MASK\000"
 6446      5F4D4153 
 6446      4B00
 6447              	.LASF302:
 6448 0d81 62626F61 		.ascii	"bboard_data32bit_packet_t\000"
 6448      72645F64 
 6448      61746133 
 6448      32626974 
 6448      5F706163 
 6449              	.LASF322:
 6450 0d9b 74785F62 		.ascii	"tx_buf\000"
 6450      756600
 6451              	.LASF214:
 6452 0da2 43595F42 		.ascii	"CY_BLE_EVT_SET_CONN_PRIORITY_COMPLETE\000"
 6452      4C455F45 
 6452      56545F53 
 6452      45545F43 
 6452      4F4E4E5F 
 6453              	.LASF286:
 6454 0dc8 43595F42 		.ascii	"CY_BLE_ADV_STATE_STOP_INITIATED\000"
 6454      4C455F41 
 6454      44565F53 
 6454      54415445 
 6454      5F53544F 
 6455              	.LASF70:
 6456 0de8 63707573 		.ascii	"cpussFlashPaSize\000"
 6456      73466C61 
 6456      73685061 
 6456      53697A65 
 6456      00
 6457              	.LASF293:
 6458 0df9 43595F42 		.ascii	"CY_BLE_CONN_STATE_CLIENT_CHAR_DISCOVERING\000"
 6458      4C455F43 
 6458      4F4E4E5F 
ARM GAS  C:\Users\dmr85\AppData\Local\Temp\ccSmIU8b.s 			page 160


 6458      53544154 
 6458      455F434C 
 6459              	.LASF49:
 6460 0e23 666C6173 		.ascii	"flashcBase\000"
 6460      68634261 
 6460      736500
 6461              	.LASF136:
 6462 0e2e 63686172 		.ascii	"char\000"
 6462      00
 6463              	.LASF205:
 6464 0e33 43595F42 		.ascii	"CY_BLE_EVT_AES_CCM_ENCRYPT_COMPLETE\000"
 6464      4C455F45 
 6464      56545F41 
 6464      45535F43 
 6464      434D5F45 
 6465              	.LASF227:
 6466 0e57 43595F42 		.ascii	"CY_BLE_EVT_GAPC_SCAN_START_STOP\000"
 6466      4C455F45 
 6466      56545F47 
 6466      4150435F 
 6466      5343414E 
 6467              	.LASF231:
 6468 0e77 43595F42 		.ascii	"CY_BLE_EVT_GAP_OOB_GENERATED_NOTIFICATION\000"
 6468      4C455F45 
 6468      56545F47 
 6468      41505F4F 
 6468      4F425F47 
 6469              	.LASF160:
 6470 0ea1 72785269 		.ascii	"rxRingBufTail\000"
 6470      6E674275 
 6470      66546169 
 6470      6C00
 6471              	.LASF324:
 6472 0eaf 696E6974 		.ascii	"init_regs\000"
 6472      5F726567 
 6472      7300
 6473              	.LASF82:
 6474 0eb9 73797350 		.ascii	"sysPmSimoPresent\000"
 6474      6D53696D 
 6474      6F507265 
 6474      73656E74 
 6474      00
 6475              	.LASF84:
 6476 0eca 63727970 		.ascii	"cryptoMemSize\000"
 6476      746F4D65 
 6476      6D53697A 
 6476      6500
 6477              	.LASF249:
 6478 0ed8 43595F42 		.ascii	"CY_BLE_EVT_GATTC_READ_BY_TYPE_RSP\000"
 6478      4C455F45 
 6478      56545F47 
 6478      41545443 
 6478      5F524541 
 6479              	.LASF184:
 6480 0efa 43595F42 		.ascii	"CY_BLE_EVT_SET_HOST_CHANNEL_COMPLETE\000"
 6480      4C455F45 
 6480      56545F53 
ARM GAS  C:\Users\dmr85\AppData\Local\Temp\ccSmIU8b.s 			page 161


 6480      45545F48 
 6480      4F53545F 
 6481              	.LASF332:
 6482 0f1f 64617461 		.ascii	"data\000"
 6482      00
 6483              	.LASF174:
 6484 0f24 43595F42 		.ascii	"CY_BLE_EVT_LE_SET_EVENT_MASK_COMPLETE\000"
 6484      4C455F45 
 6484      56545F4C 
 6484      455F5345 
 6484      545F4556 
 6485              	.LASF145:
 6486 0f4a 72784275 		.ascii	"rxBufIdx\000"
 6486      66496478 
 6486      00
 6487              	.LASF229:
 6488 0f53 43595F42 		.ascii	"CY_BLE_EVT_GAP_NUMERIC_COMPARISON_REQUEST\000"
 6488      4C455F45 
 6488      56545F47 
 6488      41505F4E 
 6488      554D4552 
 6489              	.LASF150:
 6490 0f7d 696E6974 		.ascii	"initKey\000"
 6490      4B657900 
 6491              	.LASF100:
 6492 0f85 64775374 		.ascii	"dwStatusChIdxMsk\000"
 6492      61747573 
 6492      43684964 
 6492      784D736B 
 6492      00
 6493              	.LASF14:
 6494 0f96 75696E74 		.ascii	"uint8_t\000"
 6494      385F7400 
 6495              	.LASF306:
 6496 0f9e 61647331 		.ascii	"ads1299_error_t\000"
 6496      3239395F 
 6496      6572726F 
 6496      725F7400 
 6497              	.LASF142:
 6498 0fae 73746174 		.ascii	"status\000"
 6498      757300
 6499              	.LASF207:
 6500 0fb5 43595F42 		.ascii	"CY_BLE_EVT_SET_SLAVE_LATENCY_MODE_COMPLETE\000"
 6500      4C455F45 
 6500      56545F53 
 6500      45545F53 
 6500      4C415645 
 6501              	.LASF105:
 6502 0fe0 70657269 		.ascii	"periDivCmdDivSelMsk\000"
 6502      44697643 
 6502      6D644469 
 6502      7653656C 
 6502      4D736B00 
 6503              	.LASF37:
 6504 0ff4 494E5452 		.ascii	"INTR_CAUSE2\000"
 6504      5F434155 
 6504      53453200 
ARM GAS  C:\Users\dmr85\AppData\Local\Temp\ccSmIU8b.s 			page 162


 6505              	.LASF38:
 6506 1000 494E5452 		.ascii	"INTR_CAUSE3\000"
 6506      5F434155 
 6506      53453300 
 6507              	.LASF220:
 6508 100c 43595F42 		.ascii	"CY_BLE_EVT_GAP_AUTH_COMPLETE\000"
 6508      4C455F45 
 6508      56545F47 
 6508      41505F41 
 6508      5554485F 
 6509              	.LASF190:
 6510 1029 43595F42 		.ascii	"CY_BLE_EVT_SET_DEFAULT_PHY_COMPLETE\000"
 6510      4C455F45 
 6510      56545F53 
 6510      45545F44 
 6510      45464155 
 6511              	.LASF111:
 6512 104d 70657269 		.ascii	"periDiv16_5CtlOffset\000"
 6512      44697631 
 6512      365F3543 
 6512      746C4F66 
 6512      66736574 
 6513              	.LASF343:
 6514 1062 63795F62 		.ascii	"cy_ble_advState\000"
 6514      6C655F61 
 6514      64765374 
 6514      61746500 
 6515              	.LASF152:
 6516 1072 63795F63 		.ascii	"cy_cb_scb_uart_handle_events_t\000"
 6516      625F7363 
 6516      625F7561 
 6516      72745F68 
 6516      616E646C 
 6517              	.LASF296:
 6518 1091 63795F65 		.ascii	"cy_en_ble_conn_state_t\000"
 6518      6E5F626C 
 6518      655F636F 
 6518      6E6E5F73 
 6518      74617465 
 6519              	.LASF213:
 6520 10a8 43595F42 		.ascii	"CY_BLE_EVT_SET_CE_LENGTH_COMPLETE\000"
 6520      4C455F45 
 6520      56545F53 
 6520      45545F43 
 6520      455F4C45 
 6521              	.LASF212:
 6522 10ca 43595F42 		.ascii	"CY_BLE_EVT_SET_EVENT_MASK_COMPLETE\000"
 6522      4C455F45 
 6522      56545F53 
 6522      45545F45 
 6522      56454E54 
 6523              	.LASF129:
 6524 10ed 63707573 		.ascii	"cpussRam0Ctl0\000"
 6524      7352616D 
 6524      3043746C 
 6524      3000
 6525              	.LASF298:
ARM GAS  C:\Users\dmr85\AppData\Local\Temp\ccSmIU8b.s 			page 163


 6526 10fb 7061636B 		.ascii	"packetnum\000"
 6526      65746E75 
 6526      6D00
 6527              	.LASF56:
 6528 1105 69706342 		.ascii	"ipcBase\000"
 6528      61736500 
 6529              	.LASF97:
 6530 110d 64774368 		.ascii	"dwChCtlPrioPos\000"
 6530      43746C50 
 6530      72696F50 
 6530      6F7300
 6531              	.LASF57:
 6532 111c 63727970 		.ascii	"cryptoBase\000"
 6532      746F4261 
 6532      736500
 6533              	.LASF356:
 6534 1127 7072696E 		.ascii	"printf\000"
 6534      746600
 6535              	.LASF240:
 6536 112e 43595F42 		.ascii	"CY_BLE_EVT_GAP_CONN_ESTB\000"
 6536      4C455F45 
 6536      56545F47 
 6536      41505F43 
 6536      4F4E4E5F 
 6537              	.LASF186:
 6538 1147 43595F42 		.ascii	"CY_BLE_EVT_REMOVE_DEVICE_FROM_RPA_LIST_COMPLETE\000"
 6538      4C455F45 
 6538      56545F52 
 6538      454D4F56 
 6538      455F4445 
 6539              	.LASF175:
 6540 1177 43595F42 		.ascii	"CY_BLE_EVT_LE_PING_AUTH_TIMEOUT\000"
 6540      4C455F45 
 6540      56545F4C 
 6540      455F5049 
 6540      4E475F41 
 6541              	.LASF337:
 6542 1197 73746174 		.ascii	"status_array\000"
 6542      75735F61 
 6542      72726179 
 6542      00
 6543              	.LASF333:
 6544 11a4 73696774 		.ascii	"sigtemp\000"
 6544      656D7000 
 6545              	.LASF313:
 6546 11ac 63686970 		.ascii	"chip_select\000"
 6546      5F73656C 
 6546      65637400 
 6547              	.LASF202:
 6548 11b8 43595F42 		.ascii	"CY_BLE_EVT_SET_CLK_CONFIG_COMPLETE\000"
 6548      4C455F45 
 6548      56545F53 
 6548      45545F43 
 6548      4C4B5F43 
 6549              	.LASF53:
 6550 11db 6873696F 		.ascii	"hsiomBase\000"
 6550      6D426173 
ARM GAS  C:\Users\dmr85\AppData\Local\Temp\ccSmIU8b.s 			page 164


 6550      6500
 6551              	.LASF267:
 6552 11e5 43595F42 		.ascii	"CY_BLE_EVT_GATTC_LONG_PROCEDURE_END\000"
 6552      4C455F45 
 6552      56545F47 
 6552      41545443 
 6552      5F4C4F4E 
 6553              	.LASF103:
 6554 1209 70657269 		.ascii	"periTrGrOffset\000"
 6554      54724772 
 6554      4F666673 
 6554      657400
 6555              	.LASF23:
 6556 1218 494E5452 		.ascii	"INTR\000"
 6556      00
 6557              	.LASF151:
 6558 121d 63795F73 		.ascii	"cy_stc_scb_spi_context_t\000"
 6558      74635F73 
 6558      63625F73 
 6558      70695F63 
 6558      6F6E7465 
 6559              	.LASF159:
 6560 1236 72785269 		.ascii	"rxRingBufHead\000"
 6560      6E674275 
 6560      66486561 
 6560      6400
 6561              	.LASF69:
 6562 1244 63707573 		.ascii	"cpussDwChNr\000"
 6562      73447743 
 6562      684E7200 
 6563              	.LASF228:
 6564 1250 43595F42 		.ascii	"CY_BLE_EVT_GAP_KEYINFO_EXCHNGE_CMPLT\000"
 6564      4C455F45 
 6564      56545F47 
 6564      41505F4B 
 6564      4559494E 
 6565              	.LASF187:
 6566 1275 43595F42 		.ascii	"CY_BLE_EVT_ADD_DEVICE_TO_WHITE_LIST_COMPLETE\000"
 6566      4C455F45 
 6566      56545F41 
 6566      44445F44 
 6566      45564943 
 6567              	.LASF147:
 6568 12a2 74784275 		.ascii	"txBufSize\000"
 6568      6653697A 
 6568      6500
 6569              	.LASF67:
 6570 12ac 63707573 		.ascii	"cpussIpcNr\000"
 6570      73497063 
 6570      4E7200
 6571              	.LASF242:
 6572 12b7 43595F42 		.ascii	"CY_BLE_EVT_GAP_ADV_TX\000"
 6572      4C455F45 
 6572      56545F47 
 6572      41505F41 
 6572      44565F54 
 6573              	.LASF278:
ARM GAS  C:\Users\dmr85\AppData\Local\Temp\ccSmIU8b.s 			page 165


 6574 12cd 43595F42 		.ascii	"CY_BLE_EVT_L2CAP_CBFC_DATA_WRITE_IND\000"
 6574      4C455F45 
 6574      56545F4C 
 6574      32434150 
 6574      5F434246 
 6575              	.LASF120:
 6576 12f2 63707573 		.ascii	"cpussCm4StatusOffset\000"
 6576      73436D34 
 6576      53746174 
 6576      75734F66 
 6576      66736574 
 6577              	.LASF79:
 6578 1307 70617373 		.ascii	"passSarChannels\000"
 6578      53617243 
 6578      68616E6E 
 6578      656C7300 
 6579              	.LASF131:
 6580 1317 63707573 		.ascii	"cpussRam2Ctl0\000"
 6580      7352616D 
 6580      3243746C 
 6580      3000
 6581              	.LASF216:
 6582 1325 43595F42 		.ascii	"CY_BLE_EVT_GAPC_SCAN_PROGRESS_RESULT\000"
 6582      4C455F45 
 6582      56545F47 
 6582      4150435F 
 6582      5343414E 
 6583              	.LASF271:
 6584 134a 43595F42 		.ascii	"CY_BLE_EVT_L2CAP_CBFC_CONN_IND\000"
 6584      4C455F45 
 6584      56545F4C 
 6584      32434150 
 6584      5F434246 
 6585              	.LASF236:
 6586 1369 43595F42 		.ascii	"CY_BLE_EVT_GAP_KEYS_GEN_COMPLETE\000"
 6586      4C455F45 
 6586      56545F47 
 6586      41505F4B 
 6586      4559535F 
 6587              	.LASF230:
 6588 138a 43595F42 		.ascii	"CY_BLE_EVT_GAP_KEYPRESS_NOTIFICATION\000"
 6588      4C455F45 
 6588      56545F47 
 6588      41505F4B 
 6588      45595052 
 6589              	.LASF294:
 6590 13af 43595F42 		.ascii	"CY_BLE_CONN_STATE_CLIENT_DESCR_DISCOVERING\000"
 6590      4C455F43 
 6590      4F4E4E5F 
 6590      53544154 
 6590      455F434C 
 6591              	.LASF290:
 6592 13da 43595F42 		.ascii	"CY_BLE_CONN_STATE_CONNECTED\000"
 6592      4C455F43 
 6592      4F4E4E5F 
 6592      53544154 
 6592      455F434F 
ARM GAS  C:\Users\dmr85\AppData\Local\Temp\ccSmIU8b.s 			page 166


 6593              	.LASF334:
 6594 13f6 61647331 		.ascii	"ads1299_rdata24_packet\000"
 6594      3239395F 
 6594      72646174 
 6594      6132345F 
 6594      7061636B 
 6595              	.LASF146:
 6596 140d 74784275 		.ascii	"txBuf\000"
 6596      6600
 6597              	.LASF42:
 6598 1413 5644445F 		.ascii	"VDD_INTR_MASKED\000"
 6598      494E5452 
 6598      5F4D4153 
 6598      4B454400 
 6599              	.LASF88:
 6600 1423 666C6173 		.ascii	"flashProgramDelay\000"
 6600      6850726F 
 6600      6772616D 
 6600      44656C61 
 6600      7900
 6601              	.LASF110:
 6602 1435 70657269 		.ascii	"periDiv16CtlOffset\000"
 6602      44697631 
 6602      3643746C 
 6602      4F666673 
 6602      657400
 6603              	.LASF6:
 6604 1448 73686F72 		.ascii	"short unsigned int\000"
 6604      7420756E 
 6604      7369676E 
 6604      65642069 
 6604      6E7400
 6605              	.LASF351:
 6606 145b 7370695F 		.ascii	"spi_unselectChip\000"
 6606      756E7365 
 6606      6C656374 
 6606      43686970 
 6606      00
 6607              	.LASF157:
 6608 146c 72785269 		.ascii	"rxRingBuf\000"
 6608      6E674275 
 6608      6600
 6609              	.LASF47:
 6610 1476 6C6F6E67 		.ascii	"long double\000"
 6610      20646F75 
 6610      626C6500 
 6611              	.LASF172:
 6612 1482 43595F42 		.ascii	"CY_BLE_EVT_READ_AUTH_PAYLOAD_TO_COMPLETE\000"
 6612      4C455F45 
 6612      56545F52 
 6612      4541445F 
 6612      41555448 
 6613              	.LASF16:
 6614 14ab 75696E74 		.ascii	"uint16_t\000"
 6614      31365F74 
 6614      00
 6615              	.LASF52:
ARM GAS  C:\Users\dmr85\AppData\Local\Temp\ccSmIU8b.s 			page 167


 6616 14b4 70726F74 		.ascii	"protBase\000"
 6616      42617365 
 6616      00
 6617              	.LASF43:
 6618 14bd 5644445F 		.ascii	"VDD_INTR_SET\000"
 6618      494E5452 
 6618      5F534554 
 6618      00
 6619              	.LASF102:
 6620 14ca 70657269 		.ascii	"periTrCmdGrSelMsk\000"
 6620      5472436D 
 6620      64477253 
 6620      656C4D73 
 6620      6B00
 6621              	.LASF182:
 6622 14dc 43595F42 		.ascii	"CY_BLE_EVT_SET_RPA_TO_COMPLETE\000"
 6622      4C455F45 
 6622      56545F53 
 6622      45545F52 
 6622      50415F54 
 6623              	.LASF170:
 6624 14fb 43595F42 		.ascii	"CY_BLE_EVT_HARDWARE_ERROR\000"
 6624      4C455F45 
 6624      56545F48 
 6624      41524457 
 6624      4152455F 
 6625              	.LASF76:
 6626 1515 73727373 		.ascii	"srssNumHfroot\000"
 6626      4E756D48 
 6626      66726F6F 
 6626      7400
 6627              	.LASF60:
 6628 1523 64775665 		.ascii	"dwVersion\000"
 6628      7273696F 
 6628      6E00
 6629              	.LASF92:
 6630 152d 666C6173 		.ascii	"flashCtlMainWs2Freq\000"
 6630      6843746C 
 6630      4D61696E 
 6630      57733246 
 6630      72657100 
 6631              	.LASF262:
 6632 1541 43595F42 		.ascii	"CY_BLE_EVT_GATTC_HANDLE_VALUE_IND\000"
 6632      4C455F45 
 6632      56545F47 
 6632      41545443 
 6632      5F48414E 
 6633              	.LASF243:
 6634 1563 43595F42 		.ascii	"CY_BLE_EVT_GATTC_ERROR_RSP\000"
 6634      4C455F45 
 6634      56545F47 
 6634      41545443 
 6634      5F455252 
 6635              	.LASF248:
 6636 157e 43595F42 		.ascii	"CY_BLE_EVT_GATTC_READ_BY_GROUP_TYPE_RSP\000"
 6636      4C455F45 
 6636      56545F47 
ARM GAS  C:\Users\dmr85\AppData\Local\Temp\ccSmIU8b.s 			page 168


 6636      41545443 
 6636      5F524541 
 6637              	.LASF185:
 6638 15a6 43595F42 		.ascii	"CY_BLE_EVT_ADD_DEVICE_TO_RPA_LIST_COMPLETE\000"
 6638      4C455F45 
 6638      56545F41 
 6638      44445F44 
 6638      45564943 
 6639              	.LASF255:
 6640 15d1 43595F42 		.ascii	"CY_BLE_EVT_GATTS_WRITE_REQ\000"
 6640      4C455F45 
 6640      56545F47 
 6640      41545453 
 6640      5F575249 
 6641              	.LASF19:
 6642 15ec 73697A65 		.ascii	"sizetype\000"
 6642      74797065 
 6642      00
 6643              	.LASF208:
 6644 15f5 43595F42 		.ascii	"CY_BLE_EVT_STACK_SHUTDOWN_COMPLETE\000"
 6644      4C455F45 
 6644      56545F53 
 6644      5441434B 
 6644      5F534855 
 6645              	.LASF282:
 6646 1618 63795F73 		.ascii	"cy_stc_ble_conn_handle_t\000"
 6646      74635F62 
 6646      6C655F63 
 6646      6F6E6E5F 
 6646      68616E64 
 6647              	.LASF127:
 6648 1631 63707573 		.ascii	"cpussCm4NmiCtlOffset\000"
 6648      73436D34 
 6648      4E6D6943 
 6648      746C4F66 
 6648      66736574 
 6649              	.LASF121:
 6650 1646 63707573 		.ascii	"cpussCm0StatusOffset\000"
 6650      73436D30 
 6650      53746174 
 6650      75734F66 
 6650      66736574 
 6651              	.LASF109:
 6652 165b 70657269 		.ascii	"periDiv8CtlOffset\000"
 6652      44697638 
 6652      43746C4F 
 6652      66667365 
 6652      7400
 6653              	.LASF241:
 6654 166d 43595F42 		.ascii	"CY_BLE_EVT_GAPP_UPDATE_ADV_SCAN_DATA_COMPLETE\000"
 6654      4C455F45 
 6654      56545F47 
 6654      4150505F 
 6654      55504441 
 6655              	.LASF269:
 6656 169b 43595F42 		.ascii	"CY_BLE_EVT_L2CAP_CONN_PARAM_UPDATE_RSP\000"
 6656      4C455F45 
ARM GAS  C:\Users\dmr85\AppData\Local\Temp\ccSmIU8b.s 			page 169


 6656      56545F4C 
 6656      32434150 
 6656      5F434F4E 
 6657              	.LASF0:
 6658 16c2 73686F72 		.ascii	"short int\000"
 6658      7420696E 
 6658      7400
 6659              	.LASF331:
 6660 16cc 73746174 		.ascii	"statustemp\000"
 6660      75737465 
 6660      6D7000
 6661              	.LASF215:
 6662 16d7 43595F42 		.ascii	"CY_BLE_EVT_HCI_PKT_RCVD\000"
 6662      4C455F45 
 6662      56545F48 
 6662      43495F50 
 6662      4B545F52 
 6663              	.LASF317:
 6664 16ef 7265675F 		.ascii	"reg_addr\000"
 6664      61646472 
 6664      00
 6665              	.LASF8:
 6666 16f8 6C6F6E67 		.ascii	"long int\000"
 6666      20696E74 
 6666      00
 6667              	.LASF58:
 6668 1701 63707573 		.ascii	"cpussVersion\000"
 6668      73566572 
 6668      73696F6E 
 6668      00
 6669              	.LASF341:
 6670 170e 49544D5F 		.ascii	"ITM_RxBuffer\000"
 6670      52784275 
 6670      66666572 
 6670      00
 6671              	.LASF62:
 6672 171b 6770696F 		.ascii	"gpioVersion\000"
 6672      56657273 
 6672      696F6E00 
 6673              	.LASF211:
 6674 1727 43595F42 		.ascii	"CY_BLE_EVT_AES_CMAC_GEN_COMPLETE\000"
 6674      4C455F45 
 6674      56545F41 
 6674      45535F43 
 6674      4D41435F 
 6675              	.LASF61:
 6676 1748 666C6173 		.ascii	"flashcVersion\000"
 6676      68635665 
 6676      7273696F 
 6676      6E00
 6677              	.LASF83:
 6678 1756 70726F74 		.ascii	"protBusMasterMask\000"
 6678      4275734D 
 6678      61737465 
 6678      724D6173 
 6678      6B00
 6679              	.LASF254:
ARM GAS  C:\Users\dmr85\AppData\Local\Temp\ccSmIU8b.s 			page 170


 6680 1768 43595F42 		.ascii	"CY_BLE_EVT_GATTC_READ_MULTI_RSP\000"
 6680      4C455F45 
 6680      56545F47 
 6680      41545443 
 6680      5F524541 
 6681              	.LASF328:
 6682 1788 73616D70 		.ascii	"sample_idx\000"
 6682      6C655F69 
 6682      647800
 6683              	.LASF34:
 6684 1793 4750494F 		.ascii	"GPIO_PRT_V1_Type\000"
 6684      5F505254 
 6684      5F56315F 
 6684      54797065 
 6684      00
 6685              	.LASF335:
 6686 17a4 74656D70 		.ascii	"temp\000"
 6686      00
 6687              	.LASF312:
 6688 17a9 61647331 		.ascii	"ads1299_soft_stop_conversion\000"
 6688      3239395F 
 6688      736F6674 
 6688      5F73746F 
 6688      705F636F 
 6689              	.LASF135:
 6690 17c6 63686172 		.ascii	"char_t\000"
 6690      5F7400
 6691              	.LASF235:
 6692 17cd 43595F42 		.ascii	"CY_BLE_EVT_GAP_DEVICE_ADDR_GEN_COMPLETE\000"
 6692      4C455F45 
 6692      56545F47 
 6692      41505F44 
 6692      45564943 
 6693              	.LASF32:
 6694 17f5 4346475F 		.ascii	"CFG_IN_GPIO5V\000"
 6694      494E5F47 
 6694      50494F35 
 6694      5600
 6695              	.LASF273:
 6696 1803 43595F42 		.ascii	"CY_BLE_EVT_L2CAP_CBFC_DISCONN_IND\000"
 6696      4C455F45 
 6696      56545F4C 
 6696      32434150 
 6696      5F434246 
 6697              	.LASF161:
 6698 1825 74784C65 		.ascii	"txLeftToTransmit\000"
 6698      6674546F 
 6698      5472616E 
 6698      736D6974 
 6698      00
 6699              	.LASF259:
 6700 1836 43595F42 		.ascii	"CY_BLE_EVT_GATTS_EXEC_WRITE_REQ\000"
 6700      4C455F45 
 6700      56545F47 
 6700      41545453 
 6700      5F455845 
 6701              	.LASF171:
ARM GAS  C:\Users\dmr85\AppData\Local\Temp\ccSmIU8b.s 			page 171


 6702 1856 43595F42 		.ascii	"CY_BLE_EVT_WRITE_AUTH_PAYLOAD_TO_COMPLETE\000"
 6702      4C455F45 
 6702      56545F57 
 6702      52495445 
 6702      5F415554 
 6703              	.LASF210:
 6704 1880 43595F42 		.ascii	"CY_BLE_EVT_RADIO_VOLTAGE_LEVEL\000"
 6704      4C455F45 
 6704      56545F52 
 6704      4144494F 
 6704      5F564F4C 
 6705              	.LASF22:
 6706 189f 4F55545F 		.ascii	"OUT_INV\000"
 6706      494E5600 
 6707              	.LASF122:
 6708 18a7 63707573 		.ascii	"cpussCm4PwrCtlOffset\000"
 6708      73436D34 
 6708      50777243 
 6708      746C4F66 
 6708      66736574 
 6709              	.LASF3:
 6710 18bc 5F5F7569 		.ascii	"__uint8_t\000"
 6710      6E74385F 
 6710      7400
 6711              	.LASF297:
 6712 18c6 73746172 		.ascii	"start\000"
 6712      7400
 6713              	.LASF113:
 6714 18cc 6770696F 		.ascii	"gpioPrtIntrCfgOffset\000"
 6714      50727449 
 6714      6E747243 
 6714      66674F66 
 6714      66736574 
 6715              	.LASF177:
 6716 18e1 43595F42 		.ascii	"CY_BLE_EVT_SET_SUGGESTED_DATA_LENGTH_COMPLETE\000"
 6716      4C455F45 
 6716      56545F53 
 6716      45545F53 
 6716      55474745 
 6717              	.LASF197:
 6718 190f 43595F42 		.ascii	"CY_BLE_EVT_GET_DEVICE_ADDR_COMPLETE\000"
 6718      4C455F45 
 6718      56545F47 
 6718      45545F44 
 6718      45564943 
 6719              	.LASF204:
 6720 1933 43595F42 		.ascii	"CY_BLE_EVT_AES_ENCRYPT_COMPLETE\000"
 6720      4C455F45 
 6720      56545F41 
 6720      45535F45 
 6720      4E435259 
 6721              	.LASF119:
 6722 1953 63707573 		.ascii	"cpussCm4ClockCtlOffset\000"
 6722      73436D34 
 6722      436C6F63 
 6722      6B43746C 
 6722      4F666673 
ARM GAS  C:\Users\dmr85\AppData\Local\Temp\ccSmIU8b.s 			page 172


 6723              	.LASF199:
 6724 196a 43595F42 		.ascii	"CY_BLE_EVT_GET_TX_PWR_COMPLETE\000"
 6724      4C455F45 
 6724      56545F47 
 6724      45545F54 
 6724      585F5057 
 6725              	.LASF25:
 6726 1989 494E5452 		.ascii	"INTR_MASKED\000"
 6726      5F4D4153 
 6726      4B454400 
 6727              	.LASF124:
 6728 1995 63707573 		.ascii	"cpussTrimRomCtlOffset\000"
 6728      73547269 
 6728      6D526F6D 
 6728      43746C4F 
 6728      66667365 
 6729              	.LASF165:
 6730 19ab 43595F42 		.ascii	"CY_BLE_EVT_TIMEOUT\000"
 6730      4C455F45 
 6730      56545F54 
 6730      494D454F 
 6730      555400
 6731              	.LASF63:
 6732 19be 6873696F 		.ascii	"hsiomVersion\000"
 6732      6D566572 
 6732      73696F6E 
 6732      00
 6733              	.LASF10:
 6734 19cb 6C6F6E67 		.ascii	"long unsigned int\000"
 6734      20756E73 
 6734      69676E65 
 6734      6420696E 
 6734      7400
 6735              	.LASF128:
 6736 19dd 63707573 		.ascii	"cpussRomCtl\000"
 6736      73526F6D 
 6736      43746C00 
 6737              	.LASF137:
 6738 19e9 666C6F61 		.ascii	"float\000"
 6738      7400
 6739              	.LASF17:
 6740 19ef 696E7433 		.ascii	"int32_t\000"
 6740      325F7400 
 6741              	.LASF209:
 6742 19f7 43595F42 		.ascii	"CY_BLE_EVT_RADIO_TEMPERATURE\000"
 6742      4C455F45 
 6742      56545F52 
 6742      4144494F 
 6742      5F54454D 
 6743              	.LASF311:
 6744 1a14 70696E4E 		.ascii	"pinNum\000"
 6744      756D00
 6745              	.LASF270:
 6746 1a1b 43595F42 		.ascii	"CY_BLE_EVT_L2CAP_COMMAND_REJ\000"
 6746      4C455F45 
 6746      56545F4C 
 6746      32434150 
ARM GAS  C:\Users\dmr85\AppData\Local\Temp\ccSmIU8b.s 			page 173


 6746      5F434F4D 
 6747              	.LASF219:
 6748 1a38 43595F42 		.ascii	"CY_BLE_EVT_GAP_PASSKEY_DISPLAY_REQUEST\000"
 6748      4C455F45 
 6748      56545F47 
 6748      41505F50 
 6748      4153534B 
 6749              	.LASF340:
 6750 1a5f 61647331 		.ascii	"ads1299_rdata32_generic\000"
 6750      3239395F 
 6750      72646174 
 6750      6133325F 
 6750      67656E65 
 6751              	.LASF2:
 6752 1a77 756E7369 		.ascii	"unsigned char\000"
 6752      676E6564 
 6752      20636861 
 6752      7200
 6753              	.LASF264:
 6754 1a85 43595F42 		.ascii	"CY_BLE_EVT_GATTS_DATA_SIGNED_CMD_REQ\000"
 6754      4C455F45 
 6754      56545F47 
 6754      41545453 
 6754      5F444154 
 6755              	.LASF9:
 6756 1aaa 5F5F7569 		.ascii	"__uint32_t\000"
 6756      6E743332 
 6756      5F7400
 6757              	.LASF46:
 6758 1ab5 4750494F 		.ascii	"GPIO_Type\000"
 6758      5F547970 
 6758      6500
 6759              	.LASF133:
 6760 1abf 6970634C 		.ascii	"ipcLockStatusOffset\000"
 6760      6F636B53 
 6760      74617475 
 6760      734F6666 
 6760      73657400 
 6761              	.LASF27:
 6762 1ad3 494E5452 		.ascii	"INTR_CFG\000"
 6762      5F434647 
 6762      00
 6763              	.LASF188:
 6764 1adc 43595F42 		.ascii	"CY_BLE_EVT_REMOVE_DEVICE_FROM_WHITE_LIST_COMPLETE\000"
 6764      4C455F45 
 6764      56545F52 
 6764      454D4F56 
 6764      455F4445 
 6765              	.LASF178:
 6766 1b0e 43595F42 		.ascii	"CY_BLE_EVT_GET_DATA_LENGTH_COMPLETE\000"
 6766      4C455F45 
 6766      56545F47 
 6766      45545F44 
 6766      4154415F 
 6767              	.LASF233:
 6768 1b32 43595F42 		.ascii	"CY_BLE_EVT_GAPC_DIRECT_ADV_REPORT\000"
 6768      4C455F45 
ARM GAS  C:\Users\dmr85\AppData\Local\Temp\ccSmIU8b.s 			page 174


 6768      56545F47 
 6768      4150435F 
 6768      44495245 
 6769              	.LASF153:
 6770 1b54 63795F73 		.ascii	"cy_stc_scb_spi_context\000"
 6770      74635F73 
 6770      63625F73 
 6770      70695F63 
 6770      6F6E7465 
 6771              	.LASF314:
 6772 1b6b 7370695F 		.ascii	"spi_data_ready\000"
 6772      64617461 
 6772      5F726561 
 6772      647900
 6773              	.LASF89:
 6774 1b7a 666C6173 		.ascii	"flashEraseDelay\000"
 6774      68457261 
 6774      73654465 
 6774      6C617900 
 6775              	.LASF245:
 6776 1b8a 43595F42 		.ascii	"CY_BLE_EVT_GATT_DISCONNECT_IND\000"
 6776      4C455F45 
 6776      56545F47 
 6776      4154545F 
 6776      44495343 
 6777              	.LASF260:
 6778 1ba9 43595F42 		.ascii	"CY_BLE_EVT_GATTC_EXEC_WRITE_RSP\000"
 6778      4C455F45 
 6778      56545F47 
 6778      41545443 
 6778      5F455845 
 6779              	.LASF329:
 6780 1bc9 7061636B 		.ascii	"packet_ptr\000"
 6780      65745F70 
 6780      747200
 6781              	.LASF246:
 6782 1bd4 43595F42 		.ascii	"CY_BLE_EVT_GATTS_XCNHG_MTU_REQ\000"
 6782      4C455F45 
 6782      56545F47 
 6782      41545453 
 6782      5F58434E 
 6783              	.LASF265:
 6784 1bf3 43595F42 		.ascii	"CY_BLE_EVT_GATTC_STOP_CMD_COMPLETE\000"
 6784      4C455F45 
 6784      56545F47 
 6784      41545443 
 6784      5F53544F 
 6785              	.LASF85:
 6786 1c16 666C6173 		.ascii	"flashRwwRequired\000"
 6786      68527777 
 6786      52657175 
 6786      69726564 
 6786      00
 6787              	.LASF218:
 6788 1c27 43595F42 		.ascii	"CY_BLE_EVT_GAP_PASSKEY_ENTRY_REQUEST\000"
 6788      4C455F45 
 6788      56545F47 
ARM GAS  C:\Users\dmr85\AppData\Local\Temp\ccSmIU8b.s 			page 175


 6788      41505F50 
 6788      4153534B 
 6789              	.LASF114:
 6790 1c4c 6770696F 		.ascii	"gpioPrtCfgOffset\000"
 6790      50727443 
 6790      66674F66 
 6790      66736574 
 6790      00
 6791              	.LASF280:
 6792 1c5d 62644861 		.ascii	"bdHandle\000"
 6792      6E646C65 
 6792      00
 6793              	.LASF348:
 6794 1c66 55415254 		.ascii	"UART_context\000"
 6794      5F636F6E 
 6794      74657874 
 6794      00
 6795              	.LASF41:
 6796 1c73 5644445F 		.ascii	"VDD_INTR_MASK\000"
 6796      494E5452 
 6796      5F4D4153 
 6796      4B00
 6797              	.LASF71:
 6798 1c81 63707573 		.ascii	"cpussIpc0Irq\000"
 6798      73497063 
 6798      30497271 
 6798      00
 6799              	.LASF1:
 6800 1c8e 7369676E 		.ascii	"signed char\000"
 6800      65642063 
 6800      68617200 
 6801              	.LASF95:
 6802 1c9a 64774368 		.ascii	"dwChOffset\000"
 6802      4F666673 
 6802      657400
 6803              	.LASF68:
 6804 1ca5 63707573 		.ascii	"cpussIpcIrqNr\000"
 6804      73497063 
 6804      4972714E 
 6804      7200
 6805              	.LASF300:
 6806 1cb3 65656764 		.ascii	"eegdata\000"
 6806      61746100 
 6807              	.LASF98:
 6808 1cbb 64774368 		.ascii	"dwChCtlPreemptablePos\000"
 6808      43746C50 
 6808      7265656D 
 6808      70746162 
 6808      6C65506F 
 6809              	.LASF257:
 6810 1cd1 43595F42 		.ascii	"CY_BLE_EVT_GATTS_WRITE_CMD_REQ\000"
 6810      4C455F45 
 6810      56545F47 
 6810      41545453 
 6810      5F575249 
 6811              	.LASF201:
 6812 1cf0 43595F42 		.ascii	"CY_BLE_EVT_GET_CLK_CONFIG_COMPLETE\000"
ARM GAS  C:\Users\dmr85\AppData\Local\Temp\ccSmIU8b.s 			page 176


 6812      4C455F45 
 6812      56545F47 
 6812      45545F43 
 6812      4C4B5F43 
 6813              	.LASF308:
 6814 1d13 43795F47 		.ascii	"Cy_GPIO_Read\000"
 6814      50494F5F 
 6814      52656164 
 6814      00
 6815              	.LASF134:
 6816 1d20 63795F73 		.ascii	"cy_stc_device_t\000"
 6816      74635F64 
 6816      65766963 
 6816      655F7400 
 6817              	.LASF65:
 6818 1d30 70657269 		.ascii	"periVersion\000"
 6818      56657273 
 6818      696F6E00 
 6819              	.LASF268:
 6820 1d3c 43595F42 		.ascii	"CY_BLE_EVT_L2CAP_CONN_PARAM_UPDATE_REQ\000"
 6820      4C455F45 
 6820      56545F4C 
 6820      32434150 
 6820      5F434F4E 
 6821              	.LASF139:
 6822 1d63 75696E74 		.ascii	"uint8\000"
 6822      3800
 6823              	.LASF138:
 6824 1d69 646F7562 		.ascii	"double\000"
 6824      6C6500
 6825              	.LASF55:
 6826 1d70 70617373 		.ascii	"passBase\000"
 6826      42617365 
 6826      00
 6827              	.LASF33:
 6828 1d79 52455345 		.ascii	"RESERVED1\000"
 6828      52564544 
 6828      3100
 6829              	.LASF74:
 6830 1d83 73727373 		.ascii	"srssNumClkpath\000"
 6830      4E756D43 
 6830      6C6B7061 
 6830      746800
 6831              	.LASF94:
 6832 1d92 666C6173 		.ascii	"flashCtlMainWs4Freq\000"
 6832      6843746C 
 6832      4D61696E 
 6832      57733446 
 6832      72657100 
 6833              	.LASF284:
 6834 1da6 43595F42 		.ascii	"CY_BLE_ADV_STATE_ADV_INITIATED\000"
 6834      4C455F41 
 6834      44565F53 
 6834      54415445 
 6834      5F414456 
 6835              	.LASF169:
 6836 1dc5 43595F42 		.ascii	"CY_BLE_EVT_FLASH_CORRUPT\000"
ARM GAS  C:\Users\dmr85\AppData\Local\Temp\ccSmIU8b.s 			page 177


 6836      4C455F45 
 6836      56545F46 
 6836      4C415348 
 6836      5F434F52 
 6837              	.LASF238:
 6838 1dde 43595F42 		.ascii	"CY_BLE_EVT_GAP_GEN_SET_LOCAL_P256_KEYS_COMPLETE\000"
 6838      4C455F45 
 6838      56545F47 
 6838      41505F47 
 6838      454E5F53 
 6839              	.LASF347:
 6840 1e0e 5350495F 		.ascii	"SPI_context\000"
 6840      636F6E74 
 6840      65787400 
 6841              	.LASF221:
 6842 1e1a 43595F42 		.ascii	"CY_BLE_EVT_GAP_AUTH_FAILED\000"
 6842      4C455F45 
 6842      56545F47 
 6842      41505F41 
 6842      5554485F 
 6843              	.LASF288:
 6844 1e35 43595F42 		.ascii	"CY_BLE_CONN_STATE_DISCONNECTED\000"
 6844      4C455F43 
 6844      4F4E4E5F 
 6844      53544154 
 6844      455F4449 
 6845              	.LASF309:
 6846 1e54 6F70636F 		.ascii	"opcode\000"
 6846      646500
 6847              	.LASF64:
 6848 1e5b 69706356 		.ascii	"ipcVersion\000"
 6848      65727369 
 6848      6F6E00
 6849              	.LASF291:
 6850 1e66 43595F42 		.ascii	"CY_BLE_CONN_STATE_CLIENT_SRVC_DISCOVERING\000"
 6850      4C455F43 
 6850      4F4E4E5F 
 6850      53544154 
 6850      455F434C 
 6851              	.LASF101:
 6852 1e90 70657269 		.ascii	"periTrCmdOffset\000"
 6852      5472436D 
 6852      644F6666 
 6852      73657400 
 6853              	.LASF144:
 6854 1ea0 72784275 		.ascii	"rxBufSize\000"
 6854      6653697A 
 6854      6500
 6855              	.LASF321:
 6856 1eaa 7265675F 		.ascii	"reg_val_to_write\000"
 6856      76616C5F 
 6856      746F5F77 
 6856      72697465 
 6856      00
 6857              	.LASF346:
 6858 1ebb 63795F62 		.ascii	"cy_ble_pendingFlashWrite\000"
 6858      6C655F70 
ARM GAS  C:\Users\dmr85\AppData\Local\Temp\ccSmIU8b.s 			page 178


 6858      656E6469 
 6858      6E67466C 
 6858      61736857 
 6859              	.LASF226:
 6860 1ed4 43595F42 		.ascii	"CY_BLE_EVT_GAP_CONNECTION_UPDATE_COMPLETE\000"
 6860      4C455F45 
 6860      56545F47 
 6860      41505F43 
 6860      4F4E4E45 
 6861              		.ident	"GCC: (GNU Tools for ARM Embedded Processors) 5.4.1 20160609 (release) [ARM/embedded-5-bran
