ARM GAS  C:\Users\dmr85\AppData\Local\Temp\ccowpT5a.s 			page 1


   1              		.syntax unified
   2              		.cpu cortex-m4
   3              		.eabi_attribute 27, 1
   4              		.fpu fpv4-sp-d16
   5              		.eabi_attribute 20, 1
   6              		.eabi_attribute 21, 1
   7              		.eabi_attribute 23, 3
   8              		.eabi_attribute 24, 1
   9              		.eabi_attribute 25, 1
  10              		.eabi_attribute 26, 1
  11              		.eabi_attribute 30, 1
  12              		.eabi_attribute 34, 1
  13              		.eabi_attribute 18, 4
  14              		.thumb
  15              		.syntax unified
  16              		.file	"ads1299.c"
  17              		.text
  18              	.Ltext0:
  19              		.cfi_sections	.debug_frame
  20              		.section	.text.ads1299_rreg,"ax",%progbits
  21              		.align	2
  22              		.global	ads1299_rreg
  23              		.thumb
  24              		.thumb_func
  25              		.type	ads1299_rreg, %function
  26              	ads1299_rreg:
  27              	.LFB539:
  28              		.file 1 "ads1299.c"
   1:ads1299.c     **** /** 
   2:ads1299.c     ****  *  \file ads1299.c
   3:ads1299.c     ****  *  \brief Some useful functions for using the ADS1299 EEG analog front-end from Texas Instruments.
   4:ads1299.c     ****  *	\details The ADS1299 is an SPI slave device. Communication with it requires at least one SPI mas
   5:ads1299.c     ****  *	\author Graham Kelly
   6:ads1299.c     ****  *	\version 1.0
   7:ads1299.c     ****  *	\date August 2014
   8:ads1299.c     ****  *
   9:ads1299.c     ****  *  All Atmel Software Framework libraries used herein are copyright Atmel and
  10:ads1299.c     ****  *  subject to their appropriate licenses, which allow free redistribution with
  11:ads1299.c     ****  *  some restrictions. These restrictions are listed in their appropriate files.
  12:ads1299.c     ****  *
  13:ads1299.c     ****  *  \page License
  14:ads1299.c     ****  *
  15:ads1299.c     ****  *  Brainboard firmware code is placed under the MIT license
  16:ads1299.c     ****  *  Copyright (c) 2014 Graham Kelly
  17:ads1299.c     ****  *
  18:ads1299.c     ****  *  Permission is hereby granted, free of charge, to any person obtaining a copy
  19:ads1299.c     ****  *  of this software and associated documentation files (the "Software"), to deal
  20:ads1299.c     ****  *  in the Software without restriction, including without limitation the rights
  21:ads1299.c     ****  *  to use, copy, modify, merge, publish, distribute, sublicense, and/or sell
  22:ads1299.c     ****  *  copies of the Software, and to permit persons to whom the Software is
  23:ads1299.c     ****  *  furnished to do so, subject to the following conditions:
  24:ads1299.c     ****  *
  25:ads1299.c     ****  *  The above copyright notice and this permission notice shall be included in
  26:ads1299.c     ****  *  all copies or substantial portions of the Software.
  27:ads1299.c     ****  *
  28:ads1299.c     ****  *  THE SOFTWARE IS PROVIDED "AS IS", WITHOUT WARRANTY OF ANY KIND, EXPRESS OR
  29:ads1299.c     ****  *  IMPLIED, INCLUDING BUT NOT LIMITED TO THE WARRANTIES OF MERCHANTABILITY,
ARM GAS  C:\Users\dmr85\AppData\Local\Temp\ccowpT5a.s 			page 2


  30:ads1299.c     ****  *  FITNESS FOR A PARTICULAR PURPOSE AND NONINFRINGEMENT. IN NO EVENT SHALL THE
  31:ads1299.c     ****  *  AUTHORS OR COPYRIGHT HOLDERS BE LIABLE FOR ANY CLAIM, DAMAGES OR OTHER
  32:ads1299.c     ****  *  LIABILITY, WHETHER IN AN ACTION OF CONTRACT, TORT OR OTHERWISE, ARISING FROM,
  33:ads1299.c     ****  *  OUT OF OR IN CONNECTION WITH THE SOFTWARE OR THE USE OR OTHER DEALINGS IN
  34:ads1299.c     ****  *  THE SOFTWARE.
  35:ads1299.c     ****  *
  36:ads1299.c     ****  */
  37:ads1299.c     **** 
  38:ads1299.c     **** #ifdef __cplusplus
  39:ads1299.c     **** extern "C" {
  40:ads1299.c     **** #endif
  41:ads1299.c     **** 
  42:ads1299.c     **** #include "ads1299.h"
  43:ads1299.c     **** 
  44:ads1299.c     **** 
  45:ads1299.c     **** /**************************************************************************************************
  46:ads1299.c     **** *               Function Definitions                                                               
  47:ads1299.c     **** ***************************************************************************************************
  48:ads1299.c     **** 
  49:ads1299.c     **** /* SYSTEM CONTROL FUNCTIONS ***********************************************************************
  50:ads1299.c     **** 
  51:ads1299.c     **** ads1299_error_t	ads1299_device_init(uint8_t chip_select, uint8_t init_regs)
  52:ads1299.c     **** {
  53:ads1299.c     **** 	#if UC3
  54:ads1299.c     **** 	/* Power cycle ADS1299 */
  55:ads1299.c     **** 	gpio_clr_gpio_pin(ADS1299_PIN_PWDN);
  56:ads1299.c     **** 	delay_us(20);
  57:ads1299.c     **** 	gpio_set_gpio_pin(ADS1299_PIN_PWDN);
  58:ads1299.c     ****     
  59:ads1299.c     ****     gpio_clr_gpio_pin(ADS1299_PIN_RESET);
  60:ads1299.c     **** 	delay_us(20);
  61:ads1299.c     **** 	gpio_set_gpio_pin(ADS1299_PIN_RESET);
  62:ads1299.c     **** 	
  63:ads1299.c     **** 	/* Allow oscillator warm-up */
  64:ads1299.c     **** 	delay_ms(1000);
  65:ads1299.c     **** 	
  66:ads1299.c     ****     
  67:ads1299.c     **** 	/* Tell chip to exit continuous data mode */
  68:ads1299.c     **** 	ads1299_send_byte(chip_select, ADS1299_OPC_SDATAC);
  69:ads1299.c     **** 
  70:ads1299.c     ****     /* Stop taking conversions; apparently not done automatically */
  71:ads1299.c     **** 	//ads1299_send_byte(chip_select, ADS1299_OPC_STOP);
  72:ads1299.c     ****  	
  73:ads1299.c     **** 	if (init_regs) 
  74:ads1299.c     **** 	{
  75:ads1299.c     **** 		/* Write to GPIO register, set all pins to driven-low output */
  76:ads1299.c     **** 		ads1299_wreg(chip_select, ADS1299_REGADDR_GPIO, ADS1299_REG_GPIO_GPIOC4_OUTPUT |
  77:ads1299.c     **** 		ADS1299_REG_GPIO_GPIOD4_LOW    |
  78:ads1299.c     **** 		ADS1299_REG_GPIO_GPIOC3_OUTPUT |
  79:ads1299.c     **** 		ADS1299_REG_GPIO_GPIOD3_LOW    |
  80:ads1299.c     **** 		ADS1299_REG_GPIO_GPIOC2_OUTPUT |
  81:ads1299.c     **** 		ADS1299_REG_GPIO_GPIOD2_LOW    |
  82:ads1299.c     **** 		ADS1299_REG_GPIO_GPIOC1_OUTPUT |
  83:ads1299.c     **** 		ADS1299_REG_GPIO_GPIOD1_LOW    );
  84:ads1299.c     **** 			
  85:ads1299.c     **** 		/* Write to CONFIG1, set data rate to 250 Hz */
  86:ads1299.c     **** 		ads1299_wreg(chip_select, ADS1299_REGADDR_CONFIG1, ADS1299_REG_CONFIG1_RESERVED_VALUE |
ARM GAS  C:\Users\dmr85\AppData\Local\Temp\ccowpT5a.s 			page 3


  87:ads1299.c     **** 		ADS1299_REG_CONFIG1_FMOD_DIV_BY_4096);
  88:ads1299.c     **** 		/* Write to CONFIG2 register, generate test signal internally */
  89:ads1299.c     **** 		ads1299_wreg(chip_select, ADS1299_REGADDR_CONFIG2, ADS1299_REG_CONFIG2_RESERVED_VALUE |
  90:ads1299.c     **** 		ADS1299_REG_CONFIG2_CAL_INT        |
  91:ads1299.c     **** 		ADS1299_REG_CONFIG2_CAL_PULSE_FCLK_DIV_2_21);
  92:ads1299.c     **** 			
  93:ads1299.c     **** 		/* Write to CONFIG3, enable internal reference buffer, bias internally generated, bias buffer ena
  94:ads1299.c     **** 		ads1299_wreg(chip_select, ADS1299_REGADDR_CONFIG3, ADS1299_REG_CONFIG3_REFBUF_ENABLED |
  95:ads1299.c     **** 		ADS1299_REG_CONFIG3_BIASREF_INT    |
  96:ads1299.c     **** 		ADS1299_REG_CONFIG3_BIASBUF_ENABLED);
  97:ads1299.c     **** 		/* Reference settling time */
  98:ads1299.c     **** 		delay_ms(150);
  99:ads1299.c     **** 			
 100:ads1299.c     **** 		/* Write to CH1 settings register, set as normal input, gain 24 */
 101:ads1299.c     **** 		ads1299_wreg(chip_select, ADS1299_REGADDR_CH1SET, ADS1299_REG_CHNSET_CHANNEL_ON			|
 102:ads1299.c     **** 		ADS1299_REG_CHNSET_GAIN_24			|
 103:ads1299.c     **** 		ADS1299_REG_CHNSET_SRB2_DISCONNECTED	|
 104:ads1299.c     **** 		ADS1299_REG_CHNSET_NORMAL_ELECTRODE);
 105:ads1299.c     **** 		/* Write to CH2 settings register, set as normal input, gain 24 */
 106:ads1299.c     **** 		ads1299_wreg(chip_select, ADS1299_REGADDR_CH2SET, ADS1299_REG_CHNSET_CHANNEL_ON			|
 107:ads1299.c     **** 		ADS1299_REG_CHNSET_GAIN_24			|
 108:ads1299.c     **** 		ADS1299_REG_CHNSET_SRB2_DISCONNECTED	|
 109:ads1299.c     **** 		ADS1299_REG_CHNSET_NORMAL_ELECTRODE);
 110:ads1299.c     **** 		/* Write to CH3 settings register, set as normal input, gain 24 */
 111:ads1299.c     **** 		ads1299_wreg(chip_select, ADS1299_REGADDR_CH3SET, ADS1299_REG_CHNSET_CHANNEL_ON			|
 112:ads1299.c     **** 		ADS1299_REG_CHNSET_GAIN_24			|
 113:ads1299.c     **** 		ADS1299_REG_CHNSET_SRB2_DISCONNECTED	|
 114:ads1299.c     **** 		ADS1299_REG_CHNSET_NORMAL_ELECTRODE);
 115:ads1299.c     **** 		/* Write to CH4 settings register, set as normal input, gain 24 */
 116:ads1299.c     **** 		ads1299_wreg(chip_select, ADS1299_REGADDR_CH4SET, ADS1299_REG_CHNSET_CHANNEL_ON			|
 117:ads1299.c     **** 		ADS1299_REG_CHNSET_GAIN_24			|
 118:ads1299.c     **** 		ADS1299_REG_CHNSET_SRB2_DISCONNECTED	|
 119:ads1299.c     **** 		ADS1299_REG_CHNSET_NORMAL_ELECTRODE);
 120:ads1299.c     **** 		/* Write to CH5 settings register, set as normal input, gain 24 */
 121:ads1299.c     **** 		ads1299_wreg(chip_select, ADS1299_REGADDR_CH5SET, ADS1299_REG_CHNSET_CHANNEL_ON			|
 122:ads1299.c     **** 		ADS1299_REG_CHNSET_GAIN_24			|
 123:ads1299.c     **** 		ADS1299_REG_CHNSET_SRB2_DISCONNECTED	|
 124:ads1299.c     **** 		ADS1299_REG_CHNSET_NORMAL_ELECTRODE);
 125:ads1299.c     **** 		/* Write to CH6 settings register, set as normal input, gain 24 */
 126:ads1299.c     **** 		ads1299_wreg(chip_select, ADS1299_REGADDR_CH6SET, ADS1299_REG_CHNSET_CHANNEL_ON			|
 127:ads1299.c     **** 		ADS1299_REG_CHNSET_GAIN_24			|
 128:ads1299.c     **** 		ADS1299_REG_CHNSET_SRB2_DISCONNECTED	|
 129:ads1299.c     **** 		ADS1299_REG_CHNSET_NORMAL_ELECTRODE);
 130:ads1299.c     **** 		/* Write to CH7 settings register, set as normal input, gain 24 */
 131:ads1299.c     **** 		ads1299_wreg(chip_select, ADS1299_REGADDR_CH7SET, ADS1299_REG_CHNSET_CHANNEL_ON			|
 132:ads1299.c     **** 		ADS1299_REG_CHNSET_GAIN_24			|
 133:ads1299.c     **** 		ADS1299_REG_CHNSET_SRB2_DISCONNECTED	|
 134:ads1299.c     **** 		ADS1299_REG_CHNSET_NORMAL_ELECTRODE);
 135:ads1299.c     **** 		/* Write to CH8 settings register, set as normal input, gain 24 */
 136:ads1299.c     **** 		ads1299_wreg(chip_select, ADS1299_REGADDR_CH8SET, ADS1299_REG_CHNSET_CHANNEL_ON			|
 137:ads1299.c     **** 		ADS1299_REG_CHNSET_GAIN_24			|
 138:ads1299.c     **** 		ADS1299_REG_CHNSET_SRB2_DISCONNECTED	|
 139:ads1299.c     **** 		ADS1299_REG_CHNSET_NORMAL_ELECTRODE);
 140:ads1299.c     **** 			
 141:ads1299.c     **** 		/* Write to MISC1 register, SRB1 on (ref electrode) */
 142:ads1299.c     **** 		ads1299_wreg(chip_select, ADS1299_REGADDR_MISC1, ADS1299_REG_MISC1_SRB1_ON);
 143:ads1299.c     **** 	} 		
ARM GAS  C:\Users\dmr85\AppData\Local\Temp\ccowpT5a.s 			page 4


 144:ads1299.c     **** 	return ADS1299_STATUS_OK;
 145:ads1299.c     **** 	#else
 146:ads1299.c     **** 	#endif /* #if UC3 */
 147:ads1299.c     **** }
 148:ads1299.c     **** 
 149:ads1299.c     **** 
 150:ads1299.c     **** 
 151:ads1299.c     **** /* REGISTER READ/WRITE FUNCTIONS ******************************************************************
 152:ads1299.c     **** 
 153:ads1299.c     **** ads1299_error_t ads1299_rreg(uint8_t chip_select, uint8_t reg_addr, uint8_t* read_reg_val_ptr)
 154:ads1299.c     **** {
  29              		.loc 1 154 0
  30              		.cfi_startproc
  31              		@ args = 0, pretend = 0, frame = 8
  32              		@ frame_needed = 0, uses_anonymous_args = 0
  33              	.LVL0:
  34 0000 F0B5     		push	{r4, r5, r6, r7, lr}
  35              		.cfi_def_cfa_offset 20
  36              		.cfi_offset 4, -20
  37              		.cfi_offset 5, -16
  38              		.cfi_offset 6, -12
  39              		.cfi_offset 7, -8
  40              		.cfi_offset 14, -4
  41 0002 83B0     		sub	sp, sp, #12
  42              		.cfi_def_cfa_offset 32
  43 0004 0546     		mov	r5, r0
  44 0006 0F46     		mov	r7, r1
  45 0008 1646     		mov	r6, r2
 155:ads1299.c     **** 	#if UC3
 156:ads1299.c     **** 	uint8_t read_data[1];
 157:ads1299.c     **** 		
 158:ads1299.c     **** 	spi_selectChip(SPI_ADDRESS, chip_select);
  46              		.loc 1 158 0
  47 000a 0F4C     		ldr	r4, .L3
  48 000c 0146     		mov	r1, r0
  49              	.LVL1:
  50 000e 2046     		mov	r0, r4
  51              	.LVL2:
  52 0010 FFF7FEFF 		bl	spi_selectChip
  53              	.LVL3:
 159:ads1299.c     **** 	
 160:ads1299.c     **** 	/* First byte: read command for specified register */
 161:ads1299.c     **** 	ads1299_send_byte_no_cs(ADS1299_OPC_RREG | reg_addr);
  54              		.loc 1 161 0
  55 0014 47F02000 		orr	r0, r7, #32
  56 0018 FFF7FEFF 		bl	ads1299_send_byte_no_cs
  57              	.LVL4:
 162:ads1299.c     **** 	
 163:ads1299.c     **** 	/* Second byte: Read only 1 register (send n-1, where n is number of registers to read) */
 164:ads1299.c     **** 	ads1299_send_byte_no_cs(0x00);
  58              		.loc 1 164 0
  59 001c 0020     		movs	r0, #0
  60 001e FFF7FEFF 		bl	ads1299_send_byte_no_cs
  61              	.LVL5:
 165:ads1299.c     **** 	
 166:ads1299.c     **** 	/* Dummy byte to clock in data */
 167:ads1299.c     **** 	ads1299_send_byte_no_cs(DUMMY_BYTE);
ARM GAS  C:\Users\dmr85\AppData\Local\Temp\ccowpT5a.s 			page 5


  62              		.loc 1 167 0
  63 0022 0020     		movs	r0, #0
  64 0024 FFF7FEFF 		bl	ads1299_send_byte_no_cs
  65              	.LVL6:
 168:ads1299.c     **** 	
 169:ads1299.c     **** 	delay_us(10);
  66              		.loc 1 169 0
  67 0028 0A20     		movs	r0, #10
  68 002a FFF7FEFF 		bl	delay_us
  69              	.LVL7:
 170:ads1299.c     **** 	spi_unselectChip(SPI_ADDRESS, chip_select);
  70              		.loc 1 170 0
  71 002e 2946     		mov	r1, r5
  72 0030 2046     		mov	r0, r4
  73 0032 FFF7FEFF 		bl	spi_unselectChip
  74              	.LVL8:
 171:ads1299.c     **** 	
 172:ads1299.c     **** 	/* Read SPI RX register */
 173:ads1299.c     **** 	spi_get(SPI_ADDRESS, read_data);
  75              		.loc 1 173 0
  76 0036 01AD     		add	r5, sp, #4
  77 0038 2946     		mov	r1, r5
  78 003a 2046     		mov	r0, r4
  79 003c FFF7FEFF 		bl	spi_get
  80              	.LVL9:
 174:ads1299.c     **** 	*read_reg_val_ptr = (uint8_t) read_data;	
  81              		.loc 1 174 0
  82 0040 3570     		strb	r5, [r6]
 175:ads1299.c     **** 		
 176:ads1299.c     **** 	return ADS1299_STATUS_OK;
 177:ads1299.c     **** 	#else
 178:ads1299.c     **** 	#endif /* #if UC3 */
 179:ads1299.c     **** }
  83              		.loc 1 179 0
  84 0042 0020     		movs	r0, #0
  85 0044 03B0     		add	sp, sp, #12
  86              		.cfi_def_cfa_offset 20
  87              		@ sp needed
  88 0046 F0BD     		pop	{r4, r5, r6, r7, pc}
  89              	.LVL10:
  90              	.L4:
  91              		.align	2
  92              	.L3:
  93 0048 00000000 		.word	spi
  94              		.cfi_endproc
  95              	.LFE539:
  96              		.size	ads1299_rreg, .-ads1299_rreg
  97              		.section	.text.ads1299_wreg,"ax",%progbits
  98              		.align	2
  99              		.global	ads1299_wreg
 100              		.thumb
 101              		.thumb_func
 102              		.type	ads1299_wreg, %function
 103              	ads1299_wreg:
 104              	.LFB540:
 180:ads1299.c     **** 
 181:ads1299.c     **** ads1299_error_t ads1299_wreg(uint8_t chip_select, uint8_t reg_addr, uint8_t reg_val_to_write)
ARM GAS  C:\Users\dmr85\AppData\Local\Temp\ccowpT5a.s 			page 6


 182:ads1299.c     **** {
 105              		.loc 1 182 0
 106              		.cfi_startproc
 107              		@ args = 0, pretend = 0, frame = 0
 108              		@ frame_needed = 0, uses_anonymous_args = 0
 109              	.LVL11:
 110 0000 F8B5     		push	{r3, r4, r5, r6, r7, lr}
 111              		.cfi_def_cfa_offset 24
 112              		.cfi_offset 3, -24
 113              		.cfi_offset 4, -20
 114              		.cfi_offset 5, -16
 115              		.cfi_offset 6, -12
 116              		.cfi_offset 7, -8
 117              		.cfi_offset 14, -4
 118 0002 0546     		mov	r5, r0
 119 0004 0F46     		mov	r7, r1
 120 0006 1646     		mov	r6, r2
 183:ads1299.c     **** 	#if UC3
 184:ads1299.c     **** 	spi_selectChip(SPI_ADDRESS, chip_select);
 121              		.loc 1 184 0
 122 0008 0A4C     		ldr	r4, .L7
 123 000a 0146     		mov	r1, r0
 124              	.LVL12:
 125 000c 2046     		mov	r0, r4
 126              	.LVL13:
 127 000e FFF7FEFF 		bl	spi_selectChip
 128              	.LVL14:
 185:ads1299.c     **** 	
 186:ads1299.c     **** 	/* First byte: write command for specified register */
 187:ads1299.c     **** 	ads1299_send_byte_no_cs(ADS1299_OPC_WREG | reg_addr);
 129              		.loc 1 187 0
 130 0012 47F04000 		orr	r0, r7, #64
 131 0016 FFF7FEFF 		bl	ads1299_send_byte_no_cs
 132              	.LVL15:
 188:ads1299.c     **** 	
 189:ads1299.c     **** 	/* Second byte: number of registers to write (1) */
 190:ads1299.c     **** 	ads1299_send_byte_no_cs(0x01);
 133              		.loc 1 190 0
 134 001a 0120     		movs	r0, #1
 135 001c FFF7FEFF 		bl	ads1299_send_byte_no_cs
 136              	.LVL16:
 191:ads1299.c     **** 
 192:ads1299.c     **** 	/* Third byte: write register value */
 193:ads1299.c     **** 	ads1299_send_byte_no_cs(reg_val_to_write);
 137              		.loc 1 193 0
 138 0020 3046     		mov	r0, r6
 139 0022 FFF7FEFF 		bl	ads1299_send_byte_no_cs
 140              	.LVL17:
 194:ads1299.c     **** 		
 195:ads1299.c     **** 	spi_unselectChip(SPI_ADDRESS, chip_select);
 141              		.loc 1 195 0
 142 0026 2946     		mov	r1, r5
 143 0028 2046     		mov	r0, r4
 144 002a FFF7FEFF 		bl	spi_unselectChip
 145              	.LVL18:
 196:ads1299.c     **** 		
 197:ads1299.c     **** 	return ADS1299_STATUS_OK;
ARM GAS  C:\Users\dmr85\AppData\Local\Temp\ccowpT5a.s 			page 7


 198:ads1299.c     **** 	#else
 199:ads1299.c     **** 	#endif /* #if UC3 */
 200:ads1299.c     **** }
 146              		.loc 1 200 0
 147 002e 0020     		movs	r0, #0
 148 0030 F8BD     		pop	{r3, r4, r5, r6, r7, pc}
 149              	.L8:
 150 0032 00BF     		.align	2
 151              	.L7:
 152 0034 00000000 		.word	spi
 153              		.cfi_endproc
 154              	.LFE540:
 155              		.size	ads1299_wreg, .-ads1299_wreg
 156              		.section	.text.ads1299_device_init,"ax",%progbits
 157              		.align	2
 158              		.global	ads1299_device_init
 159              		.thumb
 160              		.thumb_func
 161              		.type	ads1299_device_init, %function
 162              	ads1299_device_init:
 163              	.LFB538:
  52:ads1299.c     **** 	#if UC3
 164              		.loc 1 52 0
 165              		.cfi_startproc
 166              		@ args = 0, pretend = 0, frame = 0
 167              		@ frame_needed = 0, uses_anonymous_args = 0
 168              	.LVL19:
 169 0000 70B5     		push	{r4, r5, r6, lr}
 170              		.cfi_def_cfa_offset 16
 171              		.cfi_offset 4, -16
 172              		.cfi_offset 5, -12
 173              		.cfi_offset 6, -8
 174              		.cfi_offset 14, -4
 175 0002 0446     		mov	r4, r0
 176 0004 0E46     		mov	r6, r1
  55:ads1299.c     **** 	delay_us(20);
 177              		.loc 1 55 0
 178 0006 0120     		movs	r0, #1
 179              	.LVL20:
 180 0008 FFF7FEFF 		bl	gpio_clr_gpio_pin
 181              	.LVL21:
  56:ads1299.c     **** 	gpio_set_gpio_pin(ADS1299_PIN_PWDN);
 182              		.loc 1 56 0
 183 000c 1420     		movs	r0, #20
 184 000e FFF7FEFF 		bl	delay_us
 185              	.LVL22:
  57:ads1299.c     ****     
 186              		.loc 1 57 0
 187 0012 0120     		movs	r0, #1
 188 0014 FFF7FEFF 		bl	gpio_set_gpio_pin
 189              	.LVL23:
  59:ads1299.c     **** 	delay_us(20);
 190              		.loc 1 59 0
 191 0018 0420     		movs	r0, #4
 192 001a FFF7FEFF 		bl	gpio_clr_gpio_pin
 193              	.LVL24:
  60:ads1299.c     **** 	gpio_set_gpio_pin(ADS1299_PIN_RESET);
ARM GAS  C:\Users\dmr85\AppData\Local\Temp\ccowpT5a.s 			page 8


 194              		.loc 1 60 0
 195 001e 1420     		movs	r0, #20
 196 0020 FFF7FEFF 		bl	delay_us
 197              	.LVL25:
  61:ads1299.c     **** 	
 198              		.loc 1 61 0
 199 0024 0420     		movs	r0, #4
 200 0026 FFF7FEFF 		bl	gpio_set_gpio_pin
 201              	.LVL26:
  64:ads1299.c     **** 	
 202              		.loc 1 64 0
 203 002a 4FF47A70 		mov	r0, #1000
 204 002e FFF7FEFF 		bl	delay_ms
 205              	.LVL27:
 206              	.LBB10:
 207              	.LBB11:
 208              		.file 2 "ads1299.h"
   1:ads1299.h     **** /**
   2:ads1299.h     ****  *  \file ads1299.h
   3:ads1299.h     ****  *  \brief Configuration settings, register definitions, and function prototypes for using the ADS1
   4:ads1299.h     ****  *	\author Graham Kelly
   5:ads1299.h     ****  *	\version 1.0
   6:ads1299.h     ****  *	\date August 2014
   7:ads1299.h     ****  *
   8:ads1299.h     ****  *  All Atmel Software Framework libraries used herein are copyright Atmel and
   9:ads1299.h     ****  *  subject to their appropriate licenses, which allow free redistribution with
  10:ads1299.h     ****  *  some restrictions. These restrictions are listed in their appropriate files.
  11:ads1299.h     ****  *
  12:ads1299.h     ****  *  \page License
  13:ads1299.h     ****  *
  14:ads1299.h     ****  *  Brainboard firmware code is placed under the MIT license
  15:ads1299.h     ****  *  Copyright (c) 2014 Graham Kelly
  16:ads1299.h     ****  *
  17:ads1299.h     ****  *  Permission is hereby granted, free of charge, to any person obtaining a copy
  18:ads1299.h     ****  *  of this software and associated documentation files (the "Software"), to deal
  19:ads1299.h     ****  *  in the Software without restriction, including without limitation the rights
  20:ads1299.h     ****  *  to use, copy, modify, merge, publish, distribute, sublicense, and/or sell
  21:ads1299.h     ****  *  copies of the Software, and to permit persons to whom the Software is
  22:ads1299.h     ****  *  furnished to do so, subject to the following conditions:
  23:ads1299.h     ****  *
  24:ads1299.h     ****  *  The above copyright notice and this permission notice shall be included in
  25:ads1299.h     ****  *  all copies or substantial portions of the Software.
  26:ads1299.h     ****  *
  27:ads1299.h     ****  *  THE SOFTWARE IS PROVIDED "AS IS", WITHOUT WARRANTY OF ANY KIND, EXPRESS OR
  28:ads1299.h     ****  *  IMPLIED, INCLUDING BUT NOT LIMITED TO THE WARRANTIES OF MERCHANTABILITY,
  29:ads1299.h     ****  *  FITNESS FOR A PARTICULAR PURPOSE AND NONINFRINGEMENT. IN NO EVENT SHALL THE
  30:ads1299.h     ****  *  AUTHORS OR COPYRIGHT HOLDERS BE LIABLE FOR ANY CLAIM, DAMAGES OR OTHER
  31:ads1299.h     ****  *  LIABILITY, WHETHER IN AN ACTION OF CONTRACT, TORT OR OTHERWISE, ARISING FROM,
  32:ads1299.h     ****  *  OUT OF OR IN CONNECTION WITH THE SOFTWARE OR THE USE OR OTHER DEALINGS IN
  33:ads1299.h     ****  *  THE SOFTWARE.
  34:ads1299.h     ****  *
  35:ads1299.h     ****  */
  36:ads1299.h     **** 
  37:ads1299.h     **** #ifndef _ADS1299_H_
  38:ads1299.h     **** #define _ADS1299_H_
  39:ads1299.h     **** 
  40:ads1299.h     **** #ifdef __cplusplus
ARM GAS  C:\Users\dmr85\AppData\Local\Temp\ccowpT5a.s 			page 9


  41:ads1299.h     **** extern "C" {
  42:ads1299.h     **** #endif
  43:ads1299.h     **** 
  44:ads1299.h     **** 
  45:ads1299.h     **** //#include "comms.h"
  46:ads1299.h     **** //#include <spi_master.h>
  47:ads1299.h     **** //#include <gpio.h>
  48:ads1299.h     **** //#include <delay.h>
  49:ads1299.h     **** #include <project.h>
  50:ads1299.h     **** #include "ads1299_spi_adapt.h"
  51:ads1299.h     **** #include "comms.h"
  52:ads1299.h     **** 
  53:ads1299.h     **** /**************************************************************************************************
  54:ads1299.h     ****  *               Sampling Config                                                                   
  55:ads1299.h     ****  **************************************************************************************************
  56:ads1299.h     **** 
  57:ads1299.h     **** /**
  58:ads1299.h     ****  *  \brief Default data rate from the ADS1299.
  59:ads1299.h     ****  *
  60:ads1299.h     ****  *	To monitor electrode impedance continuously, an AC current is pulsed through each electrode and 
  61:ads1299.h     ****  *  voltage perturbation observed in the measured signal. This signal will not be easily separable 
  62:ads1299.h     ****  *  is within the typical 0-100 Hz EEG bandwidth; since the fastest possible AC excitation rate the
  63:ads1299.h     ****  *  generate is (data rate)/4, the lowest recommended data rate that allows continuous impedance mo
  64:ads1299.h     ****  *  Using a 500 Hz data rate will generate an AC excitation at 125 Hz, which is dangerously close t
  65:ads1299.h     ****  *  the EEG band.
  66:ads1299.h     ****  */
  67:ads1299.h     **** #define DEFAULT_SAMPLE_RATE			250
  68:ads1299.h     **** 
  69:ads1299.h     **** 
  70:ads1299.h     **** /**************************************************************************************************
  71:ads1299.h     **** *               Other Useful Definitions                                                           
  72:ads1299.h     **** ***************************************************************************************************
  73:ads1299.h     **** 
  74:ads1299.h     **** 
  75:ads1299.h     **** #define SIGN_EXT_24(VAL)						((int32_t)((uint32_t)(VAL) ^ (1UL<<(23))) - (1L<<(23)))
  76:ads1299.h     **** 
  77:ads1299.h     **** /* Default register values */
  78:ads1299.h     **** #define ADS1299_REGDEFAULT_ID			ADS1299_DEVICE_ID
  79:ads1299.h     **** #define ADS1299_REGDEFAULT_CONFIG1		0x96			///< Multiple readback mode, OSC output disabled, DR = F
  80:ads1299.h     **** #define ADS1299_REGDEFAULT_CONFIG2		0xD0			///< Test signal sourced internally, low-amplitude test 
  81:ads1299.h     **** #define ADS1299_REGDEFAULT_CONFIG3		0x68			///< Ref buffer off, bias measurement off, internal bias
  82:ads1299.h     **** #define ADS1299_REGDEFAULT_LOFF			0x00			///< 95%/5% LOFF comparator threshold, DC lead-off at 6 nA
  83:ads1299.h     **** #define ADS1299_REGDEFAULT_CHNSET		0xE0			///< Channel off, gain 24, SRB2 disconnected, normal elec
  84:ads1299.h     **** #define ADS1299_REGDEFAULT_BIAS_SENSP	0x00			///< All BIAS channels disconnected from positive lead
  85:ads1299.h     **** #define ADS1299_REGDEFAULT_BIAS_SENSN	0x00			///< All BIAS channels disconnected from negative lead
  86:ads1299.h     **** #define ADS1299_REGDEFAULT_LOFF_SENSP	0x00			///< All LOFF channels disconnected from positive lead
  87:ads1299.h     **** #define ADS1299_REGDEFAULT_LOFF_SENSN	0x00			///< All LOFF channels disconnected from negative lead
  88:ads1299.h     **** #define ADS1299_REGDEFAULT_LOFF_FLIP	0x00			///< No flipping in this house; source/pull-up at INP, 
  89:ads1299.h     **** #define ADS1299_REGDEFAULT_LOFF_STATP	0x00			///< This is a read-only register; reset value is 0x00
  90:ads1299.h     **** #define ADS1299_REGDEFAULT_LOFF_STATN	0x00			///< This is a read-only register; reset value is 0x00
  91:ads1299.h     **** #define ADS1299_REGDEFAULT_GPIO			0x0F			///< All GPIO set to inputs
  92:ads1299.h     **** #define ADS1299_REGDEFAULT_MISC1		0x00			///< SRB1 disconnected
  93:ads1299.h     **** #define ADS1299_REGDEFAULT_MISC2		0x00			///< Register not used in this silicon; should stay at 0x0
  94:ads1299.h     **** #define ADS1299_REGDEFAULT_CONFIG4		0x00			///< Continuous conversion, LOFF comparator powered down
  95:ads1299.h     **** 	
  96:ads1299.h     **** 
  97:ads1299.h     **** /**************************************************************************************************
ARM GAS  C:\Users\dmr85\AppData\Local\Temp\ccowpT5a.s 			page 10


  98:ads1299.h     **** *               Typedefs and Struct Declarations/Definitions                                       
  99:ads1299.h     **** ***************************************************************************************************
 100:ads1299.h     **** 
 101:ads1299.h     **** /**
 102:ads1299.h     ****  *	\brief Error codes for interacting with the ADS1299.
 103:ads1299.h     ****  *
 104:ads1299.h     ****  */
 105:ads1299.h     **** typedef enum
 106:ads1299.h     **** {
 107:ads1299.h     **** 	ADS1299_STATUS_OK				= 0,		///< No error.
 108:ads1299.h     **** 	ADS1299_ERROR_SPI_TIMEOUT		= 1,		///< SPI timed out. Check SPI configuration and hardware connecti
 109:ads1299.h     **** 	/* Expand with other codes if desired */
 110:ads1299.h     **** } ads1299_error_t;
 111:ads1299.h     **** 
 112:ads1299.h     **** /**
 113:ads1299.h     ****  *	\brief ADS1299 register addresses.
 114:ads1299.h     ****  *
 115:ads1299.h     ****  * Consult the ADS1299 datasheet and user's guide for more information.
 116:ads1299.h     ****  */
 117:ads1299.h     **** #define	ADS1299_REGADDR_ID			 0x00			///< Chip ID register. Read-only. ID[4:0] should be 11110.
 118:ads1299.h     **** #define	ADS1299_REGADDR_CONFIG1		 0x01			///< Configuration register 1. Controls daisy-chain mode; 
 119:ads1299.h     **** #define	ADS1299_REGADDR_CONFIG2		 0x02			///< Configuration register 2. Controls calibration signal
 120:ads1299.h     **** #define	ADS1299_REGADDR_CONFIG3		 0x03			///< Configuration register 3. Controls reference buffer p
 121:ads1299.h     **** #define	ADS1299_REGADDR_LOFF		 0x04			///< Lead-off control register. Controls lead-off frequency, 
 122:ads1299.h     **** #define	ADS1299_REGADDR_CH1SET		 0x05			///< Channel 1 settings register. Controls channel 1 input 
 123:ads1299.h     **** #define	ADS1299_REGADDR_CH2SET		 0x06			///< Channel 2 settings register. Controls channel 2 input 
 124:ads1299.h     **** #define	ADS1299_REGADDR_CH3SET		 0x07			///< Channel 3 settings register. Controls channel 3 input 
 125:ads1299.h     **** #define	ADS1299_REGADDR_CH4SET		 0x08			///< Channel 4 settings register. Controls channel 4 input 
 126:ads1299.h     **** #define	ADS1299_REGADDR_CH5SET		 0x09			///< Channel 5 settings register. Controls channel 5 input 
 127:ads1299.h     **** #define	ADS1299_REGADDR_CH6SET		 0x0A			///< Channel 6 settings register. Controls channel 6 input 
 128:ads1299.h     **** #define	ADS1299_REGADDR_CH7SET		 0x0B			///< Channel 7 settings register. Controls channel 7 input 
 129:ads1299.h     **** #define	ADS1299_REGADDR_CH8SET		 0x0C			///< Channel 8 settings register. Controls channel 8 input 
 130:ads1299.h     **** #define	ADS1299_REGADDR_BIAS_SENSP	 0x0D			///< Bias drive positive sense selection. Selects channe
 131:ads1299.h     **** #define	ADS1299_REGADDR_BIAS_SENSN	 0x0E			///< Bias drive negative sense selection. Selects channe
 132:ads1299.h     **** #define	ADS1299_REGADDR_LOFF_SENSP	 0x0F			///< Lead-off positive sense selection. Selects channels
 133:ads1299.h     **** #define	ADS1299_REGADDR_LOFF_SENSN	 0x10			///< Lead-off negative sense selection. Selects channels
 134:ads1299.h     **** #define	ADS1299_REGADDR_LOFF_FLIP	 0x11			///< 1: Swaps lead-off current source and sink on the cor
 135:ads1299.h     **** #define	ADS1299_REGADDR_LOFF_STATP	 0x12			///< Lead-off positive side status register. Read-only. 
 136:ads1299.h     **** #define	ADS1299_REGADDR_LOFF_STATN	 0x13			///< Lead-off negative side status register. Read-only. 
 137:ads1299.h     **** #define	ADS1299_REGADDR_GPIO		 0x14			///< GPIO register. Controls state and direction of the ADS12
 138:ads1299.h     **** #define	ADS1299_REGADDR_MISC1		 0x15			///< Miscellaneous 1. Connects/disconnects SRB1 to all chann
 139:ads1299.h     **** #define	ADS1299_REGADDR_MISC2		 0x16			///< Miscellaneous 2. No functionality in current revision o
 140:ads1299.h     **** #define	ADS1299_REGADDR_CONFIG4		 0x17			///< Configuration register 4. Enables/disables single-sho
 141:ads1299.h     **** 
 142:ads1299.h     **** /**
 143:ads1299.h     ****  *	\brief ADS1299 SPI communication opcodes.
 144:ads1299.h     ****  *	
 145:ads1299.h     ****  * Consult the ADS1299 datasheet and user's guide for more information.
 146:ads1299.h     ****  * For RREG and WREG opcodes, the first byte (opcode) must be ORed with the address of the register
 147:ads1299.h     ****  * The command is completed with a second byte 000n nnnn, where n nnnn is (# registers to read) - 1
 148:ads1299.h     ****  */
 149:ads1299.h     **** #define	ADS1299_OPC_WAKEUP		 0x02			///< Wake up from standby.
 150:ads1299.h     **** #define	ADS1299_OPC_STANDBY		 0x04			///< Enter standby.
 151:ads1299.h     **** #define	ADS1299_OPC_RESET		 0x06			///< Reset all registers.	
 152:ads1299.h     **** #define	ADS1299_OPC_START		 0x08			///< Start data conversions.
 153:ads1299.h     **** #define	ADS1299_OPC_STOP		 0x0A			///< Stop data conversions.
 154:ads1299.h     **** 	
ARM GAS  C:\Users\dmr85\AppData\Local\Temp\ccowpT5a.s 			page 11


 155:ads1299.h     **** #define	ADS1299_OPC_RDATAC		 0x10			///< Read data continuously (registers cannot be read or writte
 156:ads1299.h     **** #define	ADS1299_OPC_SDATAC		 0x11			///< Stop continuous data read.
 157:ads1299.h     **** #define	ADS1299_OPC_RDATA		 0x12			///< Read single data value.
 158:ads1299.h     **** 	
 159:ads1299.h     **** #define	ADS1299_OPC_RREG		 0x20			///< Read register value.
 160:ads1299.h     **** #define	ADS1299_OPC_WREG		 0x40			///< Write register value.
 161:ads1299.h     **** 
 162:ads1299.h     **** /* ID REGISTER ************************************************************************************
 163:ads1299.h     **** 
 164:ads1299.h     **** /**
 165:ads1299.h     ****  *  \brief Factory-programmed device ID for ADS1299, stored in ID[3:0].
 166:ads1299.h     ****  */ 
 167:ads1299.h     **** // Factory-programmed device ID for ADS1299. Stored in ID[3:0].
 168:ads1299.h     **** #define ADS1299_DEVICE_ID		0b1110
 169:ads1299.h     **** 
 170:ads1299.h     **** /* CONFIG1 REGISTER *******************************************************************************
 171:ads1299.h     **** 
 172:ads1299.h     **** /**
 173:ads1299.h     ****  *  \brief Bit location and size definitions for CONFIG1.CLK_EN bit (oscillator output on CLK pin e
 174:ads1299.h     ****  *
 175:ads1299.h     ****  * Consult the ADS1299 datasheet, page 40, for more information.
 176:ads1299.h     ****  */
 177:ads1299.h     **** #define ADS1299_REG_CONFIG1_CLOCK_OUTPUT_DISABLED	 (0<<5)
 178:ads1299.h     **** #define ADS1299_REG_CONFIG1_CLOCK_OUTPUT_ENABLED	 (1<<5)
 179:ads1299.h     **** 
 180:ads1299.h     **** /**
 181:ads1299.h     ****  *  \brief Bit location and size definitions for CONFIG1.DAISY_EN bit.
 182:ads1299.h     ****  *
 183:ads1299.h     ****  * Consult the ADS1299 datasheet, pp. 40 and 31-34, for more information.
 184:ads1299.h     ****  */
 185:ads1299.h     **** #define ADS1299_REG_CONFIG1_DAISY_CHAIN_MODE		 (0<<6)
 186:ads1299.h     **** #define ADS1299_REG_CONFIG1_MULTI_READBACK_MODE		 (1<<6)
 187:ads1299.h     **** 
 188:ads1299.h     **** /**
 189:ads1299.h     ****  *  \brief Bit mask definitions for CONFIG1.DR (data rate).
 190:ads1299.h     ****  *
 191:ads1299.h     ****  * FMOD = FCLK/2, where FCLK is the clock frequency of the ADS1299. This is normally 2.048 MHz.
 192:ads1299.h     ****  */
 193:ads1299.h     **** #define	ADS1299_REG_CONFIG1_FMOD_DIV_BY_64			 0		///< Data is output at FMOD/64, or 16 kHz at 2.048
 194:ads1299.h     **** #define	ADS1299_REG_CONFIG1_FMOD_DIV_BY_128			 1		///< Data is output at FMOD/128, or 8 kHz at 2.04
 195:ads1299.h     **** #define	ADS1299_REG_CONFIG1_FMOD_DIV_BY_256			 2		///< Data is output at FMOD/256, or 4 kHz at 2.04
 196:ads1299.h     **** #define	ADS1299_REG_CONFIG1_FMOD_DIV_BY_512			 3		///< Data is output at FMOD/512, or 2 kHz at 2.04
 197:ads1299.h     **** #define	ADS1299_REG_CONFIG1_FMOD_DIV_BY_1024		 4		///< Data is output at FMOD/1024, or 1 kHz at 2.0
 198:ads1299.h     **** #define	ADS1299_REG_CONFIG1_FMOD_DIV_BY_2048		 5		///< Data is output at FMOD/2048, or 500 Hz at 2.
 199:ads1299.h     **** #define	ADS1299_REG_CONFIG1_FMOD_DIV_BY_4096		 6		///< Data is output at FMOD/4096, or 250 Hz at 2.
 200:ads1299.h     **** 
 201:ads1299.h     **** /**
 202:ads1299.h     ****  *  \brief Combined value of reserved bits in CONFIG1 register.
 203:ads1299.h     ****  *
 204:ads1299.h     ****  * Consult the ADS1299 datasheet, page 40, for more information.
 205:ads1299.h     ****  */
 206:ads1299.h     **** #define ADS1299_REG_CONFIG1_RESERVED_VALUE			(1<<7)|(1<<4)
 207:ads1299.h     **** 
 208:ads1299.h     **** /* CONFIG2 REGISTER *******************************************************************************
 209:ads1299.h     **** 
 210:ads1299.h     **** /**
 211:ads1299.h     ****  *  \brief Bit mask definitions for CONFIG2.CAL_FREQ (calibration signal frequency).
ARM GAS  C:\Users\dmr85\AppData\Local\Temp\ccowpT5a.s 			page 12


 212:ads1299.h     ****  *
 213:ads1299.h     ****  * FCLK is the clock frequency of the ADS1299. This is normally 2.048 MHz.
 214:ads1299.h     ****  */
 215:ads1299.h     **** #define	ADS1299_REG_CONFIG2_CAL_PULSE_FCLK_DIV_2_21		0		///< Calibration signal pulsed at FCLK/2^21
 216:ads1299.h     **** #define	ADS1299_REG_CONFIG2_CAL_PULSE_FCLK_DIV_2_20		1		///< Calibration signal pulsed at FCLK/2^20
 217:ads1299.h     **** #define	ADS1299_REG_CONFIG2_CAL_DC						3		///< Calibration signal is not pulsed.
 218:ads1299.h     **** 
 219:ads1299.h     **** 
 220:ads1299.h     **** /**
 221:ads1299.h     ****  *  \brief Bit mask definitions for CONFIG2.CAL_AMP0 (calibration signal amplitude).
 222:ads1299.h     ****  */
 223:ads1299.h     **** #define	ADS1299_REG_CONFIG2_CAL_AMP_VREF_DIV_2_4_MV		(0<<2)		///< Calibration signal amplitude is 1
 224:ads1299.h     **** #define	ADS1299_REG_CONFIG2_CAL_AMP_2VREF_DIV_2_4_MV	(1<<2)		///< Calibration signal amplitude is 2
 225:ads1299.h     **** 
 226:ads1299.h     **** /**
 227:ads1299.h     ****  *  \brief Bit mask definitions for CONFIG2.INT_CAL (calibration signal source).
 228:ads1299.h     ****  */
 229:ads1299.h     **** #define	ADS1299_REG_CONFIG2_CAL_EXT						(0<<4)		///< Calibration signal is driven externally.
 230:ads1299.h     **** #define	ADS1299_REG_CONFIG2_CAL_INT						(1<<4)		///< Calibration signal is driven internally.
 231:ads1299.h     **** 
 232:ads1299.h     **** /**
 233:ads1299.h     ****  *  \brief Combined value of reserved bits in CONFIG2 register.
 234:ads1299.h     ****  *
 235:ads1299.h     ****  * Consult the ADS1299 datasheet, page 41, for more information.
 236:ads1299.h     ****  */
 237:ads1299.h     **** #define	ADS1299_REG_CONFIG2_RESERVED_VALUE				(6<<5)
 238:ads1299.h     **** 
 239:ads1299.h     **** 
 240:ads1299.h     **** /* CONFIG3 REGISTER *******************************************************************************
 241:ads1299.h     **** 
 242:ads1299.h     **** /**
 243:ads1299.h     ****  *  \brief Bit mask definitions for CONFIG3.PD_REFBUF (internal voltage reference buffer enable/dis
 244:ads1299.h     ****  *
 245:ads1299.h     ****  * Note that disabling the buffer for the internal voltage reference requires that a reference volt
 246:ads1299.h     ****  * must be externally applied on VREFP for proper operation. This is not related to the reference E
 247:ads1299.h     ****  * buffer, which is an external op-amp on the PCB. Brainboard does not apply a voltage to VREFP, an
 248:ads1299.h     ****  * the buffer must be enabled.
 249:ads1299.h     ****  */
 250:ads1299.h     **** #define	ADS1299_REG_CONFIG3_REFBUF_DISABLED			(0<<7)
 251:ads1299.h     **** #define	ADS1299_REG_CONFIG3_REFBUF_ENABLED			(1<<7)
 252:ads1299.h     **** 
 253:ads1299.h     **** /**
 254:ads1299.h     ****  *  \brief Bit mask definitions for CONFIG3.BIAS_MEAS (enable or disable bias measurement through B
 255:ads1299.h     ****  */
 256:ads1299.h     **** #define	ADS1299_REG_CONFIG3_BIAS_MEAS_DISABLED			(0<<4)
 257:ads1299.h     **** #define	ADS1299_REG_CONFIG3_BIAS_MEAS_ENABLED			(1<<4)
 258:ads1299.h     **** 
 259:ads1299.h     **** /**
 260:ads1299.h     ****  *  \brief Bit mask definitions for CONFIG3.BIASREF_INT (bias reference internally or externally ge
 261:ads1299.h     ****  */
 262:ads1299.h     **** #define	ADS1299_REG_CONFIG3_BIASREF_EXT					(0<<3)
 263:ads1299.h     **** #define	ADS1299_REG_CONFIG3_BIASREF_INT					(1<<3)
 264:ads1299.h     **** 
 265:ads1299.h     **** /**
 266:ads1299.h     ****  *  \brief Bit mask definitions for CONFIG3.PD_BIAS (power-down or enable bias buffer amplifier).
 267:ads1299.h     ****  */
 268:ads1299.h     **** #define	ADS1299_REG_CONFIG3_BIASBUF_DISABLED			(0<<2)
ARM GAS  C:\Users\dmr85\AppData\Local\Temp\ccowpT5a.s 			page 13


 269:ads1299.h     **** #define	ADS1299_REG_CONFIG3_BIASBUF_ENABLED				(1<<2)
 270:ads1299.h     **** 
 271:ads1299.h     **** /**
 272:ads1299.h     ****  *  \brief Bit mask definitions for CONFIG3.BIAS_LOFF_SENS (detection of bias lead-off en/disable).
 273:ads1299.h     ****  */
 274:ads1299.h     **** #define	ADS1299_REG_CONFIG3_BIAS_LOFF_SENSE_DISABLED	(0<<1)
 275:ads1299.h     **** #define ADS1299_REG_CONFIG3_BIAS_LOFF_SENSE_ENABLED		(1<<1)
 276:ads1299.h     **** 
 277:ads1299.h     **** /**
 278:ads1299.h     ****  *  \brief Combined value of reserved bits in CONFIG3 register.
 279:ads1299.h     ****  *
 280:ads1299.h     ****  * Consult the ADS1299 datasheet, page 42, for more information.
 281:ads1299.h     ****  */
 282:ads1299.h     **** #define ADS1299_REG_CONFIG3_RESERVED_VALUE				(3<<5)
 283:ads1299.h     **** 
 284:ads1299.h     **** /* CONFIG4 REGISTER *******************************************************************************
 285:ads1299.h     **** 
 286:ads1299.h     **** /**
 287:ads1299.h     ****  *  \brief Bit mask definitions for CONFIG4.SINGLE_SHOT (single-shot or continuous conversion setti
 288:ads1299.h     ****  *
 289:ads1299.h     ****  * This can more easily be set with the RDATAC/SDATAC opcodes.
 290:ads1299.h     ****  */
 291:ads1299.h     **** #define ADS1299_REG_CONFIG4_CONTINUOUS_CONVERSION_MODE		(0<<3)
 292:ads1299.h     **** #define ADS1299_REG_CONFIG4_SINGLE_SHOT_MODE				(1<<3)
 293:ads1299.h     **** 
 294:ads1299.h     **** /**
 295:ads1299.h     ****  *  \brief Bit mask definitions for CONFIG4.PD_LOFF_COMP (power-down lead-off comparators).
 296:ads1299.h     ****  *
 297:ads1299.h     ****  */
 298:ads1299.h     **** #define ADS1299_REG_CONFIG4_LEAD_OFF_DISABLED				(0<<1)
 299:ads1299.h     **** #define ADS1299_REG_CONFIG4_LEAD_OFF_ENABLED				(1<<1)
 300:ads1299.h     **** 
 301:ads1299.h     **** /**
 302:ads1299.h     ****  *  \brief Combined value of reserved bits in CONFIG4 register.
 303:ads1299.h     ****  *
 304:ads1299.h     ****  * Consult the ADS1299 datasheet, page 47, for more information.
 305:ads1299.h     ****  */
 306:ads1299.h     **** #define ADS1299_REG_CONFIG4_RESERVED_VALUE		0
 307:ads1299.h     **** 
 308:ads1299.h     **** /* LOFF REGISTER **********************************************************************************
 309:ads1299.h     **** 
 310:ads1299.h     **** /**
 311:ads1299.h     ****  *  \brief Bit mask definitions for LOFF.COMP_TH (lead-off comparator threshold).
 312:ads1299.h     ****  *
 313:ads1299.h     ****  * Definition names are for the positive side (LOFFP). The corresponding LOFFN thresholds
 314:ads1299.h     ****  * are the difference between these thresholds and 100%. Default value is _95_PERCENT.
 315:ads1299.h     ****  */
 316:ads1299.h     **** #define	ADS1299_REG_LOFF_95_PERCENT					(0<<5)
 317:ads1299.h     **** #define	ADS1299_REG_LOFF_92_5_PERCENT				(1<<5)
 318:ads1299.h     **** #define	ADS1299_REG_LOFF_90_PERCENT					(2<<5)
 319:ads1299.h     **** #define	ADS1299_REG_LOFF_87_5_PERCENT				(3<<5)
 320:ads1299.h     **** #define	ADS1299_REG_LOFF_85_PERCENT					(4<<5)
 321:ads1299.h     **** #define	ADS1299_REG_LOFF_80_PERCENT					(5<<5)
 322:ads1299.h     **** #define	ADS1299_REG_LOFF_75_PERCENT					(6<<5)
 323:ads1299.h     **** #define	ADS1299_REG_LOFF_70_PERCENT					(7<<5)	
 324:ads1299.h     **** 
 325:ads1299.h     **** /**
ARM GAS  C:\Users\dmr85\AppData\Local\Temp\ccowpT5a.s 			page 14


 326:ads1299.h     ****  *  \brief Bit mask definitions for LOFF.ILEAD_OFF (lead-off current magnitude).
 327:ads1299.h     ****  *
 328:ads1299.h     ****  * This should be as small as possible for continuous lead-off detection, so as not to noticeably a
 329:ads1299.h     ****  * the acquired signal. Default is _6_NA.
 330:ads1299.h     ****  */
 331:ads1299.h     **** #define	ADS1299_REG_LOFF_6_NA						(0<<2)			///< 6 nA lead-off current.
 332:ads1299.h     **** #define	ADS1299_REG_LOFF_24_NA						(1<<2)			///< 24 nA lead-off current.
 333:ads1299.h     **** #define	ADS1299_REG_LOFF_6_UA						(2<<2)			///< 6 uA lead-off current.
 334:ads1299.h     **** #define	ADS1299_REG_LOFF_24_UA						(3<<2)			///< 24 uA lead-off current.					
 335:ads1299.h     **** 
 336:ads1299.h     **** /**
 337:ads1299.h     ****  *  \brief Bit mask definitions for LOFF.FLEAD_OFF (lead-off current frequency).
 338:ads1299.h     ****  *
 339:ads1299.h     ****  * This should be as large as possible for continuous AC lead-off detection to ensure that it is ou
 340:ads1299.h     ****  * of the EEG frequency band (approx. 0-100 Hz for most applications). The excitation signal can th
 341:ads1299.h     ****  * be filtered out of the acquired overall signal, and its voltage amplitude measured in order to d
 342:ads1299.h     ****  * the electrode impedance.
 343:ads1299.h     ****  * FCLK is the clock frequency of the ADS1299. This is normally 2.048 MHz.
 344:ads1299.h     ****  * FDR is the output data rate. With the default clock, this must be at least 1 kHz in order to use
 345:ads1299.h     ****  * continuous AC impedance monitoring, since the excitation frequency of FDR/4 = 250 Hz is the lowe
 346:ads1299.h     ****  * possible frequency outside of the EEG band. If only a specific band is needed and it is lower th
 347:ads1299.h     ****  * 62.5 Hz or 125 Hz, the 250/500 Hz settings may be used.
 348:ads1299.h     ****  */
 349:ads1299.h     **** #define	ADS1299_REG_LOFF_DC_LEAD_OFF				0		///< Lead-off current is at DC.
 350:ads1299.h     **** #define	ADS1299_REG_LOFF_AC_LEAD_OFF_FCLK_DIV_2_18	1		///< Lead-off current is at FCLK/2^18, or 7.8
 351:ads1299.h     **** #define	ADS1299_REG_LOFF_AC_LEAD_OFF_FCLK_DIV_2_16	2		///< Lead-off current is at FCLK/2^16, or 31.
 352:ads1299.h     **** #define	ADS1299_REG_LOFF_AC_LEAD_OFF_FDR_DIV_4		3		///< Lead-off current is at FDR/4.
 353:ads1299.h     **** 
 354:ads1299.h     **** /**
 355:ads1299.h     ****  *  \brief Combined value of reserved bits in LOFF register.
 356:ads1299.h     ****  *
 357:ads1299.h     ****  */
 358:ads1299.h     **** #define ADS1299_REG_LOFF_RESERVED_VALUE				0
 359:ads1299.h     **** 
 360:ads1299.h     **** /* CHnSET REGISTERS *******************************************************************************
 361:ads1299.h     **** 
 362:ads1299.h     **** /**
 363:ads1299.h     ****  *  \brief Bit mask definitions for CHnSET.PD (channel power-down).
 364:ads1299.h     ****  */
 365:ads1299.h     **** #define	ADS1299_REG_CHNSET_CHANNEL_ON			(0<<7)
 366:ads1299.h     **** #define	ADS1299_REG_CHNSET_CHANNEL_OFF			(1<<7)
 367:ads1299.h     **** 
 368:ads1299.h     **** /**
 369:ads1299.h     ****  *  \brief Bit mask definitions for CHnSET.GAIN (channel PGA gain).
 370:ads1299.h     ****  *
 371:ads1299.h     ****  * Take care to ensure that the gain is appropriate for the common-mode level of the device inputs.
 372:ads1299.h     ****  * Higher gain settings have lower input-referred noise.
 373:ads1299.h     ****  * Consult the ADS1299 datasheet, pages 6-7 and 19-20, for more information.
 374:ads1299.h     ****  */
 375:ads1299.h     **** #define	ADS1299_REG_CHNSET_GAIN_1				(0<<4)			///< PGA gain = 1.
 376:ads1299.h     **** #define	ADS1299_REG_CHNSET_GAIN_2				(1<<4)			///< PGA gain = 2.
 377:ads1299.h     **** #define	ADS1299_REG_CHNSET_GAIN_4				(2<<4)			///< PGA gain = 4.
 378:ads1299.h     **** #define	ADS1299_REG_CHNSET_GAIN_6				(3<<4)			///< PGA gain = 6.
 379:ads1299.h     **** #define	ADS1299_REG_CHNSET_GAIN_8				(4<<4)			///< PGA gain = 8.
 380:ads1299.h     **** #define	ADS1299_REG_CHNSET_GAIN_12				(5<<4)			///< PGA gain = 12.
 381:ads1299.h     **** #define	ADS1299_REG_CHNSET_GAIN_24				(6<<4)			///< PGA gain = 24.
 382:ads1299.h     **** 
ARM GAS  C:\Users\dmr85\AppData\Local\Temp\ccowpT5a.s 			page 15


 383:ads1299.h     **** /**
 384:ads1299.h     ****  *  \brief Bit mask definitions for CHnSET.SRB2 (channel internal connection to SRB2 pin).
 385:ads1299.h     ****  */
 386:ads1299.h     **** #define	ADS1299_REG_CHNSET_SRB2_DISCONNECTED	(0<<3)
 387:ads1299.h     **** #define	ADS1299_REG_CHNSET_SRB2_CONNECTED		(1<<3)
 388:ads1299.h     **** 
 389:ads1299.h     **** /**
 390:ads1299.h     ****  *  \brief Bit mask definitions for CHnSET.MUX (channel mux setting).
 391:ads1299.h     ****  *
 392:ads1299.h     ****  * Controls the channel multiplexing on the ADS1299.
 393:ads1299.h     ****  * Consult the ADS1299 datasheet, pages 16-17, for more information.
 394:ads1299.h     ****  */
 395:ads1299.h     **** #define	ADS1299_REG_CHNSET_NORMAL_ELECTRODE		0			///< Channel is connected to the corresponding pos
 396:ads1299.h     **** #define	ADS1299_REG_CHNSET_INPUT_SHORTED		1			///< Channel inputs are shorted together. Used for of
 397:ads1299.h     **** #define	ADS1299_REG_CHNSET_BIAS_MEASUREMENT		2			///< Used with CONFIG3.BIAS_MEAS for bias measurem
 398:ads1299.h     **** #define	ADS1299_REG_CHNSET_MVDD_SUPPLY			3			///< Used for measuring analog and digital supplies. S
 399:ads1299.h     **** #define	ADS1299_REG_CHNSET_TEMPERATURE_SENSOR	4			///< Measures device temperature. See ADS1299 dat
 400:ads1299.h     **** #define	ADS1299_REG_CHNSET_TEST_SIGNAL			5			///< Measures calibration signal. See ADS1299 datashee
 401:ads1299.h     **** #define	ADS1299_REG_CHNSET_BIAS_DRIVE_P			6			///< Connects positive side of channel to bias drive 
 402:ads1299.h     **** #define	ADS1299_REG_CHNSET_BIAS_DRIVE_N			7 			///< Connects negative side of channel to bias drive
 403:ads1299.h     **** 
 404:ads1299.h     **** /**
 405:ads1299.h     ****  *  \brief Combined value of reserved bits in CHnSET registers.
 406:ads1299.h     ****  *
 407:ads1299.h     ****  */
 408:ads1299.h     **** #define ADS1299_REG_CHNSET_RESERVED_VALUE		0
 409:ads1299.h     **** 
 410:ads1299.h     **** /* BIAS_SENSP REGISTER ****************************************************************************
 411:ads1299.h     **** 
 412:ads1299.h     **** /**
 413:ads1299.h     ****  *  \brief Bit mask definitions for BIAS_SENSP register (read-only).
 414:ads1299.h     ****  *
 415:ads1299.h     ****  * Consult the ADS1299 datasheet, page 44, for more information.
 416:ads1299.h     ****  */
 417:ads1299.h     **** #define ADS1299_REG_BIAS_SENSP_BIASP8	(1<<7)
 418:ads1299.h     **** #define ADS1299_REG_BIAS_SENSP_BIASP7	(1<<6)
 419:ads1299.h     **** #define ADS1299_REG_BIAS_SENSP_BIASP6	(1<<5)
 420:ads1299.h     **** #define ADS1299_REG_BIAS_SENSP_BIASP5	(1<<4)
 421:ads1299.h     **** #define ADS1299_REG_BIAS_SENSP_BIASP4	(1<<3)
 422:ads1299.h     **** #define ADS1299_REG_BIAS_SENSP_BIASP3	(1<<2)
 423:ads1299.h     **** #define ADS1299_REG_BIAS_SENSP_BIASP2	(1<<1)
 424:ads1299.h     **** #define ADS1299_REG_BIAS_SENSP_BIASP1	(1<<0)
 425:ads1299.h     **** 
 426:ads1299.h     **** 
 427:ads1299.h     **** /* BIAS_SENSN REGISTER ****************************************************************************
 428:ads1299.h     **** 
 429:ads1299.h     **** /**
 430:ads1299.h     ****  *  \brief Bit mask definitions for BIAS_SENSN register (read-only).
 431:ads1299.h     ****  *
 432:ads1299.h     ****  * Consult the ADS1299 datasheet, page 44, for more information.
 433:ads1299.h     ****  */
 434:ads1299.h     **** #define ADS1299_REG_BIAS_SENSN_BIASN8	(1<<7)
 435:ads1299.h     **** #define ADS1299_REG_BIAS_SENSN_BIASN7	(1<<6)
 436:ads1299.h     **** #define ADS1299_REG_BIAS_SENSN_BIASN6	(1<<5)
 437:ads1299.h     **** #define ADS1299_REG_BIAS_SENSN_BIASN5	(1<<4)
 438:ads1299.h     **** #define ADS1299_REG_BIAS_SENSN_BIASN4	(1<<3)
 439:ads1299.h     **** #define ADS1299_REG_BIAS_SENSN_BIASN3	(1<<2)
ARM GAS  C:\Users\dmr85\AppData\Local\Temp\ccowpT5a.s 			page 16


 440:ads1299.h     **** #define ADS1299_REG_BIAS_SENSN_BIASN2	(1<<1)
 441:ads1299.h     **** #define ADS1299_REG_BIAS_SENSN_BIASN1	(1<<0)
 442:ads1299.h     **** 
 443:ads1299.h     **** /* LOFF_SENSP REGISTER ****************************************************************************
 444:ads1299.h     **** 
 445:ads1299.h     **** /**
 446:ads1299.h     ****  *  \brief Bit mask definitions for LOFF_SENSP register (read-only).
 447:ads1299.h     ****  *
 448:ads1299.h     ****  * Consult the ADS1299 datasheet, page 45, for more information.
 449:ads1299.h     ****  */
 450:ads1299.h     **** #define ADS1299_REG_LOFF_SENSP_LOFFP8	(1<<7)
 451:ads1299.h     **** #define ADS1299_REG_LOFF_SENSP_LOFFP7	(1<<6)
 452:ads1299.h     **** #define ADS1299_REG_LOFF_SENSP_LOFFP6	(1<<5)
 453:ads1299.h     **** #define ADS1299_REG_LOFF_SENSP_LOFFP5	(1<<4)
 454:ads1299.h     **** #define ADS1299_REG_LOFF_SENSP_LOFFP4	(1<<3)
 455:ads1299.h     **** #define ADS1299_REG_LOFF_SENSP_LOFFP3	(1<<2)
 456:ads1299.h     **** #define ADS1299_REG_LOFF_SENSP_LOFFP2	(1<<1)
 457:ads1299.h     **** #define ADS1299_REG_LOFF_SENSP_LOFFP1	(1<<0)
 458:ads1299.h     **** 
 459:ads1299.h     **** 
 460:ads1299.h     **** /* LOFF_SENSN REGISTER ****************************************************************************
 461:ads1299.h     **** 
 462:ads1299.h     **** /**
 463:ads1299.h     ****  *  \brief Bit mask definitions for LOFF_SENSN register (read-only).
 464:ads1299.h     ****  *
 465:ads1299.h     ****  * Consult the ADS1299 datasheet, page 45, for more information.
 466:ads1299.h     ****  */
 467:ads1299.h     **** #define ADS1299_REG_LOFF_SENSN_LOFFN8	(1<<7)
 468:ads1299.h     **** #define ADS1299_REG_LOFF_SENSN_LOFFN7	(1<<6)
 469:ads1299.h     **** #define ADS1299_REG_LOFF_SENSN_LOFFN6	(1<<5)
 470:ads1299.h     **** #define ADS1299_REG_LOFF_SENSN_LOFFN5	(1<<4)
 471:ads1299.h     **** #define ADS1299_REG_LOFF_SENSN_LOFFN4	(1<<3)
 472:ads1299.h     **** #define ADS1299_REG_LOFF_SENSN_LOFFN3	(1<<2)
 473:ads1299.h     **** #define ADS1299_REG_LOFF_SENSN_LOFFN2	(1<<1)
 474:ads1299.h     **** #define ADS1299_REG_LOFF_SENSN_LOFFN1	(1<<0)
 475:ads1299.h     **** 
 476:ads1299.h     **** /* LOFF_FLIP REGISTER *****************************************************************************
 477:ads1299.h     **** 
 478:ads1299.h     **** /**
 479:ads1299.h     ****  *  \brief Bit mask definitions for LOFF_FLIP register (read-only).
 480:ads1299.h     ****  *
 481:ads1299.h     ****  * Consult the ADS1299 datasheet, page 45, for more information.
 482:ads1299.h     ****  */
 483:ads1299.h     **** #define ADS1299_REG_LOFF_FLIP_LOFF_FLIP8	(1<<7)
 484:ads1299.h     **** #define ADS1299_REG_LOFF_FLIP_LOFF_FLIP7	(1<<6)
 485:ads1299.h     **** #define ADS1299_REG_LOFF_FLIP_LOFF_FLIP6	(1<<5)
 486:ads1299.h     **** #define ADS1299_REG_LOFF_FLIP_LOFF_FLIP5	(1<<4)
 487:ads1299.h     **** #define ADS1299_REG_LOFF_FLIP_LOFF_FLIP4	(1<<3)
 488:ads1299.h     **** #define ADS1299_REG_LOFF_FLIP_LOFF_FLIP3	(1<<2)
 489:ads1299.h     **** #define ADS1299_REG_LOFF_FLIP_LOFF_FLIP2	(1<<1)
 490:ads1299.h     **** #define ADS1299_REG_LOFF_FLIP_LOFF_FLIP1	(1<<0)
 491:ads1299.h     **** 
 492:ads1299.h     **** 
 493:ads1299.h     **** /* LOFF_STATP REGISTER ****************************************************************************
 494:ads1299.h     **** 
 495:ads1299.h     **** /**
 496:ads1299.h     ****  *  \brief Bit mask definitions for LOFF_STATP register (read-only).
ARM GAS  C:\Users\dmr85\AppData\Local\Temp\ccowpT5a.s 			page 17


 497:ads1299.h     ****  *
 498:ads1299.h     ****  * Consult the ADS1299 datasheet, page 45, for more information.
 499:ads1299.h     ****  */
 500:ads1299.h     **** #define ADS1299_REG_LOFF_STATP_IN8P_OFF	(1<<7)
 501:ads1299.h     **** #define ADS1299_REG_LOFF_STATP_IN7P_OFF	(1<<6)
 502:ads1299.h     **** #define ADS1299_REG_LOFF_STATP_IN6P_OFF	(1<<5)
 503:ads1299.h     **** #define ADS1299_REG_LOFF_STATP_IN5P_OFF	(1<<4)
 504:ads1299.h     **** #define ADS1299_REG_LOFF_STATP_IN4P_OFF	(1<<3)
 505:ads1299.h     **** #define ADS1299_REG_LOFF_STATP_IN3P_OFF	(1<<2)
 506:ads1299.h     **** #define ADS1299_REG_LOFF_STATP_IN2P_OFF	(1<<1)
 507:ads1299.h     **** #define ADS1299_REG_LOFF_STATP_IN1P_OFF	(1<<0)
 508:ads1299.h     **** 
 509:ads1299.h     **** /* LOFF_STATN REGISTER ****************************************************************************
 510:ads1299.h     **** 
 511:ads1299.h     **** /**
 512:ads1299.h     ****  *  \brief Bit mask definitions for LOFF_STATN register (read-only).
 513:ads1299.h     ****  *
 514:ads1299.h     ****  * Consult the ADS1299 datasheet, page 45, for more information.
 515:ads1299.h     ****  */
 516:ads1299.h     **** #define ADS1299_REG_LOFF_STATN_IN8N_OFF	(1<<7)
 517:ads1299.h     **** #define ADS1299_REG_LOFF_STATN_IN7N_OFF	(1<<6)
 518:ads1299.h     **** #define ADS1299_REG_LOFF_STATN_IN6N_OFF	(1<<5)
 519:ads1299.h     **** #define ADS1299_REG_LOFF_STATN_IN5N_OFF	(1<<4)
 520:ads1299.h     **** #define ADS1299_REG_LOFF_STATN_IN4N_OFF	(1<<3)
 521:ads1299.h     **** #define ADS1299_REG_LOFF_STATN_IN3N_OFF	(1<<2)
 522:ads1299.h     **** #define ADS1299_REG_LOFF_STATN_IN2N_OFF	(1<<1)
 523:ads1299.h     **** #define ADS1299_REG_LOFF_STATN_IN1N_OFF	(1<<0)
 524:ads1299.h     **** 
 525:ads1299.h     **** /* GPIO REGISTER **********************************************************************************
 526:ads1299.h     **** 
 527:ads1299.h     **** /**
 528:ads1299.h     ****  *  \brief Bit mask definitions for GPIO.GPIODn (GPIO direction bits).
 529:ads1299.h     ****  *
 530:ads1299.h     ****  * The ADS1299 has 4 GPIO pins that can be manipulated via the SPI bus if there are not enough
 531:ads1299.h     ****  * GPIO pins available on the host.
 532:ads1299.h     ****  * GPIOD[4:1] controls the logic levels on GPIO pins 4:1.
 533:ads1299.h     ****  *
 534:ads1299.h     ****  * Consult the ADS1299 datasheet, page 46, for more information.
 535:ads1299.h     ****  */
 536:ads1299.h     **** #define ADS1299_REG_GPIO_GPIOD4_LOW			(0<<7)
 537:ads1299.h     **** #define ADS1299_REG_GPIO_GPIOD4_HIGH		(1<<7)
 538:ads1299.h     **** #define ADS1299_REG_GPIO_GPIOD3_LOW			(0<<6)
 539:ads1299.h     **** #define ADS1299_REG_GPIO_GPIOD3_HIGH		(1<<6)
 540:ads1299.h     **** #define ADS1299_REG_GPIO_GPIOD2_LOW			(0<<5)
 541:ads1299.h     **** #define ADS1299_REG_GPIO_GPIOD2_HIGH		(1<<5)
 542:ads1299.h     **** #define ADS1299_REG_GPIO_GPIOD1_LOW			(0<<4)
 543:ads1299.h     **** #define ADS1299_REG_GPIO_GPIOD1_HIGH		(1<<4)
 544:ads1299.h     **** 
 545:ads1299.h     **** /**
 546:ads1299.h     ****  *  \brief Bit mask definitions for GPIO.GPIOCn (GPIO level).
 547:ads1299.h     ****  *
 548:ads1299.h     ****  * The ADS1299 has 4 GPIO pins that can be manipulated via the SPI bus if there are not enough
 549:ads1299.h     ****  * GPIO pins available on the host.
 550:ads1299.h     ****  * GPIOC[4:1] controls the pin direction on GPIO pins 4:1.
 551:ads1299.h     ****  *
 552:ads1299.h     ****  * Consult the ADS1299 datasheet, page 46, for more information.
 553:ads1299.h     ****  */
ARM GAS  C:\Users\dmr85\AppData\Local\Temp\ccowpT5a.s 			page 18


 554:ads1299.h     **** #define ADS1299_REG_GPIO_GPIOC4_OUTPUT		(0<<3)
 555:ads1299.h     **** #define ADS1299_REG_GPIO_GPIOC4_INPUT		(1<<3)
 556:ads1299.h     **** #define ADS1299_REG_GPIO_GPIOC3_OUTPUT		(0<<2)
 557:ads1299.h     **** #define ADS1299_REG_GPIO_GPIOC3_INPUT		(1<<2)
 558:ads1299.h     **** #define ADS1299_REG_GPIO_GPIOC2_OUTPUT		(0<<1)
 559:ads1299.h     **** #define ADS1299_REG_GPIO_GPIOC2_INPUT		(1<<1)
 560:ads1299.h     **** #define ADS1299_REG_GPIO_GPIOC1_OUTPUT		(0<<0)
 561:ads1299.h     **** #define ADS1299_REG_GPIO_GPIOC1_INPUT		(1<<0)
 562:ads1299.h     **** 
 563:ads1299.h     **** /**
 564:ads1299.h     ****  *  \brief Combined value of reserved bits in GPIO register.
 565:ads1299.h     ****  *
 566:ads1299.h     ****  */
 567:ads1299.h     **** #define ADS1299_REG_GPIO_RESERVED_VALUE				0
 568:ads1299.h     **** 
 569:ads1299.h     **** /* MISC1 REGISTER *********************************************************************************
 570:ads1299.h     **** 
 571:ads1299.h     **** /**
 572:ads1299.h     ****  *  \brief Bit mask definitions for MISC1.SRB1 (SRB1 internal connection).
 573:ads1299.h     ****  */
 574:ads1299.h     **** #define	ADS1299_REG_MISC1_SRB1_OFF		(0<<5)			///< Stim/ref/bias 1 turned off.
 575:ads1299.h     **** #define	ADS1299_REG_MISC1_SRB1_ON		(1<<5)			///< Stim/ref/bias 1 connected to all channel inverting
 576:ads1299.h     **** 
 577:ads1299.h     **** /**
 578:ads1299.h     ****  *  \brief Combined value of reserved bits in MISC1 register.
 579:ads1299.h     ****  *
 580:ads1299.h     ****  */
 581:ads1299.h     **** #define ADS1299_REG_MISC1_RESERVED_VALUE				0
 582:ads1299.h     **** 
 583:ads1299.h     **** 
 584:ads1299.h     **** /* MISC2 REGISTER *********************************************************************************
 585:ads1299.h     **** 
 586:ads1299.h     **** /**
 587:ads1299.h     ****  *  \brief Combined value of reserved bits in MISC2 register.
 588:ads1299.h     ****  *
 589:ads1299.h     ****  * MISC2 don't do nothin' right now!
 590:ads1299.h     ****  * Consult the ADS1299 user's guide, page 46, for more information.
 591:ads1299.h     ****  */
 592:ads1299.h     **** #define ADS1299_REG_MISC2_RESERVED_VALUE				0
 593:ads1299.h     **** 
 594:ads1299.h     **** 
 595:ads1299.h     **** /**************************************************************************************************
 596:ads1299.h     **** *               Prototypes                                                                         
 597:ads1299.h     **** ***************************************************************************************************
 598:ads1299.h     **** 
 599:ads1299.h     **** /**
 600:ads1299.h     ****  *	\brief Initialize the ADS1299.
 601:ads1299.h     ****  *
 602:ads1299.h     ****  * This function performs the power-on reset and initialization procedure documented on page 58 of 
 603:ads1299.h     ****  * ADS1299 datasheet, up to "Send SDATAC Command."
 604:ads1299.h     ****  *
 605:ads1299.h     ****  * \pre Requires spi.h from the Atmel Software Framework and ads1299_spi_adapt.h.
 606:ads1299.h     ****  * \param chip_select The chip select number of the ADS1299 to be initialized.
 607:ads1299.h     ****  * \param init_regs	Nonzero if initializing registers to firmware default settings; 0 otherwise.
 608:ads1299.h     ****  * \return Zero if successful, or an error code if unsuccessful.
 609:ads1299.h     ****  */
 610:ads1299.h     **** ads1299_error_t ads1299_device_init(uint8_t, uint8_t);
ARM GAS  C:\Users\dmr85\AppData\Local\Temp\ccowpT5a.s 			page 19


 611:ads1299.h     **** 
 612:ads1299.h     **** /**
 613:ads1299.h     ****  *	\brief Read a single register from the ADS1299.
 614:ads1299.h     ****  *
 615:ads1299.h     ****  * This function sends the RREG opcode, logical OR'd with the specified register address, and
 616:ads1299.h     ****  * writes the obtained register value to a variable. This command will have no effect if the 
 617:ads1299.h     ****  * device is in continuous read mode.
 618:ads1299.h     ****  *
 619:ads1299.h     ****  * \pre Requires spi.h from the Atmel Software Framework and ads1299_spi_adapt.h.
 620:ads1299.h     ****  * \param chip_select The chip select number of the ADS1299 to be initialized.
 621:ads1299.h     ****  * \param reg_addr The register address of the register to be read.
 622:ads1299.h     ****  * \param read_reg_val_ptr Pointer to the variable to store the read register value.
 623:ads1299.h     ****  * \return Zero if successful, or an error code if unsuccessful.
 624:ads1299.h     ****  */
 625:ads1299.h     **** ads1299_error_t ads1299_rreg(uint8_t, uint8_t, uint8_t*);
 626:ads1299.h     **** 
 627:ads1299.h     **** /**
 628:ads1299.h     ****  *	\brief Write a single register on the ADS1299.
 629:ads1299.h     ****  *
 630:ads1299.h     ****  * This function sends the WREG opcode, logical OR'd with the specified register address, and
 631:ads1299.h     ****  * then writes the specified value to that register. This command will have no effect if the 
 632:ads1299.h     ****  * device is in continuous read mode.
 633:ads1299.h     ****  *
 634:ads1299.h     ****  * \pre Requires spi.h from the Atmel Software Framework and ads1299_spi_adapt.h.
 635:ads1299.h     ****  * \param chip_select The chip select number of the ADS1299 to be initialized.
 636:ads1299.h     ****  * \param reg_addr The register address of the register to be written.
 637:ads1299.h     ****  * \param reg_val_to_write The value to be written to the specified register.
 638:ads1299.h     ****  * \return Zero if successful, or an error code if unsuccessful.
 639:ads1299.h     ****  */
 640:ads1299.h     **** ads1299_error_t ads1299_wreg(uint8_t, uint8_t, uint8_t);
 641:ads1299.h     **** 
 642:ads1299.h     **** /**
 643:ads1299.h     ****  *	\brief Read a single 24-bit data sample for each enabled channel.
 644:ads1299.h     ****  *
 645:ads1299.h     ****  * This function reads back the 24-bit status word and 8 channels of 24-bit data.
 646:ads1299.h     ****  * These 24-bit values are stored right-aligned in 32-bit integers.
 647:ads1299.h     ****  *
 648:ads1299.h     ****  * \param chip_select The chip select number of the ADS1299 to be initialized.
 649:ads1299.h     ****  * \param sample_idx The index within each channel array of the sample to be acquired.
 650:ads1299.h     ****  * \param packet_ptr Pointer to EEG data packet structure.
 651:ads1299.h     ****  * \return Zero if successful, or an error code if unsuccessful.
 652:ads1299.h     ****  */
 653:ads1299.h     **** ads1299_error_t ads1299_rdata32_packet(uint8_t, volatile uint32_t, bboard_data32bit_packet_t*);
 654:ads1299.h     **** 
 655:ads1299.h     **** /**
 656:ads1299.h     ****  *	\brief Read a single 24-bit data sample for each enabled channel.
 657:ads1299.h     ****  *
 658:ads1299.h     ****  * This function reads back the 24-bit status word and 8 channels of 24-bit data.
 659:ads1299.h     ****  * These 24-bit values are stored right-aligned in 32-bit integers.
 660:ads1299.h     ****  *
 661:ads1299.h     ****  * \param chip_select The chip select number of the ADS1299 to be initialized.
 662:ads1299.h     ****  * \param sample_idx The index within each channel array of the sample to be acquired.
 663:ads1299.h     ****  * \param status ADS1299 status word.
 664:ads1299.h     ****  * \param data_array Array of 32-bit signed ints (dsp32_t from the ASF is equivalent) for storing E
 665:ads1299.h     ****  * \return Zero if successful, or an error code if unsuccessful.
 666:ads1299.h     ****  */
 667:ads1299.h     **** ads1299_error_t ads1299_rdata32_generic(uint8_t, volatile uint32_t, volatile uint32_t, volatile int
ARM GAS  C:\Users\dmr85\AppData\Local\Temp\ccowpT5a.s 			page 20


 668:ads1299.h     **** 
 669:ads1299.h     **** /**
 670:ads1299.h     ****  *	\brief Read a single 24-bit data sample for each enabled channel into a specified packet structu
 671:ads1299.h     ****  *
 672:ads1299.h     ****  * This function reads back the 24-bit status word and 8 channels of 24-bit data.
 673:ads1299.h     ****  * These 24-bit values are stored in two arrays: one 3-byte array for the status
 674:ads1299.h     ****  * word, and a 24-byte array for the data.
 675:ads1299.h     ****  *
 676:ads1299.h     ****  * \param chip_select The chip select number of the ADS1299 to be initialized.
 677:ads1299.h     ****  * \param sample_idx The index within each channel array of the sample to be acquired.
 678:ads1299.h     ****  * \param packet_ptr Pointer to EEG data packet structure.
 679:ads1299.h     ****  * \return Zero if successful, or an error code if unsuccessful.
 680:ads1299.h     ****  */
 681:ads1299.h     **** ads1299_error_t ads1299_rdata24_packet(uint8_t, volatile uint32_t, bboard_data24bit_packet_t*);
 682:ads1299.h     **** 
 683:ads1299.h     **** /**
 684:ads1299.h     ****  *	\brief Read a single 24-bit data sample for each enabled channel into an array of channels.
 685:ads1299.h     ****  *
 686:ads1299.h     ****  * This function reads back the 24-bit status word and 8 channels of 24-bit data.
 687:ads1299.h     ****  * These 24-bit values are stored in two arrays: one 3-byte array for the status
 688:ads1299.h     ****  * word, and a 24-byte array for the data.
 689:ads1299.h     ****  *
 690:ads1299.h     ****  * \param chip_select The chip select number of the ADS1299 to be initialized.
 691:ads1299.h     ****  * \param sample_idx The index within each channel array of the sample to be acquired.
 692:ads1299.h     ****  * \param status_array Array of 3 bytes representing the 24-bit status word.
 693:ads1299.h     ****  * \param data_array Array of dimensions [BUFFERSIZE][EEG_CHANNELS][3] representing EEG data.
 694:ads1299.h     ****  * \return Zero if successful, or an error code if unsuccessful.
 695:ads1299.h     ****  */
 696:ads1299.h     **** ads1299_error_t ads1299_rdata24_generic(uint8_t, volatile uint32_t, volatile uint8_t[], volatile ui
 697:ads1299.h     **** 
 698:ads1299.h     **** /* INLINE FUNCTIONS *******************************************************************************
 699:ads1299.h     **** 
 700:ads1299.h     **** /**
 701:ads1299.h     ****  *	\brief Send a single opcode to the ADS1299.
 702:ads1299.h     ****  *
 703:ads1299.h     ****  * This function sends the specified byte to the ADS1299. Chip select is cleared (activated) and se
 704:ads1299.h     ****  * (inactivated) within the function.
 705:ads1299.h     ****  *
 706:ads1299.h     ****  * \pre Requires spi.h from the Atmel Software Framework and ads1299_spi_adapt.h.
 707:ads1299.h     ****  * \param chip_select The chip select number of the ADS1299 to be initialized.
 708:ads1299.h     ****  * \param opcode The opcode to send.
 709:ads1299.h     ****  * \return Zero if successful, or an error code if unsuccessful.
 710:ads1299.h     ****  */
 711:ads1299.h     **** static inline ads1299_error_t ads1299_send_byte(uint8_t chip_select, uint8_t opcode)
 712:ads1299.h     **** {
 713:ads1299.h     **** 	//#if UC3
 714:ads1299.h     **** 	spi_selectChip(SPI_ADDRESS, chip_select);
 209              		.loc 2 714 0
 210 0032 2A4D     		ldr	r5, .L12
 211 0034 2146     		mov	r1, r4
 212 0036 2846     		mov	r0, r5
 213 0038 FFF7FEFF 		bl	spi_selectChip
 214              	.LVL28:
 715:ads1299.h     **** 	
 716:ads1299.h     **** 	ads1299_send_byte_no_cs(opcode);
 215              		.loc 2 716 0
 216 003c 1120     		movs	r0, #17
ARM GAS  C:\Users\dmr85\AppData\Local\Temp\ccowpT5a.s 			page 21


 217 003e FFF7FEFF 		bl	ads1299_send_byte_no_cs
 218              	.LVL29:
 717:ads1299.h     **** 	
 718:ads1299.h     **** 	spi_unselectChip(SPI_ADDRESS, chip_select);
 219              		.loc 2 718 0
 220 0042 2146     		mov	r1, r4
 221 0044 2846     		mov	r0, r5
 222 0046 FFF7FEFF 		bl	spi_unselectChip
 223              	.LVL30:
 224              	.LBE11:
 225              	.LBE10:
  73:ads1299.c     **** 	{
 226              		.loc 1 73 0
 227 004a 002E     		cmp	r6, #0
 228 004c 43D0     		beq	.L10
  76:ads1299.c     **** 		ADS1299_REG_GPIO_GPIOD4_LOW    |
 229              		.loc 1 76 0
 230 004e 0022     		movs	r2, #0
 231 0050 1421     		movs	r1, #20
 232 0052 2046     		mov	r0, r4
 233 0054 FFF7FEFF 		bl	ads1299_wreg
 234              	.LVL31:
  86:ads1299.c     **** 		ADS1299_REG_CONFIG1_FMOD_DIV_BY_4096);
 235              		.loc 1 86 0
 236 0058 9622     		movs	r2, #150
 237 005a 0121     		movs	r1, #1
 238 005c 2046     		mov	r0, r4
 239 005e FFF7FEFF 		bl	ads1299_wreg
 240              	.LVL32:
  89:ads1299.c     **** 		ADS1299_REG_CONFIG2_CAL_INT        |
 241              		.loc 1 89 0
 242 0062 D022     		movs	r2, #208
 243 0064 0221     		movs	r1, #2
 244 0066 2046     		mov	r0, r4
 245 0068 FFF7FEFF 		bl	ads1299_wreg
 246              	.LVL33:
  94:ads1299.c     **** 		ADS1299_REG_CONFIG3_BIASREF_INT    |
 247              		.loc 1 94 0
 248 006c 8C22     		movs	r2, #140
 249 006e 0321     		movs	r1, #3
 250 0070 2046     		mov	r0, r4
 251 0072 FFF7FEFF 		bl	ads1299_wreg
 252              	.LVL34:
  98:ads1299.c     **** 			
 253              		.loc 1 98 0
 254 0076 9620     		movs	r0, #150
 255 0078 FFF7FEFF 		bl	delay_ms
 256              	.LVL35:
 101:ads1299.c     **** 		ADS1299_REG_CHNSET_GAIN_24			|
 257              		.loc 1 101 0
 258 007c 6022     		movs	r2, #96
 259 007e 0521     		movs	r1, #5
 260 0080 2046     		mov	r0, r4
 261 0082 FFF7FEFF 		bl	ads1299_wreg
 262              	.LVL36:
 106:ads1299.c     **** 		ADS1299_REG_CHNSET_GAIN_24			|
 263              		.loc 1 106 0
ARM GAS  C:\Users\dmr85\AppData\Local\Temp\ccowpT5a.s 			page 22


 264 0086 6022     		movs	r2, #96
 265 0088 0621     		movs	r1, #6
 266 008a 2046     		mov	r0, r4
 267 008c FFF7FEFF 		bl	ads1299_wreg
 268              	.LVL37:
 111:ads1299.c     **** 		ADS1299_REG_CHNSET_GAIN_24			|
 269              		.loc 1 111 0
 270 0090 6022     		movs	r2, #96
 271 0092 0721     		movs	r1, #7
 272 0094 2046     		mov	r0, r4
 273 0096 FFF7FEFF 		bl	ads1299_wreg
 274              	.LVL38:
 116:ads1299.c     **** 		ADS1299_REG_CHNSET_GAIN_24			|
 275              		.loc 1 116 0
 276 009a 6022     		movs	r2, #96
 277 009c 0821     		movs	r1, #8
 278 009e 2046     		mov	r0, r4
 279 00a0 FFF7FEFF 		bl	ads1299_wreg
 280              	.LVL39:
 121:ads1299.c     **** 		ADS1299_REG_CHNSET_GAIN_24			|
 281              		.loc 1 121 0
 282 00a4 6022     		movs	r2, #96
 283 00a6 0921     		movs	r1, #9
 284 00a8 2046     		mov	r0, r4
 285 00aa FFF7FEFF 		bl	ads1299_wreg
 286              	.LVL40:
 126:ads1299.c     **** 		ADS1299_REG_CHNSET_GAIN_24			|
 287              		.loc 1 126 0
 288 00ae 6022     		movs	r2, #96
 289 00b0 0A21     		movs	r1, #10
 290 00b2 2046     		mov	r0, r4
 291 00b4 FFF7FEFF 		bl	ads1299_wreg
 292              	.LVL41:
 131:ads1299.c     **** 		ADS1299_REG_CHNSET_GAIN_24			|
 293              		.loc 1 131 0
 294 00b8 6022     		movs	r2, #96
 295 00ba 0B21     		movs	r1, #11
 296 00bc 2046     		mov	r0, r4
 297 00be FFF7FEFF 		bl	ads1299_wreg
 298              	.LVL42:
 136:ads1299.c     **** 		ADS1299_REG_CHNSET_GAIN_24			|
 299              		.loc 1 136 0
 300 00c2 6022     		movs	r2, #96
 301 00c4 0C21     		movs	r1, #12
 302 00c6 2046     		mov	r0, r4
 303 00c8 FFF7FEFF 		bl	ads1299_wreg
 304              	.LVL43:
 142:ads1299.c     **** 	} 		
 305              		.loc 1 142 0
 306 00cc 2022     		movs	r2, #32
 307 00ce 1521     		movs	r1, #21
 308 00d0 2046     		mov	r0, r4
 309 00d2 FFF7FEFF 		bl	ads1299_wreg
 310              	.LVL44:
 311              	.L10:
 147:ads1299.c     **** 
 312              		.loc 1 147 0
ARM GAS  C:\Users\dmr85\AppData\Local\Temp\ccowpT5a.s 			page 23


 313 00d6 0020     		movs	r0, #0
 314 00d8 70BD     		pop	{r4, r5, r6, pc}
 315              	.L13:
 316 00da 00BF     		.align	2
 317              	.L12:
 318 00dc 00000000 		.word	spi
 319              		.cfi_endproc
 320              	.LFE538:
 321              		.size	ads1299_device_init, .-ads1299_device_init
 322              		.section	.text.ads1299_rdata32_packet,"ax",%progbits
 323              		.align	2
 324              		.global	ads1299_rdata32_packet
 325              		.thumb
 326              		.thumb_func
 327              		.type	ads1299_rdata32_packet, %function
 328              	ads1299_rdata32_packet:
 329              	.LFB541:
 201:ads1299.c     **** 
 202:ads1299.c     **** /* DATA RETRIEVAL FUNCTIONS ***********************************************************************
 203:ads1299.c     **** 
 204:ads1299.c     **** ads1299_error_t ads1299_rdata32_packet(uint8_t chip_select, volatile uint32_t sample_idx, bboard_da
 205:ads1299.c     **** {
 330              		.loc 1 205 0
 331              		.cfi_startproc
 332              		@ args = 0, pretend = 0, frame = 24
 333              		@ frame_needed = 0, uses_anonymous_args = 0
 334              	.LVL45:
 335 0000 F0B5     		push	{r4, r5, r6, r7, lr}
 336              		.cfi_def_cfa_offset 20
 337              		.cfi_offset 4, -20
 338              		.cfi_offset 5, -16
 339              		.cfi_offset 6, -12
 340              		.cfi_offset 7, -8
 341              		.cfi_offset 14, -4
 342 0002 87B0     		sub	sp, sp, #28
 343              		.cfi_def_cfa_offset 48
 344 0004 0546     		mov	r5, r0
 345 0006 0191     		str	r1, [sp, #4]
 346 0008 1446     		mov	r4, r2
 206:ads1299.c     **** 	#if UC3
 207:ads1299.c     **** 	volatile uint8_t channel_idx;	
 208:ads1299.c     **** 	union {
 209:ads1299.c     **** 		uint32_t raw;
 210:ads1299.c     **** 		uint8_t status[4];
 211:ads1299.c     **** 	} __attribute__((packed)) statustemp;	
 212:ads1299.c     **** 	union {
 213:ads1299.c     **** 		int32_t raw;
 214:ads1299.c     **** 		uint8_t data[4];
 215:ads1299.c     **** 	} __attribute__((packed)) sigtemp;
 216:ads1299.c     **** 	statustemp.raw = 0;
 347              		.loc 1 216 0
 348 000a 0026     		movs	r6, #0
 349 000c 0496     		str	r6, [sp, #16]
 217:ads1299.c     **** 	sigtemp.raw = 0;
 350              		.loc 1 217 0
 351 000e 0396     		str	r6, [sp, #12]
 218:ads1299.c     **** 	
ARM GAS  C:\Users\dmr85\AppData\Local\Temp\ccowpT5a.s 			page 24


 219:ads1299.c     **** 	/* Begin SPI comms */
 220:ads1299.c     **** 	spi_selectChip(SPI_ADDRESS, chip_select);
 352              		.loc 1 220 0
 353 0010 1A4F     		ldr	r7, .L18
 354 0012 0146     		mov	r1, r0
 355              	.LVL46:
 356 0014 3846     		mov	r0, r7
 357              	.LVL47:
 358 0016 FFF7FEFF 		bl	spi_selectChip
 359              	.LVL48:
 221:ads1299.c     **** 	
 222:ads1299.c     **** 	/* Function assumes we've already sent RDATA command or are in RDATAC mode */
 223:ads1299.c     **** 		
 224:ads1299.c     **** 	/* Read in status word first (24 bits) */
 225:ads1299.c     **** 	spi_read_packet(SPI_ADDRESS, &statustemp.status[1]);
 360              		.loc 1 225 0
 361 001a 0DF11101 		add	r1, sp, #17
 362 001e 3846     		mov	r0, r7
 363 0020 FFF7FEFF 		bl	spi_read_packet
 364              	.LVL49:
 226:ads1299.c     **** 	packet_ptr->eegstatus = statustemp.raw;
 365              		.loc 1 226 0
 366 0024 049B     		ldr	r3, [sp, #16]
 367 0026 C4F80330 		str	r3, [r4, #3]	@ unaligned
 227:ads1299.c     **** 	
 228:ads1299.c     **** 	/* Begin reading in data */	
 229:ads1299.c     **** 	for (channel_idx = 0; channel_idx < MAX_EEG_CHANNELS; channel_idx++)
 368              		.loc 1 229 0
 369 002a 8DF81760 		strb	r6, [sp, #23]
 370 002e 18E0     		b	.L15
 371              	.L16:
 230:ads1299.c     **** 	{
 231:ads1299.c     **** 		spi_read_packet(SPI_ADDRESS, &sigtemp.data[1]);				
 372              		.loc 1 231 0 discriminator 3
 373 0030 0DF10D01 		add	r1, sp, #13
 374 0034 1148     		ldr	r0, .L18
 375 0036 FFF7FEFF 		bl	spi_read_packet
 376              	.LVL50:
 232:ads1299.c     **** 		packet_ptr->eegdata[sample_idx][channel_idx] = SIGN_EXT_24(sigtemp.raw);
 377              		.loc 1 232 0 discriminator 3
 378 003a 0199     		ldr	r1, [sp, #4]
 379 003c 9DF81730 		ldrb	r3, [sp, #23]	@ zero_extendqisi2
 380 0040 039A     		ldr	r2, [sp, #12]
 381 0042 82F40002 		eor	r2, r2, #8388608
 382 0046 A2F50002 		sub	r2, r2, #8388608
 383 004a 03EBC103 		add	r3, r3, r1, lsl #3
 384 004e 04EB8303 		add	r3, r4, r3, lsl #2
 385 0052 C3F80720 		str	r2, [r3, #7]	@ unaligned
 229:ads1299.c     **** 	{
 386              		.loc 1 229 0 discriminator 3
 387 0056 9DF81730 		ldrb	r3, [sp, #23]	@ zero_extendqisi2
 388 005a 0133     		adds	r3, r3, #1
 389 005c DBB2     		uxtb	r3, r3
 390 005e 8DF81730 		strb	r3, [sp, #23]
 391              	.L15:
 229:ads1299.c     **** 	{
 392              		.loc 1 229 0 is_stmt 0 discriminator 1
ARM GAS  C:\Users\dmr85\AppData\Local\Temp\ccowpT5a.s 			page 25


 393 0062 9DF81730 		ldrb	r3, [sp, #23]	@ zero_extendqisi2
 394 0066 DBB2     		uxtb	r3, r3
 395 0068 072B     		cmp	r3, #7
 396 006a E1D9     		bls	.L16
 233:ads1299.c     **** 	}
 234:ads1299.c     **** 		
 235:ads1299.c     **** 	spi_unselectChip(SPI_ADDRESS, chip_select);
 397              		.loc 1 235 0 is_stmt 1
 398 006c 2946     		mov	r1, r5
 399 006e 0348     		ldr	r0, .L18
 400 0070 FFF7FEFF 		bl	spi_unselectChip
 401              	.LVL51:
 236:ads1299.c     **** 		
 237:ads1299.c     **** 	#else
 238:ads1299.c     **** 	#endif	/* #if UC3 */
 239:ads1299.c     **** 	return ADS1299_STATUS_OK;
 240:ads1299.c     **** }
 402              		.loc 1 240 0
 403 0074 0020     		movs	r0, #0
 404 0076 07B0     		add	sp, sp, #28
 405              		.cfi_def_cfa_offset 20
 406              		@ sp needed
 407 0078 F0BD     		pop	{r4, r5, r6, r7, pc}
 408              	.LVL52:
 409              	.L19:
 410 007a 00BF     		.align	2
 411              	.L18:
 412 007c 00000000 		.word	spi
 413              		.cfi_endproc
 414              	.LFE541:
 415              		.size	ads1299_rdata32_packet, .-ads1299_rdata32_packet
 416              		.section	.text.ads1299_rdata24_packet,"ax",%progbits
 417              		.align	2
 418              		.global	ads1299_rdata24_packet
 419              		.thumb
 420              		.thumb_func
 421              		.type	ads1299_rdata24_packet, %function
 422              	ads1299_rdata24_packet:
 423              	.LFB542:
 241:ads1299.c     **** 
 242:ads1299.c     **** ads1299_error_t ads1299_rdata24_packet(uint8_t chip_select, volatile uint32_t sample_idx, bboard_da
 243:ads1299.c     **** {
 424              		.loc 1 243 0
 425              		.cfi_startproc
 426              		@ args = 0, pretend = 0, frame = 16
 427              		@ frame_needed = 0, uses_anonymous_args = 0
 428              	.LVL53:
 429 0000 70B5     		push	{r4, r5, r6, lr}
 430              		.cfi_def_cfa_offset 16
 431              		.cfi_offset 4, -16
 432              		.cfi_offset 5, -12
 433              		.cfi_offset 6, -8
 434              		.cfi_offset 14, -4
 435 0002 84B0     		sub	sp, sp, #16
 436              		.cfi_def_cfa_offset 32
 437 0004 0546     		mov	r5, r0
 438 0006 0191     		str	r1, [sp, #4]
ARM GAS  C:\Users\dmr85\AppData\Local\Temp\ccowpT5a.s 			page 26


 439 0008 1446     		mov	r4, r2
 244:ads1299.c     **** 	#if UC3
 245:ads1299.c     **** 	volatile uint8_t channel_idx;
 246:ads1299.c     **** 	
 247:ads1299.c     **** 	uint8_t temp[3];
 248:ads1299.c     **** 	
 249:ads1299.c     **** 	/* Begin SPI comms */
 250:ads1299.c     **** 	spi_selectChip(SPI_ADDRESS, chip_select);
 440              		.loc 1 250 0
 441 000a 294E     		ldr	r6, .L24
 442 000c 0146     		mov	r1, r0
 443              	.LVL54:
 444 000e 3046     		mov	r0, r6
 445              	.LVL55:
 446 0010 FFF7FEFF 		bl	spi_selectChip
 447              	.LVL56:
 251:ads1299.c     **** 	
 252:ads1299.c     **** 	/* Function assumes we've already sent RDATA command or are in RDATAC mode */
 253:ads1299.c     **** 	
 254:ads1299.c     **** 	/* Read in status word first (24 bits) */
 255:ads1299.c     **** 	spi_read_packet(SPI_ADDRESS, temp);
 448              		.loc 1 255 0
 449 0014 03A9     		add	r1, sp, #12
 450 0016 3046     		mov	r0, r6
 451 0018 FFF7FEFF 		bl	spi_read_packet
 452              	.LVL57:
 256:ads1299.c     **** 	packet_ptr->eegstatus[0] = temp[0];
 453              		.loc 1 256 0
 454 001c 9DF80C30 		ldrb	r3, [sp, #12]	@ zero_extendqisi2
 455 0020 E370     		strb	r3, [r4, #3]
 257:ads1299.c     **** 	packet_ptr->eegstatus[1] = temp[1];
 456              		.loc 1 257 0
 457 0022 9DF80D30 		ldrb	r3, [sp, #13]	@ zero_extendqisi2
 458 0026 2371     		strb	r3, [r4, #4]
 258:ads1299.c     **** 	packet_ptr->eegstatus[2] = temp[2];
 459              		.loc 1 258 0
 460 0028 9DF80E30 		ldrb	r3, [sp, #14]	@ zero_extendqisi2
 461 002c 6371     		strb	r3, [r4, #5]
 259:ads1299.c     **** 	
 260:ads1299.c     **** 	/* Begin reading in data */
 261:ads1299.c     **** 	for (channel_idx = 0; channel_idx < MAX_EEG_CHANNELS; channel_idx++)
 462              		.loc 1 261 0
 463 002e 0023     		movs	r3, #0
 464 0030 8DF80F30 		strb	r3, [sp, #15]
 465 0034 30E0     		b	.L21
 466              	.L22:
 262:ads1299.c     **** 	{
 263:ads1299.c     **** 		spi_read_packet(SPI_ADDRESS, temp);
 467              		.loc 1 263 0 discriminator 3
 468 0036 03A9     		add	r1, sp, #12
 469 0038 1D48     		ldr	r0, .L24
 470 003a FFF7FEFF 		bl	spi_read_packet
 471              	.LVL58:
 264:ads1299.c     **** 		packet_ptr->eegdata[sample_idx][channel_idx][0] = temp[0];
 472              		.loc 1 264 0 discriminator 3
 473 003e 019A     		ldr	r2, [sp, #4]
 474 0040 9DF80F30 		ldrb	r3, [sp, #15]	@ zero_extendqisi2
ARM GAS  C:\Users\dmr85\AppData\Local\Temp\ccowpT5a.s 			page 27


 475 0044 9DF80C00 		ldrb	r0, [sp, #12]	@ zero_extendqisi2
 476 0048 03EB4301 		add	r1, r3, r3, lsl #1
 477 004c 02EB4202 		add	r2, r2, r2, lsl #1
 478 0050 D300     		lsls	r3, r2, #3
 479 0052 0B44     		add	r3, r3, r1
 480 0054 2344     		add	r3, r3, r4
 481 0056 9871     		strb	r0, [r3, #6]
 265:ads1299.c     **** 		packet_ptr->eegdata[sample_idx][channel_idx][1] = temp[1];
 482              		.loc 1 265 0 discriminator 3
 483 0058 019A     		ldr	r2, [sp, #4]
 484 005a 9DF80F30 		ldrb	r3, [sp, #15]	@ zero_extendqisi2
 485 005e 9DF80D00 		ldrb	r0, [sp, #13]	@ zero_extendqisi2
 486 0062 03EB4301 		add	r1, r3, r3, lsl #1
 487 0066 02EB4202 		add	r2, r2, r2, lsl #1
 488 006a D300     		lsls	r3, r2, #3
 489 006c 0B44     		add	r3, r3, r1
 490 006e 2344     		add	r3, r3, r4
 491 0070 D871     		strb	r0, [r3, #7]
 266:ads1299.c     **** 		packet_ptr->eegdata[sample_idx][channel_idx][2] = temp[2];
 492              		.loc 1 266 0 discriminator 3
 493 0072 019A     		ldr	r2, [sp, #4]
 494 0074 9DF80F30 		ldrb	r3, [sp, #15]	@ zero_extendqisi2
 495 0078 9DF80E00 		ldrb	r0, [sp, #14]	@ zero_extendqisi2
 496 007c 03EB4301 		add	r1, r3, r3, lsl #1
 497 0080 02EB4202 		add	r2, r2, r2, lsl #1
 498 0084 D300     		lsls	r3, r2, #3
 499 0086 0B44     		add	r3, r3, r1
 500 0088 2344     		add	r3, r3, r4
 501 008a 1872     		strb	r0, [r3, #8]
 261:ads1299.c     **** 	{
 502              		.loc 1 261 0 discriminator 3
 503 008c 9DF80F30 		ldrb	r3, [sp, #15]	@ zero_extendqisi2
 504 0090 0133     		adds	r3, r3, #1
 505 0092 DBB2     		uxtb	r3, r3
 506 0094 8DF80F30 		strb	r3, [sp, #15]
 507              	.L21:
 261:ads1299.c     **** 	{
 508              		.loc 1 261 0 is_stmt 0 discriminator 1
 509 0098 9DF80F30 		ldrb	r3, [sp, #15]	@ zero_extendqisi2
 510 009c DBB2     		uxtb	r3, r3
 511 009e 072B     		cmp	r3, #7
 512 00a0 C9D9     		bls	.L22
 267:ads1299.c     **** 	}
 268:ads1299.c     **** 	
 269:ads1299.c     **** 	spi_unselectChip(SPI_ADDRESS, chip_select);
 513              		.loc 1 269 0 is_stmt 1
 514 00a2 2946     		mov	r1, r5
 515 00a4 0248     		ldr	r0, .L24
 516 00a6 FFF7FEFF 		bl	spi_unselectChip
 517              	.LVL59:
 270:ads1299.c     **** 	
 271:ads1299.c     **** 	#else
 272:ads1299.c     **** 	#endif	/* #if UC3 */
 273:ads1299.c     **** 	return ADS1299_STATUS_OK;
 274:ads1299.c     **** }
 518              		.loc 1 274 0
 519 00aa 0020     		movs	r0, #0
ARM GAS  C:\Users\dmr85\AppData\Local\Temp\ccowpT5a.s 			page 28


 520 00ac 04B0     		add	sp, sp, #16
 521              		.cfi_def_cfa_offset 16
 522              		@ sp needed
 523 00ae 70BD     		pop	{r4, r5, r6, pc}
 524              	.LVL60:
 525              	.L25:
 526              		.align	2
 527              	.L24:
 528 00b0 00000000 		.word	spi
 529              		.cfi_endproc
 530              	.LFE542:
 531              		.size	ads1299_rdata24_packet, .-ads1299_rdata24_packet
 532              		.section	.text.ads1299_rdata24_generic,"ax",%progbits
 533              		.align	2
 534              		.global	ads1299_rdata24_generic
 535              		.thumb
 536              		.thumb_func
 537              		.type	ads1299_rdata24_generic, %function
 538              	ads1299_rdata24_generic:
 539              	.LFB543:
 275:ads1299.c     **** 
 276:ads1299.c     **** ads1299_error_t ads1299_rdata24_generic(uint8_t chip_select, volatile uint32_t sample_idx, volatile
 277:ads1299.c     **** {
 540              		.loc 1 277 0
 541              		.cfi_startproc
 542              		@ args = 0, pretend = 0, frame = 40
 543              		@ frame_needed = 0, uses_anonymous_args = 0
 544              	.LVL61:
 545 0000 70B5     		push	{r4, r5, r6, lr}
 546              		.cfi_def_cfa_offset 16
 547              		.cfi_offset 4, -16
 548              		.cfi_offset 5, -12
 549              		.cfi_offset 6, -8
 550              		.cfi_offset 14, -4
 551 0002 8AB0     		sub	sp, sp, #40
 552              		.cfi_def_cfa_offset 56
 553 0004 0646     		mov	r6, r0
 554 0006 0191     		str	r1, [sp, #4]
 555 0008 1C46     		mov	r4, r3
 278:ads1299.c     **** 	//#if UC3
 279:ads1299.c     **** 	volatile uint8_t channel_idx;
 280:ads1299.c     **** 	uint8_t sigtemp[MAX_EEG_CHANNELS+1][3];
 281:ads1299.c     **** 	
 282:ads1299.c     **** 	/* Begin SPI comms */
 283:ads1299.c     **** 	spi_selectChip(SPI_ADDRESS, chip_select);
 556              		.loc 1 283 0
 557 000a 0146     		mov	r1, r0
 558              	.LVL62:
 559 000c 3148     		ldr	r0, .L33
 560              	.LVL63:
 561 000e FFF7FEFF 		bl	spi_selectChip
 562              	.LVL64:
 563              	.L28:
 564              	.LBB12:
 565              	.LBB13:
 566              	.LBB14:
 567              	.LBB15:
ARM GAS  C:\Users\dmr85\AppData\Local\Temp\ccowpT5a.s 			page 29


 568              		.file 3 "Generated_Source\\PSoC6\\pdl\\drivers/peripheral/gpio/cy_gpio.h"
   1:Generated_Source\PSoC6\pdl\drivers/peripheral/gpio/cy_gpio.h **** /***************************************************************************//**
   2:Generated_Source\PSoC6\pdl\drivers/peripheral/gpio/cy_gpio.h **** * \file cy_gpio.h
   3:Generated_Source\PSoC6\pdl\drivers/peripheral/gpio/cy_gpio.h **** * \version 1.20
   4:Generated_Source\PSoC6\pdl\drivers/peripheral/gpio/cy_gpio.h **** *
   5:Generated_Source\PSoC6\pdl\drivers/peripheral/gpio/cy_gpio.h **** * Provides an API declaration of the GPIO driver
   6:Generated_Source\PSoC6\pdl\drivers/peripheral/gpio/cy_gpio.h **** *
   7:Generated_Source\PSoC6\pdl\drivers/peripheral/gpio/cy_gpio.h **** ********************************************************************************
   8:Generated_Source\PSoC6\pdl\drivers/peripheral/gpio/cy_gpio.h **** * \copyright
   9:Generated_Source\PSoC6\pdl\drivers/peripheral/gpio/cy_gpio.h **** * Copyright 2016-2018, Cypress Semiconductor Corporation. All rights reserved.
  10:Generated_Source\PSoC6\pdl\drivers/peripheral/gpio/cy_gpio.h **** * You may use this file only in accordance with the license, terms, conditions,
  11:Generated_Source\PSoC6\pdl\drivers/peripheral/gpio/cy_gpio.h **** * disclaimers, and limitations in the end user license agreement accompanying
  12:Generated_Source\PSoC6\pdl\drivers/peripheral/gpio/cy_gpio.h **** * the software package with which this file was provided.
  13:Generated_Source\PSoC6\pdl\drivers/peripheral/gpio/cy_gpio.h **** *******************************************************************************/
  14:Generated_Source\PSoC6\pdl\drivers/peripheral/gpio/cy_gpio.h **** 
  15:Generated_Source\PSoC6\pdl\drivers/peripheral/gpio/cy_gpio.h **** /**
  16:Generated_Source\PSoC6\pdl\drivers/peripheral/gpio/cy_gpio.h **** * \addtogroup group_gpio
  17:Generated_Source\PSoC6\pdl\drivers/peripheral/gpio/cy_gpio.h **** * \{
  18:Generated_Source\PSoC6\pdl\drivers/peripheral/gpio/cy_gpio.h **** * The GPIO driver provides an API to configure and access device Input/Output pins.
  19:Generated_Source\PSoC6\pdl\drivers/peripheral/gpio/cy_gpio.h **** *
  20:Generated_Source\PSoC6\pdl\drivers/peripheral/gpio/cy_gpio.h **** * The functions and other declarations used in this driver are in cy_gpio.h. 
  21:Generated_Source\PSoC6\pdl\drivers/peripheral/gpio/cy_gpio.h **** * You can include cy_pdl.h (ModusToolbox only) to get access to all functions 
  22:Generated_Source\PSoC6\pdl\drivers/peripheral/gpio/cy_gpio.h **** * and declarations in the PDL.
  23:Generated_Source\PSoC6\pdl\drivers/peripheral/gpio/cy_gpio.h **** *
  24:Generated_Source\PSoC6\pdl\drivers/peripheral/gpio/cy_gpio.h **** * IO pins include all general purpose types such as GPIO, SIO, HSIO, AUXIO, and
  25:Generated_Source\PSoC6\pdl\drivers/peripheral/gpio/cy_gpio.h **** * their variants.
  26:Generated_Source\PSoC6\pdl\drivers/peripheral/gpio/cy_gpio.h **** *
  27:Generated_Source\PSoC6\pdl\drivers/peripheral/gpio/cy_gpio.h **** * Initialization can be performed either at the port level or by configuring the
  28:Generated_Source\PSoC6\pdl\drivers/peripheral/gpio/cy_gpio.h **** * individual pins. For efficient use of code space, port
  29:Generated_Source\PSoC6\pdl\drivers/peripheral/gpio/cy_gpio.h **** * configuration should be used in the field. Refer to the product device header files 
  30:Generated_Source\PSoC6\pdl\drivers/peripheral/gpio/cy_gpio.h **** * for the list of supported ports and pins.
  31:Generated_Source\PSoC6\pdl\drivers/peripheral/gpio/cy_gpio.h **** * 
  32:Generated_Source\PSoC6\pdl\drivers/peripheral/gpio/cy_gpio.h **** * - Single pin configuration is performed by using \ref Cy_GPIO_Pin_FastInit 
  33:Generated_Source\PSoC6\pdl\drivers/peripheral/gpio/cy_gpio.h **** *   (provide specific values) or \ref Cy_GPIO_Pin_Init (provide a filled
  34:Generated_Source\PSoC6\pdl\drivers/peripheral/gpio/cy_gpio.h **** *   cy_stc_gpio_pin_config_t structure).
  35:Generated_Source\PSoC6\pdl\drivers/peripheral/gpio/cy_gpio.h **** * - An entire port can be configured using \ref Cy_GPIO_Port_Init. Provide a filled 
  36:Generated_Source\PSoC6\pdl\drivers/peripheral/gpio/cy_gpio.h **** *   cy_stc_gpio_prt_config_t structure. The values in the structure are 
  37:Generated_Source\PSoC6\pdl\drivers/peripheral/gpio/cy_gpio.h **** *   bitfields representing the desired value for each pin in the port.
  38:Generated_Source\PSoC6\pdl\drivers/peripheral/gpio/cy_gpio.h **** * - Pin configuration and management is based on the port address and pin number.
  39:Generated_Source\PSoC6\pdl\drivers/peripheral/gpio/cy_gpio.h **** *   \ref Cy_GPIO_PortToAddr function can optionally be used to calculate the port
  40:Generated_Source\PSoC6\pdl\drivers/peripheral/gpio/cy_gpio.h **** *   address from the port number at run-time.
  41:Generated_Source\PSoC6\pdl\drivers/peripheral/gpio/cy_gpio.h **** *
  42:Generated_Source\PSoC6\pdl\drivers/peripheral/gpio/cy_gpio.h **** * Once the pin/port initialization is complete, each pin can be accessed by 
  43:Generated_Source\PSoC6\pdl\drivers/peripheral/gpio/cy_gpio.h **** * specifying the port (GPIO_PRT_Type) and the pin (0-7) in the provided API 
  44:Generated_Source\PSoC6\pdl\drivers/peripheral/gpio/cy_gpio.h **** * functions.
  45:Generated_Source\PSoC6\pdl\drivers/peripheral/gpio/cy_gpio.h **** *
  46:Generated_Source\PSoC6\pdl\drivers/peripheral/gpio/cy_gpio.h **** * \section group_gpio_configuration Configuration Considerations
  47:Generated_Source\PSoC6\pdl\drivers/peripheral/gpio/cy_gpio.h **** *
  48:Generated_Source\PSoC6\pdl\drivers/peripheral/gpio/cy_gpio.h **** * 1. Pin multiplexing is controlled through the High-Speed IO Matrix (HSIOM) selection.
  49:Generated_Source\PSoC6\pdl\drivers/peripheral/gpio/cy_gpio.h **** *    This allows the pin to connect to signal sources/sinks throughout the device,
  50:Generated_Source\PSoC6\pdl\drivers/peripheral/gpio/cy_gpio.h **** *    as defined by the pin HSIOM selection options (en_hsiom_sel_t).
  51:Generated_Source\PSoC6\pdl\drivers/peripheral/gpio/cy_gpio.h **** * 2. All pins are initialized to High-Z drive mode with HSIOM connected to CPU (SW
  52:Generated_Source\PSoC6\pdl\drivers/peripheral/gpio/cy_gpio.h **** *    control digital pin only) at Power-On-Reset(POR).
  53:Generated_Source\PSoC6\pdl\drivers/peripheral/gpio/cy_gpio.h **** * 3. Some API functions perform read-modify-write operations on shared port
  54:Generated_Source\PSoC6\pdl\drivers/peripheral/gpio/cy_gpio.h **** *    registers. These functions are not thread safe and care must be taken when
  55:Generated_Source\PSoC6\pdl\drivers/peripheral/gpio/cy_gpio.h **** *    called by the application.
  56:Generated_Source\PSoC6\pdl\drivers/peripheral/gpio/cy_gpio.h **** * 4. Digital input buffer provides a high-impedance buffer for the external 
ARM GAS  C:\Users\dmr85\AppData\Local\Temp\ccowpT5a.s 			page 30


  57:Generated_Source\PSoC6\pdl\drivers/peripheral/gpio/cy_gpio.h **** *    digital input. The input buffer is connected to the HSIOM for routing to 
  58:Generated_Source\PSoC6\pdl\drivers/peripheral/gpio/cy_gpio.h **** *    the CPU port registers and selected peripheral. Enabling the input 
  59:Generated_Source\PSoC6\pdl\drivers/peripheral/gpio/cy_gpio.h **** *    buffer provides possibility to read the pin state via the CPU.
  60:Generated_Source\PSoC6\pdl\drivers/peripheral/gpio/cy_gpio.h **** *    If pin is connected to an analog signal, the input buffer should be 
  61:Generated_Source\PSoC6\pdl\drivers/peripheral/gpio/cy_gpio.h **** *    disabled to avoid crowbar currents. For more information refer to device 
  62:Generated_Source\PSoC6\pdl\drivers/peripheral/gpio/cy_gpio.h **** *    TRM and the device datasheet.
  63:Generated_Source\PSoC6\pdl\drivers/peripheral/gpio/cy_gpio.h **** *
  64:Generated_Source\PSoC6\pdl\drivers/peripheral/gpio/cy_gpio.h **** * Multiple pins on a port can be updated using direct port register writes with an
  65:Generated_Source\PSoC6\pdl\drivers/peripheral/gpio/cy_gpio.h **** * appropriate port mask. An example is shown below, highlighting the different ways of 
  66:Generated_Source\PSoC6\pdl\drivers/peripheral/gpio/cy_gpio.h **** * configuring Port 1 pins using:
  67:Generated_Source\PSoC6\pdl\drivers/peripheral/gpio/cy_gpio.h **** * 
  68:Generated_Source\PSoC6\pdl\drivers/peripheral/gpio/cy_gpio.h **** * - Port output data register
  69:Generated_Source\PSoC6\pdl\drivers/peripheral/gpio/cy_gpio.h **** * - Port output data set register
  70:Generated_Source\PSoC6\pdl\drivers/peripheral/gpio/cy_gpio.h **** * - Port output data clear register
  71:Generated_Source\PSoC6\pdl\drivers/peripheral/gpio/cy_gpio.h **** *
  72:Generated_Source\PSoC6\pdl\drivers/peripheral/gpio/cy_gpio.h **** * \snippet gpio/gpio_v1_10_sut_01.cydsn/main_cm4.c Cy_GPIO_Snippet
  73:Generated_Source\PSoC6\pdl\drivers/peripheral/gpio/cy_gpio.h **** *
  74:Generated_Source\PSoC6\pdl\drivers/peripheral/gpio/cy_gpio.h **** * \section group_gpio_more_information More Information
  75:Generated_Source\PSoC6\pdl\drivers/peripheral/gpio/cy_gpio.h **** *
  76:Generated_Source\PSoC6\pdl\drivers/peripheral/gpio/cy_gpio.h **** * Refer to the technical reference manual (TRM) and the device datasheet.
  77:Generated_Source\PSoC6\pdl\drivers/peripheral/gpio/cy_gpio.h **** *
  78:Generated_Source\PSoC6\pdl\drivers/peripheral/gpio/cy_gpio.h **** * \section group_gpio_MISRA MISRA-C Compliance
  79:Generated_Source\PSoC6\pdl\drivers/peripheral/gpio/cy_gpio.h **** * The GPIO driver has the following specific deviations:
  80:Generated_Source\PSoC6\pdl\drivers/peripheral/gpio/cy_gpio.h **** *
  81:Generated_Source\PSoC6\pdl\drivers/peripheral/gpio/cy_gpio.h **** * <table class="doxtable">
  82:Generated_Source\PSoC6\pdl\drivers/peripheral/gpio/cy_gpio.h **** *   <tr>
  83:Generated_Source\PSoC6\pdl\drivers/peripheral/gpio/cy_gpio.h **** *     <th>MISRA Rule</th>
  84:Generated_Source\PSoC6\pdl\drivers/peripheral/gpio/cy_gpio.h **** *     <th>Rule Class (Required/Advisory)</th>
  85:Generated_Source\PSoC6\pdl\drivers/peripheral/gpio/cy_gpio.h **** *     <th>Rule Description</th>
  86:Generated_Source\PSoC6\pdl\drivers/peripheral/gpio/cy_gpio.h **** *     <th>Description of Deviation(s)</th>
  87:Generated_Source\PSoC6\pdl\drivers/peripheral/gpio/cy_gpio.h **** *   </tr>
  88:Generated_Source\PSoC6\pdl\drivers/peripheral/gpio/cy_gpio.h **** *   <tr>
  89:Generated_Source\PSoC6\pdl\drivers/peripheral/gpio/cy_gpio.h **** *     <td>11.4</td>
  90:Generated_Source\PSoC6\pdl\drivers/peripheral/gpio/cy_gpio.h **** *     <td>A</td>
  91:Generated_Source\PSoC6\pdl\drivers/peripheral/gpio/cy_gpio.h **** *     <td>A cast should not be performed between a pointer to object type and
  92:Generated_Source\PSoC6\pdl\drivers/peripheral/gpio/cy_gpio.h **** *         a different pointer to object type.</td>
  93:Generated_Source\PSoC6\pdl\drivers/peripheral/gpio/cy_gpio.h **** *     <td> This code is safe because the elements of both GPIO_PRT_V1_Type and GPIO_PRT_V2_Type 
  94:Generated_Source\PSoC6\pdl\drivers/peripheral/gpio/cy_gpio.h **** *          types have identical alignment.</td>
  95:Generated_Source\PSoC6\pdl\drivers/peripheral/gpio/cy_gpio.h **** *   </tr>
  96:Generated_Source\PSoC6\pdl\drivers/peripheral/gpio/cy_gpio.h **** *   <tr>
  97:Generated_Source\PSoC6\pdl\drivers/peripheral/gpio/cy_gpio.h **** *     <td>16.7</td>
  98:Generated_Source\PSoC6\pdl\drivers/peripheral/gpio/cy_gpio.h **** *     <td>A</td>
  99:Generated_Source\PSoC6\pdl\drivers/peripheral/gpio/cy_gpio.h **** *     <td>A pointer parameter in a function prototype should be declared as pointer 
 100:Generated_Source\PSoC6\pdl\drivers/peripheral/gpio/cy_gpio.h **** *         to const if the pointer is not used to modify the addressed object.</td>
 101:Generated_Source\PSoC6\pdl\drivers/peripheral/gpio/cy_gpio.h **** *     <td>The objects pointed to by the base addresses of the GPIO port are not always modified.
 102:Generated_Source\PSoC6\pdl\drivers/peripheral/gpio/cy_gpio.h **** *         While a const qualifier can be used in select scenarios, it brings little benefit
 103:Generated_Source\PSoC6\pdl\drivers/peripheral/gpio/cy_gpio.h **** *         in adding this to the affected functions. </td>
 104:Generated_Source\PSoC6\pdl\drivers/peripheral/gpio/cy_gpio.h **** *   </tr>
 105:Generated_Source\PSoC6\pdl\drivers/peripheral/gpio/cy_gpio.h **** * </table>
 106:Generated_Source\PSoC6\pdl\drivers/peripheral/gpio/cy_gpio.h **** *
 107:Generated_Source\PSoC6\pdl\drivers/peripheral/gpio/cy_gpio.h **** * \section group_gpio_changelog Changelog
 108:Generated_Source\PSoC6\pdl\drivers/peripheral/gpio/cy_gpio.h **** * <table class="doxtable">
 109:Generated_Source\PSoC6\pdl\drivers/peripheral/gpio/cy_gpio.h **** *   <tr><th>Version</th><th>Changes</th><th>Reason for Change</th></tr>
 110:Generated_Source\PSoC6\pdl\drivers/peripheral/gpio/cy_gpio.h **** *   <tr>
 111:Generated_Source\PSoC6\pdl\drivers/peripheral/gpio/cy_gpio.h **** *     <td rowspan="3">1.20</td>
 112:Generated_Source\PSoC6\pdl\drivers/peripheral/gpio/cy_gpio.h **** *     <td>Flattened the organization of the driver source code into the single source directory and
 113:Generated_Source\PSoC6\pdl\drivers/peripheral/gpio/cy_gpio.h **** *     <td>Driver library directory-structure simplification.</td>
ARM GAS  C:\Users\dmr85\AppData\Local\Temp\ccowpT5a.s 			page 31


 114:Generated_Source\PSoC6\pdl\drivers/peripheral/gpio/cy_gpio.h **** *   </tr>
 115:Generated_Source\PSoC6\pdl\drivers/peripheral/gpio/cy_gpio.h **** *   <tr>
 116:Generated_Source\PSoC6\pdl\drivers/peripheral/gpio/cy_gpio.h **** *     <td>Added the functions for configuring the AMux bus splitter switch cells:
 117:Generated_Source\PSoC6\pdl\drivers/peripheral/gpio/cy_gpio.h **** *     - \ref Cy_GPIO_SetAmuxSplit
 118:Generated_Source\PSoC6\pdl\drivers/peripheral/gpio/cy_gpio.h **** *     - \ref Cy_GPIO_GetAmuxSplit
 119:Generated_Source\PSoC6\pdl\drivers/peripheral/gpio/cy_gpio.h **** *     </td>
 120:Generated_Source\PSoC6\pdl\drivers/peripheral/gpio/cy_gpio.h **** *     <td>Added a new functionality related to AMux bus.</td>
 121:Generated_Source\PSoC6\pdl\drivers/peripheral/gpio/cy_gpio.h **** *   </tr>
 122:Generated_Source\PSoC6\pdl\drivers/peripheral/gpio/cy_gpio.h **** *   <tr>
 123:Generated_Source\PSoC6\pdl\drivers/peripheral/gpio/cy_gpio.h **** *     <td>Added register access layer. Use register access macros instead
 124:Generated_Source\PSoC6\pdl\drivers/peripheral/gpio/cy_gpio.h **** *         of direct register access using dereferenced pointers.</td>
 125:Generated_Source\PSoC6\pdl\drivers/peripheral/gpio/cy_gpio.h **** *     <td>Makes register access device-independent, so that the PDL does 
 126:Generated_Source\PSoC6\pdl\drivers/peripheral/gpio/cy_gpio.h **** *         not need to be recompiled for each supported part number.</td>
 127:Generated_Source\PSoC6\pdl\drivers/peripheral/gpio/cy_gpio.h **** *   </tr>
 128:Generated_Source\PSoC6\pdl\drivers/peripheral/gpio/cy_gpio.h **** *   <tr>
 129:Generated_Source\PSoC6\pdl\drivers/peripheral/gpio/cy_gpio.h **** *     <td>1.10.1</td>
 130:Generated_Source\PSoC6\pdl\drivers/peripheral/gpio/cy_gpio.h **** *     <td>Updated description for the functions: \ref Cy_GPIO_GetInterruptStatus, 
 131:Generated_Source\PSoC6\pdl\drivers/peripheral/gpio/cy_gpio.h **** *         \ref Cy_GPIO_GetInterruptMask, \ref Cy_GPIO_GetInterruptStatusMasked.
 132:Generated_Source\PSoC6\pdl\drivers/peripheral/gpio/cy_gpio.h **** *
 133:Generated_Source\PSoC6\pdl\drivers/peripheral/gpio/cy_gpio.h **** *         Minor documentation edits.
 134:Generated_Source\PSoC6\pdl\drivers/peripheral/gpio/cy_gpio.h **** *     </td>
 135:Generated_Source\PSoC6\pdl\drivers/peripheral/gpio/cy_gpio.h **** *     <td>Documentation update and clarification</td>
 136:Generated_Source\PSoC6\pdl\drivers/peripheral/gpio/cy_gpio.h **** *   </tr>
 137:Generated_Source\PSoC6\pdl\drivers/peripheral/gpio/cy_gpio.h **** *   <tr>
 138:Generated_Source\PSoC6\pdl\drivers/peripheral/gpio/cy_gpio.h **** *     <td>1.10</td>
 139:Generated_Source\PSoC6\pdl\drivers/peripheral/gpio/cy_gpio.h **** *     <td>Added input parameter validation to the API functions</td>
 140:Generated_Source\PSoC6\pdl\drivers/peripheral/gpio/cy_gpio.h **** *     <td></td>
 141:Generated_Source\PSoC6\pdl\drivers/peripheral/gpio/cy_gpio.h **** *   </tr>
 142:Generated_Source\PSoC6\pdl\drivers/peripheral/gpio/cy_gpio.h **** *   <tr>
 143:Generated_Source\PSoC6\pdl\drivers/peripheral/gpio/cy_gpio.h **** *     <td>1.0</td>
 144:Generated_Source\PSoC6\pdl\drivers/peripheral/gpio/cy_gpio.h **** *     <td>Initial version</td>
 145:Generated_Source\PSoC6\pdl\drivers/peripheral/gpio/cy_gpio.h **** *     <td></td>
 146:Generated_Source\PSoC6\pdl\drivers/peripheral/gpio/cy_gpio.h **** *   </tr>
 147:Generated_Source\PSoC6\pdl\drivers/peripheral/gpio/cy_gpio.h **** * </table>
 148:Generated_Source\PSoC6\pdl\drivers/peripheral/gpio/cy_gpio.h **** *
 149:Generated_Source\PSoC6\pdl\drivers/peripheral/gpio/cy_gpio.h **** * \defgroup group_gpio_macros Macros
 150:Generated_Source\PSoC6\pdl\drivers/peripheral/gpio/cy_gpio.h **** * \defgroup group_gpio_functions Functions
 151:Generated_Source\PSoC6\pdl\drivers/peripheral/gpio/cy_gpio.h **** * \{
 152:Generated_Source\PSoC6\pdl\drivers/peripheral/gpio/cy_gpio.h **** *   \defgroup group_gpio_functions_init       Initialization Functions
 153:Generated_Source\PSoC6\pdl\drivers/peripheral/gpio/cy_gpio.h **** *   \defgroup group_gpio_functions_gpio       GPIO Functions
 154:Generated_Source\PSoC6\pdl\drivers/peripheral/gpio/cy_gpio.h **** *   \defgroup group_gpio_functions_sio        SIO Functions
 155:Generated_Source\PSoC6\pdl\drivers/peripheral/gpio/cy_gpio.h **** *   \defgroup group_gpio_functions_interrupt  Port Interrupt Functions
 156:Generated_Source\PSoC6\pdl\drivers/peripheral/gpio/cy_gpio.h **** * \}
 157:Generated_Source\PSoC6\pdl\drivers/peripheral/gpio/cy_gpio.h **** * \defgroup group_gpio_data_structures Data Structures
 158:Generated_Source\PSoC6\pdl\drivers/peripheral/gpio/cy_gpio.h **** * \defgroup group_gpio_enums Enumerated Types
 159:Generated_Source\PSoC6\pdl\drivers/peripheral/gpio/cy_gpio.h **** */
 160:Generated_Source\PSoC6\pdl\drivers/peripheral/gpio/cy_gpio.h **** 
 161:Generated_Source\PSoC6\pdl\drivers/peripheral/gpio/cy_gpio.h **** #if !defined(CY_GPIO_H)
 162:Generated_Source\PSoC6\pdl\drivers/peripheral/gpio/cy_gpio.h **** #define CY_GPIO_H
 163:Generated_Source\PSoC6\pdl\drivers/peripheral/gpio/cy_gpio.h **** 
 164:Generated_Source\PSoC6\pdl\drivers/peripheral/gpio/cy_gpio.h **** #include <stddef.h>
 165:Generated_Source\PSoC6\pdl\drivers/peripheral/gpio/cy_gpio.h **** #include "cy_device.h"
 166:Generated_Source\PSoC6\pdl\drivers/peripheral/gpio/cy_gpio.h **** #include "cy_device_headers.h"
 167:Generated_Source\PSoC6\pdl\drivers/peripheral/gpio/cy_gpio.h **** #include "cy_syslib.h"
 168:Generated_Source\PSoC6\pdl\drivers/peripheral/gpio/cy_gpio.h **** 
 169:Generated_Source\PSoC6\pdl\drivers/peripheral/gpio/cy_gpio.h **** #if defined(__cplusplus)
 170:Generated_Source\PSoC6\pdl\drivers/peripheral/gpio/cy_gpio.h **** extern "C" {
ARM GAS  C:\Users\dmr85\AppData\Local\Temp\ccowpT5a.s 			page 32


 171:Generated_Source\PSoC6\pdl\drivers/peripheral/gpio/cy_gpio.h **** #endif
 172:Generated_Source\PSoC6\pdl\drivers/peripheral/gpio/cy_gpio.h **** 
 173:Generated_Source\PSoC6\pdl\drivers/peripheral/gpio/cy_gpio.h **** /** \addtogroup group_gpio_macros
 174:Generated_Source\PSoC6\pdl\drivers/peripheral/gpio/cy_gpio.h **** * \{
 175:Generated_Source\PSoC6\pdl\drivers/peripheral/gpio/cy_gpio.h **** */
 176:Generated_Source\PSoC6\pdl\drivers/peripheral/gpio/cy_gpio.h **** 
 177:Generated_Source\PSoC6\pdl\drivers/peripheral/gpio/cy_gpio.h **** /** Driver major version */
 178:Generated_Source\PSoC6\pdl\drivers/peripheral/gpio/cy_gpio.h **** #define CY_GPIO_DRV_VERSION_MAJOR       1
 179:Generated_Source\PSoC6\pdl\drivers/peripheral/gpio/cy_gpio.h **** 
 180:Generated_Source\PSoC6\pdl\drivers/peripheral/gpio/cy_gpio.h **** /** Driver minor version */
 181:Generated_Source\PSoC6\pdl\drivers/peripheral/gpio/cy_gpio.h **** #define CY_GPIO_DRV_VERSION_MINOR       20
 182:Generated_Source\PSoC6\pdl\drivers/peripheral/gpio/cy_gpio.h **** 
 183:Generated_Source\PSoC6\pdl\drivers/peripheral/gpio/cy_gpio.h **** /** GPIO driver ID */
 184:Generated_Source\PSoC6\pdl\drivers/peripheral/gpio/cy_gpio.h **** #define CY_GPIO_ID CY_PDL_DRV_ID(0x16U)
 185:Generated_Source\PSoC6\pdl\drivers/peripheral/gpio/cy_gpio.h **** 
 186:Generated_Source\PSoC6\pdl\drivers/peripheral/gpio/cy_gpio.h **** /** \} group_gpio_macros */
 187:Generated_Source\PSoC6\pdl\drivers/peripheral/gpio/cy_gpio.h **** 
 188:Generated_Source\PSoC6\pdl\drivers/peripheral/gpio/cy_gpio.h **** 
 189:Generated_Source\PSoC6\pdl\drivers/peripheral/gpio/cy_gpio.h **** /***************************************
 190:Generated_Source\PSoC6\pdl\drivers/peripheral/gpio/cy_gpio.h **** *       Enumerations
 191:Generated_Source\PSoC6\pdl\drivers/peripheral/gpio/cy_gpio.h **** ***************************************/
 192:Generated_Source\PSoC6\pdl\drivers/peripheral/gpio/cy_gpio.h **** /**
 193:Generated_Source\PSoC6\pdl\drivers/peripheral/gpio/cy_gpio.h **** * \addtogroup group_gpio_enums
 194:Generated_Source\PSoC6\pdl\drivers/peripheral/gpio/cy_gpio.h **** * \{
 195:Generated_Source\PSoC6\pdl\drivers/peripheral/gpio/cy_gpio.h **** */
 196:Generated_Source\PSoC6\pdl\drivers/peripheral/gpio/cy_gpio.h **** 
 197:Generated_Source\PSoC6\pdl\drivers/peripheral/gpio/cy_gpio.h **** /** GPIO Driver error codes */
 198:Generated_Source\PSoC6\pdl\drivers/peripheral/gpio/cy_gpio.h **** typedef enum 
 199:Generated_Source\PSoC6\pdl\drivers/peripheral/gpio/cy_gpio.h **** {
 200:Generated_Source\PSoC6\pdl\drivers/peripheral/gpio/cy_gpio.h ****     CY_GPIO_SUCCESS   = 0x00U,                                    /**< Returned successful */
 201:Generated_Source\PSoC6\pdl\drivers/peripheral/gpio/cy_gpio.h ****     CY_GPIO_BAD_PARAM = CY_GPIO_ID | CY_PDL_STATUS_ERROR | 0x01U, /**< Bad parameter was passed */
 202:Generated_Source\PSoC6\pdl\drivers/peripheral/gpio/cy_gpio.h **** } cy_en_gpio_status_t;
 203:Generated_Source\PSoC6\pdl\drivers/peripheral/gpio/cy_gpio.h **** 
 204:Generated_Source\PSoC6\pdl\drivers/peripheral/gpio/cy_gpio.h **** /** AMux switch open/close config */
 205:Generated_Source\PSoC6\pdl\drivers/peripheral/gpio/cy_gpio.h **** typedef enum
 206:Generated_Source\PSoC6\pdl\drivers/peripheral/gpio/cy_gpio.h **** {
 207:Generated_Source\PSoC6\pdl\drivers/peripheral/gpio/cy_gpio.h ****     CY_GPIO_AMUX_OPENALL,   /**< Open ground switch. Open right switch. Open left switch */
 208:Generated_Source\PSoC6\pdl\drivers/peripheral/gpio/cy_gpio.h ****     CY_GPIO_AMUX_L,         /**< Open ground switch. Open right switch. Close left switch */
 209:Generated_Source\PSoC6\pdl\drivers/peripheral/gpio/cy_gpio.h ****     CY_GPIO_AMUX_R,         /**< Open ground switch. Close right switch. Open left switch */
 210:Generated_Source\PSoC6\pdl\drivers/peripheral/gpio/cy_gpio.h ****     CY_GPIO_AMUX_LR,        /**< Open ground switch. Close right switch. Close left switch */
 211:Generated_Source\PSoC6\pdl\drivers/peripheral/gpio/cy_gpio.h ****     CY_GPIO_AMUX_G,         /**< Close ground switch. Open right switch. Open left switch */
 212:Generated_Source\PSoC6\pdl\drivers/peripheral/gpio/cy_gpio.h ****     CY_GPIO_AMUX_GL,        /**< Close ground switch. Open right switch. Close left switch */
 213:Generated_Source\PSoC6\pdl\drivers/peripheral/gpio/cy_gpio.h ****     CY_GPIO_AMUX_GR,        /**< Close ground switch. Close right switch. Open left switch */
 214:Generated_Source\PSoC6\pdl\drivers/peripheral/gpio/cy_gpio.h ****     CY_GPIO_AMUX_GLR,       /**< Close ground switch. Close right switch. Close left switch */
 215:Generated_Source\PSoC6\pdl\drivers/peripheral/gpio/cy_gpio.h **** }cy_en_gpio_amuxconnect_t;
 216:Generated_Source\PSoC6\pdl\drivers/peripheral/gpio/cy_gpio.h **** 
 217:Generated_Source\PSoC6\pdl\drivers/peripheral/gpio/cy_gpio.h **** /**
 218:Generated_Source\PSoC6\pdl\drivers/peripheral/gpio/cy_gpio.h **** * AMux Bus selection
 219:Generated_Source\PSoC6\pdl\drivers/peripheral/gpio/cy_gpio.h **** */
 220:Generated_Source\PSoC6\pdl\drivers/peripheral/gpio/cy_gpio.h **** typedef enum
 221:Generated_Source\PSoC6\pdl\drivers/peripheral/gpio/cy_gpio.h **** {
 222:Generated_Source\PSoC6\pdl\drivers/peripheral/gpio/cy_gpio.h ****     CY_GPIO_AMUXBUSA,       /**< AMuxBus A */
 223:Generated_Source\PSoC6\pdl\drivers/peripheral/gpio/cy_gpio.h ****     CY_GPIO_AMUXBUSB        /**< AMuxBus B */
 224:Generated_Source\PSoC6\pdl\drivers/peripheral/gpio/cy_gpio.h **** }cy_en_gpio_amuxselect_t;
 225:Generated_Source\PSoC6\pdl\drivers/peripheral/gpio/cy_gpio.h **** 
 226:Generated_Source\PSoC6\pdl\drivers/peripheral/gpio/cy_gpio.h **** /** \} group_gpio_enums */
 227:Generated_Source\PSoC6\pdl\drivers/peripheral/gpio/cy_gpio.h **** 
ARM GAS  C:\Users\dmr85\AppData\Local\Temp\ccowpT5a.s 			page 33


 228:Generated_Source\PSoC6\pdl\drivers/peripheral/gpio/cy_gpio.h **** 
 229:Generated_Source\PSoC6\pdl\drivers/peripheral/gpio/cy_gpio.h **** /***************************************
 230:Generated_Source\PSoC6\pdl\drivers/peripheral/gpio/cy_gpio.h **** *       Configuration Structures
 231:Generated_Source\PSoC6\pdl\drivers/peripheral/gpio/cy_gpio.h **** ***************************************/
 232:Generated_Source\PSoC6\pdl\drivers/peripheral/gpio/cy_gpio.h **** 
 233:Generated_Source\PSoC6\pdl\drivers/peripheral/gpio/cy_gpio.h **** /**
 234:Generated_Source\PSoC6\pdl\drivers/peripheral/gpio/cy_gpio.h **** * \addtogroup group_gpio_data_structures
 235:Generated_Source\PSoC6\pdl\drivers/peripheral/gpio/cy_gpio.h **** * \{
 236:Generated_Source\PSoC6\pdl\drivers/peripheral/gpio/cy_gpio.h **** */
 237:Generated_Source\PSoC6\pdl\drivers/peripheral/gpio/cy_gpio.h **** 
 238:Generated_Source\PSoC6\pdl\drivers/peripheral/gpio/cy_gpio.h **** /** This structure is used to initialize a port of GPIO pins */
 239:Generated_Source\PSoC6\pdl\drivers/peripheral/gpio/cy_gpio.h **** typedef struct 
 240:Generated_Source\PSoC6\pdl\drivers/peripheral/gpio/cy_gpio.h **** {
 241:Generated_Source\PSoC6\pdl\drivers/peripheral/gpio/cy_gpio.h ****     uint32_t out;           /**< Initial output data for the IO pins in the port */
 242:Generated_Source\PSoC6\pdl\drivers/peripheral/gpio/cy_gpio.h ****     uint32_t intrMask;      /**< Interrupt enable mask for the port interrupt */
 243:Generated_Source\PSoC6\pdl\drivers/peripheral/gpio/cy_gpio.h ****     uint32_t intrCfg;       /**< Port pin interrupt edge detection configuration */
 244:Generated_Source\PSoC6\pdl\drivers/peripheral/gpio/cy_gpio.h ****     uint32_t cfg;           /**< Port pin drive modes and input buffer enable configuration */
 245:Generated_Source\PSoC6\pdl\drivers/peripheral/gpio/cy_gpio.h ****     uint32_t cfgIn;         /**< Port pin input buffer configuration */
 246:Generated_Source\PSoC6\pdl\drivers/peripheral/gpio/cy_gpio.h ****     uint32_t cfgOut;        /**< Port pin output buffer configuration */
 247:Generated_Source\PSoC6\pdl\drivers/peripheral/gpio/cy_gpio.h ****     uint32_t cfgSIO;        /**< Port SIO pins configuration */
 248:Generated_Source\PSoC6\pdl\drivers/peripheral/gpio/cy_gpio.h ****     uint32_t sel0Active;    /**< HSIOM selection for port pins 0,1,2,3 */
 249:Generated_Source\PSoC6\pdl\drivers/peripheral/gpio/cy_gpio.h ****     uint32_t sel1Active;    /**< HSIOM selection for port pins 4,5,6,7 */
 250:Generated_Source\PSoC6\pdl\drivers/peripheral/gpio/cy_gpio.h **** } cy_stc_gpio_prt_config_t;
 251:Generated_Source\PSoC6\pdl\drivers/peripheral/gpio/cy_gpio.h **** 
 252:Generated_Source\PSoC6\pdl\drivers/peripheral/gpio/cy_gpio.h **** /** This structure is used to initialize a single GPIO pin */
 253:Generated_Source\PSoC6\pdl\drivers/peripheral/gpio/cy_gpio.h **** typedef struct
 254:Generated_Source\PSoC6\pdl\drivers/peripheral/gpio/cy_gpio.h **** {
 255:Generated_Source\PSoC6\pdl\drivers/peripheral/gpio/cy_gpio.h ****     uint32_t outVal;         /**< Pin output state */
 256:Generated_Source\PSoC6\pdl\drivers/peripheral/gpio/cy_gpio.h ****     uint32_t driveMode;      /**< Drive mode */
 257:Generated_Source\PSoC6\pdl\drivers/peripheral/gpio/cy_gpio.h ****     en_hsiom_sel_t hsiom;    /**< HSIOM selection */
 258:Generated_Source\PSoC6\pdl\drivers/peripheral/gpio/cy_gpio.h ****     uint32_t intEdge;        /**< Interrupt Edge type */
 259:Generated_Source\PSoC6\pdl\drivers/peripheral/gpio/cy_gpio.h ****     uint32_t intMask;        /**< Interrupt enable mask */
 260:Generated_Source\PSoC6\pdl\drivers/peripheral/gpio/cy_gpio.h ****     uint32_t vtrip;          /**< Input buffer voltage trip type */
 261:Generated_Source\PSoC6\pdl\drivers/peripheral/gpio/cy_gpio.h ****     uint32_t slewRate;       /**< Output buffer slew rate */
 262:Generated_Source\PSoC6\pdl\drivers/peripheral/gpio/cy_gpio.h ****     uint32_t driveSel;       /**< Drive strength */
 263:Generated_Source\PSoC6\pdl\drivers/peripheral/gpio/cy_gpio.h ****     uint32_t vregEn;         /**< SIO pair output buffer mode */
 264:Generated_Source\PSoC6\pdl\drivers/peripheral/gpio/cy_gpio.h ****     uint32_t ibufMode;       /**< SIO pair input buffer mode */
 265:Generated_Source\PSoC6\pdl\drivers/peripheral/gpio/cy_gpio.h ****     uint32_t vtripSel;       /**< SIO pair input buffer trip point */
 266:Generated_Source\PSoC6\pdl\drivers/peripheral/gpio/cy_gpio.h ****     uint32_t vrefSel;        /**< SIO pair reference voltage for input buffer trip point */
 267:Generated_Source\PSoC6\pdl\drivers/peripheral/gpio/cy_gpio.h ****     uint32_t vohSel;         /**< SIO pair regulated voltage output level */
 268:Generated_Source\PSoC6\pdl\drivers/peripheral/gpio/cy_gpio.h **** } cy_stc_gpio_pin_config_t;
 269:Generated_Source\PSoC6\pdl\drivers/peripheral/gpio/cy_gpio.h **** 
 270:Generated_Source\PSoC6\pdl\drivers/peripheral/gpio/cy_gpio.h **** /** \} group_gpio_data_structures */
 271:Generated_Source\PSoC6\pdl\drivers/peripheral/gpio/cy_gpio.h **** 
 272:Generated_Source\PSoC6\pdl\drivers/peripheral/gpio/cy_gpio.h **** /***************************************
 273:Generated_Source\PSoC6\pdl\drivers/peripheral/gpio/cy_gpio.h **** *        Constants
 274:Generated_Source\PSoC6\pdl\drivers/peripheral/gpio/cy_gpio.h **** ***************************************/
 275:Generated_Source\PSoC6\pdl\drivers/peripheral/gpio/cy_gpio.h **** 
 276:Generated_Source\PSoC6\pdl\drivers/peripheral/gpio/cy_gpio.h **** /** \cond INTERNAL */
 277:Generated_Source\PSoC6\pdl\drivers/peripheral/gpio/cy_gpio.h **** 
 278:Generated_Source\PSoC6\pdl\drivers/peripheral/gpio/cy_gpio.h **** /* General Constants */
 279:Generated_Source\PSoC6\pdl\drivers/peripheral/gpio/cy_gpio.h **** #define CY_GPIO_PRT_HALF                       (4UL)      /**< Half-way point of a GPIO port */
 280:Generated_Source\PSoC6\pdl\drivers/peripheral/gpio/cy_gpio.h **** #define CY_GPIO_PRT_DEINIT                     (0UL)      /**< De-init value for port registers */
 281:Generated_Source\PSoC6\pdl\drivers/peripheral/gpio/cy_gpio.h **** 
 282:Generated_Source\PSoC6\pdl\drivers/peripheral/gpio/cy_gpio.h **** /* GPIO Masks */
 283:Generated_Source\PSoC6\pdl\drivers/peripheral/gpio/cy_gpio.h **** #define CY_GPIO_HSIOM_MASK                     (0x1FUL)   /**< HSIOM selection mask */
 284:Generated_Source\PSoC6\pdl\drivers/peripheral/gpio/cy_gpio.h **** #define CY_GPIO_OUT_MASK                       (0x01UL)   /**< Single pin mask for OUT register */
ARM GAS  C:\Users\dmr85\AppData\Local\Temp\ccowpT5a.s 			page 34


 285:Generated_Source\PSoC6\pdl\drivers/peripheral/gpio/cy_gpio.h **** #define CY_GPIO_IN_MASK                        (0x01UL)   /**< Single pin mask for IN register */
 286:Generated_Source\PSoC6\pdl\drivers/peripheral/gpio/cy_gpio.h **** #define CY_GPIO_CFG_DM_MASK                    (0x0FUL)   /**< Single pin mask for drive mode in CF
 287:Generated_Source\PSoC6\pdl\drivers/peripheral/gpio/cy_gpio.h **** #define CY_GPIO_CFG_IN_VTRIP_SEL_MASK          (0x01UL)   /**< Single pin mask for VTRIP selection 
 288:Generated_Source\PSoC6\pdl\drivers/peripheral/gpio/cy_gpio.h **** #define CY_GPIO_CFG_OUT_SLOW_MASK              (0x01UL)   /**< Single pin mask for slew rate in CFG
 289:Generated_Source\PSoC6\pdl\drivers/peripheral/gpio/cy_gpio.h **** #define CY_GPIO_CFG_OUT_DRIVE_SEL_MASK         (0x03UL)   /**< Single pin mask for drive strength i
 290:Generated_Source\PSoC6\pdl\drivers/peripheral/gpio/cy_gpio.h **** #define CY_GPIO_INTR_STATUS_MASK               (0x01UL)   /**< Single pin mask for interrupt status
 291:Generated_Source\PSoC6\pdl\drivers/peripheral/gpio/cy_gpio.h **** #define CY_GPIO_INTR_EN_MASK                   (0x01UL)   /**< Single pin mask for interrupt status
 292:Generated_Source\PSoC6\pdl\drivers/peripheral/gpio/cy_gpio.h **** #define CY_GPIO_INTR_MASKED_MASK               (0x01UL)   /**< Single pin mask for masked interrupt
 293:Generated_Source\PSoC6\pdl\drivers/peripheral/gpio/cy_gpio.h **** #define CY_GPIO_INTR_SET_MASK                  (0x01UL)   /**< Single pin mask for setting the inte
 294:Generated_Source\PSoC6\pdl\drivers/peripheral/gpio/cy_gpio.h **** #define CY_GPIO_INTR_EDGE_MASK                 (0x03UL)   /**< Single pin mask for interrupt edge t
 295:Generated_Source\PSoC6\pdl\drivers/peripheral/gpio/cy_gpio.h **** #define CY_GPIO_INTR_FLT_EDGE_MASK             (0x07UL)   /**< Single pin mask for setting filtered
 296:Generated_Source\PSoC6\pdl\drivers/peripheral/gpio/cy_gpio.h **** 
 297:Generated_Source\PSoC6\pdl\drivers/peripheral/gpio/cy_gpio.h **** /* SIO Masks */
 298:Generated_Source\PSoC6\pdl\drivers/peripheral/gpio/cy_gpio.h **** #define CY_GPIO_VREG_EN_MASK                   (0x01UL)   /**< Single SIO pin mask for voltage regu
 299:Generated_Source\PSoC6\pdl\drivers/peripheral/gpio/cy_gpio.h **** #define CY_GPIO_IBUF_MASK                      (0x01UL)   /**< Single SIO pin mask for input buffer
 300:Generated_Source\PSoC6\pdl\drivers/peripheral/gpio/cy_gpio.h **** #define CY_GPIO_IBUF_SHIFT                     (0x01UL)   /**< Single SIO pin shift for input buffe
 301:Generated_Source\PSoC6\pdl\drivers/peripheral/gpio/cy_gpio.h **** #define CY_GPIO_VTRIP_SEL_MASK                 (0x01UL)   /**< Single SIO pin mask for the input bu
 302:Generated_Source\PSoC6\pdl\drivers/peripheral/gpio/cy_gpio.h **** #define CY_GPIO_VTRIP_SEL_SHIFT                (0x02UL)   /**< Single SIO pin shift for the input b
 303:Generated_Source\PSoC6\pdl\drivers/peripheral/gpio/cy_gpio.h **** #define CY_GPIO_VREF_SEL_MASK                  (0x03UL)   /**< Single SIO pin mask for voltage refe
 304:Generated_Source\PSoC6\pdl\drivers/peripheral/gpio/cy_gpio.h **** #define CY_GPIO_VREF_SEL_SHIFT                 (0x03UL)   /**< Single SIO pin shift for voltage ref
 305:Generated_Source\PSoC6\pdl\drivers/peripheral/gpio/cy_gpio.h **** #define CY_GPIO_VOH_SEL_MASK                   (0x07UL)   /**< Single SIO pin mask for VOH */
 306:Generated_Source\PSoC6\pdl\drivers/peripheral/gpio/cy_gpio.h **** #define CY_GPIO_VOH_SEL_SHIFT                  (0x05UL)   /**< Single SIO pin shift for VOH */
 307:Generated_Source\PSoC6\pdl\drivers/peripheral/gpio/cy_gpio.h **** 
 308:Generated_Source\PSoC6\pdl\drivers/peripheral/gpio/cy_gpio.h **** /* Special mask for SIO pin pair setting */
 309:Generated_Source\PSoC6\pdl\drivers/peripheral/gpio/cy_gpio.h **** #define CY_GPIO_SIO_ODD_PIN_MASK               (0x00FEUL) /**< SIO pin pair selection mask */
 310:Generated_Source\PSoC6\pdl\drivers/peripheral/gpio/cy_gpio.h **** #define CY_GPIO_SIO_PIN_MASK                   (0x00FFUL) /**< SIO pin pair mask */
 311:Generated_Source\PSoC6\pdl\drivers/peripheral/gpio/cy_gpio.h **** 
 312:Generated_Source\PSoC6\pdl\drivers/peripheral/gpio/cy_gpio.h **** /* Offsets */
 313:Generated_Source\PSoC6\pdl\drivers/peripheral/gpio/cy_gpio.h **** #define CY_GPIO_HSIOM_OFFSET                   (3UL)      /**< Offset for HSIOM */
 314:Generated_Source\PSoC6\pdl\drivers/peripheral/gpio/cy_gpio.h **** #define CY_GPIO_DRIVE_MODE_OFFSET              (2UL)      /**< Offset for Drive mode */
 315:Generated_Source\PSoC6\pdl\drivers/peripheral/gpio/cy_gpio.h **** #define CY_GPIO_INBUF_OFFSET                   (3UL)      /**< Offset for input buffer */
 316:Generated_Source\PSoC6\pdl\drivers/peripheral/gpio/cy_gpio.h **** #define CY_GPIO_CFG_OUT_DRIVE_OFFSET           (16UL)     /**< Offset for drive strength */
 317:Generated_Source\PSoC6\pdl\drivers/peripheral/gpio/cy_gpio.h **** #define CY_GPIO_INTR_CFG_OFFSET                (1UL)      /**< Offset for interrupt config */
 318:Generated_Source\PSoC6\pdl\drivers/peripheral/gpio/cy_gpio.h **** #define CY_GPIO_INTR_FILT_OFFSET               (18UL)     /**< Offset for filtered interrupt config
 319:Generated_Source\PSoC6\pdl\drivers/peripheral/gpio/cy_gpio.h **** #define CY_GPIO_CFG_SIO_OFFSET                 (2UL)      /**< Offset for SIO config */
 320:Generated_Source\PSoC6\pdl\drivers/peripheral/gpio/cy_gpio.h **** 
 321:Generated_Source\PSoC6\pdl\drivers/peripheral/gpio/cy_gpio.h **** /* Parameter validation constants */
 322:Generated_Source\PSoC6\pdl\drivers/peripheral/gpio/cy_gpio.h **** #define CY_GPIO_PINS_MAX                       (8UL)      /**< Number of pins in the port */
 323:Generated_Source\PSoC6\pdl\drivers/peripheral/gpio/cy_gpio.h **** #define CY_GPIO_PRT_PINS_MASK                  (0x0000000FFUL)
 324:Generated_Source\PSoC6\pdl\drivers/peripheral/gpio/cy_gpio.h **** #define CY_GPIO_PRT_INTR_CFG_EDGE_SEL_MASK     (GPIO_PRT_INTR_CFG_EDGE0_SEL_Msk | \
 325:Generated_Source\PSoC6\pdl\drivers/peripheral/gpio/cy_gpio.h ****                                                 GPIO_PRT_INTR_CFG_EDGE1_SEL_Msk | \
 326:Generated_Source\PSoC6\pdl\drivers/peripheral/gpio/cy_gpio.h ****                                                 GPIO_PRT_INTR_CFG_EDGE2_SEL_Msk | \
 327:Generated_Source\PSoC6\pdl\drivers/peripheral/gpio/cy_gpio.h ****                                                 GPIO_PRT_INTR_CFG_EDGE3_SEL_Msk | \
 328:Generated_Source\PSoC6\pdl\drivers/peripheral/gpio/cy_gpio.h ****                                                 GPIO_PRT_INTR_CFG_EDGE4_SEL_Msk | \
 329:Generated_Source\PSoC6\pdl\drivers/peripheral/gpio/cy_gpio.h ****                                                 GPIO_PRT_INTR_CFG_EDGE5_SEL_Msk | \
 330:Generated_Source\PSoC6\pdl\drivers/peripheral/gpio/cy_gpio.h ****                                                 GPIO_PRT_INTR_CFG_EDGE6_SEL_Msk | \
 331:Generated_Source\PSoC6\pdl\drivers/peripheral/gpio/cy_gpio.h ****                                                 GPIO_PRT_INTR_CFG_EDGE7_SEL_Msk)
 332:Generated_Source\PSoC6\pdl\drivers/peripheral/gpio/cy_gpio.h **** #define CY_GPIO_PRT_INTR_CFG_RANGE_MASK        (CY_GPIO_PRT_INTR_CFG_EDGE_SEL_MASK | \
 333:Generated_Source\PSoC6\pdl\drivers/peripheral/gpio/cy_gpio.h ****                                                 GPIO_PRT_INTR_CFG_FLT_EDGE_SEL_Msk | \
 334:Generated_Source\PSoC6\pdl\drivers/peripheral/gpio/cy_gpio.h ****                                                 GPIO_PRT_INTR_CFG_FLT_SEL_Msk)
 335:Generated_Source\PSoC6\pdl\drivers/peripheral/gpio/cy_gpio.h **** #define CY_GPIO_PRT_INT_MASK_MASK              (0x0000001FFUL)
 336:Generated_Source\PSoC6\pdl\drivers/peripheral/gpio/cy_gpio.h **** #define CY_GPIO_PRT_SEL_ACTIVE_MASK            (0x1FFFFFFFUL)
 337:Generated_Source\PSoC6\pdl\drivers/peripheral/gpio/cy_gpio.h **** 
 338:Generated_Source\PSoC6\pdl\drivers/peripheral/gpio/cy_gpio.h **** #define GPIO_MAX_SPLIT_CELL_SEGMENTS           (9U)
 339:Generated_Source\PSoC6\pdl\drivers/peripheral/gpio/cy_gpio.h **** 
 340:Generated_Source\PSoC6\pdl\drivers/peripheral/gpio/cy_gpio.h **** /* Parameter validation macros */
 341:Generated_Source\PSoC6\pdl\drivers/peripheral/gpio/cy_gpio.h **** #define CY_GPIO_IS_PIN_VALID(pinNum)           (CY_GPIO_PINS_MAX > (pinNum))
ARM GAS  C:\Users\dmr85\AppData\Local\Temp\ccowpT5a.s 			page 35


 342:Generated_Source\PSoC6\pdl\drivers/peripheral/gpio/cy_gpio.h **** #define CY_GPIO_IS_FILTER_PIN_VALID(pinNum)    (CY_GPIO_PINS_MAX >= (pinNum))
 343:Generated_Source\PSoC6\pdl\drivers/peripheral/gpio/cy_gpio.h **** #define CY_GPIO_IS_VALUE_VALID(outVal)         (1UL >= (outVal))
 344:Generated_Source\PSoC6\pdl\drivers/peripheral/gpio/cy_gpio.h **** #define CY_GPIO_IS_DM_VALID(driveMode)         (0U == ((driveMode) & (uint32_t)~CY_GPIO_CFG_DM_MASK
 345:Generated_Source\PSoC6\pdl\drivers/peripheral/gpio/cy_gpio.h **** 
 346:Generated_Source\PSoC6\pdl\drivers/peripheral/gpio/cy_gpio.h **** #define CY_GPIO_IS_HSIOM_VALID(hsiom)          (0U == ((hsiom) & (uint32_t)~CY_GPIO_HSIOM_MASK))
 347:Generated_Source\PSoC6\pdl\drivers/peripheral/gpio/cy_gpio.h **** 
 348:Generated_Source\PSoC6\pdl\drivers/peripheral/gpio/cy_gpio.h **** #define CY_GPIO_IS_INT_EDGE_VALID(intEdge)     ((CY_GPIO_INTR_DISABLE  == (intEdge)) || \
 349:Generated_Source\PSoC6\pdl\drivers/peripheral/gpio/cy_gpio.h ****                                                 (CY_GPIO_INTR_RISING   == (intEdge)) || \
 350:Generated_Source\PSoC6\pdl\drivers/peripheral/gpio/cy_gpio.h ****                                                 (CY_GPIO_INTR_FALLING  == (intEdge)) || \
 351:Generated_Source\PSoC6\pdl\drivers/peripheral/gpio/cy_gpio.h ****                                                 (CY_GPIO_INTR_BOTH     == (intEdge)))
 352:Generated_Source\PSoC6\pdl\drivers/peripheral/gpio/cy_gpio.h **** 
 353:Generated_Source\PSoC6\pdl\drivers/peripheral/gpio/cy_gpio.h **** #define CY_GPIO_IS_DRIVE_SEL_VALID(driveSel)   ((CY_GPIO_DRIVE_FULL    == (driveSel)) || \
 354:Generated_Source\PSoC6\pdl\drivers/peripheral/gpio/cy_gpio.h ****                                                 (CY_GPIO_DRIVE_1_2     == (driveSel)) || \
 355:Generated_Source\PSoC6\pdl\drivers/peripheral/gpio/cy_gpio.h ****                                                 (CY_GPIO_DRIVE_1_4     == (driveSel)) || \
 356:Generated_Source\PSoC6\pdl\drivers/peripheral/gpio/cy_gpio.h ****                                                 (CY_GPIO_DRIVE_1_8     == (driveSel)))
 357:Generated_Source\PSoC6\pdl\drivers/peripheral/gpio/cy_gpio.h **** 
 358:Generated_Source\PSoC6\pdl\drivers/peripheral/gpio/cy_gpio.h **** #define CY_GPIO_IS_VREF_SEL_VALID(vrefSel)     ((CY_SIO_VREF_PINREF    == (vrefSel)) || \
 359:Generated_Source\PSoC6\pdl\drivers/peripheral/gpio/cy_gpio.h ****                                                 (CY_SIO_VREF_1_2V      == (vrefSel)) || \
 360:Generated_Source\PSoC6\pdl\drivers/peripheral/gpio/cy_gpio.h ****                                                 (CY_SIO_VREF_AMUX_A    == (vrefSel)) || \
 361:Generated_Source\PSoC6\pdl\drivers/peripheral/gpio/cy_gpio.h ****                                                 (CY_SIO_VREF_AMUX_B    == (vrefSel)))
 362:Generated_Source\PSoC6\pdl\drivers/peripheral/gpio/cy_gpio.h **** 
 363:Generated_Source\PSoC6\pdl\drivers/peripheral/gpio/cy_gpio.h **** #define CY_GPIO_IS_VOH_SEL_VALID(vrefSel)      ((CY_SIO_VOH_1_00       == (vrefSel)) || \
 364:Generated_Source\PSoC6\pdl\drivers/peripheral/gpio/cy_gpio.h ****                                                 (CY_SIO_VOH_1_25       == (vrefSel)) || \
 365:Generated_Source\PSoC6\pdl\drivers/peripheral/gpio/cy_gpio.h ****                                                 (CY_SIO_VOH_1_49       == (vrefSel)) || \
 366:Generated_Source\PSoC6\pdl\drivers/peripheral/gpio/cy_gpio.h ****                                                 (CY_SIO_VOH_1_67       == (vrefSel)) || \
 367:Generated_Source\PSoC6\pdl\drivers/peripheral/gpio/cy_gpio.h ****                                                 (CY_SIO_VOH_2_08       == (vrefSel)) || \
 368:Generated_Source\PSoC6\pdl\drivers/peripheral/gpio/cy_gpio.h ****                                                 (CY_SIO_VOH_2_50       == (vrefSel)) || \
 369:Generated_Source\PSoC6\pdl\drivers/peripheral/gpio/cy_gpio.h ****                                                 (CY_SIO_VOH_2_78       == (vrefSel)) || \
 370:Generated_Source\PSoC6\pdl\drivers/peripheral/gpio/cy_gpio.h ****                                                 (CY_SIO_VOH_4_16       == (vrefSel)))
 371:Generated_Source\PSoC6\pdl\drivers/peripheral/gpio/cy_gpio.h ****                    
 372:Generated_Source\PSoC6\pdl\drivers/peripheral/gpio/cy_gpio.h **** #define CY_GPIO_IS_PIN_BIT_VALID(pinBit)       (0U == ((pinBit) & (uint32_t)~CY_GPIO_PRT_PINS_MASK)
 373:Generated_Source\PSoC6\pdl\drivers/peripheral/gpio/cy_gpio.h **** #define CY_GPIO_IS_INTR_CFG_VALID(intrCfg)     (0U == ((intrCfg) & (uint32_t)~CY_GPIO_PRT_INTR_CFG_
 374:Generated_Source\PSoC6\pdl\drivers/peripheral/gpio/cy_gpio.h **** #define CY_GPIO_IS_INTR_MASK_VALID(intrMask)   (0U == ((intrMask) & (uint32_t)~CY_GPIO_PRT_INT_MASK
 375:Generated_Source\PSoC6\pdl\drivers/peripheral/gpio/cy_gpio.h **** #define CY_GPIO_IS_SEL_ACT_VALID(selActive)    (0U == ((selActive) & (uint32_t)~CY_GPIO_PRT_SEL_ACT
 376:Generated_Source\PSoC6\pdl\drivers/peripheral/gpio/cy_gpio.h **** 
 377:Generated_Source\PSoC6\pdl\drivers/peripheral/gpio/cy_gpio.h **** #define CY_GPIO_IS_AMUX_SPLIT_VALID(switchCtrl)       (((uint32_t) (switchCtrl)) < GPIO_MAX_SPLIT_C
 378:Generated_Source\PSoC6\pdl\drivers/peripheral/gpio/cy_gpio.h **** 
 379:Generated_Source\PSoC6\pdl\drivers/peripheral/gpio/cy_gpio.h **** #define CY_GPIO_IS_AMUX_CONNECT_VALID(amuxConnect)    ((CY_GPIO_AMUX_OPENALL == (amuxConnect)) || \
 380:Generated_Source\PSoC6\pdl\drivers/peripheral/gpio/cy_gpio.h ****                                                        (CY_GPIO_AMUX_L       == (amuxConnect)) || \
 381:Generated_Source\PSoC6\pdl\drivers/peripheral/gpio/cy_gpio.h ****                                                        (CY_GPIO_AMUX_R       == (amuxConnect)) || \
 382:Generated_Source\PSoC6\pdl\drivers/peripheral/gpio/cy_gpio.h ****                                                        (CY_GPIO_AMUX_LR      == (amuxConnect)) || \
 383:Generated_Source\PSoC6\pdl\drivers/peripheral/gpio/cy_gpio.h ****                                                        (CY_GPIO_AMUX_G       == (amuxConnect)) || \
 384:Generated_Source\PSoC6\pdl\drivers/peripheral/gpio/cy_gpio.h ****                                                        (CY_GPIO_AMUX_GL      == (amuxConnect)) || \
 385:Generated_Source\PSoC6\pdl\drivers/peripheral/gpio/cy_gpio.h ****                                                        (CY_GPIO_AMUX_GR      == (amuxConnect)) || \
 386:Generated_Source\PSoC6\pdl\drivers/peripheral/gpio/cy_gpio.h ****                                                        (CY_GPIO_AMUX_GLR     == (amuxConnect)))
 387:Generated_Source\PSoC6\pdl\drivers/peripheral/gpio/cy_gpio.h **** 
 388:Generated_Source\PSoC6\pdl\drivers/peripheral/gpio/cy_gpio.h **** #define CY_GPIO_IS_AMUX_SELECT_VALID(amuxBus)       ((CY_GPIO_AMUXBUSA       == (amuxBus)) || \
 389:Generated_Source\PSoC6\pdl\drivers/peripheral/gpio/cy_gpio.h ****                                                      (CY_GPIO_AMUXBUSB       == (amuxBus)))
 390:Generated_Source\PSoC6\pdl\drivers/peripheral/gpio/cy_gpio.h **** /** \endcond */
 391:Generated_Source\PSoC6\pdl\drivers/peripheral/gpio/cy_gpio.h **** 
 392:Generated_Source\PSoC6\pdl\drivers/peripheral/gpio/cy_gpio.h **** 
 393:Generated_Source\PSoC6\pdl\drivers/peripheral/gpio/cy_gpio.h **** /***************************************
 394:Generated_Source\PSoC6\pdl\drivers/peripheral/gpio/cy_gpio.h **** *        Function Constants
 395:Generated_Source\PSoC6\pdl\drivers/peripheral/gpio/cy_gpio.h **** ***************************************/
 396:Generated_Source\PSoC6\pdl\drivers/peripheral/gpio/cy_gpio.h **** 
 397:Generated_Source\PSoC6\pdl\drivers/peripheral/gpio/cy_gpio.h **** /**
 398:Generated_Source\PSoC6\pdl\drivers/peripheral/gpio/cy_gpio.h **** * \addtogroup group_gpio_macros
ARM GAS  C:\Users\dmr85\AppData\Local\Temp\ccowpT5a.s 			page 36


 399:Generated_Source\PSoC6\pdl\drivers/peripheral/gpio/cy_gpio.h **** * \{
 400:Generated_Source\PSoC6\pdl\drivers/peripheral/gpio/cy_gpio.h **** */
 401:Generated_Source\PSoC6\pdl\drivers/peripheral/gpio/cy_gpio.h **** 
 402:Generated_Source\PSoC6\pdl\drivers/peripheral/gpio/cy_gpio.h **** /**
 403:Generated_Source\PSoC6\pdl\drivers/peripheral/gpio/cy_gpio.h **** * \defgroup group_gpio_driveModes Pin drive mode
 404:Generated_Source\PSoC6\pdl\drivers/peripheral/gpio/cy_gpio.h **** * \{
 405:Generated_Source\PSoC6\pdl\drivers/peripheral/gpio/cy_gpio.h **** * Constants to be used for setting the drive mode of the pin.
 406:Generated_Source\PSoC6\pdl\drivers/peripheral/gpio/cy_gpio.h **** */
 407:Generated_Source\PSoC6\pdl\drivers/peripheral/gpio/cy_gpio.h **** #define CY_GPIO_DM_ANALOG                      (0x00UL) /**< Analog High-Z. Input buffer off */
 408:Generated_Source\PSoC6\pdl\drivers/peripheral/gpio/cy_gpio.h **** #define CY_GPIO_DM_PULLUP_IN_OFF               (0x02UL) /**< Resistive Pull-Up. Input buffer off */
 409:Generated_Source\PSoC6\pdl\drivers/peripheral/gpio/cy_gpio.h **** #define CY_GPIO_DM_PULLDOWN_IN_OFF             (0x03UL) /**< Resistive Pull-Down. Input buffer off 
 410:Generated_Source\PSoC6\pdl\drivers/peripheral/gpio/cy_gpio.h **** #define CY_GPIO_DM_OD_DRIVESLOW_IN_OFF         (0x04UL) /**< Open Drain, Drives Low. Input buffer o
 411:Generated_Source\PSoC6\pdl\drivers/peripheral/gpio/cy_gpio.h **** #define CY_GPIO_DM_OD_DRIVESHIGH_IN_OFF        (0x05UL) /**< Open Drain, Drives High. Input buffer 
 412:Generated_Source\PSoC6\pdl\drivers/peripheral/gpio/cy_gpio.h **** #define CY_GPIO_DM_STRONG_IN_OFF               (0x06UL) /**< Strong Drive. Input buffer off */
 413:Generated_Source\PSoC6\pdl\drivers/peripheral/gpio/cy_gpio.h **** #define CY_GPIO_DM_PULLUP_DOWN_IN_OFF          (0x07UL) /**< Resistive Pull-Up/Down. Input buffer o
 414:Generated_Source\PSoC6\pdl\drivers/peripheral/gpio/cy_gpio.h **** #define CY_GPIO_DM_HIGHZ                       (0x08UL) /**< Digital High-Z. Input buffer on */
 415:Generated_Source\PSoC6\pdl\drivers/peripheral/gpio/cy_gpio.h **** #define CY_GPIO_DM_PULLUP                      (0x0AUL) /**< Resistive Pull-Up. Input buffer on */
 416:Generated_Source\PSoC6\pdl\drivers/peripheral/gpio/cy_gpio.h **** #define CY_GPIO_DM_PULLDOWN                    (0x0BUL) /**< Resistive Pull-Down. Input buffer on *
 417:Generated_Source\PSoC6\pdl\drivers/peripheral/gpio/cy_gpio.h **** #define CY_GPIO_DM_OD_DRIVESLOW                (0x0CUL) /**< Open Drain, Drives Low. Input buffer o
 418:Generated_Source\PSoC6\pdl\drivers/peripheral/gpio/cy_gpio.h **** #define CY_GPIO_DM_OD_DRIVESHIGH               (0x0DUL) /**< Open Drain, Drives High. Input buffer 
 419:Generated_Source\PSoC6\pdl\drivers/peripheral/gpio/cy_gpio.h **** #define CY_GPIO_DM_STRONG                      (0x0EUL) /**< Strong Drive. Input buffer on */
 420:Generated_Source\PSoC6\pdl\drivers/peripheral/gpio/cy_gpio.h **** #define CY_GPIO_DM_PULLUP_DOWN                 (0x0FUL) /**< Resistive Pull-Up/Down. Input buffer o
 421:Generated_Source\PSoC6\pdl\drivers/peripheral/gpio/cy_gpio.h **** /** \} */
 422:Generated_Source\PSoC6\pdl\drivers/peripheral/gpio/cy_gpio.h **** 
 423:Generated_Source\PSoC6\pdl\drivers/peripheral/gpio/cy_gpio.h **** /**
 424:Generated_Source\PSoC6\pdl\drivers/peripheral/gpio/cy_gpio.h **** * \defgroup group_gpio_vtrip Voltage trip mode
 425:Generated_Source\PSoC6\pdl\drivers/peripheral/gpio/cy_gpio.h **** * \{
 426:Generated_Source\PSoC6\pdl\drivers/peripheral/gpio/cy_gpio.h **** * Constants to be used for setting the voltage trip type on the pin.
 427:Generated_Source\PSoC6\pdl\drivers/peripheral/gpio/cy_gpio.h **** */
 428:Generated_Source\PSoC6\pdl\drivers/peripheral/gpio/cy_gpio.h **** #define CY_GPIO_VTRIP_CMOS                     (0x00UL) /**< Input buffer compatible with CMOS and 
 429:Generated_Source\PSoC6\pdl\drivers/peripheral/gpio/cy_gpio.h **** #define CY_GPIO_VTRIP_TTL                      (0x01UL) /**< Input buffer compatible with TTL and M
 430:Generated_Source\PSoC6\pdl\drivers/peripheral/gpio/cy_gpio.h **** /** \} */
 431:Generated_Source\PSoC6\pdl\drivers/peripheral/gpio/cy_gpio.h **** 
 432:Generated_Source\PSoC6\pdl\drivers/peripheral/gpio/cy_gpio.h **** /**
 433:Generated_Source\PSoC6\pdl\drivers/peripheral/gpio/cy_gpio.h **** * \defgroup group_gpio_slewRate Slew Rate Mode
 434:Generated_Source\PSoC6\pdl\drivers/peripheral/gpio/cy_gpio.h **** * \{
 435:Generated_Source\PSoC6\pdl\drivers/peripheral/gpio/cy_gpio.h **** * Constants to be used for setting the slew rate of the pin.
 436:Generated_Source\PSoC6\pdl\drivers/peripheral/gpio/cy_gpio.h **** */
 437:Generated_Source\PSoC6\pdl\drivers/peripheral/gpio/cy_gpio.h **** #define CY_GPIO_SLEW_FAST                      (0x00UL) /**< Fast slew rate */
 438:Generated_Source\PSoC6\pdl\drivers/peripheral/gpio/cy_gpio.h **** #define CY_GPIO_SLEW_SLOW                      (0x01UL) /**< Slow slew rate */
 439:Generated_Source\PSoC6\pdl\drivers/peripheral/gpio/cy_gpio.h **** /** \} */
 440:Generated_Source\PSoC6\pdl\drivers/peripheral/gpio/cy_gpio.h **** 
 441:Generated_Source\PSoC6\pdl\drivers/peripheral/gpio/cy_gpio.h **** /**
 442:Generated_Source\PSoC6\pdl\drivers/peripheral/gpio/cy_gpio.h **** * \defgroup group_gpio_driveStrength Pin drive strength
 443:Generated_Source\PSoC6\pdl\drivers/peripheral/gpio/cy_gpio.h **** * \{
 444:Generated_Source\PSoC6\pdl\drivers/peripheral/gpio/cy_gpio.h **** * Constants to be used for setting the drive strength of the pin.
 445:Generated_Source\PSoC6\pdl\drivers/peripheral/gpio/cy_gpio.h **** */
 446:Generated_Source\PSoC6\pdl\drivers/peripheral/gpio/cy_gpio.h **** #define CY_GPIO_DRIVE_FULL                     (0x00UL) /**< Full drive strength: Max drive current
 447:Generated_Source\PSoC6\pdl\drivers/peripheral/gpio/cy_gpio.h **** #define CY_GPIO_DRIVE_1_2                      (0x01UL) /**< 1/2 drive strength: 1/2 drive current 
 448:Generated_Source\PSoC6\pdl\drivers/peripheral/gpio/cy_gpio.h **** #define CY_GPIO_DRIVE_1_4                      (0x02UL) /**< 1/4 drive strength: 1/4 drive current 
 449:Generated_Source\PSoC6\pdl\drivers/peripheral/gpio/cy_gpio.h **** #define CY_GPIO_DRIVE_1_8                      (0x03UL) /**< 1/8 drive strength: 1/8 drive current 
 450:Generated_Source\PSoC6\pdl\drivers/peripheral/gpio/cy_gpio.h **** /** \} */
 451:Generated_Source\PSoC6\pdl\drivers/peripheral/gpio/cy_gpio.h **** 
 452:Generated_Source\PSoC6\pdl\drivers/peripheral/gpio/cy_gpio.h **** /**
 453:Generated_Source\PSoC6\pdl\drivers/peripheral/gpio/cy_gpio.h **** * \defgroup group_gpio_interruptTrigger Interrupt trigger type
 454:Generated_Source\PSoC6\pdl\drivers/peripheral/gpio/cy_gpio.h **** * \{
 455:Generated_Source\PSoC6\pdl\drivers/peripheral/gpio/cy_gpio.h **** * Constants to be used for setting the interrupt trigger type on the pin.
ARM GAS  C:\Users\dmr85\AppData\Local\Temp\ccowpT5a.s 			page 37


 456:Generated_Source\PSoC6\pdl\drivers/peripheral/gpio/cy_gpio.h **** */
 457:Generated_Source\PSoC6\pdl\drivers/peripheral/gpio/cy_gpio.h **** #define CY_GPIO_INTR_DISABLE                   (0x00UL) /**< Disable the pin interrupt generation *
 458:Generated_Source\PSoC6\pdl\drivers/peripheral/gpio/cy_gpio.h **** #define CY_GPIO_INTR_RISING                    (0x01UL) /**< Rising-Edge interrupt */
 459:Generated_Source\PSoC6\pdl\drivers/peripheral/gpio/cy_gpio.h **** #define CY_GPIO_INTR_FALLING                   (0x02UL) /**< Falling-Edge interrupt */
 460:Generated_Source\PSoC6\pdl\drivers/peripheral/gpio/cy_gpio.h **** #define CY_GPIO_INTR_BOTH                      (0x03UL) /**< Both-Edge interrupt */
 461:Generated_Source\PSoC6\pdl\drivers/peripheral/gpio/cy_gpio.h **** /** \} */
 462:Generated_Source\PSoC6\pdl\drivers/peripheral/gpio/cy_gpio.h **** 
 463:Generated_Source\PSoC6\pdl\drivers/peripheral/gpio/cy_gpio.h **** /**
 464:Generated_Source\PSoC6\pdl\drivers/peripheral/gpio/cy_gpio.h **** * \defgroup group_gpio_sioVreg SIO output buffer mode
 465:Generated_Source\PSoC6\pdl\drivers/peripheral/gpio/cy_gpio.h **** * \{
 466:Generated_Source\PSoC6\pdl\drivers/peripheral/gpio/cy_gpio.h **** * Constants to be used for setting the SIO output buffer mode on the pin.
 467:Generated_Source\PSoC6\pdl\drivers/peripheral/gpio/cy_gpio.h **** */
 468:Generated_Source\PSoC6\pdl\drivers/peripheral/gpio/cy_gpio.h **** #define CY_SIO_VREG_UNREGULATED                (0x00UL) /**< Unregulated output buffer */
 469:Generated_Source\PSoC6\pdl\drivers/peripheral/gpio/cy_gpio.h **** #define CY_SIO_VREG_REGULATED                  (0x01UL) /**< Regulated output buffer */
 470:Generated_Source\PSoC6\pdl\drivers/peripheral/gpio/cy_gpio.h **** /** \} */
 471:Generated_Source\PSoC6\pdl\drivers/peripheral/gpio/cy_gpio.h **** 
 472:Generated_Source\PSoC6\pdl\drivers/peripheral/gpio/cy_gpio.h **** /**
 473:Generated_Source\PSoC6\pdl\drivers/peripheral/gpio/cy_gpio.h **** * \defgroup group_gpio_sioIbuf SIO input buffer mode
 474:Generated_Source\PSoC6\pdl\drivers/peripheral/gpio/cy_gpio.h **** * \{
 475:Generated_Source\PSoC6\pdl\drivers/peripheral/gpio/cy_gpio.h **** * Constants to be used for setting the SIO input buffer mode on the pin.
 476:Generated_Source\PSoC6\pdl\drivers/peripheral/gpio/cy_gpio.h **** */
 477:Generated_Source\PSoC6\pdl\drivers/peripheral/gpio/cy_gpio.h **** #define CY_SIO_IBUF_SINGLEENDED                (0x00UL) /**< Single ended input buffer */
 478:Generated_Source\PSoC6\pdl\drivers/peripheral/gpio/cy_gpio.h **** #define CY_SIO_IBUF_DIFFERENTIAL               (0x01UL) /**< Differential input buffer */
 479:Generated_Source\PSoC6\pdl\drivers/peripheral/gpio/cy_gpio.h **** /** \} */
 480:Generated_Source\PSoC6\pdl\drivers/peripheral/gpio/cy_gpio.h **** 
 481:Generated_Source\PSoC6\pdl\drivers/peripheral/gpio/cy_gpio.h **** /**
 482:Generated_Source\PSoC6\pdl\drivers/peripheral/gpio/cy_gpio.h **** * \defgroup group_gpio_sioVtrip SIO input buffer trip-point
 483:Generated_Source\PSoC6\pdl\drivers/peripheral/gpio/cy_gpio.h **** * \{
 484:Generated_Source\PSoC6\pdl\drivers/peripheral/gpio/cy_gpio.h **** * Constants to be used for setting the SIO input buffer trip-point of the pin.
 485:Generated_Source\PSoC6\pdl\drivers/peripheral/gpio/cy_gpio.h **** */
 486:Generated_Source\PSoC6\pdl\drivers/peripheral/gpio/cy_gpio.h **** #define CY_SIO_VTRIP_CMOS                      (0x00UL) /**< CMOS input buffer (single-ended) */
 487:Generated_Source\PSoC6\pdl\drivers/peripheral/gpio/cy_gpio.h **** #define CY_SIO_VTRIP_TTL                       (0x01UL) /**< TTL input buffer (single-ended) */
 488:Generated_Source\PSoC6\pdl\drivers/peripheral/gpio/cy_gpio.h **** #define CY_SIO_VTRIP_0_5VDDIO_0_5VOH           (0x00UL) /**< 0.5xVddio or 0.5xVoh (differential) */
 489:Generated_Source\PSoC6\pdl\drivers/peripheral/gpio/cy_gpio.h **** #define CY_SIO_VTRIP_0_4VDDIO_1_0VREF          (0x01UL) /**< 0.4xVddio or 0.4xVoh (differential) */
 490:Generated_Source\PSoC6\pdl\drivers/peripheral/gpio/cy_gpio.h **** /** \} */
 491:Generated_Source\PSoC6\pdl\drivers/peripheral/gpio/cy_gpio.h **** 
 492:Generated_Source\PSoC6\pdl\drivers/peripheral/gpio/cy_gpio.h **** /**
 493:Generated_Source\PSoC6\pdl\drivers/peripheral/gpio/cy_gpio.h **** * \defgroup group_gpio_sioVref SIO reference voltage for input buffer trip-point
 494:Generated_Source\PSoC6\pdl\drivers/peripheral/gpio/cy_gpio.h **** * \{
 495:Generated_Source\PSoC6\pdl\drivers/peripheral/gpio/cy_gpio.h **** * Constants to be used for setting the reference voltage of SIO input buffer trip-point.
 496:Generated_Source\PSoC6\pdl\drivers/peripheral/gpio/cy_gpio.h **** */
 497:Generated_Source\PSoC6\pdl\drivers/peripheral/gpio/cy_gpio.h **** #define CY_SIO_VREF_PINREF                     (0x00UL) /**< Vref from analog pin */
 498:Generated_Source\PSoC6\pdl\drivers/peripheral/gpio/cy_gpio.h **** #define CY_SIO_VREF_1_2V                       (0x01UL) /**< Vref from internal 1.2V reference */
 499:Generated_Source\PSoC6\pdl\drivers/peripheral/gpio/cy_gpio.h **** #define CY_SIO_VREF_AMUX_A                     (0x02UL) /**< Vref from AMUXBUS_A */
 500:Generated_Source\PSoC6\pdl\drivers/peripheral/gpio/cy_gpio.h **** #define CY_SIO_VREF_AMUX_B                     (0x03UL) /**< Vref from AMUXBUS_B */
 501:Generated_Source\PSoC6\pdl\drivers/peripheral/gpio/cy_gpio.h **** /** \} */
 502:Generated_Source\PSoC6\pdl\drivers/peripheral/gpio/cy_gpio.h **** 
 503:Generated_Source\PSoC6\pdl\drivers/peripheral/gpio/cy_gpio.h **** /**
 504:Generated_Source\PSoC6\pdl\drivers/peripheral/gpio/cy_gpio.h **** * \defgroup group_gpio_sioVoh Regulated output voltage level (Voh) and input buffer trip-point of a
 505:Generated_Source\PSoC6\pdl\drivers/peripheral/gpio/cy_gpio.h **** * \{
 506:Generated_Source\PSoC6\pdl\drivers/peripheral/gpio/cy_gpio.h **** * Constants to be used for setting the Voh and input buffer trip-point of an SIO pair
 507:Generated_Source\PSoC6\pdl\drivers/peripheral/gpio/cy_gpio.h **** */
 508:Generated_Source\PSoC6\pdl\drivers/peripheral/gpio/cy_gpio.h **** #define CY_SIO_VOH_1_00                        (0x00UL) /**< Voh = 1 x Reference */
 509:Generated_Source\PSoC6\pdl\drivers/peripheral/gpio/cy_gpio.h **** #define CY_SIO_VOH_1_25                        (0x01UL) /**< Voh = 1.25 x Reference */
 510:Generated_Source\PSoC6\pdl\drivers/peripheral/gpio/cy_gpio.h **** #define CY_SIO_VOH_1_49                        (0x02UL) /**< Voh = 1.49 x Reference */
 511:Generated_Source\PSoC6\pdl\drivers/peripheral/gpio/cy_gpio.h **** #define CY_SIO_VOH_1_67                        (0x03UL) /**< Voh = 1.67 x Reference */
 512:Generated_Source\PSoC6\pdl\drivers/peripheral/gpio/cy_gpio.h **** #define CY_SIO_VOH_2_08                        (0x04UL) /**< Voh = 2.08 x Reference */
ARM GAS  C:\Users\dmr85\AppData\Local\Temp\ccowpT5a.s 			page 38


 513:Generated_Source\PSoC6\pdl\drivers/peripheral/gpio/cy_gpio.h **** #define CY_SIO_VOH_2_50                        (0x05UL) /**< Voh = 2.50 x Reference */
 514:Generated_Source\PSoC6\pdl\drivers/peripheral/gpio/cy_gpio.h **** #define CY_SIO_VOH_2_78                        (0x06UL) /**< Voh = 2.78 x Reference */
 515:Generated_Source\PSoC6\pdl\drivers/peripheral/gpio/cy_gpio.h **** #define CY_SIO_VOH_4_16                        (0x07UL) /**< Voh = 4.16 x Reference */
 516:Generated_Source\PSoC6\pdl\drivers/peripheral/gpio/cy_gpio.h **** /** \} */
 517:Generated_Source\PSoC6\pdl\drivers/peripheral/gpio/cy_gpio.h **** 
 518:Generated_Source\PSoC6\pdl\drivers/peripheral/gpio/cy_gpio.h **** /** \} group_gpio_macros */
 519:Generated_Source\PSoC6\pdl\drivers/peripheral/gpio/cy_gpio.h **** 
 520:Generated_Source\PSoC6\pdl\drivers/peripheral/gpio/cy_gpio.h **** /***************************************
 521:Generated_Source\PSoC6\pdl\drivers/peripheral/gpio/cy_gpio.h **** *        Function Prototypes
 522:Generated_Source\PSoC6\pdl\drivers/peripheral/gpio/cy_gpio.h **** ***************************************/
 523:Generated_Source\PSoC6\pdl\drivers/peripheral/gpio/cy_gpio.h **** 
 524:Generated_Source\PSoC6\pdl\drivers/peripheral/gpio/cy_gpio.h **** /**
 525:Generated_Source\PSoC6\pdl\drivers/peripheral/gpio/cy_gpio.h **** * \addtogroup group_gpio_functions
 526:Generated_Source\PSoC6\pdl\drivers/peripheral/gpio/cy_gpio.h **** * \{
 527:Generated_Source\PSoC6\pdl\drivers/peripheral/gpio/cy_gpio.h **** */
 528:Generated_Source\PSoC6\pdl\drivers/peripheral/gpio/cy_gpio.h **** 
 529:Generated_Source\PSoC6\pdl\drivers/peripheral/gpio/cy_gpio.h **** /**
 530:Generated_Source\PSoC6\pdl\drivers/peripheral/gpio/cy_gpio.h **** * \addtogroup group_gpio_functions_init
 531:Generated_Source\PSoC6\pdl\drivers/peripheral/gpio/cy_gpio.h **** * \{
 532:Generated_Source\PSoC6\pdl\drivers/peripheral/gpio/cy_gpio.h **** */
 533:Generated_Source\PSoC6\pdl\drivers/peripheral/gpio/cy_gpio.h **** 
 534:Generated_Source\PSoC6\pdl\drivers/peripheral/gpio/cy_gpio.h **** cy_en_gpio_status_t Cy_GPIO_Pin_Init(GPIO_PRT_Type* base, uint32_t pinNum, const cy_stc_gpio_pin_co
 535:Generated_Source\PSoC6\pdl\drivers/peripheral/gpio/cy_gpio.h **** cy_en_gpio_status_t Cy_GPIO_Port_Init(GPIO_PRT_Type* base, const cy_stc_gpio_prt_config_t *config);
 536:Generated_Source\PSoC6\pdl\drivers/peripheral/gpio/cy_gpio.h **** void Cy_GPIO_Pin_FastInit(GPIO_PRT_Type* base, uint32_t pinNum, uint32_t driveMode, uint32_t outVal
 537:Generated_Source\PSoC6\pdl\drivers/peripheral/gpio/cy_gpio.h **** void Cy_GPIO_Port_Deinit(GPIO_PRT_Type* base);
 538:Generated_Source\PSoC6\pdl\drivers/peripheral/gpio/cy_gpio.h **** __STATIC_INLINE void Cy_GPIO_SetHSIOM(GPIO_PRT_Type* base, uint32_t pinNum, en_hsiom_sel_t value);
 539:Generated_Source\PSoC6\pdl\drivers/peripheral/gpio/cy_gpio.h **** __STATIC_INLINE en_hsiom_sel_t Cy_GPIO_GetHSIOM(GPIO_PRT_Type* base, uint32_t pinNum);
 540:Generated_Source\PSoC6\pdl\drivers/peripheral/gpio/cy_gpio.h **** __STATIC_INLINE GPIO_PRT_Type* Cy_GPIO_PortToAddr(uint32_t portNum);
 541:Generated_Source\PSoC6\pdl\drivers/peripheral/gpio/cy_gpio.h **** 
 542:Generated_Source\PSoC6\pdl\drivers/peripheral/gpio/cy_gpio.h **** /** \} group_gpio_functions_init */
 543:Generated_Source\PSoC6\pdl\drivers/peripheral/gpio/cy_gpio.h **** 
 544:Generated_Source\PSoC6\pdl\drivers/peripheral/gpio/cy_gpio.h **** /**
 545:Generated_Source\PSoC6\pdl\drivers/peripheral/gpio/cy_gpio.h **** * \addtogroup group_gpio_functions_gpio
 546:Generated_Source\PSoC6\pdl\drivers/peripheral/gpio/cy_gpio.h **** * \{
 547:Generated_Source\PSoC6\pdl\drivers/peripheral/gpio/cy_gpio.h **** */
 548:Generated_Source\PSoC6\pdl\drivers/peripheral/gpio/cy_gpio.h **** 
 549:Generated_Source\PSoC6\pdl\drivers/peripheral/gpio/cy_gpio.h **** void Cy_GPIO_SetAmuxSplit(cy_en_amux_split_t switchCtrl, cy_en_gpio_amuxconnect_t amuxConnect, cy_e
 550:Generated_Source\PSoC6\pdl\drivers/peripheral/gpio/cy_gpio.h **** cy_en_gpio_amuxconnect_t Cy_GPIO_GetAmuxSplit(cy_en_amux_split_t switchCtrl, cy_en_gpio_amuxselect_
 551:Generated_Source\PSoC6\pdl\drivers/peripheral/gpio/cy_gpio.h **** 
 552:Generated_Source\PSoC6\pdl\drivers/peripheral/gpio/cy_gpio.h **** __STATIC_INLINE uint32_t Cy_GPIO_Read(GPIO_PRT_Type* base, uint32_t pinNum);
 553:Generated_Source\PSoC6\pdl\drivers/peripheral/gpio/cy_gpio.h **** __STATIC_INLINE void Cy_GPIO_Write(GPIO_PRT_Type* base, uint32_t pinNum, uint32_t value);
 554:Generated_Source\PSoC6\pdl\drivers/peripheral/gpio/cy_gpio.h **** __STATIC_INLINE uint32_t Cy_GPIO_ReadOut(GPIO_PRT_Type* base, uint32_t pinNum);
 555:Generated_Source\PSoC6\pdl\drivers/peripheral/gpio/cy_gpio.h **** __STATIC_INLINE void Cy_GPIO_Set(GPIO_PRT_Type* base, uint32_t pinNum);
 556:Generated_Source\PSoC6\pdl\drivers/peripheral/gpio/cy_gpio.h **** __STATIC_INLINE void Cy_GPIO_Clr(GPIO_PRT_Type* base, uint32_t pinNum);
 557:Generated_Source\PSoC6\pdl\drivers/peripheral/gpio/cy_gpio.h **** __STATIC_INLINE void Cy_GPIO_Inv(GPIO_PRT_Type* base, uint32_t pinNum);
 558:Generated_Source\PSoC6\pdl\drivers/peripheral/gpio/cy_gpio.h **** __STATIC_INLINE void Cy_GPIO_SetDrivemode(GPIO_PRT_Type* base, uint32_t pinNum, uint32_t value);
 559:Generated_Source\PSoC6\pdl\drivers/peripheral/gpio/cy_gpio.h **** __STATIC_INLINE uint32_t Cy_GPIO_GetDrivemode(GPIO_PRT_Type* base, uint32_t pinNum);
 560:Generated_Source\PSoC6\pdl\drivers/peripheral/gpio/cy_gpio.h **** __STATIC_INLINE void Cy_GPIO_SetVtrip(GPIO_PRT_Type* base, uint32_t pinNum, uint32_t value);
 561:Generated_Source\PSoC6\pdl\drivers/peripheral/gpio/cy_gpio.h **** __STATIC_INLINE uint32_t Cy_GPIO_GetVtrip(GPIO_PRT_Type* base, uint32_t pinNum);
 562:Generated_Source\PSoC6\pdl\drivers/peripheral/gpio/cy_gpio.h **** __STATIC_INLINE void Cy_GPIO_SetSlewRate(GPIO_PRT_Type* base, uint32_t pinNum, uint32_t value);
 563:Generated_Source\PSoC6\pdl\drivers/peripheral/gpio/cy_gpio.h **** __STATIC_INLINE uint32_t Cy_GPIO_GetSlewRate(GPIO_PRT_Type* base, uint32_t pinNum);
 564:Generated_Source\PSoC6\pdl\drivers/peripheral/gpio/cy_gpio.h **** __STATIC_INLINE void Cy_GPIO_SetDriveSel(GPIO_PRT_Type* base, uint32_t pinNum, uint32_t value);
 565:Generated_Source\PSoC6\pdl\drivers/peripheral/gpio/cy_gpio.h **** __STATIC_INLINE uint32_t Cy_GPIO_GetDriveSel(GPIO_PRT_Type* base, uint32_t pinNum);
 566:Generated_Source\PSoC6\pdl\drivers/peripheral/gpio/cy_gpio.h **** 
 567:Generated_Source\PSoC6\pdl\drivers/peripheral/gpio/cy_gpio.h **** /** \} group_gpio_functions_gpio */
 568:Generated_Source\PSoC6\pdl\drivers/peripheral/gpio/cy_gpio.h **** 
 569:Generated_Source\PSoC6\pdl\drivers/peripheral/gpio/cy_gpio.h **** /**
ARM GAS  C:\Users\dmr85\AppData\Local\Temp\ccowpT5a.s 			page 39


 570:Generated_Source\PSoC6\pdl\drivers/peripheral/gpio/cy_gpio.h **** * \addtogroup group_gpio_functions_sio
 571:Generated_Source\PSoC6\pdl\drivers/peripheral/gpio/cy_gpio.h **** * \{
 572:Generated_Source\PSoC6\pdl\drivers/peripheral/gpio/cy_gpio.h **** */
 573:Generated_Source\PSoC6\pdl\drivers/peripheral/gpio/cy_gpio.h **** 
 574:Generated_Source\PSoC6\pdl\drivers/peripheral/gpio/cy_gpio.h **** __STATIC_INLINE void Cy_GPIO_SetVregEn(GPIO_PRT_Type* base, uint32_t pinNum, uint32_t value);
 575:Generated_Source\PSoC6\pdl\drivers/peripheral/gpio/cy_gpio.h **** __STATIC_INLINE uint32_t Cy_GPIO_GetVregEn(GPIO_PRT_Type* base, uint32_t pinNum);
 576:Generated_Source\PSoC6\pdl\drivers/peripheral/gpio/cy_gpio.h **** __STATIC_INLINE void Cy_GPIO_SetIbufMode(GPIO_PRT_Type* base, uint32_t pinNum, uint32_t value);
 577:Generated_Source\PSoC6\pdl\drivers/peripheral/gpio/cy_gpio.h **** __STATIC_INLINE uint32_t Cy_GPIO_GetIbufMode(GPIO_PRT_Type* base, uint32_t pinNum);
 578:Generated_Source\PSoC6\pdl\drivers/peripheral/gpio/cy_gpio.h **** __STATIC_INLINE void Cy_GPIO_SetVtripSel(GPIO_PRT_Type* base, uint32_t pinNum, uint32_t value);
 579:Generated_Source\PSoC6\pdl\drivers/peripheral/gpio/cy_gpio.h **** __STATIC_INLINE uint32_t Cy_GPIO_GetVtripSel(GPIO_PRT_Type* base, uint32_t pinNum);
 580:Generated_Source\PSoC6\pdl\drivers/peripheral/gpio/cy_gpio.h **** __STATIC_INLINE void Cy_GPIO_SetVrefSel(GPIO_PRT_Type* base, uint32_t pinNum, uint32_t value);
 581:Generated_Source\PSoC6\pdl\drivers/peripheral/gpio/cy_gpio.h **** __STATIC_INLINE uint32_t Cy_GPIO_GetVrefSel(GPIO_PRT_Type* base, uint32_t pinNum);
 582:Generated_Source\PSoC6\pdl\drivers/peripheral/gpio/cy_gpio.h **** __STATIC_INLINE void Cy_GPIO_SetVohSel(GPIO_PRT_Type* base, uint32_t pinNum, uint32_t value);
 583:Generated_Source\PSoC6\pdl\drivers/peripheral/gpio/cy_gpio.h **** __STATIC_INLINE uint32_t Cy_GPIO_GetVohSel(GPIO_PRT_Type* base, uint32_t pinNum);
 584:Generated_Source\PSoC6\pdl\drivers/peripheral/gpio/cy_gpio.h **** 
 585:Generated_Source\PSoC6\pdl\drivers/peripheral/gpio/cy_gpio.h **** /** \} group_gpio_functions_sio */
 586:Generated_Source\PSoC6\pdl\drivers/peripheral/gpio/cy_gpio.h **** 
 587:Generated_Source\PSoC6\pdl\drivers/peripheral/gpio/cy_gpio.h **** /**
 588:Generated_Source\PSoC6\pdl\drivers/peripheral/gpio/cy_gpio.h **** * \addtogroup group_gpio_functions_interrupt
 589:Generated_Source\PSoC6\pdl\drivers/peripheral/gpio/cy_gpio.h **** * \{
 590:Generated_Source\PSoC6\pdl\drivers/peripheral/gpio/cy_gpio.h **** */
 591:Generated_Source\PSoC6\pdl\drivers/peripheral/gpio/cy_gpio.h **** 
 592:Generated_Source\PSoC6\pdl\drivers/peripheral/gpio/cy_gpio.h **** __STATIC_INLINE uint32_t Cy_GPIO_GetInterruptStatus(GPIO_PRT_Type* base, uint32_t pinNum);
 593:Generated_Source\PSoC6\pdl\drivers/peripheral/gpio/cy_gpio.h **** __STATIC_INLINE void Cy_GPIO_ClearInterrupt(GPIO_PRT_Type* base, uint32_t pinNum);
 594:Generated_Source\PSoC6\pdl\drivers/peripheral/gpio/cy_gpio.h **** __STATIC_INLINE void Cy_GPIO_SetInterruptMask(GPIO_PRT_Type* base, uint32_t pinNum, uint32_t value)
 595:Generated_Source\PSoC6\pdl\drivers/peripheral/gpio/cy_gpio.h **** __STATIC_INLINE uint32_t Cy_GPIO_GetInterruptMask(GPIO_PRT_Type* base, uint32_t pinNum);
 596:Generated_Source\PSoC6\pdl\drivers/peripheral/gpio/cy_gpio.h **** __STATIC_INLINE uint32_t Cy_GPIO_GetInterruptStatusMasked(GPIO_PRT_Type* base, uint32_t pinNum);
 597:Generated_Source\PSoC6\pdl\drivers/peripheral/gpio/cy_gpio.h **** __STATIC_INLINE void Cy_GPIO_SetSwInterrupt(GPIO_PRT_Type* base, uint32_t pinNum);
 598:Generated_Source\PSoC6\pdl\drivers/peripheral/gpio/cy_gpio.h **** __STATIC_INLINE void Cy_GPIO_SetInterruptEdge(GPIO_PRT_Type* base, uint32_t pinNum, uint32_t value)
 599:Generated_Source\PSoC6\pdl\drivers/peripheral/gpio/cy_gpio.h **** __STATIC_INLINE uint32_t Cy_GPIO_GetInterruptEdge(GPIO_PRT_Type* base, uint32_t pinNum);
 600:Generated_Source\PSoC6\pdl\drivers/peripheral/gpio/cy_gpio.h **** __STATIC_INLINE void Cy_GPIO_SetFilter(GPIO_PRT_Type* base, uint32_t value);
 601:Generated_Source\PSoC6\pdl\drivers/peripheral/gpio/cy_gpio.h **** __STATIC_INLINE uint32_t Cy_GPIO_GetFilter(GPIO_PRT_Type* base);
 602:Generated_Source\PSoC6\pdl\drivers/peripheral/gpio/cy_gpio.h **** 
 603:Generated_Source\PSoC6\pdl\drivers/peripheral/gpio/cy_gpio.h **** __STATIC_INLINE uint32_t Cy_GPIO_GetInterruptCause0(void);
 604:Generated_Source\PSoC6\pdl\drivers/peripheral/gpio/cy_gpio.h **** __STATIC_INLINE uint32_t Cy_GPIO_GetInterruptCause1(void);
 605:Generated_Source\PSoC6\pdl\drivers/peripheral/gpio/cy_gpio.h **** __STATIC_INLINE uint32_t Cy_GPIO_GetInterruptCause2(void);
 606:Generated_Source\PSoC6\pdl\drivers/peripheral/gpio/cy_gpio.h **** __STATIC_INLINE uint32_t Cy_GPIO_GetInterruptCause3(void);
 607:Generated_Source\PSoC6\pdl\drivers/peripheral/gpio/cy_gpio.h **** 
 608:Generated_Source\PSoC6\pdl\drivers/peripheral/gpio/cy_gpio.h **** /** \} group_gpio_functions_interrupt */
 609:Generated_Source\PSoC6\pdl\drivers/peripheral/gpio/cy_gpio.h **** 
 610:Generated_Source\PSoC6\pdl\drivers/peripheral/gpio/cy_gpio.h **** 
 611:Generated_Source\PSoC6\pdl\drivers/peripheral/gpio/cy_gpio.h **** /**
 612:Generated_Source\PSoC6\pdl\drivers/peripheral/gpio/cy_gpio.h **** * \addtogroup group_gpio_functions_init
 613:Generated_Source\PSoC6\pdl\drivers/peripheral/gpio/cy_gpio.h **** * \{
 614:Generated_Source\PSoC6\pdl\drivers/peripheral/gpio/cy_gpio.h **** */
 615:Generated_Source\PSoC6\pdl\drivers/peripheral/gpio/cy_gpio.h **** 
 616:Generated_Source\PSoC6\pdl\drivers/peripheral/gpio/cy_gpio.h **** /*******************************************************************************
 617:Generated_Source\PSoC6\pdl\drivers/peripheral/gpio/cy_gpio.h **** * Function Name: Cy_GPIO_SetHSIOM
 618:Generated_Source\PSoC6\pdl\drivers/peripheral/gpio/cy_gpio.h **** ****************************************************************************//**
 619:Generated_Source\PSoC6\pdl\drivers/peripheral/gpio/cy_gpio.h **** *
 620:Generated_Source\PSoC6\pdl\drivers/peripheral/gpio/cy_gpio.h **** * Configures the HSIOM connection to the pin.
 621:Generated_Source\PSoC6\pdl\drivers/peripheral/gpio/cy_gpio.h **** *
 622:Generated_Source\PSoC6\pdl\drivers/peripheral/gpio/cy_gpio.h **** * Connects the specified High-Speed Input Output Multiplexer (HSIOM) selection
 623:Generated_Source\PSoC6\pdl\drivers/peripheral/gpio/cy_gpio.h **** * to the pin.
 624:Generated_Source\PSoC6\pdl\drivers/peripheral/gpio/cy_gpio.h **** *
 625:Generated_Source\PSoC6\pdl\drivers/peripheral/gpio/cy_gpio.h **** * \param base
 626:Generated_Source\PSoC6\pdl\drivers/peripheral/gpio/cy_gpio.h **** * Pointer to the pin's port register base address
ARM GAS  C:\Users\dmr85\AppData\Local\Temp\ccowpT5a.s 			page 40


 627:Generated_Source\PSoC6\pdl\drivers/peripheral/gpio/cy_gpio.h **** *
 628:Generated_Source\PSoC6\pdl\drivers/peripheral/gpio/cy_gpio.h **** * \param pinNum
 629:Generated_Source\PSoC6\pdl\drivers/peripheral/gpio/cy_gpio.h **** * Position of the pin bit-field within the port register
 630:Generated_Source\PSoC6\pdl\drivers/peripheral/gpio/cy_gpio.h **** *
 631:Generated_Source\PSoC6\pdl\drivers/peripheral/gpio/cy_gpio.h **** * \param value
 632:Generated_Source\PSoC6\pdl\drivers/peripheral/gpio/cy_gpio.h **** * HSIOM input selection
 633:Generated_Source\PSoC6\pdl\drivers/peripheral/gpio/cy_gpio.h **** *
 634:Generated_Source\PSoC6\pdl\drivers/peripheral/gpio/cy_gpio.h **** * \note 
 635:Generated_Source\PSoC6\pdl\drivers/peripheral/gpio/cy_gpio.h **** * This function modifies a port register in a read-modify-write operation. It is
 636:Generated_Source\PSoC6\pdl\drivers/peripheral/gpio/cy_gpio.h **** * not thread safe as the resource is shared among multiple pins on a port.
 637:Generated_Source\PSoC6\pdl\drivers/peripheral/gpio/cy_gpio.h **** *
 638:Generated_Source\PSoC6\pdl\drivers/peripheral/gpio/cy_gpio.h **** * \funcusage
 639:Generated_Source\PSoC6\pdl\drivers/peripheral/gpio/cy_gpio.h **** * \snippet gpio/gpio_v1_10_sut_01.cydsn/main_cm4.c snippet_Cy_GPIO_SetHSIOM
 640:Generated_Source\PSoC6\pdl\drivers/peripheral/gpio/cy_gpio.h **** *
 641:Generated_Source\PSoC6\pdl\drivers/peripheral/gpio/cy_gpio.h **** *******************************************************************************/
 642:Generated_Source\PSoC6\pdl\drivers/peripheral/gpio/cy_gpio.h **** __STATIC_INLINE void Cy_GPIO_SetHSIOM(GPIO_PRT_Type* base, uint32_t pinNum, en_hsiom_sel_t value)
 643:Generated_Source\PSoC6\pdl\drivers/peripheral/gpio/cy_gpio.h **** {
 644:Generated_Source\PSoC6\pdl\drivers/peripheral/gpio/cy_gpio.h ****     uint32_t portNum;
 645:Generated_Source\PSoC6\pdl\drivers/peripheral/gpio/cy_gpio.h ****     uint32_t tempReg;
 646:Generated_Source\PSoC6\pdl\drivers/peripheral/gpio/cy_gpio.h ****     HSIOM_PRT_V1_Type* portAddrHSIOM;
 647:Generated_Source\PSoC6\pdl\drivers/peripheral/gpio/cy_gpio.h **** 
 648:Generated_Source\PSoC6\pdl\drivers/peripheral/gpio/cy_gpio.h ****     CY_ASSERT_L2(CY_GPIO_IS_PIN_VALID(pinNum));
 649:Generated_Source\PSoC6\pdl\drivers/peripheral/gpio/cy_gpio.h ****     CY_ASSERT_L2(CY_GPIO_IS_HSIOM_VALID(value));
 650:Generated_Source\PSoC6\pdl\drivers/peripheral/gpio/cy_gpio.h **** 
 651:Generated_Source\PSoC6\pdl\drivers/peripheral/gpio/cy_gpio.h ****     portNum = ((uint32_t)(base) - CY_GPIO_BASE) / GPIO_PRT_SECTION_SIZE;
 652:Generated_Source\PSoC6\pdl\drivers/peripheral/gpio/cy_gpio.h ****     portAddrHSIOM = (HSIOM_PRT_V1_Type*)(CY_HSIOM_BASE + (HSIOM_PRT_SECTION_SIZE * portNum));
 653:Generated_Source\PSoC6\pdl\drivers/peripheral/gpio/cy_gpio.h **** 
 654:Generated_Source\PSoC6\pdl\drivers/peripheral/gpio/cy_gpio.h ****     if(pinNum < CY_GPIO_PRT_HALF)
 655:Generated_Source\PSoC6\pdl\drivers/peripheral/gpio/cy_gpio.h ****     {
 656:Generated_Source\PSoC6\pdl\drivers/peripheral/gpio/cy_gpio.h ****         tempReg = HSIOM_PRT_PORT_SEL0(portAddrHSIOM) & ~(CY_GPIO_HSIOM_MASK << (pinNum << CY_GPIO_H
 657:Generated_Source\PSoC6\pdl\drivers/peripheral/gpio/cy_gpio.h ****         HSIOM_PRT_PORT_SEL0(portAddrHSIOM) = tempReg | ((value & CY_GPIO_HSIOM_MASK) << (pinNum << 
 658:Generated_Source\PSoC6\pdl\drivers/peripheral/gpio/cy_gpio.h ****     }
 659:Generated_Source\PSoC6\pdl\drivers/peripheral/gpio/cy_gpio.h ****     else
 660:Generated_Source\PSoC6\pdl\drivers/peripheral/gpio/cy_gpio.h ****     {
 661:Generated_Source\PSoC6\pdl\drivers/peripheral/gpio/cy_gpio.h ****         pinNum -= CY_GPIO_PRT_HALF;
 662:Generated_Source\PSoC6\pdl\drivers/peripheral/gpio/cy_gpio.h ****         tempReg = HSIOM_PRT_PORT_SEL1(portAddrHSIOM) & ~(CY_GPIO_HSIOM_MASK << (pinNum << CY_GPIO_H
 663:Generated_Source\PSoC6\pdl\drivers/peripheral/gpio/cy_gpio.h ****         HSIOM_PRT_PORT_SEL1(portAddrHSIOM) = tempReg | ((value & CY_GPIO_HSIOM_MASK) << (pinNum << 
 664:Generated_Source\PSoC6\pdl\drivers/peripheral/gpio/cy_gpio.h ****     }
 665:Generated_Source\PSoC6\pdl\drivers/peripheral/gpio/cy_gpio.h **** }
 666:Generated_Source\PSoC6\pdl\drivers/peripheral/gpio/cy_gpio.h **** 
 667:Generated_Source\PSoC6\pdl\drivers/peripheral/gpio/cy_gpio.h **** 
 668:Generated_Source\PSoC6\pdl\drivers/peripheral/gpio/cy_gpio.h **** /*******************************************************************************
 669:Generated_Source\PSoC6\pdl\drivers/peripheral/gpio/cy_gpio.h **** * Function Name: Cy_GPIO_GetHSIOM
 670:Generated_Source\PSoC6\pdl\drivers/peripheral/gpio/cy_gpio.h **** ****************************************************************************//**
 671:Generated_Source\PSoC6\pdl\drivers/peripheral/gpio/cy_gpio.h **** *
 672:Generated_Source\PSoC6\pdl\drivers/peripheral/gpio/cy_gpio.h **** * Returns the current HSIOM multiplexer connection to the pin.
 673:Generated_Source\PSoC6\pdl\drivers/peripheral/gpio/cy_gpio.h **** *
 674:Generated_Source\PSoC6\pdl\drivers/peripheral/gpio/cy_gpio.h **** * \param base
 675:Generated_Source\PSoC6\pdl\drivers/peripheral/gpio/cy_gpio.h **** * Pointer to the pin's port register base address
 676:Generated_Source\PSoC6\pdl\drivers/peripheral/gpio/cy_gpio.h **** *
 677:Generated_Source\PSoC6\pdl\drivers/peripheral/gpio/cy_gpio.h **** * \param pinNum
 678:Generated_Source\PSoC6\pdl\drivers/peripheral/gpio/cy_gpio.h **** * Position of the pin bit-field within the port register
 679:Generated_Source\PSoC6\pdl\drivers/peripheral/gpio/cy_gpio.h **** *
 680:Generated_Source\PSoC6\pdl\drivers/peripheral/gpio/cy_gpio.h **** * \return
 681:Generated_Source\PSoC6\pdl\drivers/peripheral/gpio/cy_gpio.h **** * HSIOM input selection
 682:Generated_Source\PSoC6\pdl\drivers/peripheral/gpio/cy_gpio.h **** *
 683:Generated_Source\PSoC6\pdl\drivers/peripheral/gpio/cy_gpio.h **** * \funcusage
ARM GAS  C:\Users\dmr85\AppData\Local\Temp\ccowpT5a.s 			page 41


 684:Generated_Source\PSoC6\pdl\drivers/peripheral/gpio/cy_gpio.h **** * \snippet gpio/gpio_v1_10_sut_01.cydsn/main_cm4.c snippet_Cy_GPIO_SetHSIOM
 685:Generated_Source\PSoC6\pdl\drivers/peripheral/gpio/cy_gpio.h **** *
 686:Generated_Source\PSoC6\pdl\drivers/peripheral/gpio/cy_gpio.h **** *******************************************************************************/
 687:Generated_Source\PSoC6\pdl\drivers/peripheral/gpio/cy_gpio.h **** __STATIC_INLINE en_hsiom_sel_t Cy_GPIO_GetHSIOM(GPIO_PRT_Type* base, uint32_t pinNum)
 688:Generated_Source\PSoC6\pdl\drivers/peripheral/gpio/cy_gpio.h **** {
 689:Generated_Source\PSoC6\pdl\drivers/peripheral/gpio/cy_gpio.h ****     uint32_t returnValue;
 690:Generated_Source\PSoC6\pdl\drivers/peripheral/gpio/cy_gpio.h ****     uint32_t portNum;
 691:Generated_Source\PSoC6\pdl\drivers/peripheral/gpio/cy_gpio.h ****     HSIOM_PRT_V1_Type* portAddrHSIOM;
 692:Generated_Source\PSoC6\pdl\drivers/peripheral/gpio/cy_gpio.h ****     
 693:Generated_Source\PSoC6\pdl\drivers/peripheral/gpio/cy_gpio.h ****     CY_ASSERT_L2(CY_GPIO_IS_PIN_VALID(pinNum));
 694:Generated_Source\PSoC6\pdl\drivers/peripheral/gpio/cy_gpio.h **** 
 695:Generated_Source\PSoC6\pdl\drivers/peripheral/gpio/cy_gpio.h ****     portNum = ((uint32_t)(base) - CY_GPIO_BASE) / GPIO_PRT_SECTION_SIZE;
 696:Generated_Source\PSoC6\pdl\drivers/peripheral/gpio/cy_gpio.h ****     portAddrHSIOM = (HSIOM_PRT_V1_Type*)(CY_HSIOM_BASE + (HSIOM_PRT_SECTION_SIZE * portNum));
 697:Generated_Source\PSoC6\pdl\drivers/peripheral/gpio/cy_gpio.h **** 
 698:Generated_Source\PSoC6\pdl\drivers/peripheral/gpio/cy_gpio.h ****     if(pinNum < CY_GPIO_PRT_HALF)
 699:Generated_Source\PSoC6\pdl\drivers/peripheral/gpio/cy_gpio.h ****     {
 700:Generated_Source\PSoC6\pdl\drivers/peripheral/gpio/cy_gpio.h ****         returnValue = (HSIOM_PRT_PORT_SEL0(portAddrHSIOM) >> (pinNum << CY_GPIO_HSIOM_OFFSET)) & CY
 701:Generated_Source\PSoC6\pdl\drivers/peripheral/gpio/cy_gpio.h ****     }
 702:Generated_Source\PSoC6\pdl\drivers/peripheral/gpio/cy_gpio.h ****     else
 703:Generated_Source\PSoC6\pdl\drivers/peripheral/gpio/cy_gpio.h ****     {
 704:Generated_Source\PSoC6\pdl\drivers/peripheral/gpio/cy_gpio.h ****         pinNum -= CY_GPIO_PRT_HALF;
 705:Generated_Source\PSoC6\pdl\drivers/peripheral/gpio/cy_gpio.h ****         returnValue = (HSIOM_PRT_PORT_SEL1(portAddrHSIOM) >> (pinNum << CY_GPIO_HSIOM_OFFSET)) & CY
 706:Generated_Source\PSoC6\pdl\drivers/peripheral/gpio/cy_gpio.h ****     }
 707:Generated_Source\PSoC6\pdl\drivers/peripheral/gpio/cy_gpio.h **** 
 708:Generated_Source\PSoC6\pdl\drivers/peripheral/gpio/cy_gpio.h ****     return (en_hsiom_sel_t)returnValue;
 709:Generated_Source\PSoC6\pdl\drivers/peripheral/gpio/cy_gpio.h **** }
 710:Generated_Source\PSoC6\pdl\drivers/peripheral/gpio/cy_gpio.h **** 
 711:Generated_Source\PSoC6\pdl\drivers/peripheral/gpio/cy_gpio.h **** 
 712:Generated_Source\PSoC6\pdl\drivers/peripheral/gpio/cy_gpio.h **** /*******************************************************************************
 713:Generated_Source\PSoC6\pdl\drivers/peripheral/gpio/cy_gpio.h **** * Function Name: Cy_GPIO_PortToAddr
 714:Generated_Source\PSoC6\pdl\drivers/peripheral/gpio/cy_gpio.h **** ****************************************************************************//**
 715:Generated_Source\PSoC6\pdl\drivers/peripheral/gpio/cy_gpio.h **** *
 716:Generated_Source\PSoC6\pdl\drivers/peripheral/gpio/cy_gpio.h **** * Retrieves the port address based on the given port number.
 717:Generated_Source\PSoC6\pdl\drivers/peripheral/gpio/cy_gpio.h **** *
 718:Generated_Source\PSoC6\pdl\drivers/peripheral/gpio/cy_gpio.h **** * This is a helper function to calculate the port base address when given a port
 719:Generated_Source\PSoC6\pdl\drivers/peripheral/gpio/cy_gpio.h **** * number. It is to be used when pin access needs to be calculated at runtime.
 720:Generated_Source\PSoC6\pdl\drivers/peripheral/gpio/cy_gpio.h **** *
 721:Generated_Source\PSoC6\pdl\drivers/peripheral/gpio/cy_gpio.h **** * \param portNum
 722:Generated_Source\PSoC6\pdl\drivers/peripheral/gpio/cy_gpio.h **** * Port number
 723:Generated_Source\PSoC6\pdl\drivers/peripheral/gpio/cy_gpio.h **** *
 724:Generated_Source\PSoC6\pdl\drivers/peripheral/gpio/cy_gpio.h **** * \return
 725:Generated_Source\PSoC6\pdl\drivers/peripheral/gpio/cy_gpio.h **** * Base address of the port register structure
 726:Generated_Source\PSoC6\pdl\drivers/peripheral/gpio/cy_gpio.h **** *
 727:Generated_Source\PSoC6\pdl\drivers/peripheral/gpio/cy_gpio.h **** * \funcusage
 728:Generated_Source\PSoC6\pdl\drivers/peripheral/gpio/cy_gpio.h **** * \snippet gpio/gpio_v1_10_sut_01.cydsn/main_cm4.c snippet_Cy_GPIO_PortToAddr
 729:Generated_Source\PSoC6\pdl\drivers/peripheral/gpio/cy_gpio.h **** *
 730:Generated_Source\PSoC6\pdl\drivers/peripheral/gpio/cy_gpio.h **** *******************************************************************************/
 731:Generated_Source\PSoC6\pdl\drivers/peripheral/gpio/cy_gpio.h **** __STATIC_INLINE GPIO_PRT_Type* Cy_GPIO_PortToAddr(uint32_t portNum)
 732:Generated_Source\PSoC6\pdl\drivers/peripheral/gpio/cy_gpio.h **** {
 733:Generated_Source\PSoC6\pdl\drivers/peripheral/gpio/cy_gpio.h ****     GPIO_PRT_Type* portBase;
 734:Generated_Source\PSoC6\pdl\drivers/peripheral/gpio/cy_gpio.h ****     
 735:Generated_Source\PSoC6\pdl\drivers/peripheral/gpio/cy_gpio.h ****     if(portNum < (uint32_t)IOSS_GPIO_GPIO_PORT_NR)
 736:Generated_Source\PSoC6\pdl\drivers/peripheral/gpio/cy_gpio.h ****     {
 737:Generated_Source\PSoC6\pdl\drivers/peripheral/gpio/cy_gpio.h ****         portBase = (GPIO_PRT_Type *)(CY_GPIO_BASE + (GPIO_PRT_SECTION_SIZE * portNum));
 738:Generated_Source\PSoC6\pdl\drivers/peripheral/gpio/cy_gpio.h ****     }
 739:Generated_Source\PSoC6\pdl\drivers/peripheral/gpio/cy_gpio.h ****     else
 740:Generated_Source\PSoC6\pdl\drivers/peripheral/gpio/cy_gpio.h ****     {
ARM GAS  C:\Users\dmr85\AppData\Local\Temp\ccowpT5a.s 			page 42


 741:Generated_Source\PSoC6\pdl\drivers/peripheral/gpio/cy_gpio.h ****         /* Error: Return default base address */
 742:Generated_Source\PSoC6\pdl\drivers/peripheral/gpio/cy_gpio.h ****         portBase = (GPIO_PRT_Type *)(CY_GPIO_BASE);
 743:Generated_Source\PSoC6\pdl\drivers/peripheral/gpio/cy_gpio.h ****     }
 744:Generated_Source\PSoC6\pdl\drivers/peripheral/gpio/cy_gpio.h **** 
 745:Generated_Source\PSoC6\pdl\drivers/peripheral/gpio/cy_gpio.h ****     return (portBase);
 746:Generated_Source\PSoC6\pdl\drivers/peripheral/gpio/cy_gpio.h **** }
 747:Generated_Source\PSoC6\pdl\drivers/peripheral/gpio/cy_gpio.h **** 
 748:Generated_Source\PSoC6\pdl\drivers/peripheral/gpio/cy_gpio.h **** /** \} group_gpio_functions_init */
 749:Generated_Source\PSoC6\pdl\drivers/peripheral/gpio/cy_gpio.h **** 
 750:Generated_Source\PSoC6\pdl\drivers/peripheral/gpio/cy_gpio.h **** /**
 751:Generated_Source\PSoC6\pdl\drivers/peripheral/gpio/cy_gpio.h **** * \addtogroup group_gpio_functions_gpio
 752:Generated_Source\PSoC6\pdl\drivers/peripheral/gpio/cy_gpio.h **** * \{
 753:Generated_Source\PSoC6\pdl\drivers/peripheral/gpio/cy_gpio.h **** */
 754:Generated_Source\PSoC6\pdl\drivers/peripheral/gpio/cy_gpio.h **** 
 755:Generated_Source\PSoC6\pdl\drivers/peripheral/gpio/cy_gpio.h **** /*******************************************************************************
 756:Generated_Source\PSoC6\pdl\drivers/peripheral/gpio/cy_gpio.h **** * Function Name: Cy_GPIO_Read
 757:Generated_Source\PSoC6\pdl\drivers/peripheral/gpio/cy_gpio.h **** ****************************************************************************//**
 758:Generated_Source\PSoC6\pdl\drivers/peripheral/gpio/cy_gpio.h **** *
 759:Generated_Source\PSoC6\pdl\drivers/peripheral/gpio/cy_gpio.h **** * Reads the current logic level on the input buffer of the pin.
 760:Generated_Source\PSoC6\pdl\drivers/peripheral/gpio/cy_gpio.h **** *
 761:Generated_Source\PSoC6\pdl\drivers/peripheral/gpio/cy_gpio.h **** * \param base
 762:Generated_Source\PSoC6\pdl\drivers/peripheral/gpio/cy_gpio.h **** * Pointer to the pin's port register base address
 763:Generated_Source\PSoC6\pdl\drivers/peripheral/gpio/cy_gpio.h **** *
 764:Generated_Source\PSoC6\pdl\drivers/peripheral/gpio/cy_gpio.h **** * \param pinNum
 765:Generated_Source\PSoC6\pdl\drivers/peripheral/gpio/cy_gpio.h **** * Position of the pin bit-field within the port register.
 766:Generated_Source\PSoC6\pdl\drivers/peripheral/gpio/cy_gpio.h **** * Bit position 8 is the routed pin through the port glitch filter.
 767:Generated_Source\PSoC6\pdl\drivers/peripheral/gpio/cy_gpio.h **** *
 768:Generated_Source\PSoC6\pdl\drivers/peripheral/gpio/cy_gpio.h **** * \return
 769:Generated_Source\PSoC6\pdl\drivers/peripheral/gpio/cy_gpio.h **** * Logic level present on the pin
 770:Generated_Source\PSoC6\pdl\drivers/peripheral/gpio/cy_gpio.h **** *
 771:Generated_Source\PSoC6\pdl\drivers/peripheral/gpio/cy_gpio.h **** * \funcusage
 772:Generated_Source\PSoC6\pdl\drivers/peripheral/gpio/cy_gpio.h **** * \snippet gpio/gpio_v1_10_sut_01.cydsn/main_cm4.c snippet_Cy_GPIO_Read
 773:Generated_Source\PSoC6\pdl\drivers/peripheral/gpio/cy_gpio.h **** *
 774:Generated_Source\PSoC6\pdl\drivers/peripheral/gpio/cy_gpio.h **** *******************************************************************************/
 775:Generated_Source\PSoC6\pdl\drivers/peripheral/gpio/cy_gpio.h **** __STATIC_INLINE uint32_t Cy_GPIO_Read(GPIO_PRT_Type* base, uint32_t pinNum)
 776:Generated_Source\PSoC6\pdl\drivers/peripheral/gpio/cy_gpio.h **** {
 777:Generated_Source\PSoC6\pdl\drivers/peripheral/gpio/cy_gpio.h ****     CY_ASSERT_L2(CY_GPIO_IS_FILTER_PIN_VALID(pinNum));
 778:Generated_Source\PSoC6\pdl\drivers/peripheral/gpio/cy_gpio.h ****     
 779:Generated_Source\PSoC6\pdl\drivers/peripheral/gpio/cy_gpio.h ****     return (GPIO_PRT_IN(base) >> (pinNum)) & CY_GPIO_IN_MASK;
 569              		.loc 3 779 0 discriminator 1
 570 0012 314B     		ldr	r3, .L33+4
 571 0014 1B69     		ldr	r3, [r3, #16]
 572              	.LVL65:
 573              	.LBE15:
 574              	.LBE14:
 575              		.file 4 "ads1299_spi_adapt.h"
   1:ads1299_spi_adapt.h **** /* ========================================
   2:ads1299_spi_adapt.h ****  *
   3:ads1299_spi_adapt.h ****  * Copyright YOUR COMPANY, THE YEAR
   4:ads1299_spi_adapt.h ****  * All Rights Reserved
   5:ads1299_spi_adapt.h ****  * UNPUBLISHED, LICENSED SOFTWARE.
   6:ads1299_spi_adapt.h ****  *
   7:ads1299_spi_adapt.h ****  * CONFIDENTIAL AND PROPRIETARY INFORMATION
   8:ads1299_spi_adapt.h ****  * WHICH IS THE PROPERTY OF your company.
   9:ads1299_spi_adapt.h ****  *
  10:ads1299_spi_adapt.h ****  * ========================================
  11:ads1299_spi_adapt.h **** */
ARM GAS  C:\Users\dmr85\AppData\Local\Temp\ccowpT5a.s 			page 43


  12:ads1299_spi_adapt.h **** 
  13:ads1299_spi_adapt.h **** #ifndef _ADS1299_SPI_ADAPT_H_
  14:ads1299_spi_adapt.h **** #define _ADS1299_SPI_ADAPT_H_
  15:ads1299_spi_adapt.h **** #endif
  16:ads1299_spi_adapt.h **** 
  17:ads1299_spi_adapt.h **** /* [] END OF FILE */
  18:ads1299_spi_adapt.h **** 
  19:ads1299_spi_adapt.h **** #include <project.h>
  20:ads1299_spi_adapt.h **** #include <comms.h>
  21:ads1299_spi_adapt.h **** 
  22:ads1299_spi_adapt.h **** 
  23:ads1299_spi_adapt.h **** uint8_t spi;
  24:ads1299_spi_adapt.h **** #define SPI_ADDRESS (&spi)
  25:ads1299_spi_adapt.h **** #define MAX_EEG_CHANNELS 8
  26:ads1299_spi_adapt.h **** #define UC3 1u
  27:ads1299_spi_adapt.h **** 
  28:ads1299_spi_adapt.h **** #define ADS1299_PIN_PWDN		1
  29:ads1299_spi_adapt.h **** #define ADS1299_PIN_DRDY		2
  30:ads1299_spi_adapt.h **** #define ADS1299_PIN_START		3
  31:ads1299_spi_adapt.h **** #define ADS1299_PIN_RESET		4
  32:ads1299_spi_adapt.h **** #define SPI_TIMEOUT             15000
  33:ads1299_spi_adapt.h **** #define ERR_TIMEOUT             -3
  34:ads1299_spi_adapt.h **** #define DSP_PREBUFFER_NB_SAMPLES    256	
  35:ads1299_spi_adapt.h **** 
  36:ads1299_spi_adapt.h **** cy_en_scb_spi_status_t spi_put(volatile uint8_t *spi, uint8_t opcode);
  37:ads1299_spi_adapt.h **** cy_en_scb_spi_status_t spi_get(volatile uint8_t *spi, uint8_t rxBuffer[]);
  38:ads1299_spi_adapt.h **** void spi_selectChip(volatile uint8_t *spi, uint8_t chip_select);
  39:ads1299_spi_adapt.h **** void spi_unselectChip(volatile uint8_t *spi, uint8_t chip_select);
  40:ads1299_spi_adapt.h **** void delay_s(int delay);
  41:ads1299_spi_adapt.h **** void delay_ms(int delay);
  42:ads1299_spi_adapt.h **** void delay_us(int delay);
  43:ads1299_spi_adapt.h **** void gpio_set_gpio_pin(uint32_t pin);
  44:ads1299_spi_adapt.h **** void gpio_clr_gpio_pin(uint32_t pin);
  45:ads1299_spi_adapt.h **** uint32_t spi_read_packet(volatile uint8_t *spi, uint8_t data[]);
  46:ads1299_spi_adapt.h **** uint32_t ads1299_send_byte_no_cs(uint8_t opcode);
  47:ads1299_spi_adapt.h **** void HandleError(void);
  48:ads1299_spi_adapt.h **** 
  49:ads1299_spi_adapt.h **** /*static void spi_write_single(volatile uint8_t *spi, uint8_t data)
  50:ads1299_spi_adapt.h **** {
  51:ads1299_spi_adapt.h **** 	spi_put(spi,(uint16_t)data);
  52:ads1299_spi_adapt.h **** }
  53:ads1299_spi_adapt.h **** 
  54:ads1299_spi_adapt.h **** static void spi_read_single(volatile uint8_t *spi, uint8_t *data)
  55:ads1299_spi_adapt.h **** {
  56:ads1299_spi_adapt.h **** 	*data = (uint8_t)spi_get(spi);
  57:ads1299_spi_adapt.h **** }*/
  58:ads1299_spi_adapt.h **** 
  59:ads1299_spi_adapt.h **** static inline uint8 spi_is_tx_ready(volatile uint8_t *spi){
  60:ads1299_spi_adapt.h **** 	return SPI_GetTxFifoStatus() != 0;
  61:ads1299_spi_adapt.h **** }
  62:ads1299_spi_adapt.h **** static inline uint8 spi_is_rx_ready(volatile uint8_t *spi){
  63:ads1299_spi_adapt.h **** 	return SPI_GetRxFifoStatus() != 0;
  64:ads1299_spi_adapt.h **** }
  65:ads1299_spi_adapt.h **** static inline uint8 spi_is_tx_empty(volatile uint8_t *spi)
  66:ads1299_spi_adapt.h **** {
  67:ads1299_spi_adapt.h **** 	return SPI_IsTxComplete(); // spi_STS_SPI_IDLE
  68:ads1299_spi_adapt.h **** }
ARM GAS  C:\Users\dmr85\AppData\Local\Temp\ccowpT5a.s 			page 44


  69:ads1299_spi_adapt.h **** 
  70:ads1299_spi_adapt.h **** static inline uint8 spi_data_ready(volatile uint8_t *spi)
  71:ads1299_spi_adapt.h **** {
  72:ads1299_spi_adapt.h ****     //printf("%d ", Cy_GPIO_Read(PIN_ADS1299_DRDY_0_PORT, PIN_ADS1299_DRDY_0_NUM));   
  73:ads1299_spi_adapt.h **** 	if (Cy_GPIO_Read(PIN_ADS1299_DRDY_0_PORT, PIN_ADS1299_DRDY_0_NUM) == 0)
 576              		.loc 4 73 0 discriminator 1
 577 0016 13F0100F 		tst	r3, #16
 578 001a 01D1     		bne	.L31
  74:ads1299_spi_adapt.h ****         return true;
 579              		.loc 4 74 0
 580 001c 0123     		movs	r3, #1
 581 001e 00E0     		b	.L27
 582              	.L31:
  75:ads1299_spi_adapt.h ****     else
  76:ads1299_spi_adapt.h ****         return false;
 583              		.loc 4 76 0
 584 0020 0023     		movs	r3, #0
 585              	.L27:
 586              	.LVL66:
 587              	.LBE13:
 588              	.LBE12:
 284:ads1299.c     **** 	
 285:ads1299.c     **** 	/* Function assumes we've already sent RDATA command or are in RDATAC mode */
 286:ads1299.c     **** 	
 287:ads1299.c     **** 	// check if DRDY
 288:ads1299.c     ****     while (spi_data_ready(SPI_ADDRESS)) {
 589              		.loc 1 288 0
 590 0022 002B     		cmp	r3, #0
 591 0024 F5D1     		bne	.L28
 289:ads1299.c     ****         
 290:ads1299.c     ****     }
 291:ads1299.c     ****     printf("reading... ");
 592              		.loc 1 291 0
 593 0026 2D48     		ldr	r0, .L33+8
 594 0028 FFF7FEFF 		bl	printf
 595              	.LVL67:
 292:ads1299.c     **** 	spi_read_packet(SPI_ADDRESS, *sigtemp);
 596              		.loc 1 292 0
 597 002c 294D     		ldr	r5, .L33
 598 002e 03A9     		add	r1, sp, #12
 599 0030 2846     		mov	r0, r5
 600 0032 FFF7FEFF 		bl	spi_read_packet
 601              	.LVL68:
 293:ads1299.c     **** 	
 294:ads1299.c     **** 	spi_unselectChip(SPI_ADDRESS, chip_select);
 602              		.loc 1 294 0
 603 0036 3146     		mov	r1, r6
 604 0038 2846     		mov	r0, r5
 605 003a FFF7FEFF 		bl	spi_unselectChip
 606              	.LVL69:
 295:ads1299.c     **** 	
 296:ads1299.c     ****     // split data
 297:ads1299.c     ****     
 298:ads1299.c     ****     status_array = sigtemp[0];
 299:ads1299.c     ****     for (channel_idx = 0; channel_idx < MAX_EEG_CHANNELS+1; channel_idx++)
 607              		.loc 1 299 0
 608 003e 0023     		movs	r3, #0
ARM GAS  C:\Users\dmr85\AppData\Local\Temp\ccowpT5a.s 			page 45


 609 0040 8DF82730 		strb	r3, [sp, #39]
 610 0044 3EE0     		b	.L29
 611              	.L30:
 300:ads1299.c     **** 	{
 301:ads1299.c     **** 		data_array[sample_idx][channel_idx][0] = sigtemp[channel_idx+1][0];
 612              		.loc 1 301 0 discriminator 3
 613 0046 019B     		ldr	r3, [sp, #4]
 614 0048 03EB4303 		add	r3, r3, r3, lsl #1
 615 004c DA00     		lsls	r2, r3, #3
 616 004e A118     		adds	r1, r4, r2
 617 0050 9DF82720 		ldrb	r2, [sp, #39]	@ zero_extendqisi2
 618 0054 9DF82730 		ldrb	r3, [sp, #39]	@ zero_extendqisi2
 619 0058 0133     		adds	r3, r3, #1
 620 005a 03EB4303 		add	r3, r3, r3, lsl #1
 621 005e 0AA8     		add	r0, sp, #40
 622 0060 0344     		add	r3, r3, r0
 623 0062 13F81C3C 		ldrb	r3, [r3, #-28]	@ zero_extendqisi2
 624 0066 02EB4202 		add	r2, r2, r2, lsl #1
 625 006a 8B54     		strb	r3, [r1, r2]
 302:ads1299.c     **** 		data_array[sample_idx][channel_idx][1] = sigtemp[channel_idx+1][1];
 626              		.loc 1 302 0 discriminator 3
 627 006c 019B     		ldr	r3, [sp, #4]
 628 006e 03EB4303 		add	r3, r3, r3, lsl #1
 629 0072 DA00     		lsls	r2, r3, #3
 630 0074 A118     		adds	r1, r4, r2
 631 0076 9DF82720 		ldrb	r2, [sp, #39]	@ zero_extendqisi2
 632 007a 9DF82730 		ldrb	r3, [sp, #39]	@ zero_extendqisi2
 633 007e 0133     		adds	r3, r3, #1
 634 0080 03EB4303 		add	r3, r3, r3, lsl #1
 635 0084 0344     		add	r3, r3, r0
 636 0086 13F81B3C 		ldrb	r3, [r3, #-27]	@ zero_extendqisi2
 637 008a 02EB4202 		add	r2, r2, r2, lsl #1
 638 008e 0A44     		add	r2, r2, r1
 639 0090 5370     		strb	r3, [r2, #1]
 303:ads1299.c     **** 		data_array[sample_idx][channel_idx][2] = sigtemp[channel_idx+1][2];
 640              		.loc 1 303 0 discriminator 3
 641 0092 019B     		ldr	r3, [sp, #4]
 642 0094 03EB4303 		add	r3, r3, r3, lsl #1
 643 0098 DA00     		lsls	r2, r3, #3
 644 009a A118     		adds	r1, r4, r2
 645 009c 9DF82720 		ldrb	r2, [sp, #39]	@ zero_extendqisi2
 646 00a0 9DF82730 		ldrb	r3, [sp, #39]	@ zero_extendqisi2
 647 00a4 0133     		adds	r3, r3, #1
 648 00a6 03EB4303 		add	r3, r3, r3, lsl #1
 649 00aa 0344     		add	r3, r3, r0
 650 00ac 13F81A3C 		ldrb	r3, [r3, #-26]	@ zero_extendqisi2
 651 00b0 02EB4202 		add	r2, r2, r2, lsl #1
 652 00b4 0A44     		add	r2, r2, r1
 653 00b6 9370     		strb	r3, [r2, #2]
 299:ads1299.c     **** 	{
 654              		.loc 1 299 0 discriminator 3
 655 00b8 9DF82730 		ldrb	r3, [sp, #39]	@ zero_extendqisi2
 656 00bc 0133     		adds	r3, r3, #1
 657 00be DBB2     		uxtb	r3, r3
 658 00c0 8DF82730 		strb	r3, [sp, #39]
 659              	.L29:
 299:ads1299.c     **** 	{
ARM GAS  C:\Users\dmr85\AppData\Local\Temp\ccowpT5a.s 			page 46


 660              		.loc 1 299 0 is_stmt 0 discriminator 1
 661 00c4 9DF82730 		ldrb	r3, [sp, #39]	@ zero_extendqisi2
 662 00c8 DBB2     		uxtb	r3, r3
 663 00ca 082B     		cmp	r3, #8
 664 00cc BBD9     		bls	.L30
 304:ads1299.c     **** 	}
 305:ads1299.c     **** 	
 306:ads1299.c     ****     
 307:ads1299.c     **** 	//#else
 308:ads1299.c     **** 	//#endif	/* #if UC3 */
 309:ads1299.c     **** 	return ADS1299_STATUS_OK;
 310:ads1299.c     **** }
 665              		.loc 1 310 0 is_stmt 1
 666 00ce 0020     		movs	r0, #0
 667 00d0 0AB0     		add	sp, sp, #40
 668              		.cfi_def_cfa_offset 16
 669              		@ sp needed
 670 00d2 70BD     		pop	{r4, r5, r6, pc}
 671              	.LVL70:
 672              	.L34:
 673              		.align	2
 674              	.L33:
 675 00d4 00000000 		.word	spi
 676 00d8 80023240 		.word	1077019264
 677 00dc 00000000 		.word	.LC0
 678              		.cfi_endproc
 679              	.LFE543:
 680              		.size	ads1299_rdata24_generic, .-ads1299_rdata24_generic
 681              		.section	.text.ads1299_rdata32_generic,"ax",%progbits
 682              		.align	2
 683              		.global	ads1299_rdata32_generic
 684              		.thumb
 685              		.thumb_func
 686              		.type	ads1299_rdata32_generic, %function
 687              	ads1299_rdata32_generic:
 688              	.LFB544:
 311:ads1299.c     **** 
 312:ads1299.c     **** ads1299_error_t ads1299_rdata32_generic(uint8_t chip_select, volatile uint32_t sample_idx, volatile
 313:ads1299.c     **** {
 689              		.loc 1 313 0
 690              		.cfi_startproc
 691              		@ args = 0, pretend = 0, frame = 24
 692              		@ frame_needed = 0, uses_anonymous_args = 0
 693              	.LVL71:
 694 0000 F0B5     		push	{r4, r5, r6, r7, lr}
 695              		.cfi_def_cfa_offset 20
 696              		.cfi_offset 4, -20
 697              		.cfi_offset 5, -16
 698              		.cfi_offset 6, -12
 699              		.cfi_offset 7, -8
 700              		.cfi_offset 14, -4
 701 0002 87B0     		sub	sp, sp, #28
 702              		.cfi_def_cfa_offset 48
 703 0004 0546     		mov	r5, r0
 704 0006 0191     		str	r1, [sp, #4]
 705 0008 0092     		str	r2, [sp]
 706 000a 1C46     		mov	r4, r3
ARM GAS  C:\Users\dmr85\AppData\Local\Temp\ccowpT5a.s 			page 47


 314:ads1299.c     **** 	//#if UC3
 315:ads1299.c     **** 	volatile uint8_t channel_idx;
 316:ads1299.c     **** 	union {
 317:ads1299.c     **** 		uint32_t raw;
 318:ads1299.c     **** 		uint8_t status[4];
 319:ads1299.c     **** 	} __attribute__((packed)) statustemp;
 320:ads1299.c     **** 	union {
 321:ads1299.c     **** 		int32_t raw;
 322:ads1299.c     **** 		uint8_t data[4];
 323:ads1299.c     **** 	} __attribute__((packed)) sigtemp;
 324:ads1299.c     **** 	statustemp.raw = 0;
 707              		.loc 1 324 0
 708 000c 0026     		movs	r6, #0
 709 000e 0496     		str	r6, [sp, #16]
 325:ads1299.c     **** 	sigtemp.raw = 0;
 710              		.loc 1 325 0
 711 0010 0396     		str	r6, [sp, #12]
 326:ads1299.c     **** 	
 327:ads1299.c     **** 	/* Begin SPI comms */
 328:ads1299.c     **** 	spi_selectChip(SPI_ADDRESS, chip_select);
 712              		.loc 1 328 0
 713 0012 194F     		ldr	r7, .L39
 714 0014 0146     		mov	r1, r0
 715              	.LVL72:
 716 0016 3846     		mov	r0, r7
 717              	.LVL73:
 718 0018 FFF7FEFF 		bl	spi_selectChip
 719              	.LVL74:
 329:ads1299.c     **** 	
 330:ads1299.c     **** 	/* Function assumes we've already sent RDATA command or are in RDATAC mode */
 331:ads1299.c     **** 	
 332:ads1299.c     **** 	/* Read in status word first (24 bits) */
 333:ads1299.c     **** 	spi_read_packet(SPI_ADDRESS, &statustemp.status[1]);
 720              		.loc 1 333 0
 721 001c 0DF11101 		add	r1, sp, #17
 722 0020 3846     		mov	r0, r7
 723 0022 FFF7FEFF 		bl	spi_read_packet
 724              	.LVL75:
 334:ads1299.c     **** 	status = statustemp.raw;
 725              		.loc 1 334 0
 726 0026 049B     		ldr	r3, [sp, #16]
 727 0028 0093     		str	r3, [sp]
 335:ads1299.c     **** 	
 336:ads1299.c     **** 	/* Begin reading in data */
 337:ads1299.c     **** 	/* Begin reading in data */
 338:ads1299.c     **** 	for (channel_idx = 0; channel_idx < MAX_EEG_CHANNELS; channel_idx++)
 728              		.loc 1 338 0
 729 002a 8DF81760 		strb	r6, [sp, #23]
 730 002e 17E0     		b	.L36
 731              	.L37:
 339:ads1299.c     **** 	{
 340:ads1299.c     **** 		spi_read_packet(SPI_ADDRESS, &sigtemp.data[1]);
 732              		.loc 1 340 0 discriminator 3
 733 0030 0DF10D01 		add	r1, sp, #13
 734 0034 1048     		ldr	r0, .L39
 735 0036 FFF7FEFF 		bl	spi_read_packet
 736              	.LVL76:
ARM GAS  C:\Users\dmr85\AppData\Local\Temp\ccowpT5a.s 			page 48


 341:ads1299.c     **** 		data_array[sample_idx][channel_idx] = SIGN_EXT_24(sigtemp.raw);
 737              		.loc 1 341 0 discriminator 3
 738 003a 019A     		ldr	r2, [sp, #4]
 739 003c 04EB4212 		add	r2, r4, r2, lsl #5
 740 0040 9DF81710 		ldrb	r1, [sp, #23]	@ zero_extendqisi2
 741 0044 C9B2     		uxtb	r1, r1
 742 0046 039B     		ldr	r3, [sp, #12]
 743 0048 83F40003 		eor	r3, r3, #8388608
 744 004c A3F50003 		sub	r3, r3, #8388608
 745 0050 42F82130 		str	r3, [r2, r1, lsl #2]
 338:ads1299.c     **** 	{
 746              		.loc 1 338 0 discriminator 3
 747 0054 9DF81730 		ldrb	r3, [sp, #23]	@ zero_extendqisi2
 748 0058 0133     		adds	r3, r3, #1
 749 005a DBB2     		uxtb	r3, r3
 750 005c 8DF81730 		strb	r3, [sp, #23]
 751              	.L36:
 338:ads1299.c     **** 	{
 752              		.loc 1 338 0 is_stmt 0 discriminator 1
 753 0060 9DF81730 		ldrb	r3, [sp, #23]	@ zero_extendqisi2
 754 0064 DBB2     		uxtb	r3, r3
 755 0066 072B     		cmp	r3, #7
 756 0068 E2D9     		bls	.L37
 342:ads1299.c     **** 	}
 343:ads1299.c     **** 	
 344:ads1299.c     **** 	spi_unselectChip(SPI_ADDRESS, chip_select);
 757              		.loc 1 344 0 is_stmt 1
 758 006a 2946     		mov	r1, r5
 759 006c 0248     		ldr	r0, .L39
 760 006e FFF7FEFF 		bl	spi_unselectChip
 761              	.LVL77:
 345:ads1299.c     **** 	
 346:ads1299.c     **** 	//#else
 347:ads1299.c     **** 	//#endif	/* #if UC3 */
 348:ads1299.c     **** 	return ADS1299_STATUS_OK;
 349:ads1299.c     **** }
 762              		.loc 1 349 0
 763 0072 0020     		movs	r0, #0
 764 0074 07B0     		add	sp, sp, #28
 765              		.cfi_def_cfa_offset 20
 766              	.LVL78:
 767              		@ sp needed
 768 0076 F0BD     		pop	{r4, r5, r6, r7, pc}
 769              	.LVL79:
 770              	.L40:
 771              		.align	2
 772              	.L39:
 773 0078 00000000 		.word	spi
 774              		.cfi_endproc
 775              	.LFE544:
 776              		.size	ads1299_rdata32_generic, .-ads1299_rdata32_generic
 777              		.comm	spi,1,1
 778              		.section	.rodata.str1.4,"aMS",%progbits,1
 779              		.align	2
 780              	.LC0:
 781 0000 72656164 		.ascii	"reading... \000"
 781      696E672E 
ARM GAS  C:\Users\dmr85\AppData\Local\Temp\ccowpT5a.s 			page 49


 781      2E2E2000 
 782              		.text
 783              	.Letext0:
 784              		.file 5 "c:\\program files (x86)\\cypress\\psoc creator\\4.2\\psoc creator\\import\\gnu\\arm\\5.4.
 785              		.file 6 "c:\\program files (x86)\\cypress\\psoc creator\\4.2\\psoc creator\\import\\gnu\\arm\\5.4.
 786              		.file 7 "Generated_Source\\PSoC6\\pdl\\devices/psoc6/include/ip/cyip_gpio.h"
 787              		.file 8 "Generated_Source\\PSoC6\\pdl\\devices/psoc6/include/psoc6_01_config.h"
 788              		.file 9 "Generated_Source\\PSoC6\\pdl\\drivers/peripheral/device/cy_device.h"
 789              		.file 10 "Generated_Source\\PSoC6\\pdl\\drivers/peripheral/syslib/cy_syslib.h"
 790              		.file 11 "Generated_Source\\PSoC6\\pdl\\drivers/peripheral/scb/cy_scb_spi.h"
 791              		.file 12 "Generated_Source\\PSoC6\\pdl\\drivers/peripheral/scb/cy_scb_uart.h"
 792              		.file 13 "./comms.h"
 793              		.file 14 "Generated_Source\\PSoC6\\pdl\\cmsis/include/core_cm4.h"
 794              		.file 15 "Generated_Source\\PSoC6/SPI.h"
 795              		.file 16 "Generated_Source\\PSoC6/UART.h"
 796              		.file 17 "<built-in>"