ARM GAS  C:\Users\dmr85\AppData\Local\Temp\ccJaCJmC.s 			page 1


   1              		.syntax unified
   2              		.cpu cortex-m0
   3              		.fpu softvfp
   4              		.eabi_attribute 20, 1
   5              		.eabi_attribute 21, 1
   6              		.eabi_attribute 23, 3
   7              		.eabi_attribute 24, 1
   8              		.eabi_attribute 25, 1
   9              		.eabi_attribute 26, 1
  10              		.eabi_attribute 30, 1
  11              		.eabi_attribute 34, 0
  12              		.eabi_attribute 18, 4
  13              		.thumb
  14              		.syntax unified
  15              		.file	"ads1299.c"
  16              		.text
  17              	.Ltext0:
  18              		.cfi_sections	.debug_frame
  19              		.section	.text.ads1299_device_init,"ax",%progbits
  20              		.align	2
  21              		.global	ads1299_device_init
  22              		.code	16
  23              		.thumb_func
  24              		.type	ads1299_device_init, %function
  25              	ads1299_device_init:
  26              	.LFB49:
  27              		.file 1 "ads1299.c"
   1:ads1299.c     **** /** 
   2:ads1299.c     ****  *  \file ads1299.c
   3:ads1299.c     ****  *  \brief Some useful functions for using the ADS1299 EEG analog front-end from Texas Instruments.
   4:ads1299.c     ****  *	\details The ADS1299 is an SPI slave device. Communication with it requires at least one SPI mas
   5:ads1299.c     ****  *	\author Graham Kelly
   6:ads1299.c     ****  *	\version 1.0
   7:ads1299.c     ****  *	\date August 2014
   8:ads1299.c     ****  *
   9:ads1299.c     ****  *  All Atmel Software Framework libraries used herein are copyright Atmel and
  10:ads1299.c     ****  *  subject to their appropriate licenses, which allow free redistribution with
  11:ads1299.c     ****  *  some restrictions. These restrictions are listed in their appropriate files.
  12:ads1299.c     ****  *
  13:ads1299.c     ****  *  \page License
  14:ads1299.c     ****  *
  15:ads1299.c     ****  *  Brainboard firmware code is placed under the MIT license
  16:ads1299.c     ****  *  Copyright (c) 2014 Graham Kelly
  17:ads1299.c     ****  *
  18:ads1299.c     ****  *  Permission is hereby granted, free of charge, to any person obtaining a copy
  19:ads1299.c     ****  *  of this software and associated documentation files (the "Software"), to deal
  20:ads1299.c     ****  *  in the Software without restriction, including without limitation the rights
  21:ads1299.c     ****  *  to use, copy, modify, merge, publish, distribute, sublicense, and/or sell
  22:ads1299.c     ****  *  copies of the Software, and to permit persons to whom the Software is
  23:ads1299.c     ****  *  furnished to do so, subject to the following conditions:
  24:ads1299.c     ****  *
  25:ads1299.c     ****  *  The above copyright notice and this permission notice shall be included in
  26:ads1299.c     ****  *  all copies or substantial portions of the Software.
  27:ads1299.c     ****  *
  28:ads1299.c     ****  *  THE SOFTWARE IS PROVIDED "AS IS", WITHOUT WARRANTY OF ANY KIND, EXPRESS OR
  29:ads1299.c     ****  *  IMPLIED, INCLUDING BUT NOT LIMITED TO THE WARRANTIES OF MERCHANTABILITY,
  30:ads1299.c     ****  *  FITNESS FOR A PARTICULAR PURPOSE AND NONINFRINGEMENT. IN NO EVENT SHALL THE
ARM GAS  C:\Users\dmr85\AppData\Local\Temp\ccJaCJmC.s 			page 2


  31:ads1299.c     ****  *  AUTHORS OR COPYRIGHT HOLDERS BE LIABLE FOR ANY CLAIM, DAMAGES OR OTHER
  32:ads1299.c     ****  *  LIABILITY, WHETHER IN AN ACTION OF CONTRACT, TORT OR OTHERWISE, ARISING FROM,
  33:ads1299.c     ****  *  OUT OF OR IN CONNECTION WITH THE SOFTWARE OR THE USE OR OTHER DEALINGS IN
  34:ads1299.c     ****  *  THE SOFTWARE.
  35:ads1299.c     ****  *
  36:ads1299.c     ****  */
  37:ads1299.c     **** 
  38:ads1299.c     **** #ifdef __cplusplus
  39:ads1299.c     **** extern "C" {
  40:ads1299.c     **** #endif
  41:ads1299.c     **** 
  42:ads1299.c     **** #include "ads1299.h"
  43:ads1299.c     **** 
  44:ads1299.c     **** /**************************************************************************************************
  45:ads1299.c     **** *               Function Definitions                                                               
  46:ads1299.c     **** ***************************************************************************************************
  47:ads1299.c     **** 
  48:ads1299.c     **** /* SYSTEM CONTROL FUNCTIONS ***********************************************************************
  49:ads1299.c     **** 
  50:ads1299.c     **** ads1299_error_t	ads1299_device_init(uint8_t chip_select, uint8_t init_regs)
  51:ads1299.c     **** {
  28              		.loc 1 51 0
  29              		.cfi_startproc
  30              		@ args = 0, pretend = 0, frame = 0
  31              		@ frame_needed = 0, uses_anonymous_args = 0
  32              		@ link register save eliminated.
  33              	.LVL0:
  34              	.LVL1:
  52:ads1299.c     **** 	#if UC3
  53:ads1299.c     **** 	/* Power cycle ADS1299 */
  54:ads1299.c     **** 	gpio_clr_gpio_pin(ADS1299_PIN_PWDN);
  55:ads1299.c     **** 	delay_us(20);
  56:ads1299.c     **** 	gpio_set_gpio_pin(ADS1299_PIN_PWDN);
  57:ads1299.c     **** 	
  58:ads1299.c     **** 	/* Allow oscillator warm-up */
  59:ads1299.c     **** 	delay_ms(1000);
  60:ads1299.c     **** 	
  61:ads1299.c     **** 	/* Tell chip to exit continuous data mode */
  62:ads1299.c     **** 	ads1299_send_byte(chip_select, ADS1299_OPC_SDATAC);
  63:ads1299.c     **** 	/* Stop taking conversions; apparently not done automatically */
  64:ads1299.c     **** 	ads1299_send_byte(chip_select, ADS1299_OPC_STOP);
  65:ads1299.c     ****  	
  66:ads1299.c     **** 	if (init_regs) 
  67:ads1299.c     **** 	{
  68:ads1299.c     **** 		/* Write to GPIO register, set all pins to driven-low output */
  69:ads1299.c     **** 		ads1299_wreg(chip_select, ADS1299_REGADDR_GPIO, ADS1299_REG_GPIO_GPIOC4_OUTPUT |
  70:ads1299.c     **** 		ADS1299_REG_GPIO_GPIOD4_LOW    |
  71:ads1299.c     **** 		ADS1299_REG_GPIO_GPIOC3_OUTPUT |
  72:ads1299.c     **** 		ADS1299_REG_GPIO_GPIOD3_LOW    |
  73:ads1299.c     **** 		ADS1299_REG_GPIO_GPIOC2_OUTPUT |
  74:ads1299.c     **** 		ADS1299_REG_GPIO_GPIOD2_LOW    |
  75:ads1299.c     **** 		ADS1299_REG_GPIO_GPIOC1_OUTPUT |
  76:ads1299.c     **** 		ADS1299_REG_GPIO_GPIOD1_LOW    );
  77:ads1299.c     **** 			
  78:ads1299.c     **** 		/* Write to CONFIG1, set data rate to 250 Hz */
  79:ads1299.c     **** 		ads1299_wreg(chip_select, ADS1299_REGADDR_CONFIG1, ADS1299_REG_CONFIG1_RESERVED_VALUE |
  80:ads1299.c     **** 		ADS1299_REG_CONFIG1_FMOD_DIV_BY_4096);
ARM GAS  C:\Users\dmr85\AppData\Local\Temp\ccJaCJmC.s 			page 3


  81:ads1299.c     **** 		/* Write to CONFIG2 register, generate test signal internally */
  82:ads1299.c     **** 		ads1299_wreg(chip_select, ADS1299_REGADDR_CONFIG2, ADS1299_REG_CONFIG2_RESERVED_VALUE |
  83:ads1299.c     **** 		ADS1299_REG_CONFIG2_CAL_INT        |
  84:ads1299.c     **** 		ADS1299_REG_CONFIG2_CAL_PULSE_FCLK_DIV_2_21);
  85:ads1299.c     **** 			
  86:ads1299.c     **** 		/* Write to CONFIG3, enable internal reference buffer, bias internally generated, bias buffer ena
  87:ads1299.c     **** 		ads1299_wreg(chip_select, ADS1299_REGADDR_CONFIG3, ADS1299_REG_CONFIG3_REFBUF_ENABLED |
  88:ads1299.c     **** 		ADS1299_REG_CONFIG3_BIASREF_INT    |
  89:ads1299.c     **** 		ADS1299_REG_CONFIG3_BIASBUF_ENABLED);
  90:ads1299.c     **** 		/* Reference settling time */
  91:ads1299.c     **** 		delay_ms(150);
  92:ads1299.c     **** 			
  93:ads1299.c     **** 		/* Write to CH1 settings register, set as normal input, gain 24 */
  94:ads1299.c     **** 		ads1299_wreg(chip_select, ADS1299_REGADDR_CH1SET, ADS1299_REG_CHNSET_CHANNEL_ON			|
  95:ads1299.c     **** 		ADS1299_REG_CHNSET_GAIN_24			|
  96:ads1299.c     **** 		ADS1299_REG_CHNSET_SRB2_DISCONNECTED	|
  97:ads1299.c     **** 		ADS1299_REG_CHNSET_NORMAL_ELECTRODE);
  98:ads1299.c     **** 		/* Write to CH2 settings register, set as normal input, gain 24 */
  99:ads1299.c     **** 		ads1299_wreg(chip_select, ADS1299_REGADDR_CH2SET, ADS1299_REG_CHNSET_CHANNEL_ON			|
 100:ads1299.c     **** 		ADS1299_REG_CHNSET_GAIN_24			|
 101:ads1299.c     **** 		ADS1299_REG_CHNSET_SRB2_DISCONNECTED	|
 102:ads1299.c     **** 		ADS1299_REG_CHNSET_NORMAL_ELECTRODE);
 103:ads1299.c     **** 		/* Write to CH3 settings register, set as normal input, gain 24 */
 104:ads1299.c     **** 		ads1299_wreg(chip_select, ADS1299_REGADDR_CH3SET, ADS1299_REG_CHNSET_CHANNEL_ON			|
 105:ads1299.c     **** 		ADS1299_REG_CHNSET_GAIN_24			|
 106:ads1299.c     **** 		ADS1299_REG_CHNSET_SRB2_DISCONNECTED	|
 107:ads1299.c     **** 		ADS1299_REG_CHNSET_NORMAL_ELECTRODE);
 108:ads1299.c     **** 		/* Write to CH4 settings register, set as normal input, gain 24 */
 109:ads1299.c     **** 		ads1299_wreg(chip_select, ADS1299_REGADDR_CH4SET, ADS1299_REG_CHNSET_CHANNEL_ON			|
 110:ads1299.c     **** 		ADS1299_REG_CHNSET_GAIN_24			|
 111:ads1299.c     **** 		ADS1299_REG_CHNSET_SRB2_DISCONNECTED	|
 112:ads1299.c     **** 		ADS1299_REG_CHNSET_NORMAL_ELECTRODE);
 113:ads1299.c     **** 		/* Write to CH5 settings register, set as normal input, gain 24 */
 114:ads1299.c     **** 		ads1299_wreg(chip_select, ADS1299_REGADDR_CH5SET, ADS1299_REG_CHNSET_CHANNEL_ON			|
 115:ads1299.c     **** 		ADS1299_REG_CHNSET_GAIN_24			|
 116:ads1299.c     **** 		ADS1299_REG_CHNSET_SRB2_DISCONNECTED	|
 117:ads1299.c     **** 		ADS1299_REG_CHNSET_NORMAL_ELECTRODE);
 118:ads1299.c     **** 		/* Write to CH6 settings register, set as normal input, gain 24 */
 119:ads1299.c     **** 		ads1299_wreg(chip_select, ADS1299_REGADDR_CH6SET, ADS1299_REG_CHNSET_CHANNEL_ON			|
 120:ads1299.c     **** 		ADS1299_REG_CHNSET_GAIN_24			|
 121:ads1299.c     **** 		ADS1299_REG_CHNSET_SRB2_DISCONNECTED	|
 122:ads1299.c     **** 		ADS1299_REG_CHNSET_NORMAL_ELECTRODE);
 123:ads1299.c     **** 		/* Write to CH5 settings register, set as normal input, gain 24 */
 124:ads1299.c     **** 		ads1299_wreg(chip_select, ADS1299_REGADDR_CH7SET, ADS1299_REG_CHNSET_CHANNEL_ON			|
 125:ads1299.c     **** 		ADS1299_REG_CHNSET_GAIN_24			|
 126:ads1299.c     **** 		ADS1299_REG_CHNSET_SRB2_DISCONNECTED	|
 127:ads1299.c     **** 		ADS1299_REG_CHNSET_NORMAL_ELECTRODE);
 128:ads1299.c     **** 		/* Write to CH6 settings register, set as normal input, gain 24 */
 129:ads1299.c     **** 		ads1299_wreg(chip_select, ADS1299_REGADDR_CH8SET, ADS1299_REG_CHNSET_CHANNEL_ON			|
 130:ads1299.c     **** 		ADS1299_REG_CHNSET_GAIN_24			|
 131:ads1299.c     **** 		ADS1299_REG_CHNSET_SRB2_DISCONNECTED	|
 132:ads1299.c     **** 		ADS1299_REG_CHNSET_NORMAL_ELECTRODE);
 133:ads1299.c     **** 			
 134:ads1299.c     **** 		/* Write to MISC1 register, SRB1 on (ref electrode) */
 135:ads1299.c     **** 		ads1299_wreg(chip_select, ADS1299_REGADDR_MISC1, ADS1299_REG_MISC1_SRB1_ON);
 136:ads1299.c     **** 	} 		
 137:ads1299.c     **** 	return ADS1299_STATUS_OK;
ARM GAS  C:\Users\dmr85\AppData\Local\Temp\ccJaCJmC.s 			page 4


 138:ads1299.c     **** 	#else
 139:ads1299.c     **** 	#endif /* #if UC3 */
 140:ads1299.c     **** }
  35              		.loc 1 140 0
  36              		@ sp needed
  37 0000 7047     		bx	lr
  38              		.cfi_endproc
  39              	.LFE49:
  40              		.size	ads1299_device_init, .-ads1299_device_init
  41 0002 C046     		.section	.text.ads1299_rreg,"ax",%progbits
  42              		.align	2
  43              		.global	ads1299_rreg
  44              		.code	16
  45              		.thumb_func
  46              		.type	ads1299_rreg, %function
  47              	ads1299_rreg:
  48              	.LFB50:
 141:ads1299.c     **** 
 142:ads1299.c     **** 
 143:ads1299.c     **** 
 144:ads1299.c     **** /* REGISTER READ/WRITE FUNCTIONS ******************************************************************
 145:ads1299.c     **** 
 146:ads1299.c     **** ads1299_error_t ads1299_rreg(uint8_t chip_select, uint8_t reg_addr, uint8_t* read_reg_val_ptr)
 147:ads1299.c     **** {
  49              		.loc 1 147 0
  50              		.cfi_startproc
  51              		@ args = 0, pretend = 0, frame = 0
  52              		@ frame_needed = 0, uses_anonymous_args = 0
  53              		@ link register save eliminated.
  54              	.LVL2:
  55              	.LVL3:
 148:ads1299.c     **** 	#if UC3
 149:ads1299.c     **** 	uint16_t read_data;
 150:ads1299.c     **** 		
 151:ads1299.c     **** 	spi_selectChip(SPI_ADDRESS, chip_select);
 152:ads1299.c     **** 	
 153:ads1299.c     **** 	/* First byte: read command for specified register */
 154:ads1299.c     **** 	ads1299_send_byte_no_cs(ADS1299_OPC_RREG | reg_addr);
 155:ads1299.c     **** 	
 156:ads1299.c     **** 	/* Second byte: Read only 1 register (send n-1, where n is number of registers to read) */
 157:ads1299.c     **** 	ads1299_send_byte_no_cs(0x00);
 158:ads1299.c     **** 	
 159:ads1299.c     **** 	/* Dummy byte to clock in data */
 160:ads1299.c     **** 	ads1299_send_byte_no_cs(DUMMY_BYTE);
 161:ads1299.c     **** 	
 162:ads1299.c     **** 	delay_us(10);
 163:ads1299.c     **** 	spi_unselectChip(SPI_ADDRESS, chip_select);
 164:ads1299.c     **** 	
 165:ads1299.c     **** 	/* Read SPI RX register */
 166:ads1299.c     **** 	read_data = spi_get(SPI_ADDRESS);
 167:ads1299.c     **** 	*read_reg_val_ptr = (uint8_t) read_data;	
 168:ads1299.c     **** 		
 169:ads1299.c     **** 	return ADS1299_STATUS_OK;
 170:ads1299.c     **** 	#else
 171:ads1299.c     **** 	#endif /* #if UC3 */
 172:ads1299.c     **** }
  56              		.loc 1 172 0
ARM GAS  C:\Users\dmr85\AppData\Local\Temp\ccJaCJmC.s 			page 5


  57              		@ sp needed
  58 0000 7047     		bx	lr
  59              		.cfi_endproc
  60              	.LFE50:
  61              		.size	ads1299_rreg, .-ads1299_rreg
  62 0002 C046     		.section	.text.ads1299_wreg,"ax",%progbits
  63              		.align	2
  64              		.global	ads1299_wreg
  65              		.code	16
  66              		.thumb_func
  67              		.type	ads1299_wreg, %function
  68              	ads1299_wreg:
  69              	.LFB51:
 173:ads1299.c     **** 
 174:ads1299.c     **** ads1299_error_t ads1299_wreg(uint8_t chip_select, uint8_t reg_addr, uint8_t reg_val_to_write)
 175:ads1299.c     **** {
  70              		.loc 1 175 0
  71              		.cfi_startproc
  72              		@ args = 0, pretend = 0, frame = 0
  73              		@ frame_needed = 0, uses_anonymous_args = 0
  74              		@ link register save eliminated.
  75              	.LVL4:
  76              	.LVL5:
 176:ads1299.c     **** 	#if UC3
 177:ads1299.c     **** 	spi_selectChip(SPI_ADDRESS, chip_select);
 178:ads1299.c     **** 	
 179:ads1299.c     **** 	/* First byte: write command for specified register */
 180:ads1299.c     **** 	ads1299_send_byte_no_cs(ADS1299_OPC_WREG | reg_addr);
 181:ads1299.c     **** 	
 182:ads1299.c     **** 	/* Second byte: number of registers to write (1) */
 183:ads1299.c     **** 	ads1299_send_byte_no_cs(0x00);
 184:ads1299.c     **** 	
 185:ads1299.c     **** 	/* Third byte: write register value */
 186:ads1299.c     **** 	ads1299_send_byte_no_cs(reg_val_to_write);
 187:ads1299.c     **** 		
 188:ads1299.c     **** 	spi_unselectChip(SPI_ADDRESS, chip_select);
 189:ads1299.c     **** 		
 190:ads1299.c     **** 	return ADS1299_STATUS_OK;
 191:ads1299.c     **** 	#else
 192:ads1299.c     **** 	#endif /* #if UC3 */
 193:ads1299.c     **** }
  77              		.loc 1 193 0
  78              		@ sp needed
  79 0000 7047     		bx	lr
  80              		.cfi_endproc
  81              	.LFE51:
  82              		.size	ads1299_wreg, .-ads1299_wreg
  83 0002 C046     		.section	.text.ads1299_rdata32_packet,"ax",%progbits
  84              		.align	2
  85              		.global	ads1299_rdata32_packet
  86              		.code	16
  87              		.thumb_func
  88              		.type	ads1299_rdata32_packet, %function
  89              	ads1299_rdata32_packet:
  90              	.LFB52:
 194:ads1299.c     **** 
 195:ads1299.c     **** /* DATA RETRIEVAL FUNCTIONS ***********************************************************************
ARM GAS  C:\Users\dmr85\AppData\Local\Temp\ccJaCJmC.s 			page 6


 196:ads1299.c     **** 
 197:ads1299.c     **** ads1299_error_t ads1299_rdata32_packet(uint8_t chip_select, volatile uint32_t sample_idx, bboard_da
 198:ads1299.c     **** {
  91              		.loc 1 198 0
  92              		.cfi_startproc
  93              		@ args = 0, pretend = 0, frame = 8
  94              		@ frame_needed = 0, uses_anonymous_args = 0
  95              		@ link register save eliminated.
  96              	.LVL6:
  97 0000 82B0     		sub	sp, sp, #8
  98              		.cfi_def_cfa_offset 8
  99 0002 0191     		str	r1, [sp, #4]
 199:ads1299.c     **** 	#if UC3
 200:ads1299.c     **** 	volatile uint8_t channel_idx;	
 201:ads1299.c     **** 	union {
 202:ads1299.c     **** 		uint32_t raw;
 203:ads1299.c     **** 		uint8_t status[4];
 204:ads1299.c     **** 	} __attribute__((packed)) statustemp;	
 205:ads1299.c     **** 	union {
 206:ads1299.c     **** 		int32_t raw;
 207:ads1299.c     **** 		uint8_t data[4];
 208:ads1299.c     **** 	} __attribute__((packed)) sigtemp;
 209:ads1299.c     **** 	statustemp.raw = 0;
 210:ads1299.c     **** 	sigtemp.raw = 0;
 211:ads1299.c     **** 	
 212:ads1299.c     **** 	/* Begin SPI comms */
 213:ads1299.c     **** 	spi_selectChip(SPI_ADDRESS, chip_select);
 214:ads1299.c     **** 	
 215:ads1299.c     **** 	/* Function assumes we've already sent RDATA command or are in RDATAC mode */
 216:ads1299.c     **** 		
 217:ads1299.c     **** 	/* Read in status word first (24 bits) */
 218:ads1299.c     **** 	spi_read_packet(SPI_ADDRESS, &statustemp.status[1], 3);
 219:ads1299.c     **** 	packet_ptr->eegstatus = statustemp.raw;
 220:ads1299.c     **** 	
 221:ads1299.c     **** 	/* Begin reading in data */	
 222:ads1299.c     **** 	for (channel_idx = 0; channel_idx < MAX_EEG_CHANNELS; channel_idx++)
 223:ads1299.c     **** 	{
 224:ads1299.c     **** 		spi_read_packet(SPI_ADDRESS, &sigtemp.data[1], 3);				
 225:ads1299.c     **** 		packet_ptr->eegdata[sample_idx][channel_idx] = SIGN_EXT_24(sigtemp.raw);
 226:ads1299.c     **** 	}
 227:ads1299.c     **** 		
 228:ads1299.c     **** 	spi_unselectChip(SPI_ADDRESS, chip_select);
 229:ads1299.c     **** 		
 230:ads1299.c     **** 	#else
 231:ads1299.c     **** 	#endif	/* #if UC3 */
 232:ads1299.c     **** 	return ADS1299_STATUS_OK;
 233:ads1299.c     **** }
 100              		.loc 1 233 0
 101 0004 0020     		movs	r0, #0
 102              	.LVL7:
 103 0006 02B0     		add	sp, sp, #8
 104              		@ sp needed
 105 0008 7047     		bx	lr
 106              		.cfi_endproc
 107              	.LFE52:
 108              		.size	ads1299_rdata32_packet, .-ads1299_rdata32_packet
 109              		.section	.text.ads1299_rdata24_packet,"ax",%progbits
ARM GAS  C:\Users\dmr85\AppData\Local\Temp\ccJaCJmC.s 			page 7


 110              		.align	2
 111              		.global	ads1299_rdata24_packet
 112              		.code	16
 113              		.thumb_func
 114              		.type	ads1299_rdata24_packet, %function
 115              	ads1299_rdata24_packet:
 116              	.LFB53:
 234:ads1299.c     **** 
 235:ads1299.c     **** ads1299_error_t ads1299_rdata24_packet(uint8_t chip_select, volatile uint32_t sample_idx, bboard_da
 236:ads1299.c     **** {
 117              		.loc 1 236 0
 118              		.cfi_startproc
 119              		@ args = 0, pretend = 0, frame = 8
 120              		@ frame_needed = 0, uses_anonymous_args = 0
 121              		@ link register save eliminated.
 122              	.LVL8:
 123 0000 82B0     		sub	sp, sp, #8
 124              		.cfi_def_cfa_offset 8
 125 0002 0191     		str	r1, [sp, #4]
 237:ads1299.c     **** 	#if UC3
 238:ads1299.c     **** 	volatile uint8_t channel_idx;
 239:ads1299.c     **** 	
 240:ads1299.c     **** 	uint8_t temp[3];
 241:ads1299.c     **** 	
 242:ads1299.c     **** 	/* Begin SPI comms */
 243:ads1299.c     **** 	spi_selectChip(SPI_ADDRESS, chip_select);
 244:ads1299.c     **** 	
 245:ads1299.c     **** 	/* Function assumes we've already sent RDATA command or are in RDATAC mode */
 246:ads1299.c     **** 	
 247:ads1299.c     **** 	/* Read in status word first (24 bits) */
 248:ads1299.c     **** 	spi_read_packet(SPI_ADDRESS, temp, 3);
 249:ads1299.c     **** 	packet_ptr->eegstatus[0] = temp[0];
 250:ads1299.c     **** 	packet_ptr->eegstatus[1] = temp[1];
 251:ads1299.c     **** 	packet_ptr->eegstatus[2] = temp[2];
 252:ads1299.c     **** 	
 253:ads1299.c     **** 	/* Begin reading in data */
 254:ads1299.c     **** 	for (channel_idx = 0; channel_idx < MAX_EEG_CHANNELS; channel_idx++)
 255:ads1299.c     **** 	{
 256:ads1299.c     **** 		spi_read_packet(SPI_ADDRESS, temp, 3);
 257:ads1299.c     **** 		packet_ptr->eegdata[sample_idx][channel_idx][0] = temp[0];
 258:ads1299.c     **** 		packet_ptr->eegdata[sample_idx][channel_idx][1] = temp[1];
 259:ads1299.c     **** 		packet_ptr->eegdata[sample_idx][channel_idx][2] = temp[2];
 260:ads1299.c     **** 	}
 261:ads1299.c     **** 	
 262:ads1299.c     **** 	spi_unselectChip(SPI_ADDRESS, chip_select);
 263:ads1299.c     **** 	
 264:ads1299.c     **** 	#else
 265:ads1299.c     **** 	#endif	/* #if UC3 */
 266:ads1299.c     **** 	return ADS1299_STATUS_OK;
 267:ads1299.c     **** }
 126              		.loc 1 267 0
 127 0004 0020     		movs	r0, #0
 128              	.LVL9:
 129 0006 02B0     		add	sp, sp, #8
 130              		@ sp needed
 131 0008 7047     		bx	lr
 132              		.cfi_endproc
ARM GAS  C:\Users\dmr85\AppData\Local\Temp\ccJaCJmC.s 			page 8


 133              	.LFE53:
 134              		.size	ads1299_rdata24_packet, .-ads1299_rdata24_packet
 135              		.section	.text.ads1299_rdata24_generic,"ax",%progbits
 136              		.align	2
 137              		.global	ads1299_rdata24_generic
 138              		.code	16
 139              		.thumb_func
 140              		.type	ads1299_rdata24_generic, %function
 141              	ads1299_rdata24_generic:
 142              	.LFB54:
 268:ads1299.c     **** 
 269:ads1299.c     **** ads1299_error_t ads1299_rdata24_generic(uint8_t chip_select, volatile uint32_t sample_idx, volatile
 270:ads1299.c     **** {
 143              		.loc 1 270 0
 144              		.cfi_startproc
 145              		@ args = 0, pretend = 0, frame = 8
 146              		@ frame_needed = 0, uses_anonymous_args = 0
 147              		@ link register save eliminated.
 148              	.LVL10:
 149 0000 82B0     		sub	sp, sp, #8
 150              		.cfi_def_cfa_offset 8
 151 0002 0191     		str	r1, [sp, #4]
 271:ads1299.c     **** 	#if UC3
 272:ads1299.c     **** 	volatile uint8_t channel_idx;
 273:ads1299.c     **** 	uint8_t sigtemp[3];
 274:ads1299.c     **** 	
 275:ads1299.c     **** 	/* Begin SPI comms */
 276:ads1299.c     **** 	spi_selectChip(SPI_ADDRESS, chip_select);
 277:ads1299.c     **** 	
 278:ads1299.c     **** 	/* Function assumes we've already sent RDATA command or are in RDATAC mode */
 279:ads1299.c     **** 	
 280:ads1299.c     **** 	/* Read in status word first (24 bits) */
 281:ads1299.c     **** 	spi_read_packet(SPI_ADDRESS, (uint8_t*) status_array, 3);
 282:ads1299.c     **** 	
 283:ads1299.c     **** 	/* Begin reading in data */
 284:ads1299.c     **** 	for (channel_idx = 0; channel_idx < MAX_EEG_CHANNELS; channel_idx++)
 285:ads1299.c     **** 	{
 286:ads1299.c     **** 		spi_read_packet(SPI_ADDRESS, sigtemp, 3);
 287:ads1299.c     **** 		data_array[sample_idx][channel_idx][0] = sigtemp[0];
 288:ads1299.c     **** 		data_array[sample_idx][channel_idx][1] = sigtemp[1];
 289:ads1299.c     **** 		data_array[sample_idx][channel_idx][2] = sigtemp[2];
 290:ads1299.c     **** 	}
 291:ads1299.c     **** 	
 292:ads1299.c     **** 	spi_unselectChip(SPI_ADDRESS, chip_select);
 293:ads1299.c     **** 	
 294:ads1299.c     **** 	#else
 295:ads1299.c     **** 	#endif	/* #if UC3 */
 296:ads1299.c     **** 	return ADS1299_STATUS_OK;
 297:ads1299.c     **** }
 152              		.loc 1 297 0
 153 0004 0020     		movs	r0, #0
 154              	.LVL11:
 155 0006 02B0     		add	sp, sp, #8
 156              		@ sp needed
 157 0008 7047     		bx	lr
 158              		.cfi_endproc
 159              	.LFE54:
ARM GAS  C:\Users\dmr85\AppData\Local\Temp\ccJaCJmC.s 			page 9


 160              		.size	ads1299_rdata24_generic, .-ads1299_rdata24_generic
 161              		.section	.text.ads1299_rdata32_generic,"ax",%progbits
 162              		.align	2
 163              		.global	ads1299_rdata32_generic
 164              		.code	16
 165              		.thumb_func
 166              		.type	ads1299_rdata32_generic, %function
 167              	ads1299_rdata32_generic:
 168              	.LFB55:
 298:ads1299.c     **** 
 299:ads1299.c     **** ads1299_error_t ads1299_rdata32_generic(uint8_t chip_select, volatile uint32_t sample_idx, volatile
 300:ads1299.c     **** {
 169              		.loc 1 300 0
 170              		.cfi_startproc
 171              		@ args = 0, pretend = 0, frame = 8
 172              		@ frame_needed = 0, uses_anonymous_args = 0
 173              		@ link register save eliminated.
 174              	.LVL12:
 175 0000 82B0     		sub	sp, sp, #8
 176              		.cfi_def_cfa_offset 8
 177 0002 0191     		str	r1, [sp, #4]
 178 0004 0092     		str	r2, [sp]
 301:ads1299.c     **** 	#if UC3
 302:ads1299.c     **** 	volatile uint8_t channel_idx;
 303:ads1299.c     **** 	union {
 304:ads1299.c     **** 		uint32_t raw;
 305:ads1299.c     **** 		uint8_t status[4];
 306:ads1299.c     **** 	} __attribute__((packed)) statustemp;
 307:ads1299.c     **** 	union {
 308:ads1299.c     **** 		int32_t raw;
 309:ads1299.c     **** 		uint8_t data[4];
 310:ads1299.c     **** 	} __attribute__((packed)) sigtemp;
 311:ads1299.c     **** 	statustemp.raw = 0;
 312:ads1299.c     **** 	sigtemp.raw = 0;
 313:ads1299.c     **** 	
 314:ads1299.c     **** 	/* Begin SPI comms */
 315:ads1299.c     **** 	spi_selectChip(SPI_ADDRESS, chip_select);
 316:ads1299.c     **** 	
 317:ads1299.c     **** 	/* Function assumes we've already sent RDATA command or are in RDATAC mode */
 318:ads1299.c     **** 	
 319:ads1299.c     **** 	/* Read in status word first (24 bits) */
 320:ads1299.c     **** 	spi_read_packet(SPI_ADDRESS, &statustemp.status[1], 3);
 321:ads1299.c     **** 	status = statustemp.raw;
 322:ads1299.c     **** 	
 323:ads1299.c     **** 	/* Begin reading in data */
 324:ads1299.c     **** 	/* Begin reading in data */
 325:ads1299.c     **** 	for (channel_idx = 0; channel_idx < MAX_EEG_CHANNELS; channel_idx++)
 326:ads1299.c     **** 	{
 327:ads1299.c     **** 		spi_read_packet(SPI_ADDRESS, &sigtemp.data[1], 3);
 328:ads1299.c     **** 		data_array[sample_idx][channel_idx] = SIGN_EXT_24(sigtemp.raw);
 329:ads1299.c     **** 	}
 330:ads1299.c     **** 	
 331:ads1299.c     **** 	spi_unselectChip(SPI_ADDRESS, chip_select);
 332:ads1299.c     **** 	
 333:ads1299.c     **** 	#else
 334:ads1299.c     **** 	#endif	/* #if UC3 */
 335:ads1299.c     **** 	return ADS1299_STATUS_OK;
ARM GAS  C:\Users\dmr85\AppData\Local\Temp\ccJaCJmC.s 			page 10


 336:ads1299.c     **** }
 179              		.loc 1 336 0
 180 0006 0020     		movs	r0, #0
 181              	.LVL13:
 182 0008 02B0     		add	sp, sp, #8
 183              		@ sp needed
 184 000a 7047     		bx	lr
 185              		.cfi_endproc
 186              	.LFE55:
 187              		.size	ads1299_rdata32_generic, .-ads1299_rdata32_generic
 188              		.comm	spi,1,1
 189              		.text
 190              	.Letext0:
 191              		.file 2 "c:\\program files (x86)\\cypress\\psoc creator\\4.2\\psoc creator\\import\\gnu\\arm\\5.4.
 192              		.file 3 "c:\\program files (x86)\\cypress\\psoc creator\\4.2\\psoc creator\\import\\gnu\\arm\\5.4.
 193              		.file 4 "comms.h"
 194              		.file 5 "Generated_Source\\PSoC4/ble_Stack.h"
 195              		.file 6 "ads1299.h"
 196              		.file 7 "ads1299_spi_adapt.h"