ARM GAS  C:\Users\dmr85\AppData\Local\Temp\ccVGO9NO.s 			page 1


   1              		.syntax unified
   2              		.cpu cortex-m0
   3              		.fpu softvfp
   4              		.eabi_attribute 20, 1
   5              		.eabi_attribute 21, 1
   6              		.eabi_attribute 23, 3
   7              		.eabi_attribute 24, 1
   8              		.eabi_attribute 25, 1
   9              		.eabi_attribute 26, 1
  10              		.eabi_attribute 30, 1
  11              		.eabi_attribute 34, 0
  12              		.eabi_attribute 18, 4
  13              		.thumb
  14              		.syntax unified
  15              		.file	"ads1299_spi_adapt.c"
  16              		.text
  17              	.Ltext0:
  18              		.cfi_sections	.debug_frame
  19              		.section	.text.spi_put,"ax",%progbits
  20              		.align	2
  21              		.global	spi_put
  22              		.code	16
  23              		.thumb_func
  24              		.type	spi_put, %function
  25              	spi_put:
  26              	.LFB35:
  27              		.file 1 "ads1299_spi_adapt.c"
   1:ads1299_spi_adapt.c **** /* ========================================
   2:ads1299_spi_adapt.c ****  *
   3:ads1299_spi_adapt.c ****  * Copyright YOUR COMPANY, THE YEAR
   4:ads1299_spi_adapt.c ****  * All Rights Reserved
   5:ads1299_spi_adapt.c ****  * UNPUBLISHED, LICENSED SOFTWARE.
   6:ads1299_spi_adapt.c ****  *
   7:ads1299_spi_adapt.c ****  * CONFIDENTIAL AND PROPRIETARY INFORMATION
   8:ads1299_spi_adapt.c ****  * WHICH IS THE PROPERTY OF your company.
   9:ads1299_spi_adapt.c ****  *
  10:ads1299_spi_adapt.c ****  * ========================================
  11:ads1299_spi_adapt.c **** */
  12:ads1299_spi_adapt.c **** 
  13:ads1299_spi_adapt.c **** /* [] END OF FILE */
  14:ads1299_spi_adapt.c **** 
  15:ads1299_spi_adapt.c **** #include "ads1299_spi_adapt.h"
  16:ads1299_spi_adapt.c **** 
  17:ads1299_spi_adapt.c **** uint8_t spi = 0xFF;
  18:ads1299_spi_adapt.c **** 
  19:ads1299_spi_adapt.c **** void spi_put(volatile uint8_t *spi, uint8_t opcode)
  20:ads1299_spi_adapt.c **** {
  28              		.loc 1 20 0
  29              		.cfi_startproc
  30              		@ args = 0, pretend = 0, frame = 0
  31              		@ frame_needed = 0, uses_anonymous_args = 0
  32              	.LVL0:
  33 0000 10B5     		push	{r4, lr}
  34              		.cfi_def_cfa_offset 8
  35              		.cfi_offset 4, -8
  36              		.cfi_offset 14, -4
  21:ads1299_spi_adapt.c ****     spi_WriteTxData(opcode);
ARM GAS  C:\Users\dmr85\AppData\Local\Temp\ccVGO9NO.s 			page 2


  37              		.loc 1 21 0
  38 0002 0800     		movs	r0, r1
  39              	.LVL1:
  40 0004 FFF7FEFF 		bl	spi_WriteTxData
  41              	.LVL2:
  22:ads1299_spi_adapt.c **** }
  42              		.loc 1 22 0
  43              		@ sp needed
  44 0008 10BD     		pop	{r4, pc}
  45              		.cfi_endproc
  46              	.LFE35:
  47              		.size	spi_put, .-spi_put
  48 000a C046     		.section	.text.spi_selectChip,"ax",%progbits
  49              		.align	2
  50              		.global	spi_selectChip
  51              		.code	16
  52              		.thumb_func
  53              		.type	spi_selectChip, %function
  54              	spi_selectChip:
  55              	.LFB36:
  23:ads1299_spi_adapt.c **** 
  24:ads1299_spi_adapt.c **** void spi_selectChip(volatile uint8_t *spi, uint8_t chip_select)
  25:ads1299_spi_adapt.c **** {   
  56              		.loc 1 25 0
  57              		.cfi_startproc
  58              		@ args = 0, pretend = 0, frame = 0
  59              		@ frame_needed = 0, uses_anonymous_args = 0
  60              		@ link register save eliminated.
  61              	.LVL3:
  26:ads1299_spi_adapt.c **** }
  62              		.loc 1 26 0
  63              		@ sp needed
  64 0000 7047     		bx	lr
  65              		.cfi_endproc
  66              	.LFE36:
  67              		.size	spi_selectChip, .-spi_selectChip
  68 0002 C046     		.section	.text.spi_unselectChip,"ax",%progbits
  69              		.align	2
  70              		.global	spi_unselectChip
  71              		.code	16
  72              		.thumb_func
  73              		.type	spi_unselectChip, %function
  74              	spi_unselectChip:
  75              	.LFB37:
  27:ads1299_spi_adapt.c **** 
  28:ads1299_spi_adapt.c **** void spi_unselectChip(volatile uint8_t *spi, uint8_t chip_select)
  29:ads1299_spi_adapt.c **** {   
  76              		.loc 1 29 0
  77              		.cfi_startproc
  78              		@ args = 0, pretend = 0, frame = 0
  79              		@ frame_needed = 0, uses_anonymous_args = 0
  80              		@ link register save eliminated.
  81              	.LVL4:
  30:ads1299_spi_adapt.c **** }
  82              		.loc 1 30 0
  83              		@ sp needed
  84 0000 7047     		bx	lr
ARM GAS  C:\Users\dmr85\AppData\Local\Temp\ccVGO9NO.s 			page 3


  85              		.cfi_endproc
  86              	.LFE37:
  87              		.size	spi_unselectChip, .-spi_unselectChip
  88 0002 C046     		.section	.text.delay_s,"ax",%progbits
  89              		.align	2
  90              		.global	delay_s
  91              		.code	16
  92              		.thumb_func
  93              		.type	delay_s, %function
  94              	delay_s:
  95              	.LFB38:
  31:ads1299_spi_adapt.c **** 
  32:ads1299_spi_adapt.c **** void delay_s(int delay)
  33:ads1299_spi_adapt.c **** {
  96              		.loc 1 33 0
  97              		.cfi_startproc
  98              		@ args = 0, pretend = 0, frame = 0
  99              		@ frame_needed = 0, uses_anonymous_args = 0
 100              	.LVL5:
 101 0000 10B5     		push	{r4, lr}
 102              		.cfi_def_cfa_offset 8
 103              		.cfi_offset 4, -8
 104              		.cfi_offset 14, -4
  34:ads1299_spi_adapt.c ****     CyDelay(1000 * delay);
 105              		.loc 1 34 0
 106 0002 FA23     		movs	r3, #250
 107 0004 9B00     		lsls	r3, r3, #2
 108 0006 5843     		muls	r0, r3
 109              	.LVL6:
 110 0008 FFF7FEFF 		bl	CyDelay
 111              	.LVL7:
  35:ads1299_spi_adapt.c **** }
 112              		.loc 1 35 0
 113              		@ sp needed
 114 000c 10BD     		pop	{r4, pc}
 115              		.cfi_endproc
 116              	.LFE38:
 117              		.size	delay_s, .-delay_s
 118 000e C046     		.section	.text.delay_ms,"ax",%progbits
 119              		.align	2
 120              		.global	delay_ms
 121              		.code	16
 122              		.thumb_func
 123              		.type	delay_ms, %function
 124              	delay_ms:
 125              	.LFB39:
  36:ads1299_spi_adapt.c **** 
  37:ads1299_spi_adapt.c **** void delay_ms(int delay)
  38:ads1299_spi_adapt.c **** {
 126              		.loc 1 38 0
 127              		.cfi_startproc
 128              		@ args = 0, pretend = 0, frame = 0
 129              		@ frame_needed = 0, uses_anonymous_args = 0
 130              	.LVL8:
 131 0000 10B5     		push	{r4, lr}
 132              		.cfi_def_cfa_offset 8
 133              		.cfi_offset 4, -8
ARM GAS  C:\Users\dmr85\AppData\Local\Temp\ccVGO9NO.s 			page 4


 134              		.cfi_offset 14, -4
  39:ads1299_spi_adapt.c ****     CyDelay(delay);
 135              		.loc 1 39 0
 136 0002 FFF7FEFF 		bl	CyDelay
 137              	.LVL9:
  40:ads1299_spi_adapt.c **** }
 138              		.loc 1 40 0
 139              		@ sp needed
 140 0006 10BD     		pop	{r4, pc}
 141              		.cfi_endproc
 142              	.LFE39:
 143              		.size	delay_ms, .-delay_ms
 144              		.section	.text.delay_us,"ax",%progbits
 145              		.align	2
 146              		.global	delay_us
 147              		.code	16
 148              		.thumb_func
 149              		.type	delay_us, %function
 150              	delay_us:
 151              	.LFB40:
  41:ads1299_spi_adapt.c **** 
  42:ads1299_spi_adapt.c **** void delay_us(int delay)
  43:ads1299_spi_adapt.c **** {
 152              		.loc 1 43 0
 153              		.cfi_startproc
 154              		@ args = 0, pretend = 0, frame = 0
 155              		@ frame_needed = 0, uses_anonymous_args = 0
 156              	.LVL10:
 157 0000 10B5     		push	{r4, lr}
 158              		.cfi_def_cfa_offset 8
 159              		.cfi_offset 4, -8
 160              		.cfi_offset 14, -4
  44:ads1299_spi_adapt.c ****     CyDelayUs(delay);
 161              		.loc 1 44 0
 162 0002 80B2     		uxth	r0, r0
 163              	.LVL11:
 164 0004 FFF7FEFF 		bl	CyDelayUs
 165              	.LVL12:
  45:ads1299_spi_adapt.c **** }
 166              		.loc 1 45 0
 167              		@ sp needed
 168 0008 10BD     		pop	{r4, pc}
 169              		.cfi_endproc
 170              	.LFE40:
 171              		.size	delay_us, .-delay_us
 172 000a C046     		.section	.text.gpio_set_gpio_pin,"ax",%progbits
 173              		.align	2
 174              		.global	gpio_set_gpio_pin
 175              		.code	16
 176              		.thumb_func
 177              		.type	gpio_set_gpio_pin, %function
 178              	gpio_set_gpio_pin:
 179              	.LFB43:
  46:ads1299_spi_adapt.c **** 
  47:ads1299_spi_adapt.c **** static inline uint8 spi_is_tx_ready(volatile uint8_t *spi)
  48:ads1299_spi_adapt.c **** {
  49:ads1299_spi_adapt.c **** 	return spi_ReadTxStatus();
ARM GAS  C:\Users\dmr85\AppData\Local\Temp\ccVGO9NO.s 			page 5


  50:ads1299_spi_adapt.c **** }
  51:ads1299_spi_adapt.c **** 
  52:ads1299_spi_adapt.c **** static inline uint8 spi_is_tx_empty(volatile uint8_t *spi)
  53:ads1299_spi_adapt.c **** {
  54:ads1299_spi_adapt.c **** 	return spi_ReadTxStatus();
  55:ads1299_spi_adapt.c **** }
  56:ads1299_spi_adapt.c **** 
  57:ads1299_spi_adapt.c **** void gpio_set_gpio_pin(uint32_t pin)
  58:ads1299_spi_adapt.c **** {
 180              		.loc 1 58 0
 181              		.cfi_startproc
 182              		@ args = 0, pretend = 0, frame = 0
 183              		@ frame_needed = 0, uses_anonymous_args = 0
 184              		@ link register save eliminated.
 185              	.LVL13:
  59:ads1299_spi_adapt.c **** }
 186              		.loc 1 59 0
 187              		@ sp needed
 188 0000 7047     		bx	lr
 189              		.cfi_endproc
 190              	.LFE43:
 191              		.size	gpio_set_gpio_pin, .-gpio_set_gpio_pin
 192 0002 C046     		.section	.text.gpio_clr_gpio_pin,"ax",%progbits
 193              		.align	2
 194              		.global	gpio_clr_gpio_pin
 195              		.code	16
 196              		.thumb_func
 197              		.type	gpio_clr_gpio_pin, %function
 198              	gpio_clr_gpio_pin:
 199              	.LFB44:
  60:ads1299_spi_adapt.c **** 
  61:ads1299_spi_adapt.c **** void gpio_clr_gpio_pin(uint32_t pin)
  62:ads1299_spi_adapt.c **** {
 200              		.loc 1 62 0
 201              		.cfi_startproc
 202              		@ args = 0, pretend = 0, frame = 0
 203              		@ frame_needed = 0, uses_anonymous_args = 0
 204              		@ link register save eliminated.
 205              	.LVL14:
  63:ads1299_spi_adapt.c **** 
  64:ads1299_spi_adapt.c **** }
 206              		.loc 1 64 0
 207              		@ sp needed
 208 0000 7047     		bx	lr
 209              		.cfi_endproc
 210              	.LFE44:
 211              		.size	gpio_clr_gpio_pin, .-gpio_clr_gpio_pin
 212              		.global	spi
 213 0002 C046     		.data
 214              		.type	spi, %object
 215              		.size	spi, 1
 216              	spi:
 217 0000 FF       		.byte	-1
 218              		.text
 219              	.Letext0:
 220              		.file 2 "c:\\program files (x86)\\cypress\\psoc creator\\4.2\\psoc creator\\import\\gnu\\arm\\5.4.
 221              		.file 3 "c:\\program files (x86)\\cypress\\psoc creator\\4.2\\psoc creator\\import\\gnu\\arm\\5.4.
ARM GAS  C:\Users\dmr85\AppData\Local\Temp\ccVGO9NO.s 			page 6


 222              		.file 4 "Generated_Source\\PSoC4/spi.h"
 223              		.file 5 "Generated_Source\\PSoC4/CyLib.h"
 224              		.file 6 "Generated_Source\\PSoC4/ble_Stack.h"