ARM GAS  C:\Users\dmr85\AppData\Local\Temp\ccajexNH.s 			page 1


   1              		.syntax unified
   2              		.cpu cortex-m0
   3              		.fpu softvfp
   4              		.eabi_attribute 20, 1
   5              		.eabi_attribute 21, 1
   6              		.eabi_attribute 23, 3
   7              		.eabi_attribute 24, 1
   8              		.eabi_attribute 25, 1
   9              		.eabi_attribute 26, 1
  10              		.eabi_attribute 30, 1
  11              		.eabi_attribute 34, 0
  12              		.eabi_attribute 18, 4
  13              		.thumb
  14              		.syntax unified
  15              		.file	"cyfitter_cfg.c"
  16              		.text
  17              	.Ltext0:
  18              		.cfi_sections	.debug_frame
  19              		.section	.text.cfg_write_bytes32,"ax",%progbits
  20              		.align	2
  21              		.code	16
  22              		.thumb_func
  23              		.type	cfg_write_bytes32, %function
  24              	cfg_write_bytes32:
  25              	.LFB5:
  26              		.file 1 "Generated_Source\\PSoC4\\cyfitter_cfg.c"
   1:Generated_Source\PSoC4/cyfitter_cfg.c **** 
   2:Generated_Source\PSoC4/cyfitter_cfg.c **** /*******************************************************************************
   3:Generated_Source\PSoC4/cyfitter_cfg.c **** * File Name: cyfitter_cfg.c
   4:Generated_Source\PSoC4/cyfitter_cfg.c **** * 
   5:Generated_Source\PSoC4/cyfitter_cfg.c **** * PSoC Creator  4.2
   6:Generated_Source\PSoC4/cyfitter_cfg.c **** *
   7:Generated_Source\PSoC4/cyfitter_cfg.c **** * Description:
   8:Generated_Source\PSoC4/cyfitter_cfg.c **** * This file contains device initialization code.
   9:Generated_Source\PSoC4/cyfitter_cfg.c **** * Except for the user defined sections in CyClockStartupError(), this file should not be modified.
  10:Generated_Source\PSoC4/cyfitter_cfg.c **** * This file is automatically generated by PSoC Creator.
  11:Generated_Source\PSoC4/cyfitter_cfg.c **** *
  12:Generated_Source\PSoC4/cyfitter_cfg.c **** ********************************************************************************
  13:Generated_Source\PSoC4/cyfitter_cfg.c **** * Copyright (c) 2007-2018 Cypress Semiconductor.  All rights reserved.
  14:Generated_Source\PSoC4/cyfitter_cfg.c **** * You may use this file only in accordance with the license, terms, conditions, 
  15:Generated_Source\PSoC4/cyfitter_cfg.c **** * disclaimers, and limitations in the end user license agreement accompanying 
  16:Generated_Source\PSoC4/cyfitter_cfg.c **** * the software package with which this file was provided.
  17:Generated_Source\PSoC4/cyfitter_cfg.c **** ********************************************************************************/
  18:Generated_Source\PSoC4/cyfitter_cfg.c **** 
  19:Generated_Source\PSoC4/cyfitter_cfg.c **** #include <string.h>
  20:Generated_Source\PSoC4/cyfitter_cfg.c **** #include "cytypes.h"
  21:Generated_Source\PSoC4/cyfitter_cfg.c **** #include "cydevice_trm.h"
  22:Generated_Source\PSoC4/cyfitter_cfg.c **** #include "cyfitter.h"
  23:Generated_Source\PSoC4/cyfitter_cfg.c **** #include "CyLib.h"
  24:Generated_Source\PSoC4/cyfitter_cfg.c **** #include "CyLFClk.h"
  25:Generated_Source\PSoC4/cyfitter_cfg.c **** #include "cyfitter_cfg.h"
  26:Generated_Source\PSoC4/cyfitter_cfg.c **** #include "cyapicallbacks.h"
  27:Generated_Source\PSoC4/cyfitter_cfg.c **** 
  28:Generated_Source\PSoC4/cyfitter_cfg.c **** 
  29:Generated_Source\PSoC4/cyfitter_cfg.c **** #if defined(__GNUC__) || defined(__ARMCC_VERSION)
  30:Generated_Source\PSoC4/cyfitter_cfg.c ****     #define CYPACKED 
  31:Generated_Source\PSoC4/cyfitter_cfg.c ****     #define CYPACKED_ATTR __attribute__ ((packed))
ARM GAS  C:\Users\dmr85\AppData\Local\Temp\ccajexNH.s 			page 2


  32:Generated_Source\PSoC4/cyfitter_cfg.c ****     #define CYALIGNED __attribute__ ((aligned))
  33:Generated_Source\PSoC4/cyfitter_cfg.c ****     #define CY_CFG_UNUSED __attribute__ ((unused))
  34:Generated_Source\PSoC4/cyfitter_cfg.c ****     #ifndef CY_CFG_SECTION
  35:Generated_Source\PSoC4/cyfitter_cfg.c ****         #define CY_CFG_SECTION __attribute__ ((section(".psocinit")))
  36:Generated_Source\PSoC4/cyfitter_cfg.c ****     #endif
  37:Generated_Source\PSoC4/cyfitter_cfg.c ****     
  38:Generated_Source\PSoC4/cyfitter_cfg.c ****     #if defined(__ARMCC_VERSION)
  39:Generated_Source\PSoC4/cyfitter_cfg.c ****         #define CY_CFG_MEMORY_BARRIER() __memory_changed()
  40:Generated_Source\PSoC4/cyfitter_cfg.c ****     #else
  41:Generated_Source\PSoC4/cyfitter_cfg.c ****         #define CY_CFG_MEMORY_BARRIER() __sync_synchronize()
  42:Generated_Source\PSoC4/cyfitter_cfg.c ****     #endif
  43:Generated_Source\PSoC4/cyfitter_cfg.c ****     
  44:Generated_Source\PSoC4/cyfitter_cfg.c **** #elif defined(__ICCARM__)
  45:Generated_Source\PSoC4/cyfitter_cfg.c ****     #include <intrinsics.h>
  46:Generated_Source\PSoC4/cyfitter_cfg.c **** 
  47:Generated_Source\PSoC4/cyfitter_cfg.c ****     #define CYPACKED __packed
  48:Generated_Source\PSoC4/cyfitter_cfg.c ****     #define CYPACKED_ATTR 
  49:Generated_Source\PSoC4/cyfitter_cfg.c ****     #define CYALIGNED _Pragma("data_alignment=4")
  50:Generated_Source\PSoC4/cyfitter_cfg.c ****     #define CY_CFG_UNUSED _Pragma("diag_suppress=Pe177")
  51:Generated_Source\PSoC4/cyfitter_cfg.c ****     #define CY_CFG_SECTION _Pragma("location=\".psocinit\"")
  52:Generated_Source\PSoC4/cyfitter_cfg.c ****     
  53:Generated_Source\PSoC4/cyfitter_cfg.c ****     #define CY_CFG_MEMORY_BARRIER() __DMB()
  54:Generated_Source\PSoC4/cyfitter_cfg.c ****     
  55:Generated_Source\PSoC4/cyfitter_cfg.c **** #else
  56:Generated_Source\PSoC4/cyfitter_cfg.c ****     #error Unsupported toolchain
  57:Generated_Source\PSoC4/cyfitter_cfg.c **** #endif
  58:Generated_Source\PSoC4/cyfitter_cfg.c **** 
  59:Generated_Source\PSoC4/cyfitter_cfg.c **** #ifndef CYCODE
  60:Generated_Source\PSoC4/cyfitter_cfg.c ****     #define CYCODE
  61:Generated_Source\PSoC4/cyfitter_cfg.c **** #endif
  62:Generated_Source\PSoC4/cyfitter_cfg.c **** #ifndef CYDATA
  63:Generated_Source\PSoC4/cyfitter_cfg.c ****     #define CYDATA
  64:Generated_Source\PSoC4/cyfitter_cfg.c **** #endif
  65:Generated_Source\PSoC4/cyfitter_cfg.c **** #ifndef CYFAR
  66:Generated_Source\PSoC4/cyfitter_cfg.c ****     #define CYFAR
  67:Generated_Source\PSoC4/cyfitter_cfg.c **** #endif
  68:Generated_Source\PSoC4/cyfitter_cfg.c **** #ifndef CYXDATA
  69:Generated_Source\PSoC4/cyfitter_cfg.c ****     #define CYXDATA
  70:Generated_Source\PSoC4/cyfitter_cfg.c **** #endif
  71:Generated_Source\PSoC4/cyfitter_cfg.c **** 
  72:Generated_Source\PSoC4/cyfitter_cfg.c **** 
  73:Generated_Source\PSoC4/cyfitter_cfg.c **** CY_CFG_UNUSED
  74:Generated_Source\PSoC4/cyfitter_cfg.c **** static void CYMEMZERO(void *s, size_t n);
  75:Generated_Source\PSoC4/cyfitter_cfg.c **** CY_CFG_UNUSED
  76:Generated_Source\PSoC4/cyfitter_cfg.c **** static void CYMEMZERO(void *s, size_t n)
  77:Generated_Source\PSoC4/cyfitter_cfg.c **** {
  78:Generated_Source\PSoC4/cyfitter_cfg.c **** 	(void)memset(s, 0, n);
  79:Generated_Source\PSoC4/cyfitter_cfg.c **** }
  80:Generated_Source\PSoC4/cyfitter_cfg.c **** CY_CFG_UNUSED
  81:Generated_Source\PSoC4/cyfitter_cfg.c **** static void CYCONFIGCPY(void *dest, const void *src, size_t n);
  82:Generated_Source\PSoC4/cyfitter_cfg.c **** CY_CFG_UNUSED
  83:Generated_Source\PSoC4/cyfitter_cfg.c **** static void CYCONFIGCPY(void *dest, const void *src, size_t n)
  84:Generated_Source\PSoC4/cyfitter_cfg.c **** {
  85:Generated_Source\PSoC4/cyfitter_cfg.c **** 	(void)memcpy(dest, src, n);
  86:Generated_Source\PSoC4/cyfitter_cfg.c **** }
  87:Generated_Source\PSoC4/cyfitter_cfg.c **** CY_CFG_UNUSED
  88:Generated_Source\PSoC4/cyfitter_cfg.c **** static void CYCONFIGCPYCODE(void *dest, const void *src, size_t n);
ARM GAS  C:\Users\dmr85\AppData\Local\Temp\ccajexNH.s 			page 3


  89:Generated_Source\PSoC4/cyfitter_cfg.c **** CY_CFG_UNUSED
  90:Generated_Source\PSoC4/cyfitter_cfg.c **** static void CYCONFIGCPYCODE(void *dest, const void *src, size_t n)
  91:Generated_Source\PSoC4/cyfitter_cfg.c **** {
  92:Generated_Source\PSoC4/cyfitter_cfg.c **** 	(void)memcpy(dest, src, n);
  93:Generated_Source\PSoC4/cyfitter_cfg.c **** }
  94:Generated_Source\PSoC4/cyfitter_cfg.c **** 
  95:Generated_Source\PSoC4/cyfitter_cfg.c **** 
  96:Generated_Source\PSoC4/cyfitter_cfg.c **** 
  97:Generated_Source\PSoC4/cyfitter_cfg.c **** 
  98:Generated_Source\PSoC4/cyfitter_cfg.c **** /* Clock startup error codes                                                   */
  99:Generated_Source\PSoC4/cyfitter_cfg.c **** #define CYCLOCKSTART_NO_ERROR    0u
 100:Generated_Source\PSoC4/cyfitter_cfg.c **** #define CYCLOCKSTART_XTAL_ERROR  1u
 101:Generated_Source\PSoC4/cyfitter_cfg.c **** #define CYCLOCKSTART_32KHZ_ERROR 2u
 102:Generated_Source\PSoC4/cyfitter_cfg.c **** #define CYCLOCKSTART_PLL_ERROR   3u
 103:Generated_Source\PSoC4/cyfitter_cfg.c **** #define CYCLOCKSTART_FLL_ERROR   4u
 104:Generated_Source\PSoC4/cyfitter_cfg.c **** #define CYCLOCKSTART_WCO_ERROR   5u
 105:Generated_Source\PSoC4/cyfitter_cfg.c **** 
 106:Generated_Source\PSoC4/cyfitter_cfg.c **** 
 107:Generated_Source\PSoC4/cyfitter_cfg.c **** #ifdef CY_NEED_CYCLOCKSTARTUPERROR
 108:Generated_Source\PSoC4/cyfitter_cfg.c **** /*******************************************************************************
 109:Generated_Source\PSoC4/cyfitter_cfg.c **** * Function Name: CyClockStartupError
 110:Generated_Source\PSoC4/cyfitter_cfg.c **** ********************************************************************************
 111:Generated_Source\PSoC4/cyfitter_cfg.c **** * Summary:
 112:Generated_Source\PSoC4/cyfitter_cfg.c **** *  If an error is encountered during clock configuration (crystal startup error,
 113:Generated_Source\PSoC4/cyfitter_cfg.c **** *  PLL lock error, etc.), the system will end up here.  Unless reimplemented by
 114:Generated_Source\PSoC4/cyfitter_cfg.c **** *  the customer, this function will stop in an infinite loop.
 115:Generated_Source\PSoC4/cyfitter_cfg.c **** *
 116:Generated_Source\PSoC4/cyfitter_cfg.c **** * Parameters:
 117:Generated_Source\PSoC4/cyfitter_cfg.c **** *   void
 118:Generated_Source\PSoC4/cyfitter_cfg.c **** *
 119:Generated_Source\PSoC4/cyfitter_cfg.c **** * Return:
 120:Generated_Source\PSoC4/cyfitter_cfg.c **** *   void
 121:Generated_Source\PSoC4/cyfitter_cfg.c **** *
 122:Generated_Source\PSoC4/cyfitter_cfg.c **** *******************************************************************************/
 123:Generated_Source\PSoC4/cyfitter_cfg.c **** CY_CFG_UNUSED
 124:Generated_Source\PSoC4/cyfitter_cfg.c **** static void CyClockStartupError(uint8 errorCode);
 125:Generated_Source\PSoC4/cyfitter_cfg.c **** CY_CFG_UNUSED
 126:Generated_Source\PSoC4/cyfitter_cfg.c **** static void CyClockStartupError(uint8 errorCode)
 127:Generated_Source\PSoC4/cyfitter_cfg.c **** {
 128:Generated_Source\PSoC4/cyfitter_cfg.c ****     /* To remove the compiler warning if errorCode not used.                */
 129:Generated_Source\PSoC4/cyfitter_cfg.c ****     errorCode = errorCode;
 130:Generated_Source\PSoC4/cyfitter_cfg.c **** 
 131:Generated_Source\PSoC4/cyfitter_cfg.c ****     /* If we have a clock startup error (bad MHz crystal, PLL lock, etc.),  */
 132:Generated_Source\PSoC4/cyfitter_cfg.c ****     /* we will end up here to allow the customer to implement something to  */
 133:Generated_Source\PSoC4/cyfitter_cfg.c ****     /* deal with the clock condition.                                       */
 134:Generated_Source\PSoC4/cyfitter_cfg.c **** 
 135:Generated_Source\PSoC4/cyfitter_cfg.c **** #ifdef CY_CFG_CLOCK_STARTUP_ERROR_CALLBACK
 136:Generated_Source\PSoC4/cyfitter_cfg.c ****     CY_CFG_Clock_Startup_ErrorCallback();
 137:Generated_Source\PSoC4/cyfitter_cfg.c **** #else
 138:Generated_Source\PSoC4/cyfitter_cfg.c ****     /*  If not using CY_CFG_CLOCK_STARTUP_ERROR_CALLBACK, place your clock startup code here. */
 139:Generated_Source\PSoC4/cyfitter_cfg.c ****     /* `#START CyClockStartupError` */
 140:Generated_Source\PSoC4/cyfitter_cfg.c **** 
 141:Generated_Source\PSoC4/cyfitter_cfg.c **** 
 142:Generated_Source\PSoC4/cyfitter_cfg.c **** 
 143:Generated_Source\PSoC4/cyfitter_cfg.c ****     /* `#END` */
 144:Generated_Source\PSoC4/cyfitter_cfg.c **** 
 145:Generated_Source\PSoC4/cyfitter_cfg.c ****     while(1) {}
ARM GAS  C:\Users\dmr85\AppData\Local\Temp\ccajexNH.s 			page 4


 146:Generated_Source\PSoC4/cyfitter_cfg.c **** #endif /* CY_CFG_CLOCK_STARTUP_ERROR_CALLBACK */
 147:Generated_Source\PSoC4/cyfitter_cfg.c **** }
 148:Generated_Source\PSoC4/cyfitter_cfg.c **** #endif
 149:Generated_Source\PSoC4/cyfitter_cfg.c **** 
 150:Generated_Source\PSoC4/cyfitter_cfg.c **** #define CY_CFG_BASE_ADDR_COUNT 9u
 151:Generated_Source\PSoC4/cyfitter_cfg.c **** CYPACKED typedef struct
 152:Generated_Source\PSoC4/cyfitter_cfg.c **** {
 153:Generated_Source\PSoC4/cyfitter_cfg.c **** 	uint8 offset;
 154:Generated_Source\PSoC4/cyfitter_cfg.c **** 	uint8 value;
 155:Generated_Source\PSoC4/cyfitter_cfg.c **** } CYPACKED_ATTR cy_cfg_addrvalue_t;
 156:Generated_Source\PSoC4/cyfitter_cfg.c **** 
 157:Generated_Source\PSoC4/cyfitter_cfg.c **** 
 158:Generated_Source\PSoC4/cyfitter_cfg.c **** 
 159:Generated_Source\PSoC4/cyfitter_cfg.c **** /*******************************************************************************
 160:Generated_Source\PSoC4/cyfitter_cfg.c **** * Function Name: cfg_write_bytes32
 161:Generated_Source\PSoC4/cyfitter_cfg.c **** ********************************************************************************
 162:Generated_Source\PSoC4/cyfitter_cfg.c **** * Summary:
 163:Generated_Source\PSoC4/cyfitter_cfg.c **** *  This function is used for setting up the chip configuration areas that
 164:Generated_Source\PSoC4/cyfitter_cfg.c **** *  contain relatively sparse data.
 165:Generated_Source\PSoC4/cyfitter_cfg.c **** *
 166:Generated_Source\PSoC4/cyfitter_cfg.c **** * Parameters:
 167:Generated_Source\PSoC4/cyfitter_cfg.c **** *   void
 168:Generated_Source\PSoC4/cyfitter_cfg.c **** *
 169:Generated_Source\PSoC4/cyfitter_cfg.c **** * Return:
 170:Generated_Source\PSoC4/cyfitter_cfg.c **** *   void
 171:Generated_Source\PSoC4/cyfitter_cfg.c **** *
 172:Generated_Source\PSoC4/cyfitter_cfg.c **** *******************************************************************************/
 173:Generated_Source\PSoC4/cyfitter_cfg.c **** static void cfg_write_bytes32(const uint32 addr_table[], const cy_cfg_addrvalue_t data_table[]);
 174:Generated_Source\PSoC4/cyfitter_cfg.c **** static void cfg_write_bytes32(const uint32 addr_table[], const cy_cfg_addrvalue_t data_table[])
 175:Generated_Source\PSoC4/cyfitter_cfg.c **** {
  27              		.loc 1 175 0
  28              		.cfi_startproc
  29              		@ args = 0, pretend = 0, frame = 0
  30              		@ frame_needed = 0, uses_anonymous_args = 0
  31              	.LVL0:
  32 0000 F0B5     		push	{r4, r5, r6, r7, lr}
  33              		.cfi_def_cfa_offset 20
  34              		.cfi_offset 4, -20
  35              		.cfi_offset 5, -16
  36              		.cfi_offset 6, -12
  37              		.cfi_offset 7, -8
  38              		.cfi_offset 14, -4
  39              	.LVL1:
 176:Generated_Source\PSoC4/cyfitter_cfg.c **** 	/* For 32-bit little-endian architectures */
 177:Generated_Source\PSoC4/cyfitter_cfg.c **** 	uint32 i, j = 0u;
  40              		.loc 1 177 0
  41 0002 0025     		movs	r5, #0
 178:Generated_Source\PSoC4/cyfitter_cfg.c **** 	for (i = 0u; i < CY_CFG_BASE_ADDR_COUNT; i++)
  42              		.loc 1 178 0
  43 0004 0027     		movs	r7, #0
  44 0006 11E0     		b	.L2
  45              	.LVL2:
  46              	.L5:
  47              	.LBB2:
 179:Generated_Source\PSoC4/cyfitter_cfg.c **** 	{
 180:Generated_Source\PSoC4/cyfitter_cfg.c **** 		uint32 baseAddr = addr_table[i];
  48              		.loc 1 180 0
ARM GAS  C:\Users\dmr85\AppData\Local\Temp\ccajexNH.s 			page 5


  49 0008 BB00     		lsls	r3, r7, #2
  50 000a C658     		ldr	r6, [r0, r3]
  51              	.LVL3:
 181:Generated_Source\PSoC4/cyfitter_cfg.c **** 		uint8 count = (uint8)baseAddr;
  52              		.loc 1 181 0
  53 000c F3B2     		uxtb	r3, r6
  54              	.LVL4:
 182:Generated_Source\PSoC4/cyfitter_cfg.c **** 		baseAddr &= 0xFFFFFF00u;
  55              		.loc 1 182 0
  56 000e FF22     		movs	r2, #255
  57 0010 9643     		bics	r6, r2
  58              	.LVL5:
 183:Generated_Source\PSoC4/cyfitter_cfg.c **** 		while (count != 0u)
  59              		.loc 1 183 0
  60 0012 08E0     		b	.L3
  61              	.L4:
 184:Generated_Source\PSoC4/cyfitter_cfg.c **** 		{
 185:Generated_Source\PSoC4/cyfitter_cfg.c **** 			CY_SET_REG8((void *)(baseAddr + data_table[j].offset), data_table[j].value);
  62              		.loc 1 185 0
  63 0014 6A00     		lsls	r2, r5, #1
  64 0016 8A18     		adds	r2, r1, r2
  65 0018 1478     		ldrb	r4, [r2]
  66 001a A419     		adds	r4, r4, r6
  67 001c 5278     		ldrb	r2, [r2, #1]
  68 001e 2270     		strb	r2, [r4]
 186:Generated_Source\PSoC4/cyfitter_cfg.c **** 			j++;
  69              		.loc 1 186 0
  70 0020 0135     		adds	r5, r5, #1
  71              	.LVL6:
 187:Generated_Source\PSoC4/cyfitter_cfg.c **** 			count--;
  72              		.loc 1 187 0
  73 0022 013B     		subs	r3, r3, #1
  74              	.LVL7:
  75 0024 DBB2     		uxtb	r3, r3
  76              	.LVL8:
  77              	.L3:
 183:Generated_Source\PSoC4/cyfitter_cfg.c **** 		{
  78              		.loc 1 183 0
  79 0026 002B     		cmp	r3, #0
  80 0028 F4D1     		bne	.L4
  81              	.LBE2:
 178:Generated_Source\PSoC4/cyfitter_cfg.c **** 	{
  82              		.loc 1 178 0 discriminator 2
  83 002a 0137     		adds	r7, r7, #1
  84              	.LVL9:
  85              	.L2:
 178:Generated_Source\PSoC4/cyfitter_cfg.c **** 	{
  86              		.loc 1 178 0 is_stmt 0 discriminator 1
  87 002c 082F     		cmp	r7, #8
  88 002e EBD9     		bls	.L5
 188:Generated_Source\PSoC4/cyfitter_cfg.c **** 		}
 189:Generated_Source\PSoC4/cyfitter_cfg.c **** 	}
 190:Generated_Source\PSoC4/cyfitter_cfg.c **** }
  89              		.loc 1 190 0 is_stmt 1
  90              		@ sp needed
  91              	.LVL10:
  92              	.LVL11:
ARM GAS  C:\Users\dmr85\AppData\Local\Temp\ccajexNH.s 			page 6


  93 0030 F0BD     		pop	{r4, r5, r6, r7, pc}
  94              		.cfi_endproc
  95              	.LFE5:
  96              		.size	cfg_write_bytes32, .-cfg_write_bytes32
  97 0032 C046     		.section	.text.AnalogSetDefault,"ax",%progbits
  98              		.align	2
  99              		.code	16
 100              		.thumb_func
 101              		.type	AnalogSetDefault, %function
 102              	AnalogSetDefault:
 103              	.LFB7:
 191:Generated_Source\PSoC4/cyfitter_cfg.c **** 
 192:Generated_Source\PSoC4/cyfitter_cfg.c **** 
 193:Generated_Source\PSoC4/cyfitter_cfg.c **** /*******************************************************************************
 194:Generated_Source\PSoC4/cyfitter_cfg.c **** * Function Name: ClockSetup
 195:Generated_Source\PSoC4/cyfitter_cfg.c **** ********************************************************************************
 196:Generated_Source\PSoC4/cyfitter_cfg.c **** *
 197:Generated_Source\PSoC4/cyfitter_cfg.c **** * Summary:
 198:Generated_Source\PSoC4/cyfitter_cfg.c **** *   Performs the initialization of all of the clocks in the device based on the
 199:Generated_Source\PSoC4/cyfitter_cfg.c **** *   settings in the Clock tab of the DWR.  This includes enabling the requested
 200:Generated_Source\PSoC4/cyfitter_cfg.c **** *   clocks and setting the necessary dividers to produce the desired frequency. 
 201:Generated_Source\PSoC4/cyfitter_cfg.c **** *
 202:Generated_Source\PSoC4/cyfitter_cfg.c **** * Parameters:
 203:Generated_Source\PSoC4/cyfitter_cfg.c **** *   void
 204:Generated_Source\PSoC4/cyfitter_cfg.c **** *
 205:Generated_Source\PSoC4/cyfitter_cfg.c **** * Return:
 206:Generated_Source\PSoC4/cyfitter_cfg.c **** *   void
 207:Generated_Source\PSoC4/cyfitter_cfg.c **** *
 208:Generated_Source\PSoC4/cyfitter_cfg.c **** *******************************************************************************/
 209:Generated_Source\PSoC4/cyfitter_cfg.c **** static void ClockSetup(void);
 210:Generated_Source\PSoC4/cyfitter_cfg.c **** CY_CFG_SECTION
 211:Generated_Source\PSoC4/cyfitter_cfg.c **** static void ClockSetup(void)
 212:Generated_Source\PSoC4/cyfitter_cfg.c **** {
 213:Generated_Source\PSoC4/cyfitter_cfg.c **** 
 214:Generated_Source\PSoC4/cyfitter_cfg.c **** 	/* Set Flash Cycles based on max possible frequency in case a glitch occurs during ClockSetup(). *
 215:Generated_Source\PSoC4/cyfitter_cfg.c **** 	CY_SET_REG32((void CYXDATA *)(CYREG_CPUSS_FLASH_CTL), (0x0012u));
 216:Generated_Source\PSoC4/cyfitter_cfg.c **** 
 217:Generated_Source\PSoC4/cyfitter_cfg.c **** 	/* Start the WCO */
 218:Generated_Source\PSoC4/cyfitter_cfg.c **** 	CySysClkWcoStart();
 219:Generated_Source\PSoC4/cyfitter_cfg.c **** 	CyDelayCycles(12000000u); /* WCO may take up to 500ms to start */
 220:Generated_Source\PSoC4/cyfitter_cfg.c **** 	(void)CySysClkWcoSetPowerMode(CY_SYS_CLK_WCO_LPM);    /* Switch to the low power mode */
 221:Generated_Source\PSoC4/cyfitter_cfg.c **** 
 222:Generated_Source\PSoC4/cyfitter_cfg.c **** 	/* Setup and trim IMO based on desired frequency. */
 223:Generated_Source\PSoC4/cyfitter_cfg.c **** 	CySysClkWriteImoFreq(48u);
 224:Generated_Source\PSoC4/cyfitter_cfg.c **** 	/* CYDEV_CLK_ILO_CONFIG Starting address: CYDEV_CLK_ILO_CONFIG */
 225:Generated_Source\PSoC4/cyfitter_cfg.c **** 	CY_SET_REG32((void *)(CYREG_CLK_ILO_CONFIG), 0x80000006u);
 226:Generated_Source\PSoC4/cyfitter_cfg.c **** 
 227:Generated_Source\PSoC4/cyfitter_cfg.c **** 	/* CYDEV_WDT_CONFIG Starting address: CYDEV_WDT_CONFIG */
 228:Generated_Source\PSoC4/cyfitter_cfg.c **** 	CY_SET_REG32((void *)(CYREG_WDT_CONFIG), 0x40000000u);
 229:Generated_Source\PSoC4/cyfitter_cfg.c **** 
 230:Generated_Source\PSoC4/cyfitter_cfg.c **** 
 231:Generated_Source\PSoC4/cyfitter_cfg.c **** 	/* Enable fast start mode for XO */
 232:Generated_Source\PSoC4/cyfitter_cfg.c **** 	CY_SET_REG32((void*)CYREG_BLE_BLERD_BB_XO, CY_GET_REG32((void*)CYREG_BLE_BLERD_BB_XO) | (uint32)0x
 233:Generated_Source\PSoC4/cyfitter_cfg.c **** 	CY_SET_REG32((void *)(CYREG_BLE_BLERD_BB_XO_CAPTRIM), 0x00003E2Du);
 234:Generated_Source\PSoC4/cyfitter_cfg.c **** 	/*Set XTAL(ECO) divider*/
 235:Generated_Source\PSoC4/cyfitter_cfg.c **** 	CY_SET_REG32((void *)(CYREG_BLE_BLESS_XTAL_CLK_DIV_CONFIG), 0x00000000u);
 236:Generated_Source\PSoC4/cyfitter_cfg.c **** 	/* Disable Crystal Stable Interrupt before enabling ECO */
ARM GAS  C:\Users\dmr85\AppData\Local\Temp\ccajexNH.s 			page 7


 237:Generated_Source\PSoC4/cyfitter_cfg.c **** 	CY_SET_REG32((void*)CYREG_BLE_BLESS_LL_DSM_CTRL, CY_GET_REG32((void*)CYREG_BLE_BLESS_LL_DSM_CTRL) 
 238:Generated_Source\PSoC4/cyfitter_cfg.c **** 	/* Start the ECO and do not check status since it is not needed for HFCLK */
 239:Generated_Source\PSoC4/cyfitter_cfg.c **** 	(void)CySysClkEcoStart(2000u);
 240:Generated_Source\PSoC4/cyfitter_cfg.c **** 	CyDelayUs(1500u); /* Wait to stabilize */
 241:Generated_Source\PSoC4/cyfitter_cfg.c **** 
 242:Generated_Source\PSoC4/cyfitter_cfg.c **** 	/* Setup phase aligned clocks */
 243:Generated_Source\PSoC4/cyfitter_cfg.c **** 	CY_SET_REG32((void *)CYREG_PERI_DIV_16_CTL1, 0x00BB7F00u);
 244:Generated_Source\PSoC4/cyfitter_cfg.c **** 	CY_SET_REG32((void *)CYREG_PERI_DIV_CMD, 0x8000FF41u);
 245:Generated_Source\PSoC4/cyfitter_cfg.c **** 	CY_SET_REG32((void *)CYREG_PERI_DIV_16_CTL0, 0x00000300u);
 246:Generated_Source\PSoC4/cyfitter_cfg.c **** 	CY_SET_REG32((void *)CYREG_PERI_DIV_CMD, 0x8000FF40u);
 247:Generated_Source\PSoC4/cyfitter_cfg.c **** 
 248:Generated_Source\PSoC4/cyfitter_cfg.c **** 	/* CYDEV_CLK_IMO_CONFIG Starting address: CYDEV_CLK_IMO_CONFIG */
 249:Generated_Source\PSoC4/cyfitter_cfg.c **** 	CY_SET_REG32((void *)(CYREG_CLK_IMO_CONFIG), 0x80000000u);
 250:Generated_Source\PSoC4/cyfitter_cfg.c **** 
 251:Generated_Source\PSoC4/cyfitter_cfg.c **** 	/* CYDEV_CLK_SELECT Starting address: CYDEV_CLK_SELECT */
 252:Generated_Source\PSoC4/cyfitter_cfg.c **** 	CY_SET_REG32((void *)(CYREG_CLK_SELECT), 0x00040000u);
 253:Generated_Source\PSoC4/cyfitter_cfg.c **** 
 254:Generated_Source\PSoC4/cyfitter_cfg.c **** 	/* CYDEV_PERI_PCLK_CTL14 Starting address: CYDEV_PERI_PCLK_CTL14 */
 255:Generated_Source\PSoC4/cyfitter_cfg.c **** 	CY_SET_REG32((void *)(CYREG_PERI_PCLK_CTL14), 0x00000041u);
 256:Generated_Source\PSoC4/cyfitter_cfg.c **** 
 257:Generated_Source\PSoC4/cyfitter_cfg.c **** 	/* CYDEV_PERI_PCLK_CTL12 Starting address: CYDEV_PERI_PCLK_CTL12 */
 258:Generated_Source\PSoC4/cyfitter_cfg.c **** 	CY_SET_REG32((void *)(CYREG_PERI_PCLK_CTL12), 0x00000040u);
 259:Generated_Source\PSoC4/cyfitter_cfg.c **** 
 260:Generated_Source\PSoC4/cyfitter_cfg.c **** 	(void)CyIntSetVector(8u, &CySysWdtIsr);
 261:Generated_Source\PSoC4/cyfitter_cfg.c **** 	CyIntEnable(8u);
 262:Generated_Source\PSoC4/cyfitter_cfg.c **** 	CY_SET_REG32((void *)(CYREG_WDT_CONFIG), 0x40000000u);
 263:Generated_Source\PSoC4/cyfitter_cfg.c **** }
 264:Generated_Source\PSoC4/cyfitter_cfg.c **** 
 265:Generated_Source\PSoC4/cyfitter_cfg.c **** 
 266:Generated_Source\PSoC4/cyfitter_cfg.c **** /* Analog API Functions */
 267:Generated_Source\PSoC4/cyfitter_cfg.c **** 
 268:Generated_Source\PSoC4/cyfitter_cfg.c **** 
 269:Generated_Source\PSoC4/cyfitter_cfg.c **** /*******************************************************************************
 270:Generated_Source\PSoC4/cyfitter_cfg.c **** * Function Name: AnalogSetDefault
 271:Generated_Source\PSoC4/cyfitter_cfg.c **** ********************************************************************************
 272:Generated_Source\PSoC4/cyfitter_cfg.c **** *
 273:Generated_Source\PSoC4/cyfitter_cfg.c **** * Summary:
 274:Generated_Source\PSoC4/cyfitter_cfg.c **** *  Sets up the analog portions of the chip to default values based on chip
 275:Generated_Source\PSoC4/cyfitter_cfg.c **** *  configuration options from the project.
 276:Generated_Source\PSoC4/cyfitter_cfg.c **** *
 277:Generated_Source\PSoC4/cyfitter_cfg.c **** * Parameters:
 278:Generated_Source\PSoC4/cyfitter_cfg.c **** *  void
 279:Generated_Source\PSoC4/cyfitter_cfg.c **** *
 280:Generated_Source\PSoC4/cyfitter_cfg.c **** * Return:
 281:Generated_Source\PSoC4/cyfitter_cfg.c **** *  void
 282:Generated_Source\PSoC4/cyfitter_cfg.c **** *
 283:Generated_Source\PSoC4/cyfitter_cfg.c **** *******************************************************************************/
 284:Generated_Source\PSoC4/cyfitter_cfg.c **** static void AnalogSetDefault(void);
 285:Generated_Source\PSoC4/cyfitter_cfg.c **** static void AnalogSetDefault(void)
 286:Generated_Source\PSoC4/cyfitter_cfg.c **** {
 104              		.loc 1 286 0
 105              		.cfi_startproc
 106              		@ args = 0, pretend = 0, frame = 0
 107              		@ frame_needed = 0, uses_anonymous_args = 0
 108              		@ link register save eliminated.
 287:Generated_Source\PSoC4/cyfitter_cfg.c **** 	CY_SET_XTND_REG32((void CYFAR *)CYREG_CTBM0_DFT_CTRL, 0x00000003u);
 109              		.loc 1 287 0
ARM GAS  C:\Users\dmr85\AppData\Local\Temp\ccajexNH.s 			page 8


 110 0000 0323     		movs	r3, #3
 111 0002 044A     		ldr	r2, .L7
 112 0004 1360     		str	r3, [r2]
 288:Generated_Source\PSoC4/cyfitter_cfg.c **** 	CY_SET_XTND_REG32((void CYFAR *)CYREG_CTBM1_DFT_CTRL, 0x00000003u);
 113              		.loc 1 288 0
 114 0006 044A     		ldr	r2, .L7+4
 115 0008 1360     		str	r3, [r2]
 289:Generated_Source\PSoC4/cyfitter_cfg.c **** 	CY_SET_XTND_REG32((void CYFAR *)CYREG_PASS_DSAB_DSAB_CTRL, 0x00000000u);
 116              		.loc 1 289 0
 117 000a 0022     		movs	r2, #0
 118 000c 034B     		ldr	r3, .L7+8
 119 000e 1A60     		str	r2, [r3]
 290:Generated_Source\PSoC4/cyfitter_cfg.c **** }
 120              		.loc 1 290 0
 121              		@ sp needed
 122 0010 7047     		bx	lr
 123              	.L8:
 124 0012 C046     		.align	2
 125              	.L7:
 126 0014 30003040 		.word	1076887600
 127 0018 30003140 		.word	1076953136
 128 001c 000E3F40 		.word	1077874176
 129              		.cfi_endproc
 130              	.LFE7:
 131              		.size	AnalogSetDefault, .-AnalogSetDefault
 132              		.section	.text.CYMEMZERO,"ax",%progbits
 133              		.align	2
 134              		.code	16
 135              		.thumb_func
 136              		.type	CYMEMZERO, %function
 137              	CYMEMZERO:
 138              	.LFB2:
  77:Generated_Source\PSoC4/cyfitter_cfg.c **** 	(void)memset(s, 0, n);
 139              		.loc 1 77 0
 140              		.cfi_startproc
 141              		@ args = 0, pretend = 0, frame = 0
 142              		@ frame_needed = 0, uses_anonymous_args = 0
 143              	.LVL12:
 144 0000 10B5     		push	{r4, lr}
 145              		.cfi_def_cfa_offset 8
 146              		.cfi_offset 4, -8
 147              		.cfi_offset 14, -4
 148 0002 0A00     		movs	r2, r1
  78:Generated_Source\PSoC4/cyfitter_cfg.c **** }
 149              		.loc 1 78 0
 150 0004 0021     		movs	r1, #0
 151              	.LVL13:
 152 0006 FFF7FEFF 		bl	memset
 153              	.LVL14:
  79:Generated_Source\PSoC4/cyfitter_cfg.c **** CY_CFG_UNUSED
 154              		.loc 1 79 0
 155              		@ sp needed
 156 000a 10BD     		pop	{r4, pc}
 157              		.cfi_endproc
 158              	.LFE2:
 159              		.size	CYMEMZERO, .-CYMEMZERO
 160              		.section	.text.CYCONFIGCPYCODE,"ax",%progbits
ARM GAS  C:\Users\dmr85\AppData\Local\Temp\ccajexNH.s 			page 9


 161              		.align	2
 162              		.code	16
 163              		.thumb_func
 164              		.type	CYCONFIGCPYCODE, %function
 165              	CYCONFIGCPYCODE:
 166              	.LFB4:
  91:Generated_Source\PSoC4/cyfitter_cfg.c **** 	(void)memcpy(dest, src, n);
 167              		.loc 1 91 0
 168              		.cfi_startproc
 169              		@ args = 0, pretend = 0, frame = 0
 170              		@ frame_needed = 0, uses_anonymous_args = 0
 171              	.LVL15:
 172 0000 10B5     		push	{r4, lr}
 173              		.cfi_def_cfa_offset 8
 174              		.cfi_offset 4, -8
 175              		.cfi_offset 14, -4
  92:Generated_Source\PSoC4/cyfitter_cfg.c **** }
 176              		.loc 1 92 0
 177 0002 FFF7FEFF 		bl	memcpy
 178              	.LVL16:
  93:Generated_Source\PSoC4/cyfitter_cfg.c **** 
 179              		.loc 1 93 0
 180              		@ sp needed
 181 0006 10BD     		pop	{r4, pc}
 182              		.cfi_endproc
 183              	.LFE4:
 184              		.size	CYCONFIGCPYCODE, .-CYCONFIGCPYCODE
 185              		.section	.psocinit,"ax",%progbits
 186              		.align	2
 187              		.code	16
 188              		.thumb_func
 189              		.type	ClockSetup, %function
 190              	ClockSetup:
 191              	.LFB6:
 212:Generated_Source\PSoC4/cyfitter_cfg.c **** 
 192              		.loc 1 212 0
 193              		.cfi_startproc
 194              		@ args = 0, pretend = 0, frame = 0
 195              		@ frame_needed = 0, uses_anonymous_args = 0
 196 0000 70B5     		push	{r4, r5, r6, lr}
 197              		.cfi_def_cfa_offset 16
 198              		.cfi_offset 4, -16
 199              		.cfi_offset 5, -12
 200              		.cfi_offset 6, -8
 201              		.cfi_offset 14, -4
 215:Generated_Source\PSoC4/cyfitter_cfg.c **** 
 202              		.loc 1 215 0
 203 0002 1222     		movs	r2, #18
 204 0004 264B     		ldr	r3, .L12
 205 0006 1A60     		str	r2, [r3]
 218:Generated_Source\PSoC4/cyfitter_cfg.c **** 	CyDelayCycles(12000000u); /* WCO may take up to 500ms to start */
 206              		.loc 1 218 0
 207 0008 FFF7FEFF 		bl	CySysClkWcoStart
 208              	.LVL17:
 219:Generated_Source\PSoC4/cyfitter_cfg.c **** 	(void)CySysClkWcoSetPowerMode(CY_SYS_CLK_WCO_LPM);    /* Switch to the low power mode */
 209              		.loc 1 219 0
 210 000c 2548     		ldr	r0, .L12+4
ARM GAS  C:\Users\dmr85\AppData\Local\Temp\ccajexNH.s 			page 10


 211 000e FFF7FEFF 		bl	CyDelayCycles
 212              	.LVL18:
 220:Generated_Source\PSoC4/cyfitter_cfg.c **** 
 213              		.loc 1 220 0
 214 0012 0120     		movs	r0, #1
 215 0014 FFF7FEFF 		bl	CySysClkWcoSetPowerMode
 216              	.LVL19:
 223:Generated_Source\PSoC4/cyfitter_cfg.c **** 	/* CYDEV_CLK_ILO_CONFIG Starting address: CYDEV_CLK_ILO_CONFIG */
 217              		.loc 1 223 0
 218 0018 3020     		movs	r0, #48
 219 001a FFF7FEFF 		bl	CySysClkWriteImoFreq
 220              	.LVL20:
 225:Generated_Source\PSoC4/cyfitter_cfg.c **** 
 221              		.loc 1 225 0
 222 001e 224A     		ldr	r2, .L12+8
 223 0020 224B     		ldr	r3, .L12+12
 224 0022 1A60     		str	r2, [r3]
 228:Generated_Source\PSoC4/cyfitter_cfg.c **** 
 225              		.loc 1 228 0
 226 0024 224C     		ldr	r4, .L12+16
 227 0026 8025     		movs	r5, #128
 228 0028 ED05     		lsls	r5, r5, #23
 229 002a 2560     		str	r5, [r4]
 232:Generated_Source\PSoC4/cyfitter_cfg.c **** 	CY_SET_REG32((void *)(CYREG_BLE_BLERD_BB_XO_CAPTRIM), 0x00003E2Du);
 230              		.loc 1 232 0
 231 002c 214A     		ldr	r2, .L12+20
 232 002e 1168     		ldr	r1, [r2]
 233 0030 0223     		movs	r3, #2
 234 0032 0B43     		orrs	r3, r1
 235 0034 1360     		str	r3, [r2]
 233:Generated_Source\PSoC4/cyfitter_cfg.c **** 	/*Set XTAL(ECO) divider*/
 236              		.loc 1 233 0
 237 0036 204A     		ldr	r2, .L12+24
 238 0038 204B     		ldr	r3, .L12+28
 239 003a 1A60     		str	r2, [r3]
 235:Generated_Source\PSoC4/cyfitter_cfg.c **** 	/* Disable Crystal Stable Interrupt before enabling ECO */
 240              		.loc 1 235 0
 241 003c 0022     		movs	r2, #0
 242 003e 204B     		ldr	r3, .L12+32
 243 0040 1A60     		str	r2, [r3]
 237:Generated_Source\PSoC4/cyfitter_cfg.c **** 	/* Start the ECO and do not check status since it is not needed for HFCLK */
 244              		.loc 1 237 0
 245 0042 204A     		ldr	r2, .L12+36
 246 0044 1368     		ldr	r3, [r2]
 247 0046 0821     		movs	r1, #8
 248 0048 8B43     		bics	r3, r1
 249 004a 1360     		str	r3, [r2]
 239:Generated_Source\PSoC4/cyfitter_cfg.c **** 	CyDelayUs(1500u); /* Wait to stabilize */
 250              		.loc 1 239 0
 251 004c FA20     		movs	r0, #250
 252 004e C000     		lsls	r0, r0, #3
 253 0050 FFF7FEFF 		bl	CySysClkEcoStart
 254              	.LVL21:
 240:Generated_Source\PSoC4/cyfitter_cfg.c **** 
 255              		.loc 1 240 0
 256 0054 1C48     		ldr	r0, .L12+40
 257 0056 FFF7FEFF 		bl	CyDelayUs
ARM GAS  C:\Users\dmr85\AppData\Local\Temp\ccajexNH.s 			page 11


 258              	.LVL22:
 243:Generated_Source\PSoC4/cyfitter_cfg.c **** 	CY_SET_REG32((void *)CYREG_PERI_DIV_CMD, 0x8000FF41u);
 259              		.loc 1 243 0
 260 005a 1C4A     		ldr	r2, .L12+44
 261 005c 1C4B     		ldr	r3, .L12+48
 262 005e 1A60     		str	r2, [r3]
 244:Generated_Source\PSoC4/cyfitter_cfg.c **** 	CY_SET_REG32((void *)CYREG_PERI_DIV_16_CTL0, 0x00000300u);
 263              		.loc 1 244 0
 264 0060 1C4B     		ldr	r3, .L12+52
 265 0062 1D4A     		ldr	r2, .L12+56
 266 0064 1A60     		str	r2, [r3]
 245:Generated_Source\PSoC4/cyfitter_cfg.c **** 	CY_SET_REG32((void *)CYREG_PERI_DIV_CMD, 0x8000FF40u);
 267              		.loc 1 245 0
 268 0066 C021     		movs	r1, #192
 269 0068 8900     		lsls	r1, r1, #2
 270 006a 1C4A     		ldr	r2, .L12+60
 271 006c 1160     		str	r1, [r2]
 246:Generated_Source\PSoC4/cyfitter_cfg.c **** 
 272              		.loc 1 246 0
 273 006e 1C4A     		ldr	r2, .L12+64
 274 0070 1A60     		str	r2, [r3]
 249:Generated_Source\PSoC4/cyfitter_cfg.c **** 
 275              		.loc 1 249 0
 276 0072 8022     		movs	r2, #128
 277 0074 1206     		lsls	r2, r2, #24
 278 0076 1B4B     		ldr	r3, .L12+68
 279 0078 1A60     		str	r2, [r3]
 252:Generated_Source\PSoC4/cyfitter_cfg.c **** 
 280              		.loc 1 252 0
 281 007a 8022     		movs	r2, #128
 282 007c D202     		lsls	r2, r2, #11
 283 007e 1A4B     		ldr	r3, .L12+72
 284 0080 1A60     		str	r2, [r3]
 255:Generated_Source\PSoC4/cyfitter_cfg.c **** 
 285              		.loc 1 255 0
 286 0082 4122     		movs	r2, #65
 287 0084 194B     		ldr	r3, .L12+76
 288 0086 1A60     		str	r2, [r3]
 258:Generated_Source\PSoC4/cyfitter_cfg.c **** 
 289              		.loc 1 258 0
 290 0088 013A     		subs	r2, r2, #1
 291 008a 194B     		ldr	r3, .L12+80
 292 008c 1A60     		str	r2, [r3]
 260:Generated_Source\PSoC4/cyfitter_cfg.c **** 	CyIntEnable(8u);
 293              		.loc 1 260 0
 294 008e 1949     		ldr	r1, .L12+84
 295 0090 0820     		movs	r0, #8
 296 0092 FFF7FEFF 		bl	CyIntSetVector
 297              	.LVL23:
 261:Generated_Source\PSoC4/cyfitter_cfg.c **** 	CY_SET_REG32((void *)(CYREG_WDT_CONFIG), 0x40000000u);
 298              		.loc 1 261 0
 299 0096 0820     		movs	r0, #8
 300 0098 FFF7FEFF 		bl	CyIntEnable
 301              	.LVL24:
 262:Generated_Source\PSoC4/cyfitter_cfg.c **** }
 302              		.loc 1 262 0
 303 009c 2560     		str	r5, [r4]
ARM GAS  C:\Users\dmr85\AppData\Local\Temp\ccajexNH.s 			page 12


 263:Generated_Source\PSoC4/cyfitter_cfg.c **** 
 304              		.loc 1 263 0
 305              		@ sp needed
 306 009e 70BD     		pop	{r4, r5, r6, pc}
 307              	.L13:
 308              		.align	2
 309              	.L12:
 310 00a0 30001040 		.word	1074790448
 311 00a4 001BB700 		.word	12000000
 312 00a8 06000080 		.word	-2147483642
 313 00ac 04010B40 		.word	1074462980
 314 00b0 0C020B40 		.word	1074463244
 315 00b4 78002E40 		.word	1076756600
 316 00b8 2D3E0000 		.word	15917
 317 00bc 7C002E40 		.word	1076756604
 318 00c0 64F02E40 		.word	1076818020
 319 00c4 6CF02E40 		.word	1076818028
 320 00c8 DC050000 		.word	1500
 321 00cc 007FBB00 		.word	12287744
 322 00d0 04030140 		.word	1073808132
 323 00d4 00000140 		.word	1073807360
 324 00d8 41FF0080 		.word	-2147418303
 325 00dc 00030140 		.word	1073808128
 326 00e0 40FF0080 		.word	-2147418304
 327 00e4 08010B40 		.word	1074462984
 328 00e8 00010B40 		.word	1074462976
 329 00ec 38010140 		.word	1073807672
 330 00f0 30010140 		.word	1073807664
 331 00f4 00000000 		.word	CySysWdtIsr
 332              		.cfi_endproc
 333              	.LFE6:
 334              		.size	ClockSetup, .-ClockSetup
 335              		.align	2
 336              		.global	cyfitter_cfg
 337              		.code	16
 338              		.thumb_func
 339              		.type	cyfitter_cfg, %function
 340              	cyfitter_cfg:
 341              	.LFB8:
 291:Generated_Source\PSoC4/cyfitter_cfg.c **** 
 292:Generated_Source\PSoC4/cyfitter_cfg.c **** 
 293:Generated_Source\PSoC4/cyfitter_cfg.c **** 
 294:Generated_Source\PSoC4/cyfitter_cfg.c **** 
 295:Generated_Source\PSoC4/cyfitter_cfg.c **** /*******************************************************************************
 296:Generated_Source\PSoC4/cyfitter_cfg.c **** * Function Name: cyfitter_cfg
 297:Generated_Source\PSoC4/cyfitter_cfg.c **** ********************************************************************************
 298:Generated_Source\PSoC4/cyfitter_cfg.c **** * Summary:
 299:Generated_Source\PSoC4/cyfitter_cfg.c **** *  This function is called by the start-up code for the selected device. It
 300:Generated_Source\PSoC4/cyfitter_cfg.c **** *  performs all of the necessary device configuration based on the design
 301:Generated_Source\PSoC4/cyfitter_cfg.c **** *  settings.  This includes settings from the Design Wide Resources (DWR) such
 302:Generated_Source\PSoC4/cyfitter_cfg.c **** *  as Clocks and Pins as well as any component configuration that is necessary.
 303:Generated_Source\PSoC4/cyfitter_cfg.c **** *
 304:Generated_Source\PSoC4/cyfitter_cfg.c **** * Parameters:
 305:Generated_Source\PSoC4/cyfitter_cfg.c **** *   void
 306:Generated_Source\PSoC4/cyfitter_cfg.c **** *
 307:Generated_Source\PSoC4/cyfitter_cfg.c **** * Return:
 308:Generated_Source\PSoC4/cyfitter_cfg.c **** *   void
ARM GAS  C:\Users\dmr85\AppData\Local\Temp\ccajexNH.s 			page 13


 309:Generated_Source\PSoC4/cyfitter_cfg.c **** *
 310:Generated_Source\PSoC4/cyfitter_cfg.c **** *******************************************************************************/
 311:Generated_Source\PSoC4/cyfitter_cfg.c **** CY_CFG_SECTION
 312:Generated_Source\PSoC4/cyfitter_cfg.c **** void cyfitter_cfg(void)
 313:Generated_Source\PSoC4/cyfitter_cfg.c **** {
 342              		.loc 1 313 0
 343              		.cfi_startproc
 344              		@ args = 0, pretend = 0, frame = 0
 345              		@ frame_needed = 0, uses_anonymous_args = 0
 346 00f8 70B5     		push	{r4, r5, r6, lr}
 347              		.cfi_def_cfa_offset 16
 348              		.cfi_offset 4, -16
 349              		.cfi_offset 5, -12
 350              		.cfi_offset 6, -8
 351              		.cfi_offset 14, -4
 314:Generated_Source\PSoC4/cyfitter_cfg.c **** 	/* Disable interrupts by default. Let user enable if/when they want. */
 315:Generated_Source\PSoC4/cyfitter_cfg.c **** 	CyGlobalIntDisable;
 352              		.loc 1 315 0
 353              		.syntax divided
 354              	@ 315 "Generated_Source\PSoC4\cyfitter_cfg.c" 1
 355 00fa 72B6     		CPSID   i
 356              	@ 0 "" 2
 316:Generated_Source\PSoC4/cyfitter_cfg.c **** 
 317:Generated_Source\PSoC4/cyfitter_cfg.c **** 	CY_SET_REG32((void *)(CYREG_BLE_BLESS_LL_DSM_CTRL), 0x00000000u);
 357              		.loc 1 317 0
 358              		.thumb
 359              		.syntax unified
 360 00fc 0022     		movs	r2, #0
 361 00fe 3E4B     		ldr	r3, .L19
 362 0100 1A60     		str	r2, [r3]
 363              	.LVL25:
 364              	.LBB3:
 318:Generated_Source\PSoC4/cyfitter_cfg.c **** 
 319:Generated_Source\PSoC4/cyfitter_cfg.c **** 	{
 320:Generated_Source\PSoC4/cyfitter_cfg.c **** 		static const uint32 CYCODE cy_cfg_addr_table[] = {
 321:Generated_Source\PSoC4/cyfitter_cfg.c **** 			0x400F0002u, /* Base address: 0x400F0000 Count: 2 */
 322:Generated_Source\PSoC4/cyfitter_cfg.c **** 			0x400F3004u, /* Base address: 0x400F3000 Count: 4 */
 323:Generated_Source\PSoC4/cyfitter_cfg.c **** 			0x400F3134u, /* Base address: 0x400F3100 Count: 52 */
 324:Generated_Source\PSoC4/cyfitter_cfg.c **** 			0x400F325Fu, /* Base address: 0x400F3200 Count: 95 */
 325:Generated_Source\PSoC4/cyfitter_cfg.c **** 			0x400F334Bu, /* Base address: 0x400F3300 Count: 75 */
 326:Generated_Source\PSoC4/cyfitter_cfg.c **** 			0x400F4002u, /* Base address: 0x400F4000 Count: 2 */
 327:Generated_Source\PSoC4/cyfitter_cfg.c **** 			0x400F410Au, /* Base address: 0x400F4100 Count: 10 */
 328:Generated_Source\PSoC4/cyfitter_cfg.c **** 			0x400F4304u, /* Base address: 0x400F4300 Count: 4 */
 329:Generated_Source\PSoC4/cyfitter_cfg.c **** 			0x400F6002u, /* Base address: 0x400F6000 Count: 2 */
 330:Generated_Source\PSoC4/cyfitter_cfg.c **** 		};
 331:Generated_Source\PSoC4/cyfitter_cfg.c **** 
 332:Generated_Source\PSoC4/cyfitter_cfg.c **** 		static const cy_cfg_addrvalue_t CYCODE cy_cfg_data_table[] = {
 333:Generated_Source\PSoC4/cyfitter_cfg.c **** 			{0x81u, 0x0Fu},
 334:Generated_Source\PSoC4/cyfitter_cfg.c **** 			{0x83u, 0x0Du},
 335:Generated_Source\PSoC4/cyfitter_cfg.c **** 			{0x54u, 0x09u},
 336:Generated_Source\PSoC4/cyfitter_cfg.c **** 			{0x5Bu, 0x04u},
 337:Generated_Source\PSoC4/cyfitter_cfg.c **** 			{0x5Du, 0x10u},
 338:Generated_Source\PSoC4/cyfitter_cfg.c **** 			{0x5Fu, 0x01u},
 339:Generated_Source\PSoC4/cyfitter_cfg.c **** 			{0x04u, 0x24u},
 340:Generated_Source\PSoC4/cyfitter_cfg.c **** 			{0x05u, 0x40u},
 341:Generated_Source\PSoC4/cyfitter_cfg.c **** 			{0x07u, 0x40u},
 342:Generated_Source\PSoC4/cyfitter_cfg.c **** 			{0x0Eu, 0xA0u},
ARM GAS  C:\Users\dmr85\AppData\Local\Temp\ccajexNH.s 			page 14


 343:Generated_Source\PSoC4/cyfitter_cfg.c **** 			{0x0Fu, 0x02u},
 344:Generated_Source\PSoC4/cyfitter_cfg.c **** 			{0x16u, 0x02u},
 345:Generated_Source\PSoC4/cyfitter_cfg.c **** 			{0x17u, 0x15u},
 346:Generated_Source\PSoC4/cyfitter_cfg.c **** 			{0x1Cu, 0x05u},
 347:Generated_Source\PSoC4/cyfitter_cfg.c **** 			{0x1Du, 0x08u},
 348:Generated_Source\PSoC4/cyfitter_cfg.c **** 			{0x1Eu, 0x40u},
 349:Generated_Source\PSoC4/cyfitter_cfg.c **** 			{0x24u, 0x28u},
 350:Generated_Source\PSoC4/cyfitter_cfg.c **** 			{0x25u, 0x20u},
 351:Generated_Source\PSoC4/cyfitter_cfg.c **** 			{0x26u, 0x50u},
 352:Generated_Source\PSoC4/cyfitter_cfg.c **** 			{0x27u, 0x2Au},
 353:Generated_Source\PSoC4/cyfitter_cfg.c **** 			{0x2Fu, 0x42u},
 354:Generated_Source\PSoC4/cyfitter_cfg.c **** 			{0x36u, 0x41u},
 355:Generated_Source\PSoC4/cyfitter_cfg.c **** 			{0x37u, 0x28u},
 356:Generated_Source\PSoC4/cyfitter_cfg.c **** 			{0x3Du, 0x24u},
 357:Generated_Source\PSoC4/cyfitter_cfg.c **** 			{0x3Eu, 0x02u},
 358:Generated_Source\PSoC4/cyfitter_cfg.c **** 			{0x3Fu, 0x80u},
 359:Generated_Source\PSoC4/cyfitter_cfg.c **** 			{0x40u, 0x08u},
 360:Generated_Source\PSoC4/cyfitter_cfg.c **** 			{0x42u, 0x08u},
 361:Generated_Source\PSoC4/cyfitter_cfg.c **** 			{0x45u, 0x08u},
 362:Generated_Source\PSoC4/cyfitter_cfg.c **** 			{0x47u, 0x22u},
 363:Generated_Source\PSoC4/cyfitter_cfg.c **** 			{0x4Cu, 0x04u},
 364:Generated_Source\PSoC4/cyfitter_cfg.c **** 			{0x4Du, 0x48u},
 365:Generated_Source\PSoC4/cyfitter_cfg.c **** 			{0x4Fu, 0x02u},
 366:Generated_Source\PSoC4/cyfitter_cfg.c **** 			{0x55u, 0x80u},
 367:Generated_Source\PSoC4/cyfitter_cfg.c **** 			{0x56u, 0x08u},
 368:Generated_Source\PSoC4/cyfitter_cfg.c **** 			{0x57u, 0x50u},
 369:Generated_Source\PSoC4/cyfitter_cfg.c **** 			{0x58u, 0x11u},
 370:Generated_Source\PSoC4/cyfitter_cfg.c **** 			{0x59u, 0x08u},
 371:Generated_Source\PSoC4/cyfitter_cfg.c **** 			{0x5Au, 0x40u},
 372:Generated_Source\PSoC4/cyfitter_cfg.c **** 			{0x60u, 0x01u},
 373:Generated_Source\PSoC4/cyfitter_cfg.c **** 			{0x65u, 0x20u},
 374:Generated_Source\PSoC4/cyfitter_cfg.c **** 			{0x6Cu, 0x01u},
 375:Generated_Source\PSoC4/cyfitter_cfg.c **** 			{0x6Du, 0x34u},
 376:Generated_Source\PSoC4/cyfitter_cfg.c **** 			{0x6Eu, 0x02u},
 377:Generated_Source\PSoC4/cyfitter_cfg.c **** 			{0x6Fu, 0x57u},
 378:Generated_Source\PSoC4/cyfitter_cfg.c **** 			{0x76u, 0x02u},
 379:Generated_Source\PSoC4/cyfitter_cfg.c **** 			{0x84u, 0x01u},
 380:Generated_Source\PSoC4/cyfitter_cfg.c **** 			{0x85u, 0x08u},
 381:Generated_Source\PSoC4/cyfitter_cfg.c **** 			{0xC0u, 0xF0u},
 382:Generated_Source\PSoC4/cyfitter_cfg.c **** 			{0xC2u, 0xB0u},
 383:Generated_Source\PSoC4/cyfitter_cfg.c **** 			{0xC4u, 0xF0u},
 384:Generated_Source\PSoC4/cyfitter_cfg.c **** 			{0xCAu, 0x90u},
 385:Generated_Source\PSoC4/cyfitter_cfg.c **** 			{0xCCu, 0xF0u},
 386:Generated_Source\PSoC4/cyfitter_cfg.c **** 			{0xCEu, 0xF0u},
 387:Generated_Source\PSoC4/cyfitter_cfg.c **** 			{0xD0u, 0xE0u},
 388:Generated_Source\PSoC4/cyfitter_cfg.c **** 			{0xD2u, 0x30u},
 389:Generated_Source\PSoC4/cyfitter_cfg.c **** 			{0xD6u, 0x0Fu},
 390:Generated_Source\PSoC4/cyfitter_cfg.c **** 			{0xD8u, 0x28u},
 391:Generated_Source\PSoC4/cyfitter_cfg.c **** 			{0x00u, 0x4Du},
 392:Generated_Source\PSoC4/cyfitter_cfg.c **** 			{0x02u, 0x80u},
 393:Generated_Source\PSoC4/cyfitter_cfg.c **** 			{0x04u, 0x12u},
 394:Generated_Source\PSoC4/cyfitter_cfg.c **** 			{0x06u, 0x64u},
 395:Generated_Source\PSoC4/cyfitter_cfg.c **** 			{0x09u, 0x0Eu},
 396:Generated_Source\PSoC4/cyfitter_cfg.c **** 			{0x0Cu, 0x10u},
 397:Generated_Source\PSoC4/cyfitter_cfg.c **** 			{0x0Eu, 0x60u},
 398:Generated_Source\PSoC4/cyfitter_cfg.c **** 			{0x0Fu, 0x20u},
 399:Generated_Source\PSoC4/cyfitter_cfg.c **** 			{0x10u, 0x02u},
ARM GAS  C:\Users\dmr85\AppData\Local\Temp\ccajexNH.s 			page 15


 400:Generated_Source\PSoC4/cyfitter_cfg.c **** 			{0x11u, 0x04u},
 401:Generated_Source\PSoC4/cyfitter_cfg.c **** 			{0x12u, 0x0Du},
 402:Generated_Source\PSoC4/cyfitter_cfg.c **** 			{0x13u, 0x39u},
 403:Generated_Source\PSoC4/cyfitter_cfg.c **** 			{0x15u, 0x13u},
 404:Generated_Source\PSoC4/cyfitter_cfg.c **** 			{0x16u, 0x80u},
 405:Generated_Source\PSoC4/cyfitter_cfg.c **** 			{0x17u, 0x04u},
 406:Generated_Source\PSoC4/cyfitter_cfg.c **** 			{0x18u, 0x01u},
 407:Generated_Source\PSoC4/cyfitter_cfg.c **** 			{0x19u, 0x05u},
 408:Generated_Source\PSoC4/cyfitter_cfg.c **** 			{0x1Au, 0x32u},
 409:Generated_Source\PSoC4/cyfitter_cfg.c **** 			{0x1Bu, 0x3Au},
 410:Generated_Source\PSoC4/cyfitter_cfg.c **** 			{0x1Cu, 0xCDu},
 411:Generated_Source\PSoC4/cyfitter_cfg.c **** 			{0x20u, 0x72u},
 412:Generated_Source\PSoC4/cyfitter_cfg.c **** 			{0x22u, 0x08u},
 413:Generated_Source\PSoC4/cyfitter_cfg.c **** 			{0x24u, 0xCDu},
 414:Generated_Source\PSoC4/cyfitter_cfg.c **** 			{0x28u, 0x8Du},
 415:Generated_Source\PSoC4/cyfitter_cfg.c **** 			{0x2Au, 0x40u},
 416:Generated_Source\PSoC4/cyfitter_cfg.c **** 			{0x2Cu, 0xCDu},
 417:Generated_Source\PSoC4/cyfitter_cfg.c **** 			{0x30u, 0x0Fu},
 418:Generated_Source\PSoC4/cyfitter_cfg.c **** 			{0x34u, 0x80u},
 419:Generated_Source\PSoC4/cyfitter_cfg.c **** 			{0x35u, 0x0Fu},
 420:Generated_Source\PSoC4/cyfitter_cfg.c **** 			{0x36u, 0x70u},
 421:Generated_Source\PSoC4/cyfitter_cfg.c **** 			{0x37u, 0x30u},
 422:Generated_Source\PSoC4/cyfitter_cfg.c **** 			{0x39u, 0x20u},
 423:Generated_Source\PSoC4/cyfitter_cfg.c **** 			{0x3Au, 0x82u},
 424:Generated_Source\PSoC4/cyfitter_cfg.c **** 			{0x3Eu, 0x10u},
 425:Generated_Source\PSoC4/cyfitter_cfg.c **** 			{0x54u, 0x40u},
 426:Generated_Source\PSoC4/cyfitter_cfg.c **** 			{0x58u, 0x04u},
 427:Generated_Source\PSoC4/cyfitter_cfg.c **** 			{0x59u, 0x04u},
 428:Generated_Source\PSoC4/cyfitter_cfg.c **** 			{0x5Bu, 0x04u},
 429:Generated_Source\PSoC4/cyfitter_cfg.c **** 			{0x5Cu, 0x11u},
 430:Generated_Source\PSoC4/cyfitter_cfg.c **** 			{0x5Du, 0x10u},
 431:Generated_Source\PSoC4/cyfitter_cfg.c **** 			{0x5Fu, 0x01u},
 432:Generated_Source\PSoC4/cyfitter_cfg.c **** 			{0x81u, 0x08u},
 433:Generated_Source\PSoC4/cyfitter_cfg.c **** 			{0x86u, 0x10u},
 434:Generated_Source\PSoC4/cyfitter_cfg.c **** 			{0x88u, 0x02u},
 435:Generated_Source\PSoC4/cyfitter_cfg.c **** 			{0x8Au, 0x0Du},
 436:Generated_Source\PSoC4/cyfitter_cfg.c **** 			{0x8Bu, 0x01u},
 437:Generated_Source\PSoC4/cyfitter_cfg.c **** 			{0x8Fu, 0x0Du},
 438:Generated_Source\PSoC4/cyfitter_cfg.c **** 			{0x92u, 0x10u},
 439:Generated_Source\PSoC4/cyfitter_cfg.c **** 			{0x94u, 0x20u},
 440:Generated_Source\PSoC4/cyfitter_cfg.c **** 			{0x98u, 0x03u},
 441:Generated_Source\PSoC4/cyfitter_cfg.c **** 			{0x9Au, 0x0Cu},
 442:Generated_Source\PSoC4/cyfitter_cfg.c **** 			{0xA0u, 0x09u},
 443:Generated_Source\PSoC4/cyfitter_cfg.c **** 			{0xA2u, 0x06u},
 444:Generated_Source\PSoC4/cyfitter_cfg.c **** 			{0xA8u, 0x05u},
 445:Generated_Source\PSoC4/cyfitter_cfg.c **** 			{0xAAu, 0x0Au},
 446:Generated_Source\PSoC4/cyfitter_cfg.c **** 			{0xAFu, 0x02u},
 447:Generated_Source\PSoC4/cyfitter_cfg.c **** 			{0xB0u, 0x20u},
 448:Generated_Source\PSoC4/cyfitter_cfg.c **** 			{0xB1u, 0x04u},
 449:Generated_Source\PSoC4/cyfitter_cfg.c **** 			{0xB2u, 0x10u},
 450:Generated_Source\PSoC4/cyfitter_cfg.c **** 			{0xB3u, 0x01u},
 451:Generated_Source\PSoC4/cyfitter_cfg.c **** 			{0xB4u, 0x0Fu},
 452:Generated_Source\PSoC4/cyfitter_cfg.c **** 			{0xB5u, 0x02u},
 453:Generated_Source\PSoC4/cyfitter_cfg.c **** 			{0xB7u, 0x08u},
 454:Generated_Source\PSoC4/cyfitter_cfg.c **** 			{0xBAu, 0x20u},
 455:Generated_Source\PSoC4/cyfitter_cfg.c **** 			{0xBEu, 0x05u},
 456:Generated_Source\PSoC4/cyfitter_cfg.c **** 			{0xC0u, 0x60u},
ARM GAS  C:\Users\dmr85\AppData\Local\Temp\ccajexNH.s 			page 16


 457:Generated_Source\PSoC4/cyfitter_cfg.c **** 			{0xC1u, 0x03u},
 458:Generated_Source\PSoC4/cyfitter_cfg.c **** 			{0xC5u, 0xD0u},
 459:Generated_Source\PSoC4/cyfitter_cfg.c **** 			{0xC6u, 0x01u},
 460:Generated_Source\PSoC4/cyfitter_cfg.c **** 			{0xC7u, 0x02u},
 461:Generated_Source\PSoC4/cyfitter_cfg.c **** 			{0xC8u, 0x16u},
 462:Generated_Source\PSoC4/cyfitter_cfg.c **** 			{0xC9u, 0xFFu},
 463:Generated_Source\PSoC4/cyfitter_cfg.c **** 			{0xCAu, 0xFFu},
 464:Generated_Source\PSoC4/cyfitter_cfg.c **** 			{0xCBu, 0xFFu},
 465:Generated_Source\PSoC4/cyfitter_cfg.c **** 			{0xCDu, 0xA0u},
 466:Generated_Source\PSoC4/cyfitter_cfg.c **** 			{0xCFu, 0x04u},
 467:Generated_Source\PSoC4/cyfitter_cfg.c **** 			{0xD0u, 0x18u},
 468:Generated_Source\PSoC4/cyfitter_cfg.c **** 			{0xD2u, 0x80u},
 469:Generated_Source\PSoC4/cyfitter_cfg.c **** 			{0xD4u, 0x05u},
 470:Generated_Source\PSoC4/cyfitter_cfg.c **** 			{0xD8u, 0x04u},
 471:Generated_Source\PSoC4/cyfitter_cfg.c **** 			{0xD9u, 0x04u},
 472:Generated_Source\PSoC4/cyfitter_cfg.c **** 			{0xDAu, 0x04u},
 473:Generated_Source\PSoC4/cyfitter_cfg.c **** 			{0xDBu, 0x04u},
 474:Generated_Source\PSoC4/cyfitter_cfg.c **** 			{0xDCu, 0x31u},
 475:Generated_Source\PSoC4/cyfitter_cfg.c **** 			{0xDDu, 0x33u},
 476:Generated_Source\PSoC4/cyfitter_cfg.c **** 			{0xDFu, 0x01u},
 477:Generated_Source\PSoC4/cyfitter_cfg.c **** 			{0xE0u, 0x40u},
 478:Generated_Source\PSoC4/cyfitter_cfg.c **** 			{0xE2u, 0xC0u},
 479:Generated_Source\PSoC4/cyfitter_cfg.c **** 			{0xE4u, 0x40u},
 480:Generated_Source\PSoC4/cyfitter_cfg.c **** 			{0xE5u, 0x40u},
 481:Generated_Source\PSoC4/cyfitter_cfg.c **** 			{0xE6u, 0xC0u},
 482:Generated_Source\PSoC4/cyfitter_cfg.c **** 			{0xE8u, 0xC0u},
 483:Generated_Source\PSoC4/cyfitter_cfg.c **** 			{0xEAu, 0xC0u},
 484:Generated_Source\PSoC4/cyfitter_cfg.c **** 			{0xECu, 0xC0u},
 485:Generated_Source\PSoC4/cyfitter_cfg.c **** 			{0xEEu, 0xC0u},
 486:Generated_Source\PSoC4/cyfitter_cfg.c **** 			{0x00u, 0x08u},
 487:Generated_Source\PSoC4/cyfitter_cfg.c **** 			{0x01u, 0x20u},
 488:Generated_Source\PSoC4/cyfitter_cfg.c **** 			{0x04u, 0x02u},
 489:Generated_Source\PSoC4/cyfitter_cfg.c **** 			{0x05u, 0x40u},
 490:Generated_Source\PSoC4/cyfitter_cfg.c **** 			{0x07u, 0x20u},
 491:Generated_Source\PSoC4/cyfitter_cfg.c **** 			{0x08u, 0x02u},
 492:Generated_Source\PSoC4/cyfitter_cfg.c **** 			{0x09u, 0x20u},
 493:Generated_Source\PSoC4/cyfitter_cfg.c **** 			{0x0Bu, 0x10u},
 494:Generated_Source\PSoC4/cyfitter_cfg.c **** 			{0x0Du, 0x24u},
 495:Generated_Source\PSoC4/cyfitter_cfg.c **** 			{0x0Eu, 0x42u},
 496:Generated_Source\PSoC4/cyfitter_cfg.c **** 			{0x0Fu, 0x20u},
 497:Generated_Source\PSoC4/cyfitter_cfg.c **** 			{0x13u, 0x22u},
 498:Generated_Source\PSoC4/cyfitter_cfg.c **** 			{0x15u, 0x14u},
 499:Generated_Source\PSoC4/cyfitter_cfg.c **** 			{0x16u, 0x02u},
 500:Generated_Source\PSoC4/cyfitter_cfg.c **** 			{0x17u, 0x02u},
 501:Generated_Source\PSoC4/cyfitter_cfg.c **** 			{0x19u, 0x26u},
 502:Generated_Source\PSoC4/cyfitter_cfg.c **** 			{0x1Du, 0x40u},
 503:Generated_Source\PSoC4/cyfitter_cfg.c **** 			{0x1Eu, 0x40u},
 504:Generated_Source\PSoC4/cyfitter_cfg.c **** 			{0x1Fu, 0x50u},
 505:Generated_Source\PSoC4/cyfitter_cfg.c **** 			{0x20u, 0x08u},
 506:Generated_Source\PSoC4/cyfitter_cfg.c **** 			{0x21u, 0x11u},
 507:Generated_Source\PSoC4/cyfitter_cfg.c **** 			{0x22u, 0x40u},
 508:Generated_Source\PSoC4/cyfitter_cfg.c **** 			{0x23u, 0x10u},
 509:Generated_Source\PSoC4/cyfitter_cfg.c **** 			{0x25u, 0x50u},
 510:Generated_Source\PSoC4/cyfitter_cfg.c **** 			{0x26u, 0x20u},
 511:Generated_Source\PSoC4/cyfitter_cfg.c **** 			{0x2Au, 0x80u},
 512:Generated_Source\PSoC4/cyfitter_cfg.c **** 			{0x37u, 0x2Au},
 513:Generated_Source\PSoC4/cyfitter_cfg.c **** 			{0x39u, 0x22u},
ARM GAS  C:\Users\dmr85\AppData\Local\Temp\ccajexNH.s 			page 17


 514:Generated_Source\PSoC4/cyfitter_cfg.c **** 			{0x3Au, 0x40u},
 515:Generated_Source\PSoC4/cyfitter_cfg.c **** 			{0x3Du, 0xA0u},
 516:Generated_Source\PSoC4/cyfitter_cfg.c **** 			{0x43u, 0x08u},
 517:Generated_Source\PSoC4/cyfitter_cfg.c **** 			{0x48u, 0x04u},
 518:Generated_Source\PSoC4/cyfitter_cfg.c **** 			{0x49u, 0x01u},
 519:Generated_Source\PSoC4/cyfitter_cfg.c **** 			{0x52u, 0x40u},
 520:Generated_Source\PSoC4/cyfitter_cfg.c **** 			{0x53u, 0x08u},
 521:Generated_Source\PSoC4/cyfitter_cfg.c **** 			{0x59u, 0x05u},
 522:Generated_Source\PSoC4/cyfitter_cfg.c **** 			{0x5Au, 0x80u},
 523:Generated_Source\PSoC4/cyfitter_cfg.c **** 			{0x64u, 0x08u},
 524:Generated_Source\PSoC4/cyfitter_cfg.c **** 			{0x65u, 0x80u},
 525:Generated_Source\PSoC4/cyfitter_cfg.c **** 			{0x67u, 0x20u},
 526:Generated_Source\PSoC4/cyfitter_cfg.c **** 			{0x72u, 0x80u},
 527:Generated_Source\PSoC4/cyfitter_cfg.c **** 			{0x81u, 0x40u},
 528:Generated_Source\PSoC4/cyfitter_cfg.c **** 			{0x85u, 0x84u},
 529:Generated_Source\PSoC4/cyfitter_cfg.c **** 			{0x88u, 0x02u},
 530:Generated_Source\PSoC4/cyfitter_cfg.c **** 			{0x89u, 0x40u},
 531:Generated_Source\PSoC4/cyfitter_cfg.c **** 			{0x8Bu, 0x08u},
 532:Generated_Source\PSoC4/cyfitter_cfg.c **** 			{0x8Du, 0x02u},
 533:Generated_Source\PSoC4/cyfitter_cfg.c **** 			{0x8Eu, 0x20u},
 534:Generated_Source\PSoC4/cyfitter_cfg.c **** 			{0x90u, 0x02u},
 535:Generated_Source\PSoC4/cyfitter_cfg.c **** 			{0x91u, 0x14u},
 536:Generated_Source\PSoC4/cyfitter_cfg.c **** 			{0x95u, 0x40u},
 537:Generated_Source\PSoC4/cyfitter_cfg.c **** 			{0x97u, 0x80u},
 538:Generated_Source\PSoC4/cyfitter_cfg.c **** 			{0x98u, 0x08u},
 539:Generated_Source\PSoC4/cyfitter_cfg.c **** 			{0x9Au, 0x02u},
 540:Generated_Source\PSoC4/cyfitter_cfg.c **** 			{0x9Bu, 0x2Au},
 541:Generated_Source\PSoC4/cyfitter_cfg.c **** 			{0x9Du, 0x60u},
 542:Generated_Source\PSoC4/cyfitter_cfg.c **** 			{0xA1u, 0x20u},
 543:Generated_Source\PSoC4/cyfitter_cfg.c **** 			{0xA2u, 0x01u},
 544:Generated_Source\PSoC4/cyfitter_cfg.c **** 			{0xA3u, 0x10u},
 545:Generated_Source\PSoC4/cyfitter_cfg.c **** 			{0xB0u, 0x10u},
 546:Generated_Source\PSoC4/cyfitter_cfg.c **** 			{0xB1u, 0x80u},
 547:Generated_Source\PSoC4/cyfitter_cfg.c **** 			{0xB4u, 0x04u},
 548:Generated_Source\PSoC4/cyfitter_cfg.c **** 			{0xC0u, 0xB6u},
 549:Generated_Source\PSoC4/cyfitter_cfg.c **** 			{0xC2u, 0xFEu},
 550:Generated_Source\PSoC4/cyfitter_cfg.c **** 			{0xC4u, 0xFAu},
 551:Generated_Source\PSoC4/cyfitter_cfg.c **** 			{0xCAu, 0x08u},
 552:Generated_Source\PSoC4/cyfitter_cfg.c **** 			{0xCCu, 0xE0u},
 553:Generated_Source\PSoC4/cyfitter_cfg.c **** 			{0xCEu, 0x3Du},
 554:Generated_Source\PSoC4/cyfitter_cfg.c **** 			{0xD0u, 0x02u},
 555:Generated_Source\PSoC4/cyfitter_cfg.c **** 			{0xD2u, 0x04u},
 556:Generated_Source\PSoC4/cyfitter_cfg.c **** 			{0xD6u, 0x0Bu},
 557:Generated_Source\PSoC4/cyfitter_cfg.c **** 			{0xD8u, 0x70u},
 558:Generated_Source\PSoC4/cyfitter_cfg.c **** 			{0xE2u, 0x10u},
 559:Generated_Source\PSoC4/cyfitter_cfg.c **** 			{0xE6u, 0x20u},
 560:Generated_Source\PSoC4/cyfitter_cfg.c **** 			{0xEEu, 0x40u},
 561:Generated_Source\PSoC4/cyfitter_cfg.c **** 			{0x62u, 0x01u},
 562:Generated_Source\PSoC4/cyfitter_cfg.c **** 			{0xD8u, 0x40u},
 563:Generated_Source\PSoC4/cyfitter_cfg.c **** 			{0x00u, 0x40u},
 564:Generated_Source\PSoC4/cyfitter_cfg.c **** 			{0x57u, 0x10u},
 565:Generated_Source\PSoC4/cyfitter_cfg.c **** 			{0x5Bu, 0x20u},
 566:Generated_Source\PSoC4/cyfitter_cfg.c **** 			{0x80u, 0x40u},
 567:Generated_Source\PSoC4/cyfitter_cfg.c **** 			{0x8Bu, 0x20u},
 568:Generated_Source\PSoC4/cyfitter_cfg.c **** 			{0x8Fu, 0x10u},
 569:Generated_Source\PSoC4/cyfitter_cfg.c **** 			{0xB6u, 0x01u},
 570:Generated_Source\PSoC4/cyfitter_cfg.c **** 			{0xC0u, 0x40u},
ARM GAS  C:\Users\dmr85\AppData\Local\Temp\ccajexNH.s 			page 18


 571:Generated_Source\PSoC4/cyfitter_cfg.c **** 			{0xD4u, 0xC0u},
 572:Generated_Source\PSoC4/cyfitter_cfg.c **** 			{0xE4u, 0x20u},
 573:Generated_Source\PSoC4/cyfitter_cfg.c **** 			{0x63u, 0x08u},
 574:Generated_Source\PSoC4/cyfitter_cfg.c **** 			{0x8Fu, 0x04u},
 575:Generated_Source\PSoC4/cyfitter_cfg.c **** 			{0xD8u, 0x02u},
 576:Generated_Source\PSoC4/cyfitter_cfg.c **** 			{0xE0u, 0x02u},
 577:Generated_Source\PSoC4/cyfitter_cfg.c **** 			{0x01u, 0x0Au},
 578:Generated_Source\PSoC4/cyfitter_cfg.c **** 			{0x10u, 0x0Au},
 579:Generated_Source\PSoC4/cyfitter_cfg.c **** 		};
 580:Generated_Source\PSoC4/cyfitter_cfg.c **** 
 581:Generated_Source\PSoC4/cyfitter_cfg.c **** 
 582:Generated_Source\PSoC4/cyfitter_cfg.c **** 
 583:Generated_Source\PSoC4/cyfitter_cfg.c **** 		CYPACKED typedef struct {
 584:Generated_Source\PSoC4/cyfitter_cfg.c **** 			void CYFAR *address;
 585:Generated_Source\PSoC4/cyfitter_cfg.c **** 			uint16 size;
 586:Generated_Source\PSoC4/cyfitter_cfg.c **** 		} CYPACKED_ATTR cfg_memset_t;
 587:Generated_Source\PSoC4/cyfitter_cfg.c **** 
 588:Generated_Source\PSoC4/cyfitter_cfg.c **** 
 589:Generated_Source\PSoC4/cyfitter_cfg.c **** 		CYPACKED typedef struct {
 590:Generated_Source\PSoC4/cyfitter_cfg.c **** 			void CYFAR *dest;
 591:Generated_Source\PSoC4/cyfitter_cfg.c **** 			const void CYCODE *src;
 592:Generated_Source\PSoC4/cyfitter_cfg.c **** 			uint16 size;
 593:Generated_Source\PSoC4/cyfitter_cfg.c **** 		} CYPACKED_ATTR cfg_memcpy_t;
 594:Generated_Source\PSoC4/cyfitter_cfg.c **** 
 595:Generated_Source\PSoC4/cyfitter_cfg.c **** 		static const cfg_memset_t CYCODE cfg_memset_list[] = {
 596:Generated_Source\PSoC4/cyfitter_cfg.c **** 			/* address, size */
 597:Generated_Source\PSoC4/cyfitter_cfg.c **** 			{(void CYFAR *)(CYDEV_UDB_P0_U0_BASE), 128u},
 598:Generated_Source\PSoC4/cyfitter_cfg.c **** 			{(void CYFAR *)(CYDEV_UDB_P0_ROUTE_BASE), 768u},
 599:Generated_Source\PSoC4/cyfitter_cfg.c **** 			{(void CYFAR *)(CYDEV_UDB_DSI0_BASE), 1024u},
 600:Generated_Source\PSoC4/cyfitter_cfg.c **** 		};
 601:Generated_Source\PSoC4/cyfitter_cfg.c **** 
 602:Generated_Source\PSoC4/cyfitter_cfg.c **** 		/* UDB_0_1_1_CONFIG Address: CYDEV_UDB_P0_U1_BASE Size (bytes): 128 */
 603:Generated_Source\PSoC4/cyfitter_cfg.c **** 		static const uint8 CYCODE BS_UDB_0_1_1_CONFIG_VAL[] = {
 604:Generated_Source\PSoC4/cyfitter_cfg.c **** 			0x84u, 0x1Au, 0x00u, 0x00u, 0x01u, 0x18u, 0x00u, 0x02u, 0x0Au, 0x02u, 0x10u, 0x18u, 0x04u, 0x82u
 605:Generated_Source\PSoC4/cyfitter_cfg.c **** 			0x56u, 0x1Au, 0x09u, 0x00u, 0x07u, 0x33u, 0x38u, 0x44u, 0x00u, 0xC1u, 0x00u, 0x38u, 0x60u, 0x9Cu
 606:Generated_Source\PSoC4/cyfitter_cfg.c **** 			0x04u, 0x18u, 0x80u, 0x00u, 0x80u, 0x00u, 0x04u, 0x00u, 0x84u, 0x00u, 0x00u, 0x00u, 0x84u, 0x18u
 607:Generated_Source\PSoC4/cyfitter_cfg.c **** 			0x08u, 0x00u, 0x80u, 0x0Fu, 0x7Fu, 0x13u, 0x02u, 0xE0u, 0x20u, 0x00u, 0x00u, 0x88u, 0x00u, 0x00u
 608:Generated_Source\PSoC4/cyfitter_cfg.c **** 			0x24u, 0x06u, 0x30u, 0x00u, 0x05u, 0xBEu, 0xDCu, 0x0Fu, 0x1Fu, 0xFFu, 0xFFu, 0xFFu, 0x22u, 0x00u
 609:Generated_Source\PSoC4/cyfitter_cfg.c **** 			0x04u, 0x00u, 0x00u, 0x00u, 0x00u, 0x00u, 0x02u, 0x24u, 0x04u, 0x04u, 0x04u, 0x04u, 0x11u, 0x11u
 610:Generated_Source\PSoC4/cyfitter_cfg.c **** 			0x00u, 0x00u, 0xC0u, 0x00u, 0x40u, 0x01u, 0x10u, 0x11u, 0xC0u, 0x01u, 0x00u, 0x11u, 0x40u, 0x01u
 611:Generated_Source\PSoC4/cyfitter_cfg.c **** 			0x00u, 0x00u, 0x00u, 0x00u, 0x00u, 0x00u, 0x00u, 0x00u, 0x00u, 0x00u, 0x00u, 0x00u, 0x00u, 0x00u
 612:Generated_Source\PSoC4/cyfitter_cfg.c **** 
 613:Generated_Source\PSoC4/cyfitter_cfg.c **** 		static const cfg_memcpy_t CYCODE cfg_memcpy_list [] = {
 614:Generated_Source\PSoC4/cyfitter_cfg.c **** 			/* dest, src, size */
 615:Generated_Source\PSoC4/cyfitter_cfg.c **** 			{(void CYFAR *)(CYDEV_UDB_P0_U1_BASE), BS_UDB_0_1_1_CONFIG_VAL, 128u},
 616:Generated_Source\PSoC4/cyfitter_cfg.c **** 		};
 617:Generated_Source\PSoC4/cyfitter_cfg.c **** 
 618:Generated_Source\PSoC4/cyfitter_cfg.c **** 		uint8 CYDATA i;
 619:Generated_Source\PSoC4/cyfitter_cfg.c **** 
 620:Generated_Source\PSoC4/cyfitter_cfg.c **** 		/* Zero out critical memory blocks before beginning configuration */
 621:Generated_Source\PSoC4/cyfitter_cfg.c **** 		for (i = 0u; i < (sizeof(cfg_memset_list)/sizeof(cfg_memset_list[0])); i++)
 365              		.loc 1 621 0
 366 0102 0024     		movs	r4, #0
 367 0104 0FE0     		b	.L15
 368              	.LVL26:
 369              	.L16:
 370              	.LBB4:
ARM GAS  C:\Users\dmr85\AppData\Local\Temp\ccajexNH.s 			page 19


 622:Generated_Source\PSoC4/cyfitter_cfg.c **** 		{
 623:Generated_Source\PSoC4/cyfitter_cfg.c **** 			const cfg_memset_t CYCODE * CYDATA ms = &cfg_memset_list[i];
 624:Generated_Source\PSoC4/cyfitter_cfg.c **** 			CYMEMZERO(ms->address, (size_t)(uint32)(ms->size));
 371              		.loc 1 624 0 discriminator 3
 372 0106 3D48     		ldr	r0, .L19+4
 373 0108 6200     		lsls	r2, r4, #1
 374 010a 1319     		adds	r3, r2, r4
 375 010c 5900     		lsls	r1, r3, #1
 376 010e 0B00     		movs	r3, r1
 377 0110 4118     		adds	r1, r0, r1
 378 0112 8988     		ldrh	r1, [r1, #4]
 379 0114 1A5A     		ldrh	r2, [r3, r0]
 380 0116 C318     		adds	r3, r0, r3
 381 0118 5888     		ldrh	r0, [r3, #2]
 382 011a 0004     		lsls	r0, r0, #16
 383 011c 1043     		orrs	r0, r2
 384 011e FFF7FEFF 		bl	CYMEMZERO
 385              	.LVL27:
 386              	.LBE4:
 621:Generated_Source\PSoC4/cyfitter_cfg.c **** 		{
 387              		.loc 1 621 0 discriminator 3
 388 0122 0134     		adds	r4, r4, #1
 389              	.LVL28:
 390 0124 E4B2     		uxtb	r4, r4
 391              	.LVL29:
 392              	.L15:
 621:Generated_Source\PSoC4/cyfitter_cfg.c **** 		{
 393              		.loc 1 621 0 is_stmt 0 discriminator 1
 394 0126 022C     		cmp	r4, #2
 395 0128 EDD9     		bls	.L16
 396 012a 0024     		movs	r4, #0
 397              	.LVL30:
 398 012c 11E0     		b	.L17
 399              	.LVL31:
 400              	.L18:
 401              	.LBB5:
 625:Generated_Source\PSoC4/cyfitter_cfg.c **** 		}
 626:Generated_Source\PSoC4/cyfitter_cfg.c **** 
 627:Generated_Source\PSoC4/cyfitter_cfg.c **** 		/* Copy device configuration data into registers */
 628:Generated_Source\PSoC4/cyfitter_cfg.c **** 		for (i = 0u; i < (sizeof(cfg_memcpy_list)/sizeof(cfg_memcpy_list[0])); i++)
 629:Generated_Source\PSoC4/cyfitter_cfg.c **** 		{
 630:Generated_Source\PSoC4/cyfitter_cfg.c **** 			const cfg_memcpy_t CYCODE * CYDATA mc = &cfg_memcpy_list[i];
 631:Generated_Source\PSoC4/cyfitter_cfg.c **** 			void * CYDATA destPtr = mc->dest;
 402              		.loc 1 631 0 is_stmt 1 discriminator 3
 403 012e 334E     		ldr	r6, .L19+4
 404 0130 A200     		lsls	r2, r4, #2
 405 0132 1319     		adds	r3, r2, r4
 406 0134 5900     		lsls	r1, r3, #1
 407 0136 7118     		adds	r1, r6, r1
 408 0138 8D8A     		ldrh	r5, [r1, #20]
 409 013a C88A     		ldrh	r0, [r1, #22]
 410 013c 0004     		lsls	r0, r0, #16
 411 013e 2843     		orrs	r0, r5
 412              	.LVL32:
 632:Generated_Source\PSoC4/cyfitter_cfg.c **** 			const void CYCODE * CYDATA srcPtr = mc->src;
 413              		.loc 1 632 0 discriminator 3
 414 0140 0A8B     		ldrh	r2, [r1, #24]
ARM GAS  C:\Users\dmr85\AppData\Local\Temp\ccajexNH.s 			page 20


 415 0142 498B     		ldrh	r1, [r1, #26]
 416 0144 0904     		lsls	r1, r1, #16
 417 0146 1143     		orrs	r1, r2
 418              	.LVL33:
 633:Generated_Source\PSoC4/cyfitter_cfg.c **** 			uint16 CYDATA numBytes = mc->size;
 634:Generated_Source\PSoC4/cyfitter_cfg.c **** 			CYCONFIGCPYCODE(destPtr, srcPtr, numBytes);
 419              		.loc 1 634 0 discriminator 3
 420 0148 8022     		movs	r2, #128
 421 014a FFF7FEFF 		bl	CYCONFIGCPYCODE
 422              	.LVL34:
 423              	.LBE5:
 628:Generated_Source\PSoC4/cyfitter_cfg.c **** 		{
 424              		.loc 1 628 0 discriminator 3
 425 014e 0134     		adds	r4, r4, #1
 426              	.LVL35:
 427 0150 E4B2     		uxtb	r4, r4
 428              	.LVL36:
 429              	.L17:
 628:Generated_Source\PSoC4/cyfitter_cfg.c **** 		{
 430              		.loc 1 628 0 is_stmt 0 discriminator 1
 431 0152 002C     		cmp	r4, #0
 432 0154 EBD0     		beq	.L18
 635:Generated_Source\PSoC4/cyfitter_cfg.c **** 		}
 636:Generated_Source\PSoC4/cyfitter_cfg.c **** 
 637:Generated_Source\PSoC4/cyfitter_cfg.c **** 		cfg_write_bytes32(cy_cfg_addr_table, cy_cfg_data_table);
 433              		.loc 1 637 0 is_stmt 1
 434 0156 2949     		ldr	r1, .L19+4
 435 0158 2031     		adds	r1, r1, #32
 436 015a 2948     		ldr	r0, .L19+8
 437 015c 0C30     		adds	r0, r0, #12
 438 015e FFF7FEFF 		bl	cfg_write_bytes32
 439              	.LVL37:
 638:Generated_Source\PSoC4/cyfitter_cfg.c **** 
 639:Generated_Source\PSoC4/cyfitter_cfg.c **** 		/* HSIOM Starting address: CYDEV_HSIOM_BASE */
 640:Generated_Source\PSoC4/cyfitter_cfg.c **** 		CY_SET_REG32((void *)(CYDEV_HSIOM_BASE), 0xEE300000u);
 440              		.loc 1 640 0
 441 0162 284A     		ldr	r2, .L19+12
 442 0164 284B     		ldr	r3, .L19+16
 443 0166 1A60     		str	r2, [r3]
 641:Generated_Source\PSoC4/cyfitter_cfg.c **** 		CY_SET_REG32((void *)(CYREG_HSIOM_PORT_SEL1), 0x00003003u);
 444              		.loc 1 641 0
 445 0168 284A     		ldr	r2, .L19+20
 446 016a 294B     		ldr	r3, .L19+24
 447 016c 1A60     		str	r2, [r3]
 642:Generated_Source\PSoC4/cyfitter_cfg.c **** 		CY_SET_REG32((void *)(CYREG_HSIOM_PORT_SEL3), 0x30000000u);
 448              		.loc 1 642 0
 449 016e C022     		movs	r2, #192
 450 0170 9205     		lsls	r2, r2, #22
 451 0172 284B     		ldr	r3, .L19+28
 452 0174 1A60     		str	r2, [r3]
 643:Generated_Source\PSoC4/cyfitter_cfg.c **** 
 644:Generated_Source\PSoC4/cyfitter_cfg.c **** 		/* UDB_PA_0 Starting address: CYDEV_UDB_PA0_BASE */
 645:Generated_Source\PSoC4/cyfitter_cfg.c **** 		CY_SET_REG32((void *)(CYDEV_UDB_PA0_BASE), 0x00990000u);
 453              		.loc 1 645 0
 454 0176 9923     		movs	r3, #153
 455 0178 1B04     		lsls	r3, r3, #16
 456 017a 274A     		ldr	r2, .L19+32
ARM GAS  C:\Users\dmr85\AppData\Local\Temp\ccajexNH.s 			page 21


 457 017c 1360     		str	r3, [r2]
 646:Generated_Source\PSoC4/cyfitter_cfg.c **** 		CY_SET_REG32((void *)(CYREG_UDB_PA0_CFG8), 0x08000000u);
 458              		.loc 1 646 0
 459 017e 8021     		movs	r1, #128
 460 0180 0905     		lsls	r1, r1, #20
 461 0182 264A     		ldr	r2, .L19+36
 462 0184 1160     		str	r1, [r2]
 647:Generated_Source\PSoC4/cyfitter_cfg.c **** 
 648:Generated_Source\PSoC4/cyfitter_cfg.c **** 		/* UDB_PA_1 Starting address: CYDEV_UDB_PA1_BASE */
 649:Generated_Source\PSoC4/cyfitter_cfg.c **** 		CY_SET_REG32((void *)(CYDEV_UDB_PA1_BASE), 0x00990000u);
 463              		.loc 1 649 0
 464 0186 264A     		ldr	r2, .L19+40
 465 0188 1360     		str	r3, [r2]
 650:Generated_Source\PSoC4/cyfitter_cfg.c **** 		CY_SET_REG32((void *)(CYREG_UDB_PA1_CFG8), 0x00420000u);
 466              		.loc 1 650 0
 467 018a 8421     		movs	r1, #132
 468 018c C903     		lsls	r1, r1, #15
 469 018e 254A     		ldr	r2, .L19+44
 470 0190 1160     		str	r1, [r2]
 651:Generated_Source\PSoC4/cyfitter_cfg.c **** 
 652:Generated_Source\PSoC4/cyfitter_cfg.c **** 		/* UDB_PA_2 Starting address: CYDEV_UDB_PA2_BASE */
 653:Generated_Source\PSoC4/cyfitter_cfg.c **** 		CY_SET_REG32((void *)(CYDEV_UDB_PA2_BASE), 0x00990000u);
 471              		.loc 1 653 0
 472 0192 254A     		ldr	r2, .L19+48
 473 0194 1360     		str	r3, [r2]
 654:Generated_Source\PSoC4/cyfitter_cfg.c **** 
 655:Generated_Source\PSoC4/cyfitter_cfg.c **** 		/* UDB_PA_3 Starting address: CYDEV_UDB_PA3_BASE */
 656:Generated_Source\PSoC4/cyfitter_cfg.c **** 		CY_SET_REG32((void *)(CYDEV_UDB_PA3_BASE), 0x00990000u);
 474              		.loc 1 656 0
 475 0196 254A     		ldr	r2, .L19+52
 476 0198 1360     		str	r3, [r2]
 657:Generated_Source\PSoC4/cyfitter_cfg.c **** 		CY_SET_REG32((void *)(CYREG_UDB_PA3_CFG8), 0x80000000u);
 477              		.loc 1 657 0
 478 019a 8022     		movs	r2, #128
 479 019c 1206     		lsls	r2, r2, #24
 480 019e 244B     		ldr	r3, .L19+56
 481 01a0 1A60     		str	r2, [r3]
 658:Generated_Source\PSoC4/cyfitter_cfg.c **** 
 659:Generated_Source\PSoC4/cyfitter_cfg.c **** 		/* Enable UDB array and digital routing */
 660:Generated_Source\PSoC4/cyfitter_cfg.c **** 		CY_SET_XTND_REG8((void *)CYREG_UDB_UDBIF_WAIT_CFG, (uint8)((CY_GET_XTND_REG8((void *)CYREG_UDB_UD
 482              		.loc 1 660 0
 483 01a2 2449     		ldr	r1, .L19+60
 484 01a4 0B78     		ldrb	r3, [r1]
 485 01a6 3C22     		movs	r2, #60
 486 01a8 9343     		bics	r3, r2
 487 01aa 1422     		movs	r2, #20
 488 01ac 1343     		orrs	r3, r2
 489 01ae DBB2     		uxtb	r3, r3
 490 01b0 0B70     		strb	r3, [r1]
 661:Generated_Source\PSoC4/cyfitter_cfg.c **** 		CY_SET_XTND_REG8((void *)CYREG_UDB_UDBIF_BANK_CTL, (uint8)(CY_GET_XTND_REG8((void *)CYREG_UDB_UDB
 491              		.loc 1 661 0
 492 01b2 214A     		ldr	r2, .L19+64
 493 01b4 1178     		ldrb	r1, [r2]
 494 01b6 1623     		movs	r3, #22
 495 01b8 0B43     		orrs	r3, r1
 496 01ba DBB2     		uxtb	r3, r3
 497 01bc 1370     		strb	r3, [r2]
ARM GAS  C:\Users\dmr85\AppData\Local\Temp\ccajexNH.s 			page 22


 498              	.LBE3:
 662:Generated_Source\PSoC4/cyfitter_cfg.c **** 	}
 663:Generated_Source\PSoC4/cyfitter_cfg.c **** 
 664:Generated_Source\PSoC4/cyfitter_cfg.c **** 	/* Perform second pass device configuration. These items must be configured in specific order afte
 665:Generated_Source\PSoC4/cyfitter_cfg.c **** 	/* IOPINS0_0 Starting address: CYDEV_GPIO_PRT0_BASE */
 666:Generated_Source\PSoC4/cyfitter_cfg.c **** 	CY_SET_REG32((void *)(CYDEV_GPIO_PRT0_BASE), 0x00000020u);
 499              		.loc 1 666 0
 500 01be 2022     		movs	r2, #32
 501 01c0 1E4B     		ldr	r3, .L19+68
 502 01c2 1A60     		str	r2, [r3]
 667:Generated_Source\PSoC4/cyfitter_cfg.c **** 	CY_SET_REG32((void *)(CYREG_GPIO_PRT0_PC), 0x00DB0000u);
 503              		.loc 1 667 0
 504 01c4 DB22     		movs	r2, #219
 505 01c6 1204     		lsls	r2, r2, #16
 506 01c8 1D4B     		ldr	r3, .L19+72
 507 01ca 1A60     		str	r2, [r3]
 668:Generated_Source\PSoC4/cyfitter_cfg.c **** 
 669:Generated_Source\PSoC4/cyfitter_cfg.c **** 	/* IOPINS0_1 Starting address: CYDEV_GPIO_PRT1_BASE */
 670:Generated_Source\PSoC4/cyfitter_cfg.c **** 	CY_SET_REG32((void *)(CYDEV_GPIO_PRT1_BASE), 0x00000009u);
 508              		.loc 1 670 0
 509 01cc 0922     		movs	r2, #9
 510 01ce 1D4B     		ldr	r3, .L19+76
 511 01d0 1A60     		str	r2, [r3]
 671:Generated_Source\PSoC4/cyfitter_cfg.c **** 	CY_SET_REG32((void *)(CYREG_GPIO_PRT1_PC), 0x00000C46u);
 512              		.loc 1 671 0
 513 01d2 1D4A     		ldr	r2, .L19+80
 514 01d4 1D4B     		ldr	r3, .L19+84
 515 01d6 1A60     		str	r2, [r3]
 672:Generated_Source\PSoC4/cyfitter_cfg.c **** 
 673:Generated_Source\PSoC4/cyfitter_cfg.c **** 	/* IOPINS0_2 Starting address: CYDEV_GPIO_PRT2_BASE */
 674:Generated_Source\PSoC4/cyfitter_cfg.c **** 	CY_SET_REG32((void *)(CYREG_GPIO_PRT2_PC), 0x00180000u);
 516              		.loc 1 674 0
 517 01d8 C022     		movs	r2, #192
 518 01da 5203     		lsls	r2, r2, #13
 519 01dc 1C4B     		ldr	r3, .L19+88
 520 01de 1A60     		str	r2, [r3]
 675:Generated_Source\PSoC4/cyfitter_cfg.c **** 
 676:Generated_Source\PSoC4/cyfitter_cfg.c **** 	/* IOPINS0_3 Starting address: CYDEV_GPIO_PRT3_BASE */
 677:Generated_Source\PSoC4/cyfitter_cfg.c **** 	CY_SET_REG32((void *)(CYDEV_GPIO_PRT3_BASE), 0x00000080u);
 521              		.loc 1 677 0
 522 01e0 8022     		movs	r2, #128
 523 01e2 1C4B     		ldr	r3, .L19+92
 524 01e4 1A60     		str	r2, [r3]
 678:Generated_Source\PSoC4/cyfitter_cfg.c **** 	CY_SET_REG32((void *)(CYREG_GPIO_PRT3_PC), 0x00C00000u);
 525              		.loc 1 678 0
 526 01e6 C022     		movs	r2, #192
 527 01e8 1204     		lsls	r2, r2, #16
 528 01ea 1B4B     		ldr	r3, .L19+96
 529 01ec 1A60     		str	r2, [r3]
 679:Generated_Source\PSoC4/cyfitter_cfg.c **** 
 680:Generated_Source\PSoC4/cyfitter_cfg.c **** 
 681:Generated_Source\PSoC4/cyfitter_cfg.c **** 	/* Setup clocks based on selections from Clock DWR */
 682:Generated_Source\PSoC4/cyfitter_cfg.c **** 	ClockSetup();
 530              		.loc 1 682 0
 531 01ee FFF707FF 		bl	ClockSetup
 532              	.LVL38:
 683:Generated_Source\PSoC4/cyfitter_cfg.c **** 
ARM GAS  C:\Users\dmr85\AppData\Local\Temp\ccajexNH.s 			page 23


 684:Generated_Source\PSoC4/cyfitter_cfg.c **** 	/* Perform basic analog initialization to defaults */
 685:Generated_Source\PSoC4/cyfitter_cfg.c **** 	AnalogSetDefault();
 533              		.loc 1 685 0
 534 01f2 FFF7FEFF 		bl	AnalogSetDefault
 535              	.LVL39:
 686:Generated_Source\PSoC4/cyfitter_cfg.c **** 
 687:Generated_Source\PSoC4/cyfitter_cfg.c **** }
 536              		.loc 1 687 0
 537              		@ sp needed
 538              	.LVL40:
 539 01f6 70BD     		pop	{r4, r5, r6, pc}
 540              	.L20:
 541              		.align	2
 542              	.L19:
 543 01f8 6CF02E40 		.word	1076818028
 544 01fc 00000000 		.word	.LANCHOR0
 545 0200 00020000 		.word	.LANCHOR1
 546 0204 000030EE 		.word	-298844160
 547 0208 00000240 		.word	1073872896
 548 020c 03300000 		.word	12291
 549 0210 00010240 		.word	1073873152
 550 0214 00030240 		.word	1073873664
 551 0218 00500F40 		.word	1074745344
 552 021c 08500F40 		.word	1074745352
 553 0220 10500F40 		.word	1074745360
 554 0224 18500F40 		.word	1074745368
 555 0228 20500F40 		.word	1074745376
 556 022c 30500F40 		.word	1074745392
 557 0230 38500F40 		.word	1074745400
 558 0234 01700F40 		.word	1074753537
 559 0238 00700F40 		.word	1074753536
 560 023c 00000440 		.word	1074003968
 561 0240 08000440 		.word	1074003976
 562 0244 00010440 		.word	1074004224
 563 0248 460C0000 		.word	3142
 564 024c 08010440 		.word	1074004232
 565 0250 08020440 		.word	1074004488
 566 0254 00030440 		.word	1074004736
 567 0258 08030440 		.word	1074004744
 568              		.cfi_endproc
 569              	.LFE8:
 570              		.size	cyfitter_cfg, .-cyfitter_cfg
 571              		.section	.rodata
 572              		.align	2
 573              		.set	.LANCHOR0,. + 0
 574              		.set	.LANCHOR1,. + 512
 575              		.type	cfg_memset_list.4921, %object
 576              		.size	cfg_memset_list.4921, 18
 577              	cfg_memset_list.4921:
 578 0000 00300F40 		.word	1074737152
 579 0004 8000     		.short	128
 580 0006 00310F40 		.4byte	1074737408
 581 000a 0003     		.short	768
 582 000c 00400F40 		.word	1074741248
 583 0010 0004     		.short	1024
 584 0012 0000     		.space	2
 585              		.type	cfg_memcpy_list.4923, %object
ARM GAS  C:\Users\dmr85\AppData\Local\Temp\ccajexNH.s 			page 24


 586              		.size	cfg_memcpy_list.4923, 10
 587              	cfg_memcpy_list.4923:
 588 0014 80300F40 		.word	1074737280
 589 0018 30020000 		.word	BS_UDB_0_1_1_CONFIG_VAL.4922
 590 001c 8000     		.short	128
 591 001e 0000     		.space	2
 592              		.type	cy_cfg_data_table.4911, %object
 593              		.size	cy_cfg_data_table.4911, 492
 594              	cy_cfg_data_table.4911:
 595 0020 81       		.byte	-127
 596 0021 0F       		.byte	15
 597 0022 83       		.byte	-125
 598 0023 0D       		.byte	13
 599 0024 54       		.byte	84
 600 0025 09       		.byte	9
 601 0026 5B       		.byte	91
 602 0027 04       		.byte	4
 603 0028 5D       		.byte	93
 604 0029 10       		.byte	16
 605 002a 5F       		.byte	95
 606 002b 01       		.byte	1
 607 002c 04       		.byte	4
 608 002d 24       		.byte	36
 609 002e 05       		.byte	5
 610 002f 40       		.byte	64
 611 0030 07       		.byte	7
 612 0031 40       		.byte	64
 613 0032 0E       		.byte	14
 614 0033 A0       		.byte	-96
 615 0034 0F       		.byte	15
 616 0035 02       		.byte	2
 617 0036 16       		.byte	22
 618 0037 02       		.byte	2
 619 0038 17       		.byte	23
 620 0039 15       		.byte	21
 621 003a 1C       		.byte	28
 622 003b 05       		.byte	5
 623 003c 1D       		.byte	29
 624 003d 08       		.byte	8
 625 003e 1E       		.byte	30
 626 003f 40       		.byte	64
 627 0040 24       		.byte	36
 628 0041 28       		.byte	40
 629 0042 25       		.byte	37
 630 0043 20       		.byte	32
 631 0044 26       		.byte	38
 632 0045 50       		.byte	80
 633 0046 27       		.byte	39
 634 0047 2A       		.byte	42
 635 0048 2F       		.byte	47
 636 0049 42       		.byte	66
 637 004a 36       		.byte	54
 638 004b 41       		.byte	65
 639 004c 37       		.byte	55
 640 004d 28       		.byte	40
 641 004e 3D       		.byte	61
 642 004f 24       		.byte	36
ARM GAS  C:\Users\dmr85\AppData\Local\Temp\ccajexNH.s 			page 25


 643 0050 3E       		.byte	62
 644 0051 02       		.byte	2
 645 0052 3F       		.byte	63
 646 0053 80       		.byte	-128
 647 0054 40       		.byte	64
 648 0055 08       		.byte	8
 649 0056 42       		.byte	66
 650 0057 08       		.byte	8
 651 0058 45       		.byte	69
 652 0059 08       		.byte	8
 653 005a 47       		.byte	71
 654 005b 22       		.byte	34
 655 005c 4C       		.byte	76
 656 005d 04       		.byte	4
 657 005e 4D       		.byte	77
 658 005f 48       		.byte	72
 659 0060 4F       		.byte	79
 660 0061 02       		.byte	2
 661 0062 55       		.byte	85
 662 0063 80       		.byte	-128
 663 0064 56       		.byte	86
 664 0065 08       		.byte	8
 665 0066 57       		.byte	87
 666 0067 50       		.byte	80
 667 0068 58       		.byte	88
 668 0069 11       		.byte	17
 669 006a 59       		.byte	89
 670 006b 08       		.byte	8
 671 006c 5A       		.byte	90
 672 006d 40       		.byte	64
 673 006e 60       		.byte	96
 674 006f 01       		.byte	1
 675 0070 65       		.byte	101
 676 0071 20       		.byte	32
 677 0072 6C       		.byte	108
 678 0073 01       		.byte	1
 679 0074 6D       		.byte	109
 680 0075 34       		.byte	52
 681 0076 6E       		.byte	110
 682 0077 02       		.byte	2
 683 0078 6F       		.byte	111
 684 0079 57       		.byte	87
 685 007a 76       		.byte	118
 686 007b 02       		.byte	2
 687 007c 84       		.byte	-124
 688 007d 01       		.byte	1
 689 007e 85       		.byte	-123
 690 007f 08       		.byte	8
 691 0080 C0       		.byte	-64
 692 0081 F0       		.byte	-16
 693 0082 C2       		.byte	-62
 694 0083 B0       		.byte	-80
 695 0084 C4       		.byte	-60
 696 0085 F0       		.byte	-16
 697 0086 CA       		.byte	-54
 698 0087 90       		.byte	-112
 699 0088 CC       		.byte	-52
ARM GAS  C:\Users\dmr85\AppData\Local\Temp\ccajexNH.s 			page 26


 700 0089 F0       		.byte	-16
 701 008a CE       		.byte	-50
 702 008b F0       		.byte	-16
 703 008c D0       		.byte	-48
 704 008d E0       		.byte	-32
 705 008e D2       		.byte	-46
 706 008f 30       		.byte	48
 707 0090 D6       		.byte	-42
 708 0091 0F       		.byte	15
 709 0092 D8       		.byte	-40
 710 0093 28       		.byte	40
 711 0094 00       		.byte	0
 712 0095 4D       		.byte	77
 713 0096 02       		.byte	2
 714 0097 80       		.byte	-128
 715 0098 04       		.byte	4
 716 0099 12       		.byte	18
 717 009a 06       		.byte	6
 718 009b 64       		.byte	100
 719 009c 09       		.byte	9
 720 009d 0E       		.byte	14
 721 009e 0C       		.byte	12
 722 009f 10       		.byte	16
 723 00a0 0E       		.byte	14
 724 00a1 60       		.byte	96
 725 00a2 0F       		.byte	15
 726 00a3 20       		.byte	32
 727 00a4 10       		.byte	16
 728 00a5 02       		.byte	2
 729 00a6 11       		.byte	17
 730 00a7 04       		.byte	4
 731 00a8 12       		.byte	18
 732 00a9 0D       		.byte	13
 733 00aa 13       		.byte	19
 734 00ab 39       		.byte	57
 735 00ac 15       		.byte	21
 736 00ad 13       		.byte	19
 737 00ae 16       		.byte	22
 738 00af 80       		.byte	-128
 739 00b0 17       		.byte	23
 740 00b1 04       		.byte	4
 741 00b2 18       		.byte	24
 742 00b3 01       		.byte	1
 743 00b4 19       		.byte	25
 744 00b5 05       		.byte	5
 745 00b6 1A       		.byte	26
 746 00b7 32       		.byte	50
 747 00b8 1B       		.byte	27
 748 00b9 3A       		.byte	58
 749 00ba 1C       		.byte	28
 750 00bb CD       		.byte	-51
 751 00bc 20       		.byte	32
 752 00bd 72       		.byte	114
 753 00be 22       		.byte	34
 754 00bf 08       		.byte	8
 755 00c0 24       		.byte	36
 756 00c1 CD       		.byte	-51
ARM GAS  C:\Users\dmr85\AppData\Local\Temp\ccajexNH.s 			page 27


 757 00c2 28       		.byte	40
 758 00c3 8D       		.byte	-115
 759 00c4 2A       		.byte	42
 760 00c5 40       		.byte	64
 761 00c6 2C       		.byte	44
 762 00c7 CD       		.byte	-51
 763 00c8 30       		.byte	48
 764 00c9 0F       		.byte	15
 765 00ca 34       		.byte	52
 766 00cb 80       		.byte	-128
 767 00cc 35       		.byte	53
 768 00cd 0F       		.byte	15
 769 00ce 36       		.byte	54
 770 00cf 70       		.byte	112
 771 00d0 37       		.byte	55
 772 00d1 30       		.byte	48
 773 00d2 39       		.byte	57
 774 00d3 20       		.byte	32
 775 00d4 3A       		.byte	58
 776 00d5 82       		.byte	-126
 777 00d6 3E       		.byte	62
 778 00d7 10       		.byte	16
 779 00d8 54       		.byte	84
 780 00d9 40       		.byte	64
 781 00da 58       		.byte	88
 782 00db 04       		.byte	4
 783 00dc 59       		.byte	89
 784 00dd 04       		.byte	4
 785 00de 5B       		.byte	91
 786 00df 04       		.byte	4
 787 00e0 5C       		.byte	92
 788 00e1 11       		.byte	17
 789 00e2 5D       		.byte	93
 790 00e3 10       		.byte	16
 791 00e4 5F       		.byte	95
 792 00e5 01       		.byte	1
 793 00e6 81       		.byte	-127
 794 00e7 08       		.byte	8
 795 00e8 86       		.byte	-122
 796 00e9 10       		.byte	16
 797 00ea 88       		.byte	-120
 798 00eb 02       		.byte	2
 799 00ec 8A       		.byte	-118
 800 00ed 0D       		.byte	13
 801 00ee 8B       		.byte	-117
 802 00ef 01       		.byte	1
 803 00f0 8F       		.byte	-113
 804 00f1 0D       		.byte	13
 805 00f2 92       		.byte	-110
 806 00f3 10       		.byte	16
 807 00f4 94       		.byte	-108
 808 00f5 20       		.byte	32
 809 00f6 98       		.byte	-104
 810 00f7 03       		.byte	3
 811 00f8 9A       		.byte	-102
 812 00f9 0C       		.byte	12
 813 00fa A0       		.byte	-96
ARM GAS  C:\Users\dmr85\AppData\Local\Temp\ccajexNH.s 			page 28


 814 00fb 09       		.byte	9
 815 00fc A2       		.byte	-94
 816 00fd 06       		.byte	6
 817 00fe A8       		.byte	-88
 818 00ff 05       		.byte	5
 819 0100 AA       		.byte	-86
 820 0101 0A       		.byte	10
 821 0102 AF       		.byte	-81
 822 0103 02       		.byte	2
 823 0104 B0       		.byte	-80
 824 0105 20       		.byte	32
 825 0106 B1       		.byte	-79
 826 0107 04       		.byte	4
 827 0108 B2       		.byte	-78
 828 0109 10       		.byte	16
 829 010a B3       		.byte	-77
 830 010b 01       		.byte	1
 831 010c B4       		.byte	-76
 832 010d 0F       		.byte	15
 833 010e B5       		.byte	-75
 834 010f 02       		.byte	2
 835 0110 B7       		.byte	-73
 836 0111 08       		.byte	8
 837 0112 BA       		.byte	-70
 838 0113 20       		.byte	32
 839 0114 BE       		.byte	-66
 840 0115 05       		.byte	5
 841 0116 C0       		.byte	-64
 842 0117 60       		.byte	96
 843 0118 C1       		.byte	-63
 844 0119 03       		.byte	3
 845 011a C5       		.byte	-59
 846 011b D0       		.byte	-48
 847 011c C6       		.byte	-58
 848 011d 01       		.byte	1
 849 011e C7       		.byte	-57
 850 011f 02       		.byte	2
 851 0120 C8       		.byte	-56
 852 0121 16       		.byte	22
 853 0122 C9       		.byte	-55
 854 0123 FF       		.byte	-1
 855 0124 CA       		.byte	-54
 856 0125 FF       		.byte	-1
 857 0126 CB       		.byte	-53
 858 0127 FF       		.byte	-1
 859 0128 CD       		.byte	-51
 860 0129 A0       		.byte	-96
 861 012a CF       		.byte	-49
 862 012b 04       		.byte	4
 863 012c D0       		.byte	-48
 864 012d 18       		.byte	24
 865 012e D2       		.byte	-46
 866 012f 80       		.byte	-128
 867 0130 D4       		.byte	-44
 868 0131 05       		.byte	5
 869 0132 D8       		.byte	-40
 870 0133 04       		.byte	4
ARM GAS  C:\Users\dmr85\AppData\Local\Temp\ccajexNH.s 			page 29


 871 0134 D9       		.byte	-39
 872 0135 04       		.byte	4
 873 0136 DA       		.byte	-38
 874 0137 04       		.byte	4
 875 0138 DB       		.byte	-37
 876 0139 04       		.byte	4
 877 013a DC       		.byte	-36
 878 013b 31       		.byte	49
 879 013c DD       		.byte	-35
 880 013d 33       		.byte	51
 881 013e DF       		.byte	-33
 882 013f 01       		.byte	1
 883 0140 E0       		.byte	-32
 884 0141 40       		.byte	64
 885 0142 E2       		.byte	-30
 886 0143 C0       		.byte	-64
 887 0144 E4       		.byte	-28
 888 0145 40       		.byte	64
 889 0146 E5       		.byte	-27
 890 0147 40       		.byte	64
 891 0148 E6       		.byte	-26
 892 0149 C0       		.byte	-64
 893 014a E8       		.byte	-24
 894 014b C0       		.byte	-64
 895 014c EA       		.byte	-22
 896 014d C0       		.byte	-64
 897 014e EC       		.byte	-20
 898 014f C0       		.byte	-64
 899 0150 EE       		.byte	-18
 900 0151 C0       		.byte	-64
 901 0152 00       		.byte	0
 902 0153 08       		.byte	8
 903 0154 01       		.byte	1
 904 0155 20       		.byte	32
 905 0156 04       		.byte	4
 906 0157 02       		.byte	2
 907 0158 05       		.byte	5
 908 0159 40       		.byte	64
 909 015a 07       		.byte	7
 910 015b 20       		.byte	32
 911 015c 08       		.byte	8
 912 015d 02       		.byte	2
 913 015e 09       		.byte	9
 914 015f 20       		.byte	32
 915 0160 0B       		.byte	11
 916 0161 10       		.byte	16
 917 0162 0D       		.byte	13
 918 0163 24       		.byte	36
 919 0164 0E       		.byte	14
 920 0165 42       		.byte	66
 921 0166 0F       		.byte	15
 922 0167 20       		.byte	32
 923 0168 13       		.byte	19
 924 0169 22       		.byte	34
 925 016a 15       		.byte	21
 926 016b 14       		.byte	20
 927 016c 16       		.byte	22
ARM GAS  C:\Users\dmr85\AppData\Local\Temp\ccajexNH.s 			page 30


 928 016d 02       		.byte	2
 929 016e 17       		.byte	23
 930 016f 02       		.byte	2
 931 0170 19       		.byte	25
 932 0171 26       		.byte	38
 933 0172 1D       		.byte	29
 934 0173 40       		.byte	64
 935 0174 1E       		.byte	30
 936 0175 40       		.byte	64
 937 0176 1F       		.byte	31
 938 0177 50       		.byte	80
 939 0178 20       		.byte	32
 940 0179 08       		.byte	8
 941 017a 21       		.byte	33
 942 017b 11       		.byte	17
 943 017c 22       		.byte	34
 944 017d 40       		.byte	64
 945 017e 23       		.byte	35
 946 017f 10       		.byte	16
 947 0180 25       		.byte	37
 948 0181 50       		.byte	80
 949 0182 26       		.byte	38
 950 0183 20       		.byte	32
 951 0184 2A       		.byte	42
 952 0185 80       		.byte	-128
 953 0186 37       		.byte	55
 954 0187 2A       		.byte	42
 955 0188 39       		.byte	57
 956 0189 22       		.byte	34
 957 018a 3A       		.byte	58
 958 018b 40       		.byte	64
 959 018c 3D       		.byte	61
 960 018d A0       		.byte	-96
 961 018e 43       		.byte	67
 962 018f 08       		.byte	8
 963 0190 48       		.byte	72
 964 0191 04       		.byte	4
 965 0192 49       		.byte	73
 966 0193 01       		.byte	1
 967 0194 52       		.byte	82
 968 0195 40       		.byte	64
 969 0196 53       		.byte	83
 970 0197 08       		.byte	8
 971 0198 59       		.byte	89
 972 0199 05       		.byte	5
 973 019a 5A       		.byte	90
 974 019b 80       		.byte	-128
 975 019c 64       		.byte	100
 976 019d 08       		.byte	8
 977 019e 65       		.byte	101
 978 019f 80       		.byte	-128
 979 01a0 67       		.byte	103
 980 01a1 20       		.byte	32
 981 01a2 72       		.byte	114
 982 01a3 80       		.byte	-128
 983 01a4 81       		.byte	-127
 984 01a5 40       		.byte	64
ARM GAS  C:\Users\dmr85\AppData\Local\Temp\ccajexNH.s 			page 31


 985 01a6 85       		.byte	-123
 986 01a7 84       		.byte	-124
 987 01a8 88       		.byte	-120
 988 01a9 02       		.byte	2
 989 01aa 89       		.byte	-119
 990 01ab 40       		.byte	64
 991 01ac 8B       		.byte	-117
 992 01ad 08       		.byte	8
 993 01ae 8D       		.byte	-115
 994 01af 02       		.byte	2
 995 01b0 8E       		.byte	-114
 996 01b1 20       		.byte	32
 997 01b2 90       		.byte	-112
 998 01b3 02       		.byte	2
 999 01b4 91       		.byte	-111
 1000 01b5 14       		.byte	20
 1001 01b6 95       		.byte	-107
 1002 01b7 40       		.byte	64
 1003 01b8 97       		.byte	-105
 1004 01b9 80       		.byte	-128
 1005 01ba 98       		.byte	-104
 1006 01bb 08       		.byte	8
 1007 01bc 9A       		.byte	-102
 1008 01bd 02       		.byte	2
 1009 01be 9B       		.byte	-101
 1010 01bf 2A       		.byte	42
 1011 01c0 9D       		.byte	-99
 1012 01c1 60       		.byte	96
 1013 01c2 A1       		.byte	-95
 1014 01c3 20       		.byte	32
 1015 01c4 A2       		.byte	-94
 1016 01c5 01       		.byte	1
 1017 01c6 A3       		.byte	-93
 1018 01c7 10       		.byte	16
 1019 01c8 B0       		.byte	-80
 1020 01c9 10       		.byte	16
 1021 01ca B1       		.byte	-79
 1022 01cb 80       		.byte	-128
 1023 01cc B4       		.byte	-76
 1024 01cd 04       		.byte	4
 1025 01ce C0       		.byte	-64
 1026 01cf B6       		.byte	-74
 1027 01d0 C2       		.byte	-62
 1028 01d1 FE       		.byte	-2
 1029 01d2 C4       		.byte	-60
 1030 01d3 FA       		.byte	-6
 1031 01d4 CA       		.byte	-54
 1032 01d5 08       		.byte	8
 1033 01d6 CC       		.byte	-52
 1034 01d7 E0       		.byte	-32
 1035 01d8 CE       		.byte	-50
 1036 01d9 3D       		.byte	61
 1037 01da D0       		.byte	-48
 1038 01db 02       		.byte	2
 1039 01dc D2       		.byte	-46
 1040 01dd 04       		.byte	4
 1041 01de D6       		.byte	-42
ARM GAS  C:\Users\dmr85\AppData\Local\Temp\ccajexNH.s 			page 32


 1042 01df 0B       		.byte	11
 1043 01e0 D8       		.byte	-40
 1044 01e1 70       		.byte	112
 1045 01e2 E2       		.byte	-30
 1046 01e3 10       		.byte	16
 1047 01e4 E6       		.byte	-26
 1048 01e5 20       		.byte	32
 1049 01e6 EE       		.byte	-18
 1050 01e7 40       		.byte	64
 1051 01e8 62       		.byte	98
 1052 01e9 01       		.byte	1
 1053 01ea D8       		.byte	-40
 1054 01eb 40       		.byte	64
 1055 01ec 00       		.byte	0
 1056 01ed 40       		.byte	64
 1057 01ee 57       		.byte	87
 1058 01ef 10       		.byte	16
 1059 01f0 5B       		.byte	91
 1060 01f1 20       		.byte	32
 1061 01f2 80       		.byte	-128
 1062 01f3 40       		.byte	64
 1063 01f4 8B       		.byte	-117
 1064 01f5 20       		.byte	32
 1065 01f6 8F       		.byte	-113
 1066 01f7 10       		.byte	16
 1067 01f8 B6       		.byte	-74
 1068 01f9 01       		.byte	1
 1069 01fa C0       		.byte	-64
 1070 01fb 40       		.byte	64
 1071 01fc D4       		.byte	-44
 1072 01fd C0       		.byte	-64
 1073 01fe E4       		.byte	-28
 1074 01ff 20       		.byte	32
 1075 0200 63       		.byte	99
 1076 0201 08       		.byte	8
 1077 0202 8F       		.byte	-113
 1078 0203 04       		.byte	4
 1079 0204 D8       		.byte	-40
 1080 0205 02       		.byte	2
 1081 0206 E0       		.byte	-32
 1082 0207 02       		.byte	2
 1083 0208 01       		.byte	1
 1084 0209 0A       		.byte	10
 1085 020a 10       		.byte	16
 1086 020b 0A       		.byte	10
 1087              		.type	cy_cfg_addr_table.4910, %object
 1088              		.size	cy_cfg_addr_table.4910, 36
 1089              	cy_cfg_addr_table.4910:
 1090 020c 02000F40 		.word	1074724866
 1091 0210 04300F40 		.word	1074737156
 1092 0214 34310F40 		.word	1074737460
 1093 0218 5F320F40 		.word	1074737759
 1094 021c 4B330F40 		.word	1074737995
 1095 0220 02400F40 		.word	1074741250
 1096 0224 0A410F40 		.word	1074741514
 1097 0228 04430F40 		.word	1074742020
 1098 022c 02600F40 		.word	1074749442
ARM GAS  C:\Users\dmr85\AppData\Local\Temp\ccajexNH.s 			page 33


 1099              		.type	BS_UDB_0_1_1_CONFIG_VAL.4922, %object
 1100              		.size	BS_UDB_0_1_1_CONFIG_VAL.4922, 128
 1101              	BS_UDB_0_1_1_CONFIG_VAL.4922:
 1102 0230 84       		.byte	-124
 1103 0231 1A       		.byte	26
 1104 0232 00       		.byte	0
 1105 0233 00       		.byte	0
 1106 0234 01       		.byte	1
 1107 0235 18       		.byte	24
 1108 0236 00       		.byte	0
 1109 0237 02       		.byte	2
 1110 0238 0A       		.byte	10
 1111 0239 02       		.byte	2
 1112 023a 10       		.byte	16
 1113 023b 18       		.byte	24
 1114 023c 04       		.byte	4
 1115 023d 82       		.byte	-126
 1116 023e 00       		.byte	0
 1117 023f 00       		.byte	0
 1118 0240 56       		.byte	86
 1119 0241 1A       		.byte	26
 1120 0242 09       		.byte	9
 1121 0243 00       		.byte	0
 1122 0244 07       		.byte	7
 1123 0245 33       		.byte	51
 1124 0246 38       		.byte	56
 1125 0247 44       		.byte	68
 1126 0248 00       		.byte	0
 1127 0249 C1       		.byte	-63
 1128 024a 00       		.byte	0
 1129 024b 38       		.byte	56
 1130 024c 60       		.byte	96
 1131 024d 9C       		.byte	-100
 1132 024e 00       		.byte	0
 1133 024f 03       		.byte	3
 1134 0250 04       		.byte	4
 1135 0251 18       		.byte	24
 1136 0252 80       		.byte	-128
 1137 0253 00       		.byte	0
 1138 0254 80       		.byte	-128
 1139 0255 00       		.byte	0
 1140 0256 04       		.byte	4
 1141 0257 00       		.byte	0
 1142 0258 84       		.byte	-124
 1143 0259 00       		.byte	0
 1144 025a 00       		.byte	0
 1145 025b 00       		.byte	0
 1146 025c 84       		.byte	-124
 1147 025d 18       		.byte	24
 1148 025e 00       		.byte	0
 1149 025f 02       		.byte	2
 1150 0260 08       		.byte	8
 1151 0261 00       		.byte	0
 1152 0262 80       		.byte	-128
 1153 0263 0F       		.byte	15
 1154 0264 7F       		.byte	127
 1155 0265 13       		.byte	19
ARM GAS  C:\Users\dmr85\AppData\Local\Temp\ccajexNH.s 			page 34


 1156 0266 02       		.byte	2
 1157 0267 E0       		.byte	-32
 1158 0268 20       		.byte	32
 1159 0269 00       		.byte	0
 1160 026a 00       		.byte	0
 1161 026b 88       		.byte	-120
 1162 026c 00       		.byte	0
 1163 026d 00       		.byte	0
 1164 026e 45       		.byte	69
 1165 026f 00       		.byte	0
 1166 0270 24       		.byte	36
 1167 0271 06       		.byte	6
 1168 0272 30       		.byte	48
 1169 0273 00       		.byte	0
 1170 0274 05       		.byte	5
 1171 0275 BE       		.byte	-66
 1172 0276 DC       		.byte	-36
 1173 0277 0F       		.byte	15
 1174 0278 1F       		.byte	31
 1175 0279 FF       		.byte	-1
 1176 027a FF       		.byte	-1
 1177 027b FF       		.byte	-1
 1178 027c 22       		.byte	34
 1179 027d 00       		.byte	0
 1180 027e F0       		.byte	-16
 1181 027f 08       		.byte	8
 1182 0280 04       		.byte	4
 1183 0281 00       		.byte	0
 1184 0282 00       		.byte	0
 1185 0283 00       		.byte	0
 1186 0284 00       		.byte	0
 1187 0285 00       		.byte	0
 1188 0286 02       		.byte	2
 1189 0287 24       		.byte	36
 1190 0288 04       		.byte	4
 1191 0289 04       		.byte	4
 1192 028a 04       		.byte	4
 1193 028b 04       		.byte	4
 1194 028c 11       		.byte	17
 1195 028d 11       		.byte	17
 1196 028e 00       		.byte	0
 1197 028f 01       		.byte	1
 1198 0290 00       		.byte	0
 1199 0291 00       		.byte	0
 1200 0292 C0       		.byte	-64
 1201 0293 00       		.byte	0
 1202 0294 40       		.byte	64
 1203 0295 01       		.byte	1
 1204 0296 10       		.byte	16
 1205 0297 11       		.byte	17
 1206 0298 C0       		.byte	-64
 1207 0299 01       		.byte	1
 1208 029a 00       		.byte	0
 1209 029b 11       		.byte	17
 1210 029c 40       		.byte	64
 1211 029d 01       		.byte	1
 1212 029e 40       		.byte	64
ARM GAS  C:\Users\dmr85\AppData\Local\Temp\ccajexNH.s 			page 35


 1213 029f 01       		.byte	1
 1214 02a0 00       		.byte	0
 1215 02a1 00       		.byte	0
 1216 02a2 00       		.byte	0
 1217 02a3 00       		.byte	0
 1218 02a4 00       		.byte	0
 1219 02a5 00       		.byte	0
 1220 02a6 00       		.byte	0
 1221 02a7 00       		.byte	0
 1222 02a8 00       		.byte	0
 1223 02a9 00       		.byte	0
 1224 02aa 00       		.byte	0
 1225 02ab 00       		.byte	0
 1226 02ac 00       		.byte	0
 1227 02ad 00       		.byte	0
 1228 02ae 00       		.byte	0
 1229 02af 00       		.byte	0
 1230              		.text
 1231              	.Letext0:
 1232              		.file 2 "c:\\program files (x86)\\cypress\\psoc creator\\4.2\\psoc creator\\import\\gnu\\arm\\5.4.
 1233              		.file 3 "Generated_Source\\PSoC4\\cytypes.h"
 1234              		.file 4 "Generated_Source\\PSoC4\\CyLFClk.h"
 1235              		.file 5 "Generated_Source\\PSoC4\\CyLib.h"