ARM GAS  C:\Users\dmr85\AppData\Local\Temp\ccgwEieb.s 			page 1


   1              		.syntax unified
   2              		.cpu cortex-m0
   3              		.fpu softvfp
   4              		.eabi_attribute 20, 1
   5              		.eabi_attribute 21, 1
   6              		.eabi_attribute 23, 3
   7              		.eabi_attribute 24, 1
   8              		.eabi_attribute 25, 1
   9              		.eabi_attribute 26, 1
  10              		.eabi_attribute 30, 1
  11              		.eabi_attribute 34, 0
  12              		.eabi_attribute 18, 4
  13              		.thumb
  14              		.syntax unified
  15              		.file	"main.c"
  16              		.text
  17              	.Ltext0:
  18              		.cfi_sections	.debug_frame
  19              		.global	__aeabi_i2d
  20              		.global	__aeabi_ddiv
  21              		.global	__aeabi_dadd
  22              		.global	__aeabi_dsub
  23              		.section	.text.gaussrand,"ax",%progbits
  24              		.align	2
  25              		.global	gaussrand
  26              		.code	16
  27              		.thumb_func
  28              		.type	gaussrand, %function
  29              	gaussrand:
  30              	.LFB36:
  31              		.file 1 "main.c"
   1:main.c        **** /* ========================================
   2:main.c        ****  *
   3:main.c        ****  * Copyright YOUR COMPANY, THE YEAR
   4:main.c        ****  * All Rights Reserved
   5:main.c        ****  * UNPUBLISHED, LICENSED SOFTWARE.
   6:main.c        ****  *
   7:main.c        ****  * CONFIDENTIAL AND PROPRIETARY INFORMATION
   8:main.c        ****  * WHICH IS THE PROPERTY OF your company.
   9:main.c        ****  *
  10:main.c        ****  * ========================================
  11:main.c        **** */
  12:main.c        **** #include <project.h>
  13:main.c        **** #include <stdlib.h>
  14:main.c        **** #include <stdio.h>
  15:main.c        **** #include <math.h>
  16:main.c        **** 
  17:main.c        **** #define NSUM 25
  18:main.c        **** 
  19:main.c        **** uint16 generated_number = 0xFFFF;
  20:main.c        **** 
  21:main.c        **** int capsenseNotify;
  22:main.c        **** 
  23:main.c        **** /***************************************************************
  24:main.c        ****  * Function to update the LED state in the GATT database
  25:main.c        ****  **************************************************************/
  26:main.c        **** 
ARM GAS  C:\Users\dmr85\AppData\Local\Temp\ccgwEieb.s 			page 2


  27:main.c        **** 
  28:main.c        **** double gaussrand()
  29:main.c        **** {
  32              		.loc 1 29 0
  33              		.cfi_startproc
  34              		@ args = 0, pretend = 0, frame = 0
  35              		@ frame_needed = 0, uses_anonymous_args = 0
  36 0000 D0B5     		push	{r4, r6, r7, lr}
  37              		.cfi_def_cfa_offset 16
  38              		.cfi_offset 4, -16
  39              		.cfi_offset 6, -12
  40              		.cfi_offset 7, -8
  41              		.cfi_offset 14, -4
  42              	.LVL0:
  30:main.c        **** 	double x = 0;
  31:main.c        **** 	int i;
  32:main.c        **** 	for(i = 0; i < NSUM; i++)
  43              		.loc 1 32 0
  44 0002 0024     		movs	r4, #0
  30:main.c        **** 	double x = 0;
  45              		.loc 1 30 0
  46 0004 0026     		movs	r6, #0
  47 0006 0027     		movs	r7, #0
  48              		.loc 1 32 0
  49 0008 10E0     		b	.L2
  50              	.LVL1:
  51              	.L3:
  33:main.c        **** 		x += (double)rand() / RAND_MAX;
  52              		.loc 1 33 0 discriminator 3
  53 000a FFF7FEFF 		bl	rand
  54              	.LVL2:
  55 000e FFF7FEFF 		bl	__aeabi_i2d
  56              	.LVL3:
  57 0012 0D4A     		ldr	r2, .L4
  58 0014 0D4B     		ldr	r3, .L4+4
  59 0016 FFF7FEFF 		bl	__aeabi_ddiv
  60              	.LVL4:
  61 001a 0200     		movs	r2, r0
  62 001c 0B00     		movs	r3, r1
  63 001e 3000     		movs	r0, r6
  64 0020 3900     		movs	r1, r7
  65 0022 FFF7FEFF 		bl	__aeabi_dadd
  66              	.LVL5:
  67 0026 0600     		movs	r6, r0
  68              	.LVL6:
  69 0028 0F00     		movs	r7, r1
  70              	.LVL7:
  32:main.c        **** 		x += (double)rand() / RAND_MAX;
  71              		.loc 1 32 0 discriminator 3
  72 002a 0134     		adds	r4, r4, #1
  73              	.LVL8:
  74              	.L2:
  32:main.c        **** 		x += (double)rand() / RAND_MAX;
  75              		.loc 1 32 0 is_stmt 0 discriminator 1
  76 002c 182C     		cmp	r4, #24
  77 002e ECDD     		ble	.L3
  34:main.c        **** 
ARM GAS  C:\Users\dmr85\AppData\Local\Temp\ccgwEieb.s 			page 3


  35:main.c        **** 	x -= NSUM / 2.0;
  78              		.loc 1 35 0 is_stmt 1
  79 0030 0022     		movs	r2, #0
  80 0032 074B     		ldr	r3, .L4+8
  81 0034 3000     		movs	r0, r6
  82 0036 3900     		movs	r1, r7
  83 0038 FFF7FEFF 		bl	__aeabi_dsub
  84              	.LVL9:
  36:main.c        **** 	x /= sqrt(NSUM / 12.0);
  85              		.loc 1 36 0
  86 003c 054A     		ldr	r2, .L4+12
  87 003e 064B     		ldr	r3, .L4+16
  88 0040 FFF7FEFF 		bl	__aeabi_ddiv
  89              	.LVL10:
  37:main.c        **** 
  38:main.c        **** 	return x;
  39:main.c        **** }
  90              		.loc 1 39 0
  91              		@ sp needed
  92              	.LVL11:
  93 0044 D0BD     		pop	{r4, r6, r7, pc}
  94              	.L5:
  95 0046 C046     		.align	2
  96              	.L4:
  97 0048 0000C0FF 		.word	-4194304
  98 004c FFFFDF41 		.word	1105199103
  99 0050 00002940 		.word	1076428800
 100 0054 E43FF416 		.word	385105892
 101 0058 1118F73F 		.word	1073158161
 102              		.cfi_endproc
 103              	.LFE36:
 104              		.size	gaussrand, .-gaussrand
 105              		.section	.text.updateLed,"ax",%progbits
 106              		.align	2
 107              		.global	updateLed
 108              		.code	16
 109              		.thumb_func
 110              		.type	updateLed, %function
 111              	updateLed:
 112              	.LFB37:
  40:main.c        **** 
  41:main.c        **** void updateLed()
  42:main.c        **** {
 113              		.loc 1 42 0
 114              		.cfi_startproc
 115              		@ args = 0, pretend = 0, frame = 16
 116              		@ frame_needed = 0, uses_anonymous_args = 0
 117 0000 00B5     		push	{lr}
 118              		.cfi_def_cfa_offset 4
 119              		.cfi_offset 14, -4
 120 0002 85B0     		sub	sp, sp, #20
 121              		.cfi_def_cfa_offset 24
  43:main.c        ****     CYBLE_GATTS_HANDLE_VALUE_NTF_T 	tempHandle;
  44:main.c        ****    
  45:main.c        ****     uint8 red_State = !red_Read();
 122              		.loc 1 45 0
 123 0004 FFF7FEFF 		bl	red_Read
ARM GAS  C:\Users\dmr85\AppData\Local\Temp\ccgwEieb.s 			page 4


 124              	.LVL12:
 125 0008 4342     		rsbs	r3, r0, #0
 126 000a 4341     		adcs	r3, r3, r0
 127 000c 6A46     		mov	r2, sp
 128 000e D370     		strb	r3, [r2, #3]
 129 0010 0332     		adds	r2, r2, #3
  46:main.c        ****     
  47:main.c        ****     if(CyBle_GetState() != CYBLE_STATE_CONNECTED)
 130              		.loc 1 47 0
 131 0012 084B     		ldr	r3, .L9
 132 0014 1B78     		ldrb	r3, [r3]
 133 0016 022B     		cmp	r3, #2
 134 0018 0AD1     		bne	.L6
  48:main.c        ****         return;
  49:main.c        ****     
  50:main.c        ****     tempHandle.attrHandle = CYBLE_LEDCAPSENSE_LED_CHAR_HANDLE;
 135              		.loc 1 50 0
 136 001a 01A8     		add	r0, sp, #4
 137 001c 1033     		adds	r3, r3, #16
 138 001e 0381     		strh	r3, [r0, #8]
  51:main.c        ****   	tempHandle.value.val = (uint8 *) &red_State;
 139              		.loc 1 51 0
 140 0020 0192     		str	r2, [sp, #4]
  52:main.c        ****     tempHandle.value.len = 1;
 141              		.loc 1 52 0
 142 0022 0123     		movs	r3, #1
 143 0024 8380     		strh	r3, [r0, #4]
  53:main.c        ****     CyBle_GattsWriteAttributeValue(&tempHandle,0,&cyBle_connHandle,CYBLE_GATT_DB_LOCALLY_INITIATED)
 144              		.loc 1 53 0
 145 0026 0023     		movs	r3, #0
 146 0028 034A     		ldr	r2, .L9+4
 147 002a 0021     		movs	r1, #0
 148 002c FFF7FEFF 		bl	CyBle_GattsWriteAttributeValue
 149              	.LVL13:
 150              	.L6:
  54:main.c        **** }
 151              		.loc 1 54 0
 152 0030 05B0     		add	sp, sp, #20
 153              		@ sp needed
 154 0032 00BD     		pop	{pc}
 155              	.L10:
 156              		.align	2
 157              	.L9:
 158 0034 00000000 		.word	cyBle_state
 159 0038 00000000 		.word	cyBle_connHandle
 160              		.cfi_endproc
 161              	.LFE37:
 162              		.size	updateLed, .-updateLed
 163              		.section	.text.updateCapsense,"ax",%progbits
 164              		.align	2
 165              		.global	updateCapsense
 166              		.code	16
 167              		.thumb_func
 168              		.type	updateCapsense, %function
 169              	updateCapsense:
 170              	.LFB38:
  55:main.c        **** 
ARM GAS  C:\Users\dmr85\AppData\Local\Temp\ccgwEieb.s 			page 5


  56:main.c        **** /***************************************************************
  57:main.c        ****  * Function to update the CapSesnse state in the GATT database
  58:main.c        ****  **************************************************************/
  59:main.c        **** void updateCapsense()
  60:main.c        **** {
 171              		.loc 1 60 0
 172              		.cfi_startproc
 173              		@ args = 0, pretend = 0, frame = 16
 174              		@ frame_needed = 0, uses_anonymous_args = 0
 175 0000 00B5     		push	{lr}
 176              		.cfi_def_cfa_offset 4
 177              		.cfi_offset 14, -4
 178 0002 85B0     		sub	sp, sp, #20
 179              		.cfi_def_cfa_offset 24
  61:main.c        ****     if(CyBle_GetState() != CYBLE_STATE_CONNECTED)
 180              		.loc 1 61 0
 181 0004 0E4B     		ldr	r3, .L15
 182 0006 1B78     		ldrb	r3, [r3]
 183 0008 022B     		cmp	r3, #2
 184 000a 17D1     		bne	.L11
  62:main.c        ****         return;
  63:main.c        ****     
  64:main.c        **** 	CYBLE_GATTS_HANDLE_VALUE_NTF_T 	tempHandle;
  65:main.c        ****     
  66:main.c        ****     tempHandle.attrHandle = CYBLE_LEDCAPSENSE_CAPSENSE_CHAR_HANDLE;
 185              		.loc 1 66 0
 186 000c 01A8     		add	r0, sp, #4
 187 000e 1333     		adds	r3, r3, #19
 188 0010 0381     		strh	r3, [r0, #8]
  67:main.c        ****   	tempHandle.value.val = (uint8 *)&generated_number;
 189              		.loc 1 67 0
 190 0012 0C4B     		ldr	r3, .L15+4
 191 0014 0193     		str	r3, [sp, #4]
  68:main.c        ****     tempHandle.value.len = 2; 
 192              		.loc 1 68 0
 193 0016 0223     		movs	r3, #2
 194 0018 8380     		strh	r3, [r0, #4]
  69:main.c        ****     CyBle_GattsWriteAttributeValue(&tempHandle,0,&cyBle_connHandle,CYBLE_GATT_DB_LOCALLY_INITIATED 
 195              		.loc 1 69 0
 196 001a 0023     		movs	r3, #0
 197 001c 0A4A     		ldr	r2, .L15+8
 198 001e 0021     		movs	r1, #0
 199 0020 FFF7FEFF 		bl	CyBle_GattsWriteAttributeValue
 200              	.LVL14:
  70:main.c        ****     
  71:main.c        ****     /* send notification to client if notifications are enabled and finger location has changed */
  72:main.c        ****     if (capsenseNotify)
 201              		.loc 1 72 0
 202 0024 094B     		ldr	r3, .L15+12
 203 0026 1B68     		ldr	r3, [r3]
 204 0028 002B     		cmp	r3, #0
 205 002a 07D0     		beq	.L11
  73:main.c        ****         CyBle_GattsNotification(cyBle_connHandle,&tempHandle);
 206              		.loc 1 73 0
 207 002c 064A     		ldr	r2, .L15+8
 208 002e 1378     		ldrb	r3, [r2]
 209 0030 5078     		ldrb	r0, [r2, #1]
ARM GAS  C:\Users\dmr85\AppData\Local\Temp\ccgwEieb.s 			page 6


 210 0032 0002     		lsls	r0, r0, #8
 211 0034 1843     		orrs	r0, r3
 212 0036 01A9     		add	r1, sp, #4
 213 0038 FFF7FEFF 		bl	CyBle_GattsNotification
 214              	.LVL15:
 215              	.L11:
  74:main.c        **** }
 216              		.loc 1 74 0
 217 003c 05B0     		add	sp, sp, #20
 218              		@ sp needed
 219 003e 00BD     		pop	{pc}
 220              	.L16:
 221              		.align	2
 222              	.L15:
 223 0040 00000000 		.word	cyBle_state
 224 0044 00000000 		.word	.LANCHOR0
 225 0048 00000000 		.word	cyBle_connHandle
 226 004c 00000000 		.word	capsenseNotify
 227              		.cfi_endproc
 228              	.LFE38:
 229              		.size	updateCapsense, .-updateCapsense
 230              		.section	.text.BleCallBack,"ax",%progbits
 231              		.align	2
 232              		.global	BleCallBack
 233              		.code	16
 234              		.thumb_func
 235              		.type	BleCallBack, %function
 236              	BleCallBack:
 237              	.LFB39:
  75:main.c        **** 
  76:main.c        **** /***************************************************************
  77:main.c        ****  * Function to handle the BLE stack
  78:main.c        ****  **************************************************************/
  79:main.c        **** void BleCallBack(uint32 event, void* eventParam)
  80:main.c        **** {
 238              		.loc 1 80 0
 239              		.cfi_startproc
 240              		@ args = 0, pretend = 0, frame = 0
 241              		@ frame_needed = 0, uses_anonymous_args = 0
 242              	.LVL16:
 243 0000 70B5     		push	{r4, r5, r6, lr}
 244              		.cfi_def_cfa_offset 16
 245              		.cfi_offset 4, -16
 246              		.cfi_offset 5, -12
 247              		.cfi_offset 6, -8
 248              		.cfi_offset 14, -4
 249 0002 0C00     		movs	r4, r1
  81:main.c        ****     CYBLE_GATTS_WRITE_REQ_PARAM_T *wrReqParam;
  82:main.c        **** 
  83:main.c        ****     switch(event)
 250              		.loc 1 83 0
 251 0004 2828     		cmp	r0, #40
 252 0006 08D0     		beq	.L19
 253 0008 02D8     		bhi	.L20
 254 000a 0128     		cmp	r0, #1
 255 000c 05D0     		beq	.L19
 256 000e 43E0     		b	.L17
ARM GAS  C:\Users\dmr85\AppData\Local\Temp\ccgwEieb.s 			page 7


 257              	.L20:
 258 0010 4128     		cmp	r0, #65
 259 0012 0BD0     		beq	.L21
 260 0014 4C28     		cmp	r0, #76
 261 0016 10D0     		beq	.L22
 262 0018 3EE0     		b	.L17
 263              	.L19:
  84:main.c        ****     {
  85:main.c        ****         /* if there is a disconnect or the stack just turned on from a reset then start the adverti
  86:main.c        ****         case CYBLE_EVT_STACK_ON:
  87:main.c        ****         case CYBLE_EVT_GAP_DEVICE_DISCONNECTED:
  88:main.c        ****             capsenseNotify = 0;
 264              		.loc 1 88 0
 265 001a 0022     		movs	r2, #0
 266 001c 1F4B     		ldr	r3, .L24
 267 001e 1A60     		str	r2, [r3]
  89:main.c        ****             CyBle_GappStartAdvertisement(CYBLE_ADVERTISING_FAST);
 268              		.loc 1 89 0
 269 0020 0020     		movs	r0, #0
 270              	.LVL17:
 271 0022 FFF7FEFF 		bl	CyBle_GappStartAdvertisement
 272              	.LVL18:
  90:main.c        ****             pwm_Start();
 273              		.loc 1 90 0
 274 0026 FFF7FEFF 		bl	pwm_Start
 275              	.LVL19:
  91:main.c        ****         break;
 276              		.loc 1 91 0
 277 002a 35E0     		b	.L17
 278              	.LVL20:
 279              	.L21:
  92:main.c        ****         
  93:main.c        ****         /* when a connection is made, update the LED and Capsense states in the GATT database and s
  94:main.c        ****         case CYBLE_EVT_GATT_CONNECT_IND:
  95:main.c        ****             updateLed();
 280              		.loc 1 95 0
 281 002c FFF7FEFF 		bl	updateLed
 282              	.LVL21:
  96:main.c        ****             updateCapsense();  
 283              		.loc 1 96 0
 284 0030 FFF7FEFF 		bl	updateCapsense
 285              	.LVL22:
  97:main.c        ****             pwm_Stop();
 286              		.loc 1 97 0
 287 0034 FFF7FEFF 		bl	pwm_Stop
 288              	.LVL23:
  98:main.c        **** 		break;
 289              		.loc 1 98 0
 290 0038 2EE0     		b	.L17
 291              	.LVL24:
 292              	.L22:
  99:main.c        **** 
 100:main.c        ****         /* handle a write request */
 101:main.c        ****         case CYBLE_EVT_GATTS_WRITE_REQ:
 102:main.c        ****             wrReqParam = (CYBLE_GATTS_WRITE_REQ_PARAM_T *) eventParam;
 103:main.c        **** 			      
 104:main.c        ****             /* request write the LED value */
ARM GAS  C:\Users\dmr85\AppData\Local\Temp\ccgwEieb.s 			page 8


 105:main.c        ****             if(wrReqParam->handleValPair.attrHandle == CYBLE_LEDCAPSENSE_LED_CHAR_HANDLE)
 293              		.loc 1 105 0
 294 003a 8B89     		ldrh	r3, [r1, #12]
 295 003c 122B     		cmp	r3, #18
 296 003e 15D1     		bne	.L23
 106:main.c        ****             {
 107:main.c        ****                 /* only update the value and write the response if the requested write is allowed *
 108:main.c        ****                 if(CYBLE_GATT_ERR_NONE == CyBle_GattsWriteAttributeValue(&wrReqParam->handleValPair
 297              		.loc 1 108 0
 298 0040 081D     		adds	r0, r1, #4
 299              	.LVL25:
 300 0042 2E33     		adds	r3, r3, #46
 301 0044 164A     		ldr	r2, .L24+4
 302 0046 0021     		movs	r1, #0
 303              	.LVL26:
 304 0048 FFF7FEFF 		bl	CyBle_GattsWriteAttributeValue
 305              	.LVL27:
 306 004c 0028     		cmp	r0, #0
 307 004e 0DD1     		bne	.L23
 109:main.c        ****                 {
 110:main.c        ****                     red_Write(!wrReqParam->handleValPair.value.val[0]);
 308              		.loc 1 110 0
 309 0050 6368     		ldr	r3, [r4, #4]
 310 0052 1B78     		ldrb	r3, [r3]
 311 0054 5842     		rsbs	r0, r3, #0
 312 0056 5841     		adcs	r0, r0, r3
 313 0058 C0B2     		uxtb	r0, r0
 314 005a FFF7FEFF 		bl	red_Write
 315              	.LVL28:
 111:main.c        ****                     CyBle_GattsWriteRsp(cyBle_connHandle);
 316              		.loc 1 111 0
 317 005e 104A     		ldr	r2, .L24+4
 318 0060 1378     		ldrb	r3, [r2]
 319 0062 5078     		ldrb	r0, [r2, #1]
 320 0064 0002     		lsls	r0, r0, #8
 321 0066 1843     		orrs	r0, r3
 322 0068 FFF7FEFF 		bl	CyBle_GattsWriteRsp
 323              	.LVL29:
 324              	.L23:
 112:main.c        ****                 }
 113:main.c        ****             }
 114:main.c        ****             
 115:main.c        ****             /* request to update the CapSense notification */
 116:main.c        ****             if(wrReqParam->handleValPair.attrHandle == CYBLE_LEDCAPSENSE_CAPSENSE_CAPSENSECCCD_DESC
 325              		.loc 1 116 0
 326 006c A389     		ldrh	r3, [r4, #12]
 327 006e 162B     		cmp	r3, #22
 328 0070 12D1     		bne	.L17
 117:main.c        ****             {
 118:main.c        ****                 CyBle_GattsWriteAttributeValue(&wrReqParam->handleValPair, 0, &cyBle_connHandle, CY
 329              		.loc 1 118 0
 330 0072 0B4D     		ldr	r5, .L24+4
 331 0074 201D     		adds	r0, r4, #4
 332 0076 2A33     		adds	r3, r3, #42
 333 0078 2A00     		movs	r2, r5
 334 007a 0021     		movs	r1, #0
 335 007c FFF7FEFF 		bl	CyBle_GattsWriteAttributeValue
ARM GAS  C:\Users\dmr85\AppData\Local\Temp\ccgwEieb.s 			page 9


 336              	.LVL30:
 119:main.c        ****                 capsenseNotify = wrReqParam->handleValPair.value.val[0] & 0x01;
 337              		.loc 1 119 0
 338 0080 6368     		ldr	r3, [r4, #4]
 339 0082 1B78     		ldrb	r3, [r3]
 340 0084 0122     		movs	r2, #1
 341 0086 1340     		ands	r3, r2
 342 0088 044A     		ldr	r2, .L24
 343 008a 1360     		str	r3, [r2]
 120:main.c        ****                 CyBle_GattsWriteRsp(cyBle_connHandle);
 344              		.loc 1 120 0
 345 008c 2B78     		ldrb	r3, [r5]
 346 008e 6878     		ldrb	r0, [r5, #1]
 347 0090 0002     		lsls	r0, r0, #8
 348 0092 1843     		orrs	r0, r3
 349 0094 FFF7FEFF 		bl	CyBle_GattsWriteRsp
 350              	.LVL31:
 351              	.L17:
 121:main.c        ****             }		
 122:main.c        **** 			break;  
 123:main.c        ****         
 124:main.c        ****         default:
 125:main.c        ****             break;
 126:main.c        ****     }
 127:main.c        **** } 
 352              		.loc 1 127 0
 353              		@ sp needed
 354              	.LVL32:
 355 0098 70BD     		pop	{r4, r5, r6, pc}
 356              	.L25:
 357 009a C046     		.align	2
 358              	.L24:
 359 009c 00000000 		.word	capsenseNotify
 360 00a0 00000000 		.word	cyBle_connHandle
 361              		.cfi_endproc
 362              	.LFE39:
 363              		.size	BleCallBack, .-BleCallBack
 364              		.global	__aeabi_d2uiz
 365              		.section	.text.main,"ax",%progbits
 366              		.align	2
 367              		.global	main
 368              		.code	16
 369              		.thumb_func
 370              		.type	main, %function
 371              	main:
 372              	.LFB40:
 128:main.c        **** 
 129:main.c        **** /***************************************************************
 130:main.c        ****  * Main
 131:main.c        ****  **************************************************************/
 132:main.c        **** int main()
 133:main.c        **** {
 373              		.loc 1 133 0
 374              		.cfi_startproc
 375              		@ args = 0, pretend = 0, frame = 0
 376              		@ frame_needed = 0, uses_anonymous_args = 0
 377 0000 10B5     		push	{r4, lr}
ARM GAS  C:\Users\dmr85\AppData\Local\Temp\ccgwEieb.s 			page 10


 378              		.cfi_def_cfa_offset 8
 379              		.cfi_offset 4, -8
 380              		.cfi_offset 14, -4
 134:main.c        ****     CyGlobalIntEnable; 
 381              		.loc 1 134 0
 382              		.syntax divided
 383              	@ 134 "main.c" 1
 384 0002 62B6     		CPSIE   i
 385              	@ 0 "" 2
 135:main.c        ****     
 136:main.c        ****     capsense_Start();
 386              		.loc 1 136 0
 387              		.thumb
 388              		.syntax unified
 389 0004 FFF7FEFF 		bl	capsense_Start
 390              	.LVL33:
 137:main.c        ****     capsense_InitializeEnabledBaselines();
 391              		.loc 1 137 0
 392 0008 FFF7FEFF 		bl	capsense_InitializeEnabledBaselines
 393              	.LVL34:
 138:main.c        ****     spi_Start();
 394              		.loc 1 138 0
 395 000c FFF7FEFF 		bl	spi_Start
 396              	.LVL35:
 139:main.c        ****     Clock_1_Start();
 397              		.loc 1 139 0
 398 0010 FF20     		movs	r0, #255
 399 0012 FFF7FEFF 		bl	Clock_1_StartEx
 400              	.LVL36:
 140:main.c        ****     Clock_2_Start();
 401              		.loc 1 140 0
 402 0016 FF20     		movs	r0, #255
 403 0018 FFF7FEFF 		bl	Clock_2_StartEx
 404              	.LVL37:
 141:main.c        ****     /* Start BLE stack and register the callback function */
 142:main.c        ****     CyBle_Start(BleCallBack);
 405              		.loc 1 142 0
 406 001c 1148     		ldr	r0, .L30
 407 001e FFF7FEFF 		bl	CyBle_Start
 408              	.LVL38:
 143:main.c        **** 
 144:main.c        ****     int counter = 0;
 409              		.loc 1 144 0
 410 0022 0024     		movs	r4, #0
 411              	.LVL39:
 412              	.L29:
 145:main.c        ****     for(;;)
 146:main.c        ****     {        
 147:main.c        ****         /* if Capsense scan is done, read the value and start another scan */
 148:main.c        ****         counter += 1;
 413              		.loc 1 148 0
 414 0024 0134     		adds	r4, r4, #1
 415              	.LVL40:
 149:main.c        ****         if(!capsense_IsBusy())
 416              		.loc 1 149 0
 417 0026 FFF7FEFF 		bl	capsense_IsBusy
 418              	.LVL41:
ARM GAS  C:\Users\dmr85\AppData\Local\Temp\ccgwEieb.s 			page 11


 419 002a 0028     		cmp	r0, #0
 420 002c 05D1     		bne	.L27
 150:main.c        ****         {
 151:main.c        ****             capsense_UpdateEnabledBaselines();
 421              		.loc 1 151 0
 422 002e FFF7FEFF 		bl	capsense_UpdateEnabledBaselines
 423              	.LVL42:
 152:main.c        ****             capsense_ScanEnabledWidgets();
 424              		.loc 1 152 0
 425 0032 FFF7FEFF 		bl	capsense_ScanEnabledWidgets
 426              	.LVL43:
 153:main.c        ****             updateCapsense();
 427              		.loc 1 153 0
 428 0036 FFF7FEFF 		bl	updateCapsense
 429              	.LVL44:
 430              	.L27:
 154:main.c        ****         }
 155:main.c        ****         
 156:main.c        ****         if (counter > 50000) {
 431              		.loc 1 156 0
 432 003a 0B4B     		ldr	r3, .L30+4
 433 003c 9C42     		cmp	r4, r3
 434 003e 06DD     		ble	.L28
 157:main.c        ****             generated_number = (uint16) gaussrand();
 435              		.loc 1 157 0
 436 0040 FFF7FEFF 		bl	gaussrand
 437              	.LVL45:
 438 0044 FFF7FEFF 		bl	__aeabi_d2uiz
 439              	.LVL46:
 440 0048 084B     		ldr	r3, .L30+8
 441 004a 1880     		strh	r0, [r3]
 442              	.LVL47:
 158:main.c        ****             counter = 0;
 443              		.loc 1 158 0
 444 004c 0024     		movs	r4, #0
 445              	.LVL48:
 446              	.L28:
 159:main.c        ****         }
 160:main.c        ****         spi_WriteTxData(generated_number);
 447              		.loc 1 160 0
 448 004e 074B     		ldr	r3, .L30+8
 449 0050 1878     		ldrb	r0, [r3]
 450 0052 FFF7FEFF 		bl	spi_WriteTxData
 451              	.LVL49:
 161:main.c        ****         CyBle_ProcessEvents();
 452              		.loc 1 161 0
 453 0056 FFF7FEFF 		bl	CyBle_ProcessEvents
 454              	.LVL50:
 162:main.c        ****         CyBle_EnterLPM(CYBLE_BLESS_DEEPSLEEP);
 455              		.loc 1 162 0
 456 005a 0320     		movs	r0, #3
 457 005c FFF7FEFF 		bl	CyBle_EnterLPM
 458              	.LVL51:
 163:main.c        ****         
 164:main.c        ****     }
 459              		.loc 1 164 0
 460 0060 E0E7     		b	.L29
ARM GAS  C:\Users\dmr85\AppData\Local\Temp\ccgwEieb.s 			page 12


 461              	.L31:
 462 0062 C046     		.align	2
 463              	.L30:
 464 0064 00000000 		.word	BleCallBack
 465 0068 50C30000 		.word	50000
 466 006c 00000000 		.word	.LANCHOR0
 467              		.cfi_endproc
 468              	.LFE40:
 469              		.size	main, .-main
 470              		.comm	capsenseNotify,4,4
 471              		.global	generated_number
 472              		.data
 473              		.align	1
 474              		.set	.LANCHOR0,. + 0
 475              		.type	generated_number, %object
 476              		.size	generated_number, 2
 477              	generated_number:
 478 0000 FFFF     		.short	-1
 479              		.text
 480              	.Letext0:
 481              		.file 2 "Generated_Source\\PSoC4/cytypes.h"
 482              		.file 3 "Generated_Source\\PSoC4/ble_Stack.h"
 483              		.file 4 "Generated_Source\\PSoC4/ble_StackGatt.h"
 484              		.file 5 "Generated_Source\\PSoC4/ble_StackGattServer.h"
 485              		.file 6 "Generated_Source\\PSoC4/ble_eventHandler.h"
 486              		.file 7 "c:\\program files (x86)\\cypress\\psoc creator\\4.2\\psoc creator\\import\\gnu\\arm\\5.4.
 487              		.file 8 "Generated_Source\\PSoC4/red.h"
 488              		.file 9 "Generated_Source\\PSoC4/ble_StackGattDb.h"
 489              		.file 10 "Generated_Source\\PSoC4/ble.h"
 490              		.file 11 "Generated_Source\\PSoC4/pwm.h"
 491              		.file 12 "Generated_Source\\PSoC4/capsense.h"
 492              		.file 13 "Generated_Source\\PSoC4/capsense_CSHL.h"
 493              		.file 14 "Generated_Source\\PSoC4/spi.h"
 494              		.file 15 "Generated_Source\\PSoC4/Clock_1.h"
 495              		.file 16 "Generated_Source\\PSoC4/Clock_2.h"