ARM GAS  C:\Users\dmr85\AppData\Local\Temp\ccBWcmjg.s 			page 1


   1              		.syntax unified
   2              		.cpu cortex-m0
   3              		.fpu softvfp
   4              		.eabi_attribute 20, 1
   5              		.eabi_attribute 21, 1
   6              		.eabi_attribute 23, 3
   7              		.eabi_attribute 24, 1
   8              		.eabi_attribute 25, 1
   9              		.eabi_attribute 26, 1
  10              		.eabi_attribute 30, 1
  11              		.eabi_attribute 34, 0
  12              		.eabi_attribute 18, 4
  13              		.thumb
  14              		.syntax unified
  15              		.file	"spi.c"
  16              		.text
  17              	.Ltext0:
  18              		.cfi_sections	.debug_frame
  19              		.section	.text.spi_Enable,"ax",%progbits
  20              		.align	2
  21              		.global	spi_Enable
  22              		.code	16
  23              		.thumb_func
  24              		.type	spi_Enable, %function
  25              	spi_Enable:
  26              	.LFB3:
  27              		.file 1 "Generated_Source\\PSoC4\\spi.c"
   1:Generated_Source\PSoC4/spi.c **** /*******************************************************************************
   2:Generated_Source\PSoC4/spi.c **** * File Name: spi.c
   3:Generated_Source\PSoC4/spi.c **** * Version 2.50
   4:Generated_Source\PSoC4/spi.c **** *
   5:Generated_Source\PSoC4/spi.c **** * Description:
   6:Generated_Source\PSoC4/spi.c **** *  This file provides all API functionality of the SPI Master component.
   7:Generated_Source\PSoC4/spi.c **** *
   8:Generated_Source\PSoC4/spi.c **** * Note:
   9:Generated_Source\PSoC4/spi.c **** *  None.
  10:Generated_Source\PSoC4/spi.c **** *
  11:Generated_Source\PSoC4/spi.c **** ********************************************************************************
  12:Generated_Source\PSoC4/spi.c **** * Copyright 2008-2015, Cypress Semiconductor Corporation.  All rights reserved.
  13:Generated_Source\PSoC4/spi.c **** * You may use this file only in accordance with the license, terms, conditions,
  14:Generated_Source\PSoC4/spi.c **** * disclaimers, and limitations in the end user license agreement accompanying
  15:Generated_Source\PSoC4/spi.c **** * the software package with which this file was provided.
  16:Generated_Source\PSoC4/spi.c **** *******************************************************************************/
  17:Generated_Source\PSoC4/spi.c **** 
  18:Generated_Source\PSoC4/spi.c **** #include "spi_PVT.h"
  19:Generated_Source\PSoC4/spi.c **** 
  20:Generated_Source\PSoC4/spi.c **** #if(spi_TX_SOFTWARE_BUF_ENABLED)
  21:Generated_Source\PSoC4/spi.c ****     volatile uint8 spi_txBuffer[spi_TX_BUFFER_SIZE];
  22:Generated_Source\PSoC4/spi.c ****     volatile uint8 spi_txBufferFull;
  23:Generated_Source\PSoC4/spi.c ****     volatile uint8 spi_txBufferRead;
  24:Generated_Source\PSoC4/spi.c ****     volatile uint8 spi_txBufferWrite;
  25:Generated_Source\PSoC4/spi.c **** #endif /* (spi_TX_SOFTWARE_BUF_ENABLED) */
  26:Generated_Source\PSoC4/spi.c **** 
  27:Generated_Source\PSoC4/spi.c **** #if(spi_RX_SOFTWARE_BUF_ENABLED)
  28:Generated_Source\PSoC4/spi.c ****     volatile uint8 spi_rxBuffer[spi_RX_BUFFER_SIZE];
  29:Generated_Source\PSoC4/spi.c ****     volatile uint8 spi_rxBufferFull;
  30:Generated_Source\PSoC4/spi.c ****     volatile uint8 spi_rxBufferRead;
ARM GAS  C:\Users\dmr85\AppData\Local\Temp\ccBWcmjg.s 			page 2


  31:Generated_Source\PSoC4/spi.c ****     volatile uint8 spi_rxBufferWrite;
  32:Generated_Source\PSoC4/spi.c **** #endif /* (spi_RX_SOFTWARE_BUF_ENABLED) */
  33:Generated_Source\PSoC4/spi.c **** 
  34:Generated_Source\PSoC4/spi.c **** uint8 spi_initVar = 0u;
  35:Generated_Source\PSoC4/spi.c **** 
  36:Generated_Source\PSoC4/spi.c **** volatile uint8 spi_swStatusTx;
  37:Generated_Source\PSoC4/spi.c **** volatile uint8 spi_swStatusRx;
  38:Generated_Source\PSoC4/spi.c **** 
  39:Generated_Source\PSoC4/spi.c **** 
  40:Generated_Source\PSoC4/spi.c **** /*******************************************************************************
  41:Generated_Source\PSoC4/spi.c **** * Function Name: spi_Init
  42:Generated_Source\PSoC4/spi.c **** ********************************************************************************
  43:Generated_Source\PSoC4/spi.c **** *
  44:Generated_Source\PSoC4/spi.c **** * Summary:
  45:Generated_Source\PSoC4/spi.c **** *  Inits/Restores default SPIM configuration provided with customizer.
  46:Generated_Source\PSoC4/spi.c **** *
  47:Generated_Source\PSoC4/spi.c **** * Parameters:
  48:Generated_Source\PSoC4/spi.c **** *  None.
  49:Generated_Source\PSoC4/spi.c **** *
  50:Generated_Source\PSoC4/spi.c **** * Return:
  51:Generated_Source\PSoC4/spi.c **** *  None.
  52:Generated_Source\PSoC4/spi.c **** *
  53:Generated_Source\PSoC4/spi.c **** * Side Effects:
  54:Generated_Source\PSoC4/spi.c **** *  When this function is called it initializes all of the necessary parameters
  55:Generated_Source\PSoC4/spi.c **** *  for execution. i.e. setting the initial interrupt mask, configuring the
  56:Generated_Source\PSoC4/spi.c **** *  interrupt service routine, configuring the bit-counter parameters and
  57:Generated_Source\PSoC4/spi.c **** *  clearing the FIFO and Status Register.
  58:Generated_Source\PSoC4/spi.c **** *
  59:Generated_Source\PSoC4/spi.c **** * Reentrant:
  60:Generated_Source\PSoC4/spi.c **** *  No.
  61:Generated_Source\PSoC4/spi.c **** *
  62:Generated_Source\PSoC4/spi.c **** *******************************************************************************/
  63:Generated_Source\PSoC4/spi.c **** void spi_Init(void) 
  64:Generated_Source\PSoC4/spi.c **** {
  65:Generated_Source\PSoC4/spi.c ****     /* Initialize the Bit counter */
  66:Generated_Source\PSoC4/spi.c ****     spi_COUNTER_PERIOD_REG = spi_BITCTR_INIT;
  67:Generated_Source\PSoC4/spi.c **** 
  68:Generated_Source\PSoC4/spi.c ****     /* Init TX ISR  */
  69:Generated_Source\PSoC4/spi.c ****     #if(0u != spi_INTERNAL_TX_INT_ENABLED)
  70:Generated_Source\PSoC4/spi.c ****         CyIntDisable         (spi_TX_ISR_NUMBER);
  71:Generated_Source\PSoC4/spi.c ****         CyIntSetPriority     (spi_TX_ISR_NUMBER,  spi_TX_ISR_PRIORITY);
  72:Generated_Source\PSoC4/spi.c ****         (void) CyIntSetVector(spi_TX_ISR_NUMBER, &spi_TX_ISR);
  73:Generated_Source\PSoC4/spi.c ****     #endif /* (0u != spi_INTERNAL_TX_INT_ENABLED) */
  74:Generated_Source\PSoC4/spi.c **** 
  75:Generated_Source\PSoC4/spi.c ****     /* Init RX ISR  */
  76:Generated_Source\PSoC4/spi.c ****     #if(0u != spi_INTERNAL_RX_INT_ENABLED)
  77:Generated_Source\PSoC4/spi.c ****         CyIntDisable         (spi_RX_ISR_NUMBER);
  78:Generated_Source\PSoC4/spi.c ****         CyIntSetPriority     (spi_RX_ISR_NUMBER,  spi_RX_ISR_PRIORITY);
  79:Generated_Source\PSoC4/spi.c ****         (void) CyIntSetVector(spi_RX_ISR_NUMBER, &spi_RX_ISR);
  80:Generated_Source\PSoC4/spi.c ****     #endif /* (0u != spi_INTERNAL_RX_INT_ENABLED) */
  81:Generated_Source\PSoC4/spi.c **** 
  82:Generated_Source\PSoC4/spi.c ****     /* Clear any stray data from the RX and TX FIFO */
  83:Generated_Source\PSoC4/spi.c ****     spi_ClearFIFO();
  84:Generated_Source\PSoC4/spi.c **** 
  85:Generated_Source\PSoC4/spi.c ****     #if(spi_RX_SOFTWARE_BUF_ENABLED)
  86:Generated_Source\PSoC4/spi.c ****         spi_rxBufferFull  = 0u;
  87:Generated_Source\PSoC4/spi.c ****         spi_rxBufferRead  = 0u;
ARM GAS  C:\Users\dmr85\AppData\Local\Temp\ccBWcmjg.s 			page 3


  88:Generated_Source\PSoC4/spi.c ****         spi_rxBufferWrite = 0u;
  89:Generated_Source\PSoC4/spi.c ****     #endif /* (spi_RX_SOFTWARE_BUF_ENABLED) */
  90:Generated_Source\PSoC4/spi.c **** 
  91:Generated_Source\PSoC4/spi.c ****     #if(spi_TX_SOFTWARE_BUF_ENABLED)
  92:Generated_Source\PSoC4/spi.c ****         spi_txBufferFull  = 0u;
  93:Generated_Source\PSoC4/spi.c ****         spi_txBufferRead  = 0u;
  94:Generated_Source\PSoC4/spi.c ****         spi_txBufferWrite = 0u;
  95:Generated_Source\PSoC4/spi.c ****     #endif /* (spi_TX_SOFTWARE_BUF_ENABLED) */
  96:Generated_Source\PSoC4/spi.c **** 
  97:Generated_Source\PSoC4/spi.c ****     (void) spi_ReadTxStatus(); /* Clear Tx status and swStatusTx */
  98:Generated_Source\PSoC4/spi.c ****     (void) spi_ReadRxStatus(); /* Clear Rx status and swStatusRx */
  99:Generated_Source\PSoC4/spi.c **** 
 100:Generated_Source\PSoC4/spi.c ****     /* Configure TX and RX interrupt mask */
 101:Generated_Source\PSoC4/spi.c ****     spi_TX_STATUS_MASK_REG = spi_TX_INIT_INTERRUPTS_MASK;
 102:Generated_Source\PSoC4/spi.c ****     spi_RX_STATUS_MASK_REG = spi_RX_INIT_INTERRUPTS_MASK;
 103:Generated_Source\PSoC4/spi.c **** }
 104:Generated_Source\PSoC4/spi.c **** 
 105:Generated_Source\PSoC4/spi.c **** 
 106:Generated_Source\PSoC4/spi.c **** /*******************************************************************************
 107:Generated_Source\PSoC4/spi.c **** * Function Name: spi_Enable
 108:Generated_Source\PSoC4/spi.c **** ********************************************************************************
 109:Generated_Source\PSoC4/spi.c **** *
 110:Generated_Source\PSoC4/spi.c **** * Summary:
 111:Generated_Source\PSoC4/spi.c **** *  Enable SPIM component.
 112:Generated_Source\PSoC4/spi.c **** *
 113:Generated_Source\PSoC4/spi.c **** * Parameters:
 114:Generated_Source\PSoC4/spi.c **** *  None.
 115:Generated_Source\PSoC4/spi.c **** *
 116:Generated_Source\PSoC4/spi.c **** * Return:
 117:Generated_Source\PSoC4/spi.c **** *  None.
 118:Generated_Source\PSoC4/spi.c **** *
 119:Generated_Source\PSoC4/spi.c **** *******************************************************************************/
 120:Generated_Source\PSoC4/spi.c **** void spi_Enable(void) 
 121:Generated_Source\PSoC4/spi.c **** {
  28              		.loc 1 121 0
  29              		.cfi_startproc
  30              		@ args = 0, pretend = 0, frame = 0
  31              		@ frame_needed = 0, uses_anonymous_args = 0
  32 0000 10B5     		push	{r4, lr}
  33              		.cfi_def_cfa_offset 8
  34              		.cfi_offset 4, -8
  35              		.cfi_offset 14, -4
 122:Generated_Source\PSoC4/spi.c ****     uint8 enableInterrupts;
 123:Generated_Source\PSoC4/spi.c **** 
 124:Generated_Source\PSoC4/spi.c ****     enableInterrupts = CyEnterCriticalSection();
  36              		.loc 1 124 0
  37 0002 FFF7FEFF 		bl	CyEnterCriticalSection
  38              	.LVL0:
 125:Generated_Source\PSoC4/spi.c ****     spi_COUNTER_CONTROL_REG |= spi_CNTR_ENABLE;
  39              		.loc 1 125 0
  40 0006 0A4A     		ldr	r2, .L2
  41 0008 1178     		ldrb	r1, [r2]
  42 000a 2023     		movs	r3, #32
  43 000c 0B43     		orrs	r3, r1
  44 000e DBB2     		uxtb	r3, r3
  45 0010 1370     		strb	r3, [r2]
 126:Generated_Source\PSoC4/spi.c ****     spi_TX_STATUS_ACTL_REG  |= spi_INT_ENABLE;
ARM GAS  C:\Users\dmr85\AppData\Local\Temp\ccBWcmjg.s 			page 4


  46              		.loc 1 126 0
  47 0012 0849     		ldr	r1, .L2+4
  48 0014 0A78     		ldrb	r2, [r1]
  49 0016 1023     		movs	r3, #16
  50 0018 1A43     		orrs	r2, r3
  51 001a D2B2     		uxtb	r2, r2
  52 001c 0A70     		strb	r2, [r1]
 127:Generated_Source\PSoC4/spi.c ****     spi_RX_STATUS_ACTL_REG  |= spi_INT_ENABLE;
  53              		.loc 1 127 0
  54 001e 064A     		ldr	r2, .L2+8
  55 0020 1178     		ldrb	r1, [r2]
  56 0022 0B43     		orrs	r3, r1
  57 0024 DBB2     		uxtb	r3, r3
  58 0026 1370     		strb	r3, [r2]
 128:Generated_Source\PSoC4/spi.c ****     CyExitCriticalSection(enableInterrupts);
  59              		.loc 1 128 0
  60 0028 FFF7FEFF 		bl	CyExitCriticalSection
  61              	.LVL1:
 129:Generated_Source\PSoC4/spi.c **** 
 130:Generated_Source\PSoC4/spi.c ****     #if(0u != spi_INTERNAL_CLOCK)
 131:Generated_Source\PSoC4/spi.c ****         spi_IntClock_Enable();
 132:Generated_Source\PSoC4/spi.c ****     #endif /* (0u != spi_INTERNAL_CLOCK) */
 133:Generated_Source\PSoC4/spi.c **** 
 134:Generated_Source\PSoC4/spi.c ****     spi_EnableTxInt();
 135:Generated_Source\PSoC4/spi.c ****     spi_EnableRxInt();
 136:Generated_Source\PSoC4/spi.c **** }
  62              		.loc 1 136 0
  63              		@ sp needed
  64 002c 10BD     		pop	{r4, pc}
  65              	.L3:
  66 002e C046     		.align	2
  67              	.L2:
  68 0030 91000F40 		.word	1074725009
  69 0034 90000F40 		.word	1074725008
  70 0038 92000F40 		.word	1074725010
  71              		.cfi_endproc
  72              	.LFE3:
  73              		.size	spi_Enable, .-spi_Enable
  74              		.section	.text.spi_Stop,"ax",%progbits
  75              		.align	2
  76              		.global	spi_Stop
  77              		.code	16
  78              		.thumb_func
  79              		.type	spi_Stop, %function
  80              	spi_Stop:
  81              	.LFB5:
 137:Generated_Source\PSoC4/spi.c **** 
 138:Generated_Source\PSoC4/spi.c **** 
 139:Generated_Source\PSoC4/spi.c **** /*******************************************************************************
 140:Generated_Source\PSoC4/spi.c **** * Function Name: spi_Start
 141:Generated_Source\PSoC4/spi.c **** ********************************************************************************
 142:Generated_Source\PSoC4/spi.c **** *
 143:Generated_Source\PSoC4/spi.c **** * Summary:
 144:Generated_Source\PSoC4/spi.c **** *  Initialize and Enable the SPI Master component.
 145:Generated_Source\PSoC4/spi.c **** *
 146:Generated_Source\PSoC4/spi.c **** * Parameters:
 147:Generated_Source\PSoC4/spi.c **** *  None.
ARM GAS  C:\Users\dmr85\AppData\Local\Temp\ccBWcmjg.s 			page 5


 148:Generated_Source\PSoC4/spi.c **** *
 149:Generated_Source\PSoC4/spi.c **** * Return:
 150:Generated_Source\PSoC4/spi.c **** *  None.
 151:Generated_Source\PSoC4/spi.c **** *
 152:Generated_Source\PSoC4/spi.c **** * Global variables:
 153:Generated_Source\PSoC4/spi.c **** *  spi_initVar - used to check initial configuration, modified on
 154:Generated_Source\PSoC4/spi.c **** *  first function call.
 155:Generated_Source\PSoC4/spi.c **** *
 156:Generated_Source\PSoC4/spi.c **** * Theory:
 157:Generated_Source\PSoC4/spi.c **** *  Enable the clock input to enable operation.
 158:Generated_Source\PSoC4/spi.c **** *
 159:Generated_Source\PSoC4/spi.c **** * Reentrant:
 160:Generated_Source\PSoC4/spi.c **** *  No.
 161:Generated_Source\PSoC4/spi.c **** *
 162:Generated_Source\PSoC4/spi.c **** *******************************************************************************/
 163:Generated_Source\PSoC4/spi.c **** void spi_Start(void) 
 164:Generated_Source\PSoC4/spi.c **** {
 165:Generated_Source\PSoC4/spi.c ****     if(0u == spi_initVar)
 166:Generated_Source\PSoC4/spi.c ****     {
 167:Generated_Source\PSoC4/spi.c ****         spi_Init();
 168:Generated_Source\PSoC4/spi.c ****         spi_initVar = 1u;
 169:Generated_Source\PSoC4/spi.c ****     }
 170:Generated_Source\PSoC4/spi.c **** 
 171:Generated_Source\PSoC4/spi.c ****     spi_Enable();
 172:Generated_Source\PSoC4/spi.c **** }
 173:Generated_Source\PSoC4/spi.c **** 
 174:Generated_Source\PSoC4/spi.c **** 
 175:Generated_Source\PSoC4/spi.c **** /*******************************************************************************
 176:Generated_Source\PSoC4/spi.c **** * Function Name: spi_Stop
 177:Generated_Source\PSoC4/spi.c **** ********************************************************************************
 178:Generated_Source\PSoC4/spi.c **** *
 179:Generated_Source\PSoC4/spi.c **** * Summary:
 180:Generated_Source\PSoC4/spi.c **** *  Disable the SPI Master component.
 181:Generated_Source\PSoC4/spi.c **** *
 182:Generated_Source\PSoC4/spi.c **** * Parameters:
 183:Generated_Source\PSoC4/spi.c **** *  None.
 184:Generated_Source\PSoC4/spi.c **** *
 185:Generated_Source\PSoC4/spi.c **** * Return:
 186:Generated_Source\PSoC4/spi.c **** *  None.
 187:Generated_Source\PSoC4/spi.c **** *
 188:Generated_Source\PSoC4/spi.c **** * Theory:
 189:Generated_Source\PSoC4/spi.c **** *  Disable the clock input to enable operation.
 190:Generated_Source\PSoC4/spi.c **** *
 191:Generated_Source\PSoC4/spi.c **** *******************************************************************************/
 192:Generated_Source\PSoC4/spi.c **** void spi_Stop(void) 
 193:Generated_Source\PSoC4/spi.c **** {
  82              		.loc 1 193 0
  83              		.cfi_startproc
  84              		@ args = 0, pretend = 0, frame = 0
  85              		@ frame_needed = 0, uses_anonymous_args = 0
  86 0000 10B5     		push	{r4, lr}
  87              		.cfi_def_cfa_offset 8
  88              		.cfi_offset 4, -8
  89              		.cfi_offset 14, -4
 194:Generated_Source\PSoC4/spi.c ****     uint8 enableInterrupts;
 195:Generated_Source\PSoC4/spi.c **** 
 196:Generated_Source\PSoC4/spi.c ****     enableInterrupts = CyEnterCriticalSection();
ARM GAS  C:\Users\dmr85\AppData\Local\Temp\ccBWcmjg.s 			page 6


  90              		.loc 1 196 0
  91 0002 FFF7FEFF 		bl	CyEnterCriticalSection
  92              	.LVL2:
 197:Generated_Source\PSoC4/spi.c ****     spi_TX_STATUS_ACTL_REG &= ((uint8) ~spi_INT_ENABLE);
  93              		.loc 1 197 0
  94 0006 064A     		ldr	r2, .L5
  95 0008 1378     		ldrb	r3, [r2]
  96 000a 1021     		movs	r1, #16
  97 000c 8B43     		bics	r3, r1
  98 000e 1370     		strb	r3, [r2]
 198:Generated_Source\PSoC4/spi.c ****     spi_RX_STATUS_ACTL_REG &= ((uint8) ~spi_INT_ENABLE);
  99              		.loc 1 198 0
 100 0010 044A     		ldr	r2, .L5+4
 101 0012 1378     		ldrb	r3, [r2]
 102 0014 8B43     		bics	r3, r1
 103 0016 1370     		strb	r3, [r2]
 199:Generated_Source\PSoC4/spi.c ****     CyExitCriticalSection(enableInterrupts);
 104              		.loc 1 199 0
 105 0018 FFF7FEFF 		bl	CyExitCriticalSection
 106              	.LVL3:
 200:Generated_Source\PSoC4/spi.c **** 
 201:Generated_Source\PSoC4/spi.c ****     #if(0u != spi_INTERNAL_CLOCK)
 202:Generated_Source\PSoC4/spi.c ****         spi_IntClock_Disable();
 203:Generated_Source\PSoC4/spi.c ****     #endif /* (0u != spi_INTERNAL_CLOCK) */
 204:Generated_Source\PSoC4/spi.c **** 
 205:Generated_Source\PSoC4/spi.c ****     spi_DisableTxInt();
 206:Generated_Source\PSoC4/spi.c ****     spi_DisableRxInt();
 207:Generated_Source\PSoC4/spi.c **** }
 107              		.loc 1 207 0
 108              		@ sp needed
 109 001c 10BD     		pop	{r4, pc}
 110              	.L6:
 111 001e C046     		.align	2
 112              	.L5:
 113 0020 90000F40 		.word	1074725008
 114 0024 92000F40 		.word	1074725010
 115              		.cfi_endproc
 116              	.LFE5:
 117              		.size	spi_Stop, .-spi_Stop
 118              		.section	.text.spi_EnableTxInt,"ax",%progbits
 119              		.align	2
 120              		.global	spi_EnableTxInt
 121              		.code	16
 122              		.thumb_func
 123              		.type	spi_EnableTxInt, %function
 124              	spi_EnableTxInt:
 125              	.LFB6:
 208:Generated_Source\PSoC4/spi.c **** 
 209:Generated_Source\PSoC4/spi.c **** 
 210:Generated_Source\PSoC4/spi.c **** /*******************************************************************************
 211:Generated_Source\PSoC4/spi.c **** * Function Name: spi_EnableTxInt
 212:Generated_Source\PSoC4/spi.c **** ********************************************************************************
 213:Generated_Source\PSoC4/spi.c **** *
 214:Generated_Source\PSoC4/spi.c **** * Summary:
 215:Generated_Source\PSoC4/spi.c **** *  Enable internal Tx interrupt generation.
 216:Generated_Source\PSoC4/spi.c **** *
 217:Generated_Source\PSoC4/spi.c **** * Parameters:
ARM GAS  C:\Users\dmr85\AppData\Local\Temp\ccBWcmjg.s 			page 7


 218:Generated_Source\PSoC4/spi.c **** *  None.
 219:Generated_Source\PSoC4/spi.c **** *
 220:Generated_Source\PSoC4/spi.c **** * Return:
 221:Generated_Source\PSoC4/spi.c **** *  None.
 222:Generated_Source\PSoC4/spi.c **** *
 223:Generated_Source\PSoC4/spi.c **** * Theory:
 224:Generated_Source\PSoC4/spi.c **** *  Enable the internal Tx interrupt output -or- the interrupt component itself.
 225:Generated_Source\PSoC4/spi.c **** *
 226:Generated_Source\PSoC4/spi.c **** *******************************************************************************/
 227:Generated_Source\PSoC4/spi.c **** void spi_EnableTxInt(void) 
 228:Generated_Source\PSoC4/spi.c **** {
 126              		.loc 1 228 0
 127              		.cfi_startproc
 128              		@ args = 0, pretend = 0, frame = 0
 129              		@ frame_needed = 0, uses_anonymous_args = 0
 130              		@ link register save eliminated.
 229:Generated_Source\PSoC4/spi.c ****     #if(0u != spi_INTERNAL_TX_INT_ENABLED)
 230:Generated_Source\PSoC4/spi.c ****         CyIntEnable(spi_TX_ISR_NUMBER);
 231:Generated_Source\PSoC4/spi.c ****     #endif /* (0u != spi_INTERNAL_TX_INT_ENABLED) */
 232:Generated_Source\PSoC4/spi.c **** }
 131              		.loc 1 232 0
 132              		@ sp needed
 133 0000 7047     		bx	lr
 134              		.cfi_endproc
 135              	.LFE6:
 136              		.size	spi_EnableTxInt, .-spi_EnableTxInt
 137 0002 C046     		.section	.text.spi_EnableRxInt,"ax",%progbits
 138              		.align	2
 139              		.global	spi_EnableRxInt
 140              		.code	16
 141              		.thumb_func
 142              		.type	spi_EnableRxInt, %function
 143              	spi_EnableRxInt:
 144              	.LFB7:
 233:Generated_Source\PSoC4/spi.c **** 
 234:Generated_Source\PSoC4/spi.c **** 
 235:Generated_Source\PSoC4/spi.c **** /*******************************************************************************
 236:Generated_Source\PSoC4/spi.c **** * Function Name: spi_EnableRxInt
 237:Generated_Source\PSoC4/spi.c **** ********************************************************************************
 238:Generated_Source\PSoC4/spi.c **** *
 239:Generated_Source\PSoC4/spi.c **** * Summary:
 240:Generated_Source\PSoC4/spi.c **** *  Enable internal Rx interrupt generation.
 241:Generated_Source\PSoC4/spi.c **** *
 242:Generated_Source\PSoC4/spi.c **** * Parameters:
 243:Generated_Source\PSoC4/spi.c **** *  None.
 244:Generated_Source\PSoC4/spi.c **** *
 245:Generated_Source\PSoC4/spi.c **** * Return:
 246:Generated_Source\PSoC4/spi.c **** *  None.
 247:Generated_Source\PSoC4/spi.c **** *
 248:Generated_Source\PSoC4/spi.c **** * Theory:
 249:Generated_Source\PSoC4/spi.c **** *  Enable the internal Rx interrupt output -or- the interrupt component itself.
 250:Generated_Source\PSoC4/spi.c **** *
 251:Generated_Source\PSoC4/spi.c **** *******************************************************************************/
 252:Generated_Source\PSoC4/spi.c **** void spi_EnableRxInt(void) 
 253:Generated_Source\PSoC4/spi.c **** {
 145              		.loc 1 253 0
 146              		.cfi_startproc
ARM GAS  C:\Users\dmr85\AppData\Local\Temp\ccBWcmjg.s 			page 8


 147              		@ args = 0, pretend = 0, frame = 0
 148              		@ frame_needed = 0, uses_anonymous_args = 0
 149              		@ link register save eliminated.
 254:Generated_Source\PSoC4/spi.c ****     #if(0u != spi_INTERNAL_RX_INT_ENABLED)
 255:Generated_Source\PSoC4/spi.c ****         CyIntEnable(spi_RX_ISR_NUMBER);
 256:Generated_Source\PSoC4/spi.c ****     #endif /* (0u != spi_INTERNAL_RX_INT_ENABLED) */
 257:Generated_Source\PSoC4/spi.c **** }
 150              		.loc 1 257 0
 151              		@ sp needed
 152 0000 7047     		bx	lr
 153              		.cfi_endproc
 154              	.LFE7:
 155              		.size	spi_EnableRxInt, .-spi_EnableRxInt
 156 0002 C046     		.section	.text.spi_DisableTxInt,"ax",%progbits
 157              		.align	2
 158              		.global	spi_DisableTxInt
 159              		.code	16
 160              		.thumb_func
 161              		.type	spi_DisableTxInt, %function
 162              	spi_DisableTxInt:
 163              	.LFB8:
 258:Generated_Source\PSoC4/spi.c **** 
 259:Generated_Source\PSoC4/spi.c **** 
 260:Generated_Source\PSoC4/spi.c **** /*******************************************************************************
 261:Generated_Source\PSoC4/spi.c **** * Function Name: spi_DisableTxInt
 262:Generated_Source\PSoC4/spi.c **** ********************************************************************************
 263:Generated_Source\PSoC4/spi.c **** *
 264:Generated_Source\PSoC4/spi.c **** * Summary:
 265:Generated_Source\PSoC4/spi.c **** *  Disable internal Tx interrupt generation.
 266:Generated_Source\PSoC4/spi.c **** *
 267:Generated_Source\PSoC4/spi.c **** * Parameters:
 268:Generated_Source\PSoC4/spi.c **** *  None.
 269:Generated_Source\PSoC4/spi.c **** *
 270:Generated_Source\PSoC4/spi.c **** * Return:
 271:Generated_Source\PSoC4/spi.c **** *  None.
 272:Generated_Source\PSoC4/spi.c **** *
 273:Generated_Source\PSoC4/spi.c **** * Theory:
 274:Generated_Source\PSoC4/spi.c **** *  Disable the internal Tx interrupt output -or- the interrupt component itself.
 275:Generated_Source\PSoC4/spi.c **** *
 276:Generated_Source\PSoC4/spi.c **** *******************************************************************************/
 277:Generated_Source\PSoC4/spi.c **** void spi_DisableTxInt(void) 
 278:Generated_Source\PSoC4/spi.c **** {
 164              		.loc 1 278 0
 165              		.cfi_startproc
 166              		@ args = 0, pretend = 0, frame = 0
 167              		@ frame_needed = 0, uses_anonymous_args = 0
 168              		@ link register save eliminated.
 279:Generated_Source\PSoC4/spi.c ****     #if(0u != spi_INTERNAL_TX_INT_ENABLED)
 280:Generated_Source\PSoC4/spi.c ****         CyIntDisable(spi_TX_ISR_NUMBER);
 281:Generated_Source\PSoC4/spi.c ****     #endif /* (0u != spi_INTERNAL_TX_INT_ENABLED) */
 282:Generated_Source\PSoC4/spi.c **** }
 169              		.loc 1 282 0
 170              		@ sp needed
 171 0000 7047     		bx	lr
 172              		.cfi_endproc
 173              	.LFE8:
 174              		.size	spi_DisableTxInt, .-spi_DisableTxInt
ARM GAS  C:\Users\dmr85\AppData\Local\Temp\ccBWcmjg.s 			page 9


 175 0002 C046     		.section	.text.spi_DisableRxInt,"ax",%progbits
 176              		.align	2
 177              		.global	spi_DisableRxInt
 178              		.code	16
 179              		.thumb_func
 180              		.type	spi_DisableRxInt, %function
 181              	spi_DisableRxInt:
 182              	.LFB9:
 283:Generated_Source\PSoC4/spi.c **** 
 284:Generated_Source\PSoC4/spi.c **** 
 285:Generated_Source\PSoC4/spi.c **** /*******************************************************************************
 286:Generated_Source\PSoC4/spi.c **** * Function Name: spi_DisableRxInt
 287:Generated_Source\PSoC4/spi.c **** ********************************************************************************
 288:Generated_Source\PSoC4/spi.c **** *
 289:Generated_Source\PSoC4/spi.c **** * Summary:
 290:Generated_Source\PSoC4/spi.c **** *  Disable internal Rx interrupt generation.
 291:Generated_Source\PSoC4/spi.c **** *
 292:Generated_Source\PSoC4/spi.c **** * Parameters:
 293:Generated_Source\PSoC4/spi.c **** *  None.
 294:Generated_Source\PSoC4/spi.c **** *
 295:Generated_Source\PSoC4/spi.c **** * Return:
 296:Generated_Source\PSoC4/spi.c **** *  None.
 297:Generated_Source\PSoC4/spi.c **** *
 298:Generated_Source\PSoC4/spi.c **** * Theory:
 299:Generated_Source\PSoC4/spi.c **** *  Disable the internal Rx interrupt output -or- the interrupt component itself.
 300:Generated_Source\PSoC4/spi.c **** *
 301:Generated_Source\PSoC4/spi.c **** *******************************************************************************/
 302:Generated_Source\PSoC4/spi.c **** void spi_DisableRxInt(void) 
 303:Generated_Source\PSoC4/spi.c **** {
 183              		.loc 1 303 0
 184              		.cfi_startproc
 185              		@ args = 0, pretend = 0, frame = 0
 186              		@ frame_needed = 0, uses_anonymous_args = 0
 187              		@ link register save eliminated.
 304:Generated_Source\PSoC4/spi.c ****     #if(0u != spi_INTERNAL_RX_INT_ENABLED)
 305:Generated_Source\PSoC4/spi.c ****         CyIntDisable(spi_RX_ISR_NUMBER);
 306:Generated_Source\PSoC4/spi.c ****     #endif /* (0u != spi_INTERNAL_RX_INT_ENABLED) */
 307:Generated_Source\PSoC4/spi.c **** }
 188              		.loc 1 307 0
 189              		@ sp needed
 190 0000 7047     		bx	lr
 191              		.cfi_endproc
 192              	.LFE9:
 193              		.size	spi_DisableRxInt, .-spi_DisableRxInt
 194 0002 C046     		.section	.text.spi_SetTxInterruptMode,"ax",%progbits
 195              		.align	2
 196              		.global	spi_SetTxInterruptMode
 197              		.code	16
 198              		.thumb_func
 199              		.type	spi_SetTxInterruptMode, %function
 200              	spi_SetTxInterruptMode:
 201              	.LFB10:
 308:Generated_Source\PSoC4/spi.c **** 
 309:Generated_Source\PSoC4/spi.c **** 
 310:Generated_Source\PSoC4/spi.c **** /*******************************************************************************
 311:Generated_Source\PSoC4/spi.c **** * Function Name: spi_SetTxInterruptMode
 312:Generated_Source\PSoC4/spi.c **** ********************************************************************************
ARM GAS  C:\Users\dmr85\AppData\Local\Temp\ccBWcmjg.s 			page 10


 313:Generated_Source\PSoC4/spi.c **** *
 314:Generated_Source\PSoC4/spi.c **** * Summary:
 315:Generated_Source\PSoC4/spi.c **** *  Configure which status bits trigger an interrupt event.
 316:Generated_Source\PSoC4/spi.c **** *
 317:Generated_Source\PSoC4/spi.c **** * Parameters:
 318:Generated_Source\PSoC4/spi.c **** *  intSrc: An or'd combination of the desired status bit masks (defined in the
 319:Generated_Source\PSoC4/spi.c **** *  header file).
 320:Generated_Source\PSoC4/spi.c **** *
 321:Generated_Source\PSoC4/spi.c **** * Return:
 322:Generated_Source\PSoC4/spi.c **** *  None.
 323:Generated_Source\PSoC4/spi.c **** *
 324:Generated_Source\PSoC4/spi.c **** * Theory:
 325:Generated_Source\PSoC4/spi.c **** *  Enables the output of specific status bits to the interrupt controller.
 326:Generated_Source\PSoC4/spi.c **** *
 327:Generated_Source\PSoC4/spi.c **** *******************************************************************************/
 328:Generated_Source\PSoC4/spi.c **** void spi_SetTxInterruptMode(uint8 intSrc) 
 329:Generated_Source\PSoC4/spi.c **** {
 202              		.loc 1 329 0
 203              		.cfi_startproc
 204              		@ args = 0, pretend = 0, frame = 0
 205              		@ frame_needed = 0, uses_anonymous_args = 0
 206              		@ link register save eliminated.
 207              	.LVL4:
 330:Generated_Source\PSoC4/spi.c ****     spi_TX_STATUS_MASK_REG = intSrc;
 208              		.loc 1 330 0
 209 0000 014B     		ldr	r3, .L12
 210 0002 1870     		strb	r0, [r3]
 331:Generated_Source\PSoC4/spi.c **** }
 211              		.loc 1 331 0
 212              		@ sp needed
 213 0004 7047     		bx	lr
 214              	.L13:
 215 0006 C046     		.align	2
 216              	.L12:
 217 0008 80000F40 		.word	1074724992
 218              		.cfi_endproc
 219              	.LFE10:
 220              		.size	spi_SetTxInterruptMode, .-spi_SetTxInterruptMode
 221              		.section	.text.spi_SetRxInterruptMode,"ax",%progbits
 222              		.align	2
 223              		.global	spi_SetRxInterruptMode
 224              		.code	16
 225              		.thumb_func
 226              		.type	spi_SetRxInterruptMode, %function
 227              	spi_SetRxInterruptMode:
 228              	.LFB11:
 332:Generated_Source\PSoC4/spi.c **** 
 333:Generated_Source\PSoC4/spi.c **** 
 334:Generated_Source\PSoC4/spi.c **** /*******************************************************************************
 335:Generated_Source\PSoC4/spi.c **** * Function Name: spi_SetRxInterruptMode
 336:Generated_Source\PSoC4/spi.c **** ********************************************************************************
 337:Generated_Source\PSoC4/spi.c **** *
 338:Generated_Source\PSoC4/spi.c **** * Summary:
 339:Generated_Source\PSoC4/spi.c **** *  Configure which status bits trigger an interrupt event.
 340:Generated_Source\PSoC4/spi.c **** *
 341:Generated_Source\PSoC4/spi.c **** * Parameters:
 342:Generated_Source\PSoC4/spi.c **** *  intSrc: An or'd combination of the desired status bit masks (defined in the
ARM GAS  C:\Users\dmr85\AppData\Local\Temp\ccBWcmjg.s 			page 11


 343:Generated_Source\PSoC4/spi.c **** *  header file).
 344:Generated_Source\PSoC4/spi.c **** *
 345:Generated_Source\PSoC4/spi.c **** * Return:
 346:Generated_Source\PSoC4/spi.c **** *  None.
 347:Generated_Source\PSoC4/spi.c **** *
 348:Generated_Source\PSoC4/spi.c **** * Theory:
 349:Generated_Source\PSoC4/spi.c **** *  Enables the output of specific status bits to the interrupt controller.
 350:Generated_Source\PSoC4/spi.c **** *
 351:Generated_Source\PSoC4/spi.c **** *******************************************************************************/
 352:Generated_Source\PSoC4/spi.c **** void spi_SetRxInterruptMode(uint8 intSrc) 
 353:Generated_Source\PSoC4/spi.c **** {
 229              		.loc 1 353 0
 230              		.cfi_startproc
 231              		@ args = 0, pretend = 0, frame = 0
 232              		@ frame_needed = 0, uses_anonymous_args = 0
 233              		@ link register save eliminated.
 234              	.LVL5:
 354:Generated_Source\PSoC4/spi.c ****     spi_RX_STATUS_MASK_REG  = intSrc;
 235              		.loc 1 354 0
 236 0000 014B     		ldr	r3, .L15
 237 0002 1870     		strb	r0, [r3]
 355:Generated_Source\PSoC4/spi.c **** }
 238              		.loc 1 355 0
 239              		@ sp needed
 240 0004 7047     		bx	lr
 241              	.L16:
 242 0006 C046     		.align	2
 243              	.L15:
 244 0008 82000F40 		.word	1074724994
 245              		.cfi_endproc
 246              	.LFE11:
 247              		.size	spi_SetRxInterruptMode, .-spi_SetRxInterruptMode
 248              		.section	.text.spi_ReadTxStatus,"ax",%progbits
 249              		.align	2
 250              		.global	spi_ReadTxStatus
 251              		.code	16
 252              		.thumb_func
 253              		.type	spi_ReadTxStatus, %function
 254              	spi_ReadTxStatus:
 255              	.LFB12:
 356:Generated_Source\PSoC4/spi.c **** 
 357:Generated_Source\PSoC4/spi.c **** 
 358:Generated_Source\PSoC4/spi.c **** /*******************************************************************************
 359:Generated_Source\PSoC4/spi.c **** * Function Name: spi_ReadTxStatus
 360:Generated_Source\PSoC4/spi.c **** ********************************************************************************
 361:Generated_Source\PSoC4/spi.c **** *
 362:Generated_Source\PSoC4/spi.c **** * Summary:
 363:Generated_Source\PSoC4/spi.c **** *  Read the Tx status register for the component.
 364:Generated_Source\PSoC4/spi.c **** *
 365:Generated_Source\PSoC4/spi.c **** * Parameters:
 366:Generated_Source\PSoC4/spi.c **** *  None.
 367:Generated_Source\PSoC4/spi.c **** *
 368:Generated_Source\PSoC4/spi.c **** * Return:
 369:Generated_Source\PSoC4/spi.c **** *  Contents of the Tx status register.
 370:Generated_Source\PSoC4/spi.c **** *
 371:Generated_Source\PSoC4/spi.c **** * Global variables:
 372:Generated_Source\PSoC4/spi.c **** *  spi_swStatusTx - used to store in software status register,
ARM GAS  C:\Users\dmr85\AppData\Local\Temp\ccBWcmjg.s 			page 12


 373:Generated_Source\PSoC4/spi.c **** *  modified every function call - resets to zero.
 374:Generated_Source\PSoC4/spi.c **** *
 375:Generated_Source\PSoC4/spi.c **** * Theory:
 376:Generated_Source\PSoC4/spi.c **** *  Allows the user and the API to read the Tx status register for error
 377:Generated_Source\PSoC4/spi.c **** *  detection and flow control.
 378:Generated_Source\PSoC4/spi.c **** *
 379:Generated_Source\PSoC4/spi.c **** * Side Effects:
 380:Generated_Source\PSoC4/spi.c **** *  Clear Tx status register of the component.
 381:Generated_Source\PSoC4/spi.c **** *
 382:Generated_Source\PSoC4/spi.c **** * Reentrant:
 383:Generated_Source\PSoC4/spi.c **** *  No.
 384:Generated_Source\PSoC4/spi.c **** *
 385:Generated_Source\PSoC4/spi.c **** *******************************************************************************/
 386:Generated_Source\PSoC4/spi.c **** uint8 spi_ReadTxStatus(void) 
 387:Generated_Source\PSoC4/spi.c **** {
 256              		.loc 1 387 0
 257              		.cfi_startproc
 258              		@ args = 0, pretend = 0, frame = 0
 259              		@ frame_needed = 0, uses_anonymous_args = 0
 260              		@ link register save eliminated.
 388:Generated_Source\PSoC4/spi.c ****     uint8 tmpStatus;
 389:Generated_Source\PSoC4/spi.c **** 
 390:Generated_Source\PSoC4/spi.c ****     #if(spi_TX_SOFTWARE_BUF_ENABLED)
 391:Generated_Source\PSoC4/spi.c ****         /* Disable TX interrupt to protect global veriables */
 392:Generated_Source\PSoC4/spi.c ****         spi_DisableTxInt();
 393:Generated_Source\PSoC4/spi.c **** 
 394:Generated_Source\PSoC4/spi.c ****         tmpStatus = spi_GET_STATUS_TX(spi_swStatusTx);
 395:Generated_Source\PSoC4/spi.c ****         spi_swStatusTx = 0u;
 396:Generated_Source\PSoC4/spi.c **** 
 397:Generated_Source\PSoC4/spi.c ****         spi_EnableTxInt();
 398:Generated_Source\PSoC4/spi.c **** 
 399:Generated_Source\PSoC4/spi.c ****     #else
 400:Generated_Source\PSoC4/spi.c **** 
 401:Generated_Source\PSoC4/spi.c ****         tmpStatus = spi_TX_STATUS_REG;
 261              		.loc 1 401 0
 262 0000 014B     		ldr	r3, .L18
 263 0002 1878     		ldrb	r0, [r3]
 264 0004 C0B2     		uxtb	r0, r0
 265              	.LVL6:
 402:Generated_Source\PSoC4/spi.c **** 
 403:Generated_Source\PSoC4/spi.c ****     #endif /* (spi_TX_SOFTWARE_BUF_ENABLED) */
 404:Generated_Source\PSoC4/spi.c **** 
 405:Generated_Source\PSoC4/spi.c ****     return(tmpStatus);
 406:Generated_Source\PSoC4/spi.c **** }
 266              		.loc 1 406 0
 267              		@ sp needed
 268 0006 7047     		bx	lr
 269              	.L19:
 270              		.align	2
 271              	.L18:
 272 0008 60000F40 		.word	1074724960
 273              		.cfi_endproc
 274              	.LFE12:
 275              		.size	spi_ReadTxStatus, .-spi_ReadTxStatus
 276              		.section	.text.spi_ReadRxStatus,"ax",%progbits
 277              		.align	2
 278              		.global	spi_ReadRxStatus
ARM GAS  C:\Users\dmr85\AppData\Local\Temp\ccBWcmjg.s 			page 13


 279              		.code	16
 280              		.thumb_func
 281              		.type	spi_ReadRxStatus, %function
 282              	spi_ReadRxStatus:
 283              	.LFB13:
 407:Generated_Source\PSoC4/spi.c **** 
 408:Generated_Source\PSoC4/spi.c **** 
 409:Generated_Source\PSoC4/spi.c **** /*******************************************************************************
 410:Generated_Source\PSoC4/spi.c **** * Function Name: spi_ReadRxStatus
 411:Generated_Source\PSoC4/spi.c **** ********************************************************************************
 412:Generated_Source\PSoC4/spi.c **** *
 413:Generated_Source\PSoC4/spi.c **** * Summary:
 414:Generated_Source\PSoC4/spi.c **** *  Read the Rx status register for the component.
 415:Generated_Source\PSoC4/spi.c **** *
 416:Generated_Source\PSoC4/spi.c **** * Parameters:
 417:Generated_Source\PSoC4/spi.c **** *  None.
 418:Generated_Source\PSoC4/spi.c **** *
 419:Generated_Source\PSoC4/spi.c **** * Return:
 420:Generated_Source\PSoC4/spi.c **** *  Contents of the Rx status register.
 421:Generated_Source\PSoC4/spi.c **** *
 422:Generated_Source\PSoC4/spi.c **** * Global variables:
 423:Generated_Source\PSoC4/spi.c **** *  spi_swStatusRx - used to store in software Rx status register,
 424:Generated_Source\PSoC4/spi.c **** *  modified every function call - resets to zero.
 425:Generated_Source\PSoC4/spi.c **** *
 426:Generated_Source\PSoC4/spi.c **** * Theory:
 427:Generated_Source\PSoC4/spi.c **** *  Allows the user and the API to read the Rx status register for error
 428:Generated_Source\PSoC4/spi.c **** *  detection and flow control.
 429:Generated_Source\PSoC4/spi.c **** *
 430:Generated_Source\PSoC4/spi.c **** * Side Effects:
 431:Generated_Source\PSoC4/spi.c **** *  Clear Rx status register of the component.
 432:Generated_Source\PSoC4/spi.c **** *
 433:Generated_Source\PSoC4/spi.c **** * Reentrant:
 434:Generated_Source\PSoC4/spi.c **** *  No.
 435:Generated_Source\PSoC4/spi.c **** *
 436:Generated_Source\PSoC4/spi.c **** *******************************************************************************/
 437:Generated_Source\PSoC4/spi.c **** uint8 spi_ReadRxStatus(void) 
 438:Generated_Source\PSoC4/spi.c **** {
 284              		.loc 1 438 0
 285              		.cfi_startproc
 286              		@ args = 0, pretend = 0, frame = 0
 287              		@ frame_needed = 0, uses_anonymous_args = 0
 288              		@ link register save eliminated.
 439:Generated_Source\PSoC4/spi.c ****     uint8 tmpStatus;
 440:Generated_Source\PSoC4/spi.c **** 
 441:Generated_Source\PSoC4/spi.c ****     #if(spi_RX_SOFTWARE_BUF_ENABLED)
 442:Generated_Source\PSoC4/spi.c ****         /* Disable RX interrupt to protect global veriables */
 443:Generated_Source\PSoC4/spi.c ****         spi_DisableRxInt();
 444:Generated_Source\PSoC4/spi.c **** 
 445:Generated_Source\PSoC4/spi.c ****         tmpStatus = spi_GET_STATUS_RX(spi_swStatusRx);
 446:Generated_Source\PSoC4/spi.c ****         spi_swStatusRx = 0u;
 447:Generated_Source\PSoC4/spi.c **** 
 448:Generated_Source\PSoC4/spi.c ****         spi_EnableRxInt();
 449:Generated_Source\PSoC4/spi.c **** 
 450:Generated_Source\PSoC4/spi.c ****     #else
 451:Generated_Source\PSoC4/spi.c **** 
 452:Generated_Source\PSoC4/spi.c ****         tmpStatus = spi_RX_STATUS_REG;
 289              		.loc 1 452 0
ARM GAS  C:\Users\dmr85\AppData\Local\Temp\ccBWcmjg.s 			page 14


 290 0000 014B     		ldr	r3, .L21
 291 0002 1878     		ldrb	r0, [r3]
 292 0004 C0B2     		uxtb	r0, r0
 293              	.LVL7:
 453:Generated_Source\PSoC4/spi.c **** 
 454:Generated_Source\PSoC4/spi.c ****     #endif /* (spi_RX_SOFTWARE_BUF_ENABLED) */
 455:Generated_Source\PSoC4/spi.c **** 
 456:Generated_Source\PSoC4/spi.c ****     return(tmpStatus);
 457:Generated_Source\PSoC4/spi.c **** }
 294              		.loc 1 457 0
 295              		@ sp needed
 296 0006 7047     		bx	lr
 297              	.L22:
 298              		.align	2
 299              	.L21:
 300 0008 62000F40 		.word	1074724962
 301              		.cfi_endproc
 302              	.LFE13:
 303              		.size	spi_ReadRxStatus, .-spi_ReadRxStatus
 304              		.section	.text.spi_WriteTxData,"ax",%progbits
 305              		.align	2
 306              		.global	spi_WriteTxData
 307              		.code	16
 308              		.thumb_func
 309              		.type	spi_WriteTxData, %function
 310              	spi_WriteTxData:
 311              	.LFB14:
 458:Generated_Source\PSoC4/spi.c **** 
 459:Generated_Source\PSoC4/spi.c **** 
 460:Generated_Source\PSoC4/spi.c **** /*******************************************************************************
 461:Generated_Source\PSoC4/spi.c **** * Function Name: spi_WriteTxData
 462:Generated_Source\PSoC4/spi.c **** ********************************************************************************
 463:Generated_Source\PSoC4/spi.c **** *
 464:Generated_Source\PSoC4/spi.c **** * Summary:
 465:Generated_Source\PSoC4/spi.c **** *  Write a byte of data to be sent across the SPI.
 466:Generated_Source\PSoC4/spi.c **** *
 467:Generated_Source\PSoC4/spi.c **** * Parameters:
 468:Generated_Source\PSoC4/spi.c **** *  txDataByte: The data value to send across the SPI.
 469:Generated_Source\PSoC4/spi.c **** *
 470:Generated_Source\PSoC4/spi.c **** * Return:
 471:Generated_Source\PSoC4/spi.c **** *  None.
 472:Generated_Source\PSoC4/spi.c **** *
 473:Generated_Source\PSoC4/spi.c **** * Global variables:
 474:Generated_Source\PSoC4/spi.c **** *  spi_txBufferWrite - used for the account of the bytes which
 475:Generated_Source\PSoC4/spi.c **** *  have been written down in the TX software buffer, modified every function
 476:Generated_Source\PSoC4/spi.c **** *  call if TX Software Buffer is used.
 477:Generated_Source\PSoC4/spi.c **** *  spi_txBufferRead - used for the account of the bytes which
 478:Generated_Source\PSoC4/spi.c **** *  have been read from the TX software buffer.
 479:Generated_Source\PSoC4/spi.c **** *  spi_txBuffer[spi_TX_BUFFER_SIZE] - used to store
 480:Generated_Source\PSoC4/spi.c **** *  data to sending, modified every function call if TX Software Buffer is used.
 481:Generated_Source\PSoC4/spi.c **** *
 482:Generated_Source\PSoC4/spi.c **** * Theory:
 483:Generated_Source\PSoC4/spi.c **** *  Allows the user to transmit any byte of data in a single transfer.
 484:Generated_Source\PSoC4/spi.c **** *
 485:Generated_Source\PSoC4/spi.c **** * Side Effects:
 486:Generated_Source\PSoC4/spi.c **** *  If this function is called again before the previous byte is finished then
 487:Generated_Source\PSoC4/spi.c **** *  the next byte will be appended to the transfer with no time between
ARM GAS  C:\Users\dmr85\AppData\Local\Temp\ccBWcmjg.s 			page 15


 488:Generated_Source\PSoC4/spi.c **** *  the byte transfers. Clear Tx status register of the component.
 489:Generated_Source\PSoC4/spi.c **** *
 490:Generated_Source\PSoC4/spi.c **** * Reentrant:
 491:Generated_Source\PSoC4/spi.c **** *  No.
 492:Generated_Source\PSoC4/spi.c **** *
 493:Generated_Source\PSoC4/spi.c **** *******************************************************************************/
 494:Generated_Source\PSoC4/spi.c **** void spi_WriteTxData(uint8 txData) 
 495:Generated_Source\PSoC4/spi.c **** {
 312              		.loc 1 495 0
 313              		.cfi_startproc
 314              		@ args = 0, pretend = 0, frame = 0
 315              		@ frame_needed = 0, uses_anonymous_args = 0
 316              		@ link register save eliminated.
 317              	.LVL8:
 318              	.L24:
 496:Generated_Source\PSoC4/spi.c ****     #if(spi_TX_SOFTWARE_BUF_ENABLED)
 497:Generated_Source\PSoC4/spi.c **** 
 498:Generated_Source\PSoC4/spi.c ****         uint8 tempStatus;
 499:Generated_Source\PSoC4/spi.c ****         uint8 tmpTxBufferRead;
 500:Generated_Source\PSoC4/spi.c **** 
 501:Generated_Source\PSoC4/spi.c ****         /* Block if TX buffer is FULL: don't overwrite */
 502:Generated_Source\PSoC4/spi.c ****         do
 503:Generated_Source\PSoC4/spi.c ****         {
 504:Generated_Source\PSoC4/spi.c ****             tmpTxBufferRead = spi_txBufferRead;
 505:Generated_Source\PSoC4/spi.c ****             if(0u == tmpTxBufferRead)
 506:Generated_Source\PSoC4/spi.c ****             {
 507:Generated_Source\PSoC4/spi.c ****                 tmpTxBufferRead = (spi_TX_BUFFER_SIZE - 1u);
 508:Generated_Source\PSoC4/spi.c ****             }
 509:Generated_Source\PSoC4/spi.c ****             else
 510:Generated_Source\PSoC4/spi.c ****             {
 511:Generated_Source\PSoC4/spi.c ****                 tmpTxBufferRead--;
 512:Generated_Source\PSoC4/spi.c ****             }
 513:Generated_Source\PSoC4/spi.c **** 
 514:Generated_Source\PSoC4/spi.c ****         }while(tmpTxBufferRead == spi_txBufferWrite);
 515:Generated_Source\PSoC4/spi.c **** 
 516:Generated_Source\PSoC4/spi.c ****         /* Disable TX interrupt to protect global veriables */
 517:Generated_Source\PSoC4/spi.c ****         spi_DisableTxInt();
 518:Generated_Source\PSoC4/spi.c **** 
 519:Generated_Source\PSoC4/spi.c ****         tempStatus = spi_GET_STATUS_TX(spi_swStatusTx);
 520:Generated_Source\PSoC4/spi.c ****         spi_swStatusTx = tempStatus;
 521:Generated_Source\PSoC4/spi.c **** 
 522:Generated_Source\PSoC4/spi.c **** 
 523:Generated_Source\PSoC4/spi.c ****         if((spi_txBufferRead == spi_txBufferWrite) &&
 524:Generated_Source\PSoC4/spi.c ****            (0u != (spi_swStatusTx & spi_STS_TX_FIFO_NOT_FULL)))
 525:Generated_Source\PSoC4/spi.c ****         {
 526:Generated_Source\PSoC4/spi.c ****             /* Put data element into the TX FIFO */
 527:Generated_Source\PSoC4/spi.c ****             CY_SET_REG8(spi_TXDATA_PTR, txData);
 528:Generated_Source\PSoC4/spi.c ****         }
 529:Generated_Source\PSoC4/spi.c ****         else
 530:Generated_Source\PSoC4/spi.c ****         {
 531:Generated_Source\PSoC4/spi.c ****             /* Add to the TX software buffer */
 532:Generated_Source\PSoC4/spi.c ****             spi_txBufferWrite++;
 533:Generated_Source\PSoC4/spi.c ****             if(spi_txBufferWrite >= spi_TX_BUFFER_SIZE)
 534:Generated_Source\PSoC4/spi.c ****             {
 535:Generated_Source\PSoC4/spi.c ****                 spi_txBufferWrite = 0u;
 536:Generated_Source\PSoC4/spi.c ****             }
 537:Generated_Source\PSoC4/spi.c **** 
ARM GAS  C:\Users\dmr85\AppData\Local\Temp\ccBWcmjg.s 			page 16


 538:Generated_Source\PSoC4/spi.c ****             if(spi_txBufferWrite == spi_txBufferRead)
 539:Generated_Source\PSoC4/spi.c ****             {
 540:Generated_Source\PSoC4/spi.c ****                 spi_txBufferRead++;
 541:Generated_Source\PSoC4/spi.c ****                 if(spi_txBufferRead >= spi_TX_BUFFER_SIZE)
 542:Generated_Source\PSoC4/spi.c ****                 {
 543:Generated_Source\PSoC4/spi.c ****                     spi_txBufferRead = 0u;
 544:Generated_Source\PSoC4/spi.c ****                 }
 545:Generated_Source\PSoC4/spi.c ****                 spi_txBufferFull = 1u;
 546:Generated_Source\PSoC4/spi.c ****             }
 547:Generated_Source\PSoC4/spi.c **** 
 548:Generated_Source\PSoC4/spi.c ****             spi_txBuffer[spi_txBufferWrite] = txData;
 549:Generated_Source\PSoC4/spi.c **** 
 550:Generated_Source\PSoC4/spi.c ****             spi_TX_STATUS_MASK_REG |= spi_STS_TX_FIFO_NOT_FULL;
 551:Generated_Source\PSoC4/spi.c ****         }
 552:Generated_Source\PSoC4/spi.c **** 
 553:Generated_Source\PSoC4/spi.c ****         spi_EnableTxInt();
 554:Generated_Source\PSoC4/spi.c **** 
 555:Generated_Source\PSoC4/spi.c ****     #else
 556:Generated_Source\PSoC4/spi.c ****         /* Wait until TX FIFO has a place */
 557:Generated_Source\PSoC4/spi.c ****         while(0u == (spi_TX_STATUS_REG & spi_STS_TX_FIFO_NOT_FULL))
 319              		.loc 1 557 0 discriminator 1
 320 0000 034B     		ldr	r3, .L25
 321 0002 1B78     		ldrb	r3, [r3]
 322 0004 5B07     		lsls	r3, r3, #29
 323 0006 FBD5     		bpl	.L24
 558:Generated_Source\PSoC4/spi.c ****         {
 559:Generated_Source\PSoC4/spi.c ****         }
 560:Generated_Source\PSoC4/spi.c **** 
 561:Generated_Source\PSoC4/spi.c ****         /* Put data element into the TX FIFO */
 562:Generated_Source\PSoC4/spi.c ****         CY_SET_REG8(spi_TXDATA_PTR, txData);
 324              		.loc 1 562 0
 325 0008 024B     		ldr	r3, .L25+4
 326 000a 1870     		strb	r0, [r3]
 563:Generated_Source\PSoC4/spi.c **** 
 564:Generated_Source\PSoC4/spi.c ****     #endif /* (spi_TX_SOFTWARE_BUF_ENABLED) */
 565:Generated_Source\PSoC4/spi.c **** }
 327              		.loc 1 565 0
 328              		@ sp needed
 329 000c 7047     		bx	lr
 330              	.L26:
 331 000e C046     		.align	2
 332              	.L25:
 333 0010 60000F40 		.word	1074724960
 334 0014 41000F40 		.word	1074724929
 335              		.cfi_endproc
 336              	.LFE14:
 337              		.size	spi_WriteTxData, .-spi_WriteTxData
 338              		.section	.text.spi_ReadRxData,"ax",%progbits
 339              		.align	2
 340              		.global	spi_ReadRxData
 341              		.code	16
 342              		.thumb_func
 343              		.type	spi_ReadRxData, %function
 344              	spi_ReadRxData:
 345              	.LFB15:
 566:Generated_Source\PSoC4/spi.c **** 
 567:Generated_Source\PSoC4/spi.c **** 
ARM GAS  C:\Users\dmr85\AppData\Local\Temp\ccBWcmjg.s 			page 17


 568:Generated_Source\PSoC4/spi.c **** /*******************************************************************************
 569:Generated_Source\PSoC4/spi.c **** * Function Name: spi_ReadRxData
 570:Generated_Source\PSoC4/spi.c **** ********************************************************************************
 571:Generated_Source\PSoC4/spi.c **** *
 572:Generated_Source\PSoC4/spi.c **** * Summary:
 573:Generated_Source\PSoC4/spi.c **** *  Read the next byte of data received across the SPI.
 574:Generated_Source\PSoC4/spi.c **** *
 575:Generated_Source\PSoC4/spi.c **** * Parameters:
 576:Generated_Source\PSoC4/spi.c **** *  None.
 577:Generated_Source\PSoC4/spi.c **** *
 578:Generated_Source\PSoC4/spi.c **** * Return:
 579:Generated_Source\PSoC4/spi.c **** *  The next byte of data read from the FIFO.
 580:Generated_Source\PSoC4/spi.c **** *
 581:Generated_Source\PSoC4/spi.c **** * Global variables:
 582:Generated_Source\PSoC4/spi.c **** *  spi_rxBufferWrite - used for the account of the bytes which
 583:Generated_Source\PSoC4/spi.c **** *  have been written down in the RX software buffer.
 584:Generated_Source\PSoC4/spi.c **** *  spi_rxBufferRead - used for the account of the bytes which
 585:Generated_Source\PSoC4/spi.c **** *  have been read from the RX software buffer, modified every function
 586:Generated_Source\PSoC4/spi.c **** *  call if RX Software Buffer is used.
 587:Generated_Source\PSoC4/spi.c **** *  spi_rxBuffer[spi_RX_BUFFER_SIZE] - used to store
 588:Generated_Source\PSoC4/spi.c **** *  received data.
 589:Generated_Source\PSoC4/spi.c **** *
 590:Generated_Source\PSoC4/spi.c **** * Theory:
 591:Generated_Source\PSoC4/spi.c **** *  Allows the user to read a byte of data received.
 592:Generated_Source\PSoC4/spi.c **** *
 593:Generated_Source\PSoC4/spi.c **** * Side Effects:
 594:Generated_Source\PSoC4/spi.c **** *  Will return invalid data if the FIFO is empty. The user should Call
 595:Generated_Source\PSoC4/spi.c **** *  GetRxBufferSize() and if it returns a non-zero value then it is safe to call
 596:Generated_Source\PSoC4/spi.c **** *  ReadByte() function.
 597:Generated_Source\PSoC4/spi.c **** *
 598:Generated_Source\PSoC4/spi.c **** * Reentrant:
 599:Generated_Source\PSoC4/spi.c **** *  No.
 600:Generated_Source\PSoC4/spi.c **** *
 601:Generated_Source\PSoC4/spi.c **** *******************************************************************************/
 602:Generated_Source\PSoC4/spi.c **** uint8 spi_ReadRxData(void) 
 603:Generated_Source\PSoC4/spi.c **** {
 346              		.loc 1 603 0
 347              		.cfi_startproc
 348              		@ args = 0, pretend = 0, frame = 0
 349              		@ frame_needed = 0, uses_anonymous_args = 0
 350              		@ link register save eliminated.
 604:Generated_Source\PSoC4/spi.c ****     uint8 rxData;
 605:Generated_Source\PSoC4/spi.c **** 
 606:Generated_Source\PSoC4/spi.c ****     #if(spi_RX_SOFTWARE_BUF_ENABLED)
 607:Generated_Source\PSoC4/spi.c **** 
 608:Generated_Source\PSoC4/spi.c ****         /* Disable RX interrupt to protect global veriables */
 609:Generated_Source\PSoC4/spi.c ****         spi_DisableRxInt();
 610:Generated_Source\PSoC4/spi.c **** 
 611:Generated_Source\PSoC4/spi.c ****         if(spi_rxBufferRead != spi_rxBufferWrite)
 612:Generated_Source\PSoC4/spi.c ****         {
 613:Generated_Source\PSoC4/spi.c ****             if(0u == spi_rxBufferFull)
 614:Generated_Source\PSoC4/spi.c ****             {
 615:Generated_Source\PSoC4/spi.c ****                 spi_rxBufferRead++;
 616:Generated_Source\PSoC4/spi.c ****                 if(spi_rxBufferRead >= spi_RX_BUFFER_SIZE)
 617:Generated_Source\PSoC4/spi.c ****                 {
 618:Generated_Source\PSoC4/spi.c ****                     spi_rxBufferRead = 0u;
 619:Generated_Source\PSoC4/spi.c ****                 }
ARM GAS  C:\Users\dmr85\AppData\Local\Temp\ccBWcmjg.s 			page 18


 620:Generated_Source\PSoC4/spi.c ****             }
 621:Generated_Source\PSoC4/spi.c ****             else
 622:Generated_Source\PSoC4/spi.c ****             {
 623:Generated_Source\PSoC4/spi.c ****                 spi_rxBufferFull = 0u;
 624:Generated_Source\PSoC4/spi.c ****             }
 625:Generated_Source\PSoC4/spi.c ****         }
 626:Generated_Source\PSoC4/spi.c **** 
 627:Generated_Source\PSoC4/spi.c ****         rxData = spi_rxBuffer[spi_rxBufferRead];
 628:Generated_Source\PSoC4/spi.c **** 
 629:Generated_Source\PSoC4/spi.c ****         spi_EnableRxInt();
 630:Generated_Source\PSoC4/spi.c **** 
 631:Generated_Source\PSoC4/spi.c ****     #else
 632:Generated_Source\PSoC4/spi.c **** 
 633:Generated_Source\PSoC4/spi.c ****         rxData = CY_GET_REG8(spi_RXDATA_PTR);
 351              		.loc 1 633 0
 352 0000 014B     		ldr	r3, .L28
 353 0002 1878     		ldrb	r0, [r3]
 354 0004 C0B2     		uxtb	r0, r0
 355              	.LVL9:
 634:Generated_Source\PSoC4/spi.c **** 
 635:Generated_Source\PSoC4/spi.c ****     #endif /* (spi_RX_SOFTWARE_BUF_ENABLED) */
 636:Generated_Source\PSoC4/spi.c **** 
 637:Generated_Source\PSoC4/spi.c ****     return(rxData);
 638:Generated_Source\PSoC4/spi.c **** }
 356              		.loc 1 638 0
 357              		@ sp needed
 358 0006 7047     		bx	lr
 359              	.L29:
 360              		.align	2
 361              	.L28:
 362 0008 51000F40 		.word	1074724945
 363              		.cfi_endproc
 364              	.LFE15:
 365              		.size	spi_ReadRxData, .-spi_ReadRxData
 366              		.section	.text.spi_GetRxBufferSize,"ax",%progbits
 367              		.align	2
 368              		.global	spi_GetRxBufferSize
 369              		.code	16
 370              		.thumb_func
 371              		.type	spi_GetRxBufferSize, %function
 372              	spi_GetRxBufferSize:
 373              	.LFB16:
 639:Generated_Source\PSoC4/spi.c **** 
 640:Generated_Source\PSoC4/spi.c **** 
 641:Generated_Source\PSoC4/spi.c **** /*******************************************************************************
 642:Generated_Source\PSoC4/spi.c **** * Function Name: spi_GetRxBufferSize
 643:Generated_Source\PSoC4/spi.c **** ********************************************************************************
 644:Generated_Source\PSoC4/spi.c **** *
 645:Generated_Source\PSoC4/spi.c **** * Summary:
 646:Generated_Source\PSoC4/spi.c **** *  Returns the number of bytes/words of data currently held in the RX buffer.
 647:Generated_Source\PSoC4/spi.c **** *  If RX Software Buffer not used then function return 0 if FIFO empty or 1 if
 648:Generated_Source\PSoC4/spi.c **** *  FIFO not empty. In another case function return size of RX Software Buffer.
 649:Generated_Source\PSoC4/spi.c **** *
 650:Generated_Source\PSoC4/spi.c **** * Parameters:
 651:Generated_Source\PSoC4/spi.c **** *  None.
 652:Generated_Source\PSoC4/spi.c **** *
 653:Generated_Source\PSoC4/spi.c **** * Return:
ARM GAS  C:\Users\dmr85\AppData\Local\Temp\ccBWcmjg.s 			page 19


 654:Generated_Source\PSoC4/spi.c **** *  Integer count of the number of bytes/words in the RX buffer.
 655:Generated_Source\PSoC4/spi.c **** *
 656:Generated_Source\PSoC4/spi.c **** * Global variables:
 657:Generated_Source\PSoC4/spi.c **** *  spi_rxBufferWrite - used for the account of the bytes which
 658:Generated_Source\PSoC4/spi.c **** *  have been written down in the RX software buffer.
 659:Generated_Source\PSoC4/spi.c **** *  spi_rxBufferRead - used for the account of the bytes which
 660:Generated_Source\PSoC4/spi.c **** *  have been read from the RX software buffer.
 661:Generated_Source\PSoC4/spi.c **** *
 662:Generated_Source\PSoC4/spi.c **** * Side Effects:
 663:Generated_Source\PSoC4/spi.c **** *  Clear status register of the component.
 664:Generated_Source\PSoC4/spi.c **** *
 665:Generated_Source\PSoC4/spi.c **** *******************************************************************************/
 666:Generated_Source\PSoC4/spi.c **** uint8 spi_GetRxBufferSize(void) 
 667:Generated_Source\PSoC4/spi.c **** {
 374              		.loc 1 667 0
 375              		.cfi_startproc
 376              		@ args = 0, pretend = 0, frame = 0
 377              		@ frame_needed = 0, uses_anonymous_args = 0
 378              		@ link register save eliminated.
 668:Generated_Source\PSoC4/spi.c ****     uint8 size;
 669:Generated_Source\PSoC4/spi.c **** 
 670:Generated_Source\PSoC4/spi.c ****     #if(spi_RX_SOFTWARE_BUF_ENABLED)
 671:Generated_Source\PSoC4/spi.c **** 
 672:Generated_Source\PSoC4/spi.c ****         /* Disable RX interrupt to protect global veriables */
 673:Generated_Source\PSoC4/spi.c ****         spi_DisableRxInt();
 674:Generated_Source\PSoC4/spi.c **** 
 675:Generated_Source\PSoC4/spi.c ****         if(spi_rxBufferRead == spi_rxBufferWrite)
 676:Generated_Source\PSoC4/spi.c ****         {
 677:Generated_Source\PSoC4/spi.c ****             size = 0u;
 678:Generated_Source\PSoC4/spi.c ****         }
 679:Generated_Source\PSoC4/spi.c ****         else if(spi_rxBufferRead < spi_rxBufferWrite)
 680:Generated_Source\PSoC4/spi.c ****         {
 681:Generated_Source\PSoC4/spi.c ****             size = (spi_rxBufferWrite - spi_rxBufferRead);
 682:Generated_Source\PSoC4/spi.c ****         }
 683:Generated_Source\PSoC4/spi.c ****         else
 684:Generated_Source\PSoC4/spi.c ****         {
 685:Generated_Source\PSoC4/spi.c ****             size = (spi_RX_BUFFER_SIZE - spi_rxBufferRead) + spi_rxBufferWrite;
 686:Generated_Source\PSoC4/spi.c ****         }
 687:Generated_Source\PSoC4/spi.c **** 
 688:Generated_Source\PSoC4/spi.c ****         spi_EnableRxInt();
 689:Generated_Source\PSoC4/spi.c **** 
 690:Generated_Source\PSoC4/spi.c ****     #else
 691:Generated_Source\PSoC4/spi.c **** 
 692:Generated_Source\PSoC4/spi.c ****         /* We can only know if there is data in the RX FIFO */
 693:Generated_Source\PSoC4/spi.c ****         size = (0u != (spi_RX_STATUS_REG & spi_STS_RX_FIFO_NOT_EMPTY)) ? 1u : 0u;
 379              		.loc 1 693 0
 380 0000 034B     		ldr	r3, .L33
 381 0002 1B78     		ldrb	r3, [r3]
 382 0004 9B06     		lsls	r3, r3, #26
 383 0006 01D5     		bpl	.L32
 384 0008 0120     		movs	r0, #1
 385 000a 00E0     		b	.L31
 386              	.L32:
 387 000c 0020     		movs	r0, #0
 388              	.L31:
 389              	.LVL10:
 694:Generated_Source\PSoC4/spi.c **** 
ARM GAS  C:\Users\dmr85\AppData\Local\Temp\ccBWcmjg.s 			page 20


 695:Generated_Source\PSoC4/spi.c ****     #endif /* (spi_TX_SOFTWARE_BUF_ENABLED) */
 696:Generated_Source\PSoC4/spi.c **** 
 697:Generated_Source\PSoC4/spi.c ****     return(size);
 698:Generated_Source\PSoC4/spi.c **** }
 390              		.loc 1 698 0 discriminator 4
 391              		@ sp needed
 392 000e 7047     		bx	lr
 393              	.L34:
 394              		.align	2
 395              	.L33:
 396 0010 62000F40 		.word	1074724962
 397              		.cfi_endproc
 398              	.LFE16:
 399              		.size	spi_GetRxBufferSize, .-spi_GetRxBufferSize
 400              		.section	.text.spi_GetTxBufferSize,"ax",%progbits
 401              		.align	2
 402              		.global	spi_GetTxBufferSize
 403              		.code	16
 404              		.thumb_func
 405              		.type	spi_GetTxBufferSize, %function
 406              	spi_GetTxBufferSize:
 407              	.LFB17:
 699:Generated_Source\PSoC4/spi.c **** 
 700:Generated_Source\PSoC4/spi.c **** 
 701:Generated_Source\PSoC4/spi.c **** /*******************************************************************************
 702:Generated_Source\PSoC4/spi.c **** * Function Name: spi_GetTxBufferSize
 703:Generated_Source\PSoC4/spi.c **** ********************************************************************************
 704:Generated_Source\PSoC4/spi.c **** *
 705:Generated_Source\PSoC4/spi.c **** * Summary:
 706:Generated_Source\PSoC4/spi.c **** *  Returns the number of bytes/words of data currently held in the TX buffer.
 707:Generated_Source\PSoC4/spi.c **** *  If TX Software Buffer not used then function return 0 - if FIFO empty, 1 - if
 708:Generated_Source\PSoC4/spi.c **** *  FIFO not full, 4 - if FIFO full. In another case function return size of TX
 709:Generated_Source\PSoC4/spi.c **** *  Software Buffer.
 710:Generated_Source\PSoC4/spi.c **** *
 711:Generated_Source\PSoC4/spi.c **** * Parameters:
 712:Generated_Source\PSoC4/spi.c **** *  None.
 713:Generated_Source\PSoC4/spi.c **** *
 714:Generated_Source\PSoC4/spi.c **** * Return:
 715:Generated_Source\PSoC4/spi.c **** *  Integer count of the number of bytes/words in the TX buffer.
 716:Generated_Source\PSoC4/spi.c **** *
 717:Generated_Source\PSoC4/spi.c **** * Global variables:
 718:Generated_Source\PSoC4/spi.c **** *  spi_txBufferWrite - used for the account of the bytes which
 719:Generated_Source\PSoC4/spi.c **** *  have been written down in the TX software buffer.
 720:Generated_Source\PSoC4/spi.c **** *  spi_txBufferRead - used for the account of the bytes which
 721:Generated_Source\PSoC4/spi.c **** *  have been read from the TX software buffer.
 722:Generated_Source\PSoC4/spi.c **** *
 723:Generated_Source\PSoC4/spi.c **** * Side Effects:
 724:Generated_Source\PSoC4/spi.c **** *  Clear status register of the component.
 725:Generated_Source\PSoC4/spi.c **** *
 726:Generated_Source\PSoC4/spi.c **** *******************************************************************************/
 727:Generated_Source\PSoC4/spi.c **** uint8  spi_GetTxBufferSize(void) 
 728:Generated_Source\PSoC4/spi.c **** {
 408              		.loc 1 728 0
 409              		.cfi_startproc
 410              		@ args = 0, pretend = 0, frame = 0
 411              		@ frame_needed = 0, uses_anonymous_args = 0
 412              		@ link register save eliminated.
ARM GAS  C:\Users\dmr85\AppData\Local\Temp\ccBWcmjg.s 			page 21


 729:Generated_Source\PSoC4/spi.c ****     uint8 size;
 730:Generated_Source\PSoC4/spi.c **** 
 731:Generated_Source\PSoC4/spi.c ****     #if(spi_TX_SOFTWARE_BUF_ENABLED)
 732:Generated_Source\PSoC4/spi.c ****         /* Disable TX interrupt to protect global veriables */
 733:Generated_Source\PSoC4/spi.c ****         spi_DisableTxInt();
 734:Generated_Source\PSoC4/spi.c **** 
 735:Generated_Source\PSoC4/spi.c ****         if(spi_txBufferRead == spi_txBufferWrite)
 736:Generated_Source\PSoC4/spi.c ****         {
 737:Generated_Source\PSoC4/spi.c ****             size = 0u;
 738:Generated_Source\PSoC4/spi.c ****         }
 739:Generated_Source\PSoC4/spi.c ****         else if(spi_txBufferRead < spi_txBufferWrite)
 740:Generated_Source\PSoC4/spi.c ****         {
 741:Generated_Source\PSoC4/spi.c ****             size = (spi_txBufferWrite - spi_txBufferRead);
 742:Generated_Source\PSoC4/spi.c ****         }
 743:Generated_Source\PSoC4/spi.c ****         else
 744:Generated_Source\PSoC4/spi.c ****         {
 745:Generated_Source\PSoC4/spi.c ****             size = (spi_TX_BUFFER_SIZE - spi_txBufferRead) + spi_txBufferWrite;
 746:Generated_Source\PSoC4/spi.c ****         }
 747:Generated_Source\PSoC4/spi.c **** 
 748:Generated_Source\PSoC4/spi.c ****         spi_EnableTxInt();
 749:Generated_Source\PSoC4/spi.c **** 
 750:Generated_Source\PSoC4/spi.c ****     #else
 751:Generated_Source\PSoC4/spi.c **** 
 752:Generated_Source\PSoC4/spi.c ****         size = spi_TX_STATUS_REG;
 413              		.loc 1 752 0
 414 0000 064B     		ldr	r3, .L39
 415 0002 1B78     		ldrb	r3, [r3]
 416 0004 DBB2     		uxtb	r3, r3
 417              	.LVL11:
 753:Generated_Source\PSoC4/spi.c **** 
 754:Generated_Source\PSoC4/spi.c ****         if(0u != (size & spi_STS_TX_FIFO_EMPTY))
 418              		.loc 1 754 0
 419 0006 9A07     		lsls	r2, r3, #30
 420 0008 03D4     		bmi	.L37
 755:Generated_Source\PSoC4/spi.c ****         {
 756:Generated_Source\PSoC4/spi.c ****             size = 0u;
 757:Generated_Source\PSoC4/spi.c ****         }
 758:Generated_Source\PSoC4/spi.c ****         else if(0u != (size & spi_STS_TX_FIFO_NOT_FULL))
 421              		.loc 1 758 0
 422 000a 5B07     		lsls	r3, r3, #29
 423 000c 03D5     		bpl	.L38
 424              	.LVL12:
 759:Generated_Source\PSoC4/spi.c ****         {
 760:Generated_Source\PSoC4/spi.c ****             size = 1u;
 425              		.loc 1 760 0
 426 000e 0120     		movs	r0, #1
 427 0010 02E0     		b	.L36
 428              	.LVL13:
 429              	.L37:
 756:Generated_Source\PSoC4/spi.c ****         }
 430              		.loc 1 756 0
 431 0012 0020     		movs	r0, #0
 432 0014 00E0     		b	.L36
 433              	.LVL14:
 434              	.L38:
 761:Generated_Source\PSoC4/spi.c ****         }
 762:Generated_Source\PSoC4/spi.c ****         else
ARM GAS  C:\Users\dmr85\AppData\Local\Temp\ccBWcmjg.s 			page 22


 763:Generated_Source\PSoC4/spi.c ****         {
 764:Generated_Source\PSoC4/spi.c ****             size = spi_FIFO_SIZE;
 435              		.loc 1 764 0
 436 0016 0420     		movs	r0, #4
 437              	.L36:
 438              	.LVL15:
 765:Generated_Source\PSoC4/spi.c ****         }
 766:Generated_Source\PSoC4/spi.c **** 
 767:Generated_Source\PSoC4/spi.c ****     #endif /* (spi_TX_SOFTWARE_BUF_ENABLED) */
 768:Generated_Source\PSoC4/spi.c **** 
 769:Generated_Source\PSoC4/spi.c ****     return(size);
 770:Generated_Source\PSoC4/spi.c **** }
 439              		.loc 1 770 0
 440              		@ sp needed
 441 0018 7047     		bx	lr
 442              	.L40:
 443 001a C046     		.align	2
 444              	.L39:
 445 001c 60000F40 		.word	1074724960
 446              		.cfi_endproc
 447              	.LFE17:
 448              		.size	spi_GetTxBufferSize, .-spi_GetTxBufferSize
 449              		.section	.text.spi_ClearRxBuffer,"ax",%progbits
 450              		.align	2
 451              		.global	spi_ClearRxBuffer
 452              		.code	16
 453              		.thumb_func
 454              		.type	spi_ClearRxBuffer, %function
 455              	spi_ClearRxBuffer:
 456              	.LFB18:
 771:Generated_Source\PSoC4/spi.c **** 
 772:Generated_Source\PSoC4/spi.c **** 
 773:Generated_Source\PSoC4/spi.c **** /*******************************************************************************
 774:Generated_Source\PSoC4/spi.c **** * Function Name: spi_ClearRxBuffer
 775:Generated_Source\PSoC4/spi.c **** ********************************************************************************
 776:Generated_Source\PSoC4/spi.c **** *
 777:Generated_Source\PSoC4/spi.c **** * Summary:
 778:Generated_Source\PSoC4/spi.c **** *  Clear the RX RAM buffer by setting the read and write pointers both to zero.
 779:Generated_Source\PSoC4/spi.c **** *
 780:Generated_Source\PSoC4/spi.c **** * Parameters:
 781:Generated_Source\PSoC4/spi.c **** *  None.
 782:Generated_Source\PSoC4/spi.c **** *
 783:Generated_Source\PSoC4/spi.c **** * Return:
 784:Generated_Source\PSoC4/spi.c **** *  None.
 785:Generated_Source\PSoC4/spi.c **** *
 786:Generated_Source\PSoC4/spi.c **** * Global variables:
 787:Generated_Source\PSoC4/spi.c **** *  spi_rxBufferWrite - used for the account of the bytes which
 788:Generated_Source\PSoC4/spi.c **** *  have been written down in the RX software buffer, modified every function
 789:Generated_Source\PSoC4/spi.c **** *  call - resets to zero.
 790:Generated_Source\PSoC4/spi.c **** *  spi_rxBufferRead - used for the account of the bytes which
 791:Generated_Source\PSoC4/spi.c **** *  have been read from the RX software buffer, modified every function call -
 792:Generated_Source\PSoC4/spi.c **** *  resets to zero.
 793:Generated_Source\PSoC4/spi.c **** *
 794:Generated_Source\PSoC4/spi.c **** * Theory:
 795:Generated_Source\PSoC4/spi.c **** *  Setting the pointers to zero makes the system believe there is no data to
 796:Generated_Source\PSoC4/spi.c **** *  read and writing will resume at address 0 overwriting any data that may have
 797:Generated_Source\PSoC4/spi.c **** *  remained in the RAM.
ARM GAS  C:\Users\dmr85\AppData\Local\Temp\ccBWcmjg.s 			page 23


 798:Generated_Source\PSoC4/spi.c **** *
 799:Generated_Source\PSoC4/spi.c **** * Side Effects:
 800:Generated_Source\PSoC4/spi.c **** *  Any received data not read from the RAM buffer will be lost when overwritten.
 801:Generated_Source\PSoC4/spi.c **** *
 802:Generated_Source\PSoC4/spi.c **** * Reentrant:
 803:Generated_Source\PSoC4/spi.c **** *  No.
 804:Generated_Source\PSoC4/spi.c **** *
 805:Generated_Source\PSoC4/spi.c **** *******************************************************************************/
 806:Generated_Source\PSoC4/spi.c **** void spi_ClearRxBuffer(void) 
 807:Generated_Source\PSoC4/spi.c **** {
 457              		.loc 1 807 0
 458              		.cfi_startproc
 459              		@ args = 0, pretend = 0, frame = 0
 460              		@ frame_needed = 0, uses_anonymous_args = 0
 461              		@ link register save eliminated.
 808:Generated_Source\PSoC4/spi.c ****     /* Clear Hardware RX FIFO */
 809:Generated_Source\PSoC4/spi.c ****     while(0u !=(spi_RX_STATUS_REG & spi_STS_RX_FIFO_NOT_EMPTY))
 462              		.loc 1 809 0
 463 0000 01E0     		b	.L42
 464              	.L43:
 810:Generated_Source\PSoC4/spi.c ****     {
 811:Generated_Source\PSoC4/spi.c ****         (void) CY_GET_REG8(spi_RXDATA_PTR);
 465              		.loc 1 811 0
 466 0002 034B     		ldr	r3, .L44
 467 0004 1B78     		ldrb	r3, [r3]
 468              	.L42:
 809:Generated_Source\PSoC4/spi.c ****     {
 469              		.loc 1 809 0
 470 0006 034B     		ldr	r3, .L44+4
 471 0008 1B78     		ldrb	r3, [r3]
 472 000a 9B06     		lsls	r3, r3, #26
 473 000c F9D4     		bmi	.L43
 812:Generated_Source\PSoC4/spi.c ****     }
 813:Generated_Source\PSoC4/spi.c **** 
 814:Generated_Source\PSoC4/spi.c ****     #if(spi_RX_SOFTWARE_BUF_ENABLED)
 815:Generated_Source\PSoC4/spi.c ****         /* Disable RX interrupt to protect global veriables */
 816:Generated_Source\PSoC4/spi.c ****         spi_DisableRxInt();
 817:Generated_Source\PSoC4/spi.c **** 
 818:Generated_Source\PSoC4/spi.c ****         spi_rxBufferFull  = 0u;
 819:Generated_Source\PSoC4/spi.c ****         spi_rxBufferRead  = 0u;
 820:Generated_Source\PSoC4/spi.c ****         spi_rxBufferWrite = 0u;
 821:Generated_Source\PSoC4/spi.c **** 
 822:Generated_Source\PSoC4/spi.c ****         spi_EnableRxInt();
 823:Generated_Source\PSoC4/spi.c ****     #endif /* (spi_RX_SOFTWARE_BUF_ENABLED) */
 824:Generated_Source\PSoC4/spi.c **** }
 474              		.loc 1 824 0
 475              		@ sp needed
 476 000e 7047     		bx	lr
 477              	.L45:
 478              		.align	2
 479              	.L44:
 480 0010 51000F40 		.word	1074724945
 481 0014 62000F40 		.word	1074724962
 482              		.cfi_endproc
 483              	.LFE18:
 484              		.size	spi_ClearRxBuffer, .-spi_ClearRxBuffer
 485              		.section	.text.spi_ClearTxBuffer,"ax",%progbits
ARM GAS  C:\Users\dmr85\AppData\Local\Temp\ccBWcmjg.s 			page 24


 486              		.align	2
 487              		.global	spi_ClearTxBuffer
 488              		.code	16
 489              		.thumb_func
 490              		.type	spi_ClearTxBuffer, %function
 491              	spi_ClearTxBuffer:
 492              	.LFB19:
 825:Generated_Source\PSoC4/spi.c **** 
 826:Generated_Source\PSoC4/spi.c **** 
 827:Generated_Source\PSoC4/spi.c **** /*******************************************************************************
 828:Generated_Source\PSoC4/spi.c **** * Function Name: spi_ClearTxBuffer
 829:Generated_Source\PSoC4/spi.c **** ********************************************************************************
 830:Generated_Source\PSoC4/spi.c **** *
 831:Generated_Source\PSoC4/spi.c **** * Summary:
 832:Generated_Source\PSoC4/spi.c **** *  Clear the TX RAM buffer by setting the read and write pointers both to zero.
 833:Generated_Source\PSoC4/spi.c **** *
 834:Generated_Source\PSoC4/spi.c **** * Parameters:
 835:Generated_Source\PSoC4/spi.c **** *  None.
 836:Generated_Source\PSoC4/spi.c **** *
 837:Generated_Source\PSoC4/spi.c **** * Return:
 838:Generated_Source\PSoC4/spi.c **** *  None.
 839:Generated_Source\PSoC4/spi.c **** *
 840:Generated_Source\PSoC4/spi.c **** * Global variables:
 841:Generated_Source\PSoC4/spi.c **** *  spi_txBufferWrite - used for the account of the bytes which
 842:Generated_Source\PSoC4/spi.c **** *  have been written down in the TX software buffer, modified every function
 843:Generated_Source\PSoC4/spi.c **** *  call - resets to zero.
 844:Generated_Source\PSoC4/spi.c **** *  spi_txBufferRead - used for the account of the bytes which
 845:Generated_Source\PSoC4/spi.c **** *  have been read from the TX software buffer, modified every function call -
 846:Generated_Source\PSoC4/spi.c **** *  resets to zero.
 847:Generated_Source\PSoC4/spi.c **** *
 848:Generated_Source\PSoC4/spi.c **** * Theory:
 849:Generated_Source\PSoC4/spi.c **** *  Setting the pointers to zero makes the system believe there is no data to
 850:Generated_Source\PSoC4/spi.c **** *  read and writing will resume at address 0 overwriting any data that may have
 851:Generated_Source\PSoC4/spi.c **** *  remained in the RAM.
 852:Generated_Source\PSoC4/spi.c **** *
 853:Generated_Source\PSoC4/spi.c **** * Side Effects:
 854:Generated_Source\PSoC4/spi.c **** *  Any data not yet transmitted from the RAM buffer will be lost when
 855:Generated_Source\PSoC4/spi.c **** *  overwritten.
 856:Generated_Source\PSoC4/spi.c **** *
 857:Generated_Source\PSoC4/spi.c **** * Reentrant:
 858:Generated_Source\PSoC4/spi.c **** *  No.
 859:Generated_Source\PSoC4/spi.c **** *
 860:Generated_Source\PSoC4/spi.c **** *******************************************************************************/
 861:Generated_Source\PSoC4/spi.c **** void spi_ClearTxBuffer(void) 
 862:Generated_Source\PSoC4/spi.c **** {
 493              		.loc 1 862 0
 494              		.cfi_startproc
 495              		@ args = 0, pretend = 0, frame = 0
 496              		@ frame_needed = 0, uses_anonymous_args = 0
 497 0000 10B5     		push	{r4, lr}
 498              		.cfi_def_cfa_offset 8
 499              		.cfi_offset 4, -8
 500              		.cfi_offset 14, -4
 863:Generated_Source\PSoC4/spi.c ****     uint8 enableInterrupts;
 864:Generated_Source\PSoC4/spi.c **** 
 865:Generated_Source\PSoC4/spi.c ****     enableInterrupts = CyEnterCriticalSection();
 501              		.loc 1 865 0
ARM GAS  C:\Users\dmr85\AppData\Local\Temp\ccBWcmjg.s 			page 25


 502 0002 FFF7FEFF 		bl	CyEnterCriticalSection
 503              	.LVL16:
 866:Generated_Source\PSoC4/spi.c ****     /* Clear TX FIFO */
 867:Generated_Source\PSoC4/spi.c ****     spi_AUX_CONTROL_DP0_REG |= ((uint8)  spi_TX_FIFO_CLR);
 504              		.loc 1 867 0
 505 0006 064A     		ldr	r2, .L47
 506 0008 1178     		ldrb	r1, [r2]
 507 000a 0123     		movs	r3, #1
 508 000c 0B43     		orrs	r3, r1
 509 000e DBB2     		uxtb	r3, r3
 510 0010 1370     		strb	r3, [r2]
 868:Generated_Source\PSoC4/spi.c ****     spi_AUX_CONTROL_DP0_REG &= ((uint8) ~spi_TX_FIFO_CLR);
 511              		.loc 1 868 0
 512 0012 1378     		ldrb	r3, [r2]
 513 0014 0121     		movs	r1, #1
 514 0016 8B43     		bics	r3, r1
 515 0018 1370     		strb	r3, [r2]
 869:Generated_Source\PSoC4/spi.c **** 
 870:Generated_Source\PSoC4/spi.c ****     #if(spi_USE_SECOND_DATAPATH)
 871:Generated_Source\PSoC4/spi.c ****         /* Clear TX FIFO for 2nd Datapath */
 872:Generated_Source\PSoC4/spi.c ****         spi_AUX_CONTROL_DP1_REG |= ((uint8)  spi_TX_FIFO_CLR);
 873:Generated_Source\PSoC4/spi.c ****         spi_AUX_CONTROL_DP1_REG &= ((uint8) ~spi_TX_FIFO_CLR);
 874:Generated_Source\PSoC4/spi.c ****     #endif /* (spi_USE_SECOND_DATAPATH) */
 875:Generated_Source\PSoC4/spi.c ****     CyExitCriticalSection(enableInterrupts);
 516              		.loc 1 875 0
 517 001a FFF7FEFF 		bl	CyExitCriticalSection
 518              	.LVL17:
 876:Generated_Source\PSoC4/spi.c **** 
 877:Generated_Source\PSoC4/spi.c ****     #if(spi_TX_SOFTWARE_BUF_ENABLED)
 878:Generated_Source\PSoC4/spi.c ****         /* Disable TX interrupt to protect global veriables */
 879:Generated_Source\PSoC4/spi.c ****         spi_DisableTxInt();
 880:Generated_Source\PSoC4/spi.c **** 
 881:Generated_Source\PSoC4/spi.c ****         spi_txBufferFull  = 0u;
 882:Generated_Source\PSoC4/spi.c ****         spi_txBufferRead  = 0u;
 883:Generated_Source\PSoC4/spi.c ****         spi_txBufferWrite = 0u;
 884:Generated_Source\PSoC4/spi.c **** 
 885:Generated_Source\PSoC4/spi.c ****         /* Buffer is EMPTY: disable TX FIFO NOT FULL interrupt */
 886:Generated_Source\PSoC4/spi.c ****         spi_TX_STATUS_MASK_REG &= ((uint8) ~spi_STS_TX_FIFO_NOT_FULL);
 887:Generated_Source\PSoC4/spi.c **** 
 888:Generated_Source\PSoC4/spi.c ****         spi_EnableTxInt();
 889:Generated_Source\PSoC4/spi.c ****     #endif /* (spi_TX_SOFTWARE_BUF_ENABLED) */
 890:Generated_Source\PSoC4/spi.c **** }
 519              		.loc 1 890 0
 520              		@ sp needed
 521 001e 10BD     		pop	{r4, pc}
 522              	.L48:
 523              		.align	2
 524              	.L47:
 525 0020 91000F40 		.word	1074725009
 526              		.cfi_endproc
 527              	.LFE19:
 528              		.size	spi_ClearTxBuffer, .-spi_ClearTxBuffer
 529              		.section	.text.spi_PutArray,"ax",%progbits
 530              		.align	2
 531              		.global	spi_PutArray
 532              		.code	16
 533              		.thumb_func
ARM GAS  C:\Users\dmr85\AppData\Local\Temp\ccBWcmjg.s 			page 26


 534              		.type	spi_PutArray, %function
 535              	spi_PutArray:
 536              	.LFB20:
 891:Generated_Source\PSoC4/spi.c **** 
 892:Generated_Source\PSoC4/spi.c **** 
 893:Generated_Source\PSoC4/spi.c **** #if(0u != spi_BIDIRECTIONAL_MODE)
 894:Generated_Source\PSoC4/spi.c ****     /*******************************************************************************
 895:Generated_Source\PSoC4/spi.c ****     * Function Name: spi_TxEnable
 896:Generated_Source\PSoC4/spi.c ****     ********************************************************************************
 897:Generated_Source\PSoC4/spi.c ****     *
 898:Generated_Source\PSoC4/spi.c ****     * Summary:
 899:Generated_Source\PSoC4/spi.c ****     *  If the SPI master is configured to use a single bi-directional pin then this
 900:Generated_Source\PSoC4/spi.c ****     *  will set the bi-directional pin to transmit.
 901:Generated_Source\PSoC4/spi.c ****     *
 902:Generated_Source\PSoC4/spi.c ****     * Parameters:
 903:Generated_Source\PSoC4/spi.c ****     *  None.
 904:Generated_Source\PSoC4/spi.c ****     *
 905:Generated_Source\PSoC4/spi.c ****     * Return:
 906:Generated_Source\PSoC4/spi.c ****     *  None.
 907:Generated_Source\PSoC4/spi.c ****     *
 908:Generated_Source\PSoC4/spi.c ****     *******************************************************************************/
 909:Generated_Source\PSoC4/spi.c ****     void spi_TxEnable(void) 
 910:Generated_Source\PSoC4/spi.c ****     {
 911:Generated_Source\PSoC4/spi.c ****         spi_CONTROL_REG |= spi_CTRL_TX_SIGNAL_EN;
 912:Generated_Source\PSoC4/spi.c ****     }
 913:Generated_Source\PSoC4/spi.c **** 
 914:Generated_Source\PSoC4/spi.c **** 
 915:Generated_Source\PSoC4/spi.c ****     /*******************************************************************************
 916:Generated_Source\PSoC4/spi.c ****     * Function Name: spi_TxDisable
 917:Generated_Source\PSoC4/spi.c ****     ********************************************************************************
 918:Generated_Source\PSoC4/spi.c ****     *
 919:Generated_Source\PSoC4/spi.c ****     * Summary:
 920:Generated_Source\PSoC4/spi.c ****     *  If the SPI master is configured to use a single bi-directional pin then this
 921:Generated_Source\PSoC4/spi.c ****     *  will set the bi-directional pin to receive.
 922:Generated_Source\PSoC4/spi.c ****     *
 923:Generated_Source\PSoC4/spi.c ****     * Parameters:
 924:Generated_Source\PSoC4/spi.c ****     *  None.
 925:Generated_Source\PSoC4/spi.c ****     *
 926:Generated_Source\PSoC4/spi.c ****     * Return:
 927:Generated_Source\PSoC4/spi.c ****     *  None.
 928:Generated_Source\PSoC4/spi.c ****     *
 929:Generated_Source\PSoC4/spi.c ****     *******************************************************************************/
 930:Generated_Source\PSoC4/spi.c ****     void spi_TxDisable(void) 
 931:Generated_Source\PSoC4/spi.c ****     {
 932:Generated_Source\PSoC4/spi.c ****         spi_CONTROL_REG &= ((uint8) ~spi_CTRL_TX_SIGNAL_EN);
 933:Generated_Source\PSoC4/spi.c ****     }
 934:Generated_Source\PSoC4/spi.c **** 
 935:Generated_Source\PSoC4/spi.c **** #endif /* (0u != spi_BIDIRECTIONAL_MODE) */
 936:Generated_Source\PSoC4/spi.c **** 
 937:Generated_Source\PSoC4/spi.c **** 
 938:Generated_Source\PSoC4/spi.c **** /*******************************************************************************
 939:Generated_Source\PSoC4/spi.c **** * Function Name: spi_PutArray
 940:Generated_Source\PSoC4/spi.c **** ********************************************************************************
 941:Generated_Source\PSoC4/spi.c **** *
 942:Generated_Source\PSoC4/spi.c **** * Summary:
 943:Generated_Source\PSoC4/spi.c **** *  Write available data from ROM/RAM to the TX buffer while space is available
 944:Generated_Source\PSoC4/spi.c **** *  in the TX buffer. Keep trying until all data is passed to the TX buffer.
ARM GAS  C:\Users\dmr85\AppData\Local\Temp\ccBWcmjg.s 			page 27


 945:Generated_Source\PSoC4/spi.c **** *
 946:Generated_Source\PSoC4/spi.c **** * Parameters:
 947:Generated_Source\PSoC4/spi.c **** *  *buffer: Pointer to the location in RAM containing the data to send
 948:Generated_Source\PSoC4/spi.c **** *  byteCount: The number of bytes to move to the transmit buffer.
 949:Generated_Source\PSoC4/spi.c **** *
 950:Generated_Source\PSoC4/spi.c **** * Return:
 951:Generated_Source\PSoC4/spi.c **** *  None.
 952:Generated_Source\PSoC4/spi.c **** *
 953:Generated_Source\PSoC4/spi.c **** * Side Effects:
 954:Generated_Source\PSoC4/spi.c **** *  Will stay in this routine until all data has been sent.  May get locked in
 955:Generated_Source\PSoC4/spi.c **** *  this loop if data is not being initiated by the master if there is not
 956:Generated_Source\PSoC4/spi.c **** *  enough room in the TX FIFO.
 957:Generated_Source\PSoC4/spi.c **** *
 958:Generated_Source\PSoC4/spi.c **** * Reentrant:
 959:Generated_Source\PSoC4/spi.c **** *  No.
 960:Generated_Source\PSoC4/spi.c **** *
 961:Generated_Source\PSoC4/spi.c **** *******************************************************************************/
 962:Generated_Source\PSoC4/spi.c **** void spi_PutArray(const uint8 buffer[], uint8 byteCount)
 963:Generated_Source\PSoC4/spi.c ****                                                                           
 964:Generated_Source\PSoC4/spi.c **** {
 537              		.loc 1 964 0
 538              		.cfi_startproc
 539              		@ args = 0, pretend = 0, frame = 0
 540              		@ frame_needed = 0, uses_anonymous_args = 0
 541              	.LVL18:
 542 0000 70B5     		push	{r4, r5, r6, lr}
 543              		.cfi_def_cfa_offset 16
 544              		.cfi_offset 4, -16
 545              		.cfi_offset 5, -12
 546              		.cfi_offset 6, -8
 547              		.cfi_offset 14, -4
 548 0002 0600     		movs	r6, r0
 549 0004 0C00     		movs	r4, r1
 550              	.LVL19:
 965:Generated_Source\PSoC4/spi.c ****     uint8 bufIndex;
 966:Generated_Source\PSoC4/spi.c **** 
 967:Generated_Source\PSoC4/spi.c ****     bufIndex = 0u;
 551              		.loc 1 967 0
 552 0006 0025     		movs	r5, #0
 968:Generated_Source\PSoC4/spi.c **** 
 969:Generated_Source\PSoC4/spi.c ****     while(byteCount > 0u)
 553              		.loc 1 969 0
 554 0008 06E0     		b	.L50
 555              	.LVL20:
 556              	.L51:
 970:Generated_Source\PSoC4/spi.c ****     {
 971:Generated_Source\PSoC4/spi.c ****         spi_WriteTxData(buffer[bufIndex]);
 557              		.loc 1 971 0
 558 000a 705D     		ldrb	r0, [r6, r5]
 559 000c FFF7FEFF 		bl	spi_WriteTxData
 560              	.LVL21:
 972:Generated_Source\PSoC4/spi.c ****         bufIndex++;
 561              		.loc 1 972 0
 562 0010 0135     		adds	r5, r5, #1
 563              	.LVL22:
 564 0012 EDB2     		uxtb	r5, r5
 565              	.LVL23:
ARM GAS  C:\Users\dmr85\AppData\Local\Temp\ccBWcmjg.s 			page 28


 973:Generated_Source\PSoC4/spi.c ****         byteCount--;
 566              		.loc 1 973 0
 567 0014 013C     		subs	r4, r4, #1
 568              	.LVL24:
 569 0016 E4B2     		uxtb	r4, r4
 570              	.LVL25:
 571              	.L50:
 969:Generated_Source\PSoC4/spi.c ****     {
 572              		.loc 1 969 0
 573 0018 002C     		cmp	r4, #0
 574 001a F6D1     		bne	.L51
 974:Generated_Source\PSoC4/spi.c ****     }
 975:Generated_Source\PSoC4/spi.c **** }
 575              		.loc 1 975 0
 576              		@ sp needed
 577              	.LVL26:
 578              	.LVL27:
 579              	.LVL28:
 580 001c 70BD     		pop	{r4, r5, r6, pc}
 581              		.cfi_endproc
 582              	.LFE20:
 583              		.size	spi_PutArray, .-spi_PutArray
 584 001e C046     		.section	.text.spi_ClearFIFO,"ax",%progbits
 585              		.align	2
 586              		.global	spi_ClearFIFO
 587              		.code	16
 588              		.thumb_func
 589              		.type	spi_ClearFIFO, %function
 590              	spi_ClearFIFO:
 591              	.LFB21:
 976:Generated_Source\PSoC4/spi.c **** 
 977:Generated_Source\PSoC4/spi.c **** 
 978:Generated_Source\PSoC4/spi.c **** /*******************************************************************************
 979:Generated_Source\PSoC4/spi.c **** * Function Name: spi_ClearFIFO
 980:Generated_Source\PSoC4/spi.c **** ********************************************************************************
 981:Generated_Source\PSoC4/spi.c **** *
 982:Generated_Source\PSoC4/spi.c **** * Summary:
 983:Generated_Source\PSoC4/spi.c **** *  Clear the RX and TX FIFO's of all data for a fresh start.
 984:Generated_Source\PSoC4/spi.c **** *
 985:Generated_Source\PSoC4/spi.c **** * Parameters:
 986:Generated_Source\PSoC4/spi.c **** *  None.
 987:Generated_Source\PSoC4/spi.c **** *
 988:Generated_Source\PSoC4/spi.c **** * Return:
 989:Generated_Source\PSoC4/spi.c **** *  None.
 990:Generated_Source\PSoC4/spi.c **** *
 991:Generated_Source\PSoC4/spi.c **** * Side Effects:
 992:Generated_Source\PSoC4/spi.c **** *  Clear status register of the component.
 993:Generated_Source\PSoC4/spi.c **** *
 994:Generated_Source\PSoC4/spi.c **** *******************************************************************************/
 995:Generated_Source\PSoC4/spi.c **** void spi_ClearFIFO(void) 
 996:Generated_Source\PSoC4/spi.c **** {
 592              		.loc 1 996 0
 593              		.cfi_startproc
 594              		@ args = 0, pretend = 0, frame = 0
 595              		@ frame_needed = 0, uses_anonymous_args = 0
 596 0000 10B5     		push	{r4, lr}
 597              		.cfi_def_cfa_offset 8
ARM GAS  C:\Users\dmr85\AppData\Local\Temp\ccBWcmjg.s 			page 29


 598              		.cfi_offset 4, -8
 599              		.cfi_offset 14, -4
 997:Generated_Source\PSoC4/spi.c ****     uint8 enableInterrupts;
 998:Generated_Source\PSoC4/spi.c **** 
 999:Generated_Source\PSoC4/spi.c ****     /* Clear Hardware RX FIFO */
1000:Generated_Source\PSoC4/spi.c ****     while(0u !=(spi_RX_STATUS_REG & spi_STS_RX_FIFO_NOT_EMPTY))
 600              		.loc 1 1000 0
 601 0002 01E0     		b	.L53
 602              	.L54:
1001:Generated_Source\PSoC4/spi.c ****     {
1002:Generated_Source\PSoC4/spi.c ****         (void) CY_GET_REG8(spi_RXDATA_PTR);
 603              		.loc 1 1002 0
 604 0004 0A4B     		ldr	r3, .L55
 605 0006 1B78     		ldrb	r3, [r3]
 606              	.L53:
1000:Generated_Source\PSoC4/spi.c ****     {
 607              		.loc 1 1000 0
 608 0008 0A4B     		ldr	r3, .L55+4
 609 000a 1B78     		ldrb	r3, [r3]
 610 000c 9B06     		lsls	r3, r3, #26
 611 000e F9D4     		bmi	.L54
1003:Generated_Source\PSoC4/spi.c ****     }
1004:Generated_Source\PSoC4/spi.c **** 
1005:Generated_Source\PSoC4/spi.c ****     enableInterrupts = CyEnterCriticalSection();
 612              		.loc 1 1005 0
 613 0010 FFF7FEFF 		bl	CyEnterCriticalSection
 614              	.LVL29:
1006:Generated_Source\PSoC4/spi.c ****     /* Clear TX FIFO */
1007:Generated_Source\PSoC4/spi.c ****     spi_AUX_CONTROL_DP0_REG |= ((uint8)  spi_TX_FIFO_CLR);
 615              		.loc 1 1007 0
 616 0014 084A     		ldr	r2, .L55+8
 617 0016 1178     		ldrb	r1, [r2]
 618 0018 0123     		movs	r3, #1
 619 001a 0B43     		orrs	r3, r1
 620 001c DBB2     		uxtb	r3, r3
 621 001e 1370     		strb	r3, [r2]
1008:Generated_Source\PSoC4/spi.c ****     spi_AUX_CONTROL_DP0_REG &= ((uint8) ~spi_TX_FIFO_CLR);
 622              		.loc 1 1008 0
 623 0020 1378     		ldrb	r3, [r2]
 624 0022 0121     		movs	r1, #1
 625 0024 8B43     		bics	r3, r1
 626 0026 1370     		strb	r3, [r2]
1009:Generated_Source\PSoC4/spi.c **** 
1010:Generated_Source\PSoC4/spi.c ****     #if(spi_USE_SECOND_DATAPATH)
1011:Generated_Source\PSoC4/spi.c ****         /* Clear TX FIFO for 2nd Datapath */
1012:Generated_Source\PSoC4/spi.c ****         spi_AUX_CONTROL_DP1_REG |= ((uint8)  spi_TX_FIFO_CLR);
1013:Generated_Source\PSoC4/spi.c ****         spi_AUX_CONTROL_DP1_REG &= ((uint8) ~spi_TX_FIFO_CLR);
1014:Generated_Source\PSoC4/spi.c ****     #endif /* (spi_USE_SECOND_DATAPATH) */
1015:Generated_Source\PSoC4/spi.c ****     CyExitCriticalSection(enableInterrupts);
 627              		.loc 1 1015 0
 628 0028 FFF7FEFF 		bl	CyExitCriticalSection
 629              	.LVL30:
1016:Generated_Source\PSoC4/spi.c **** }
 630              		.loc 1 1016 0
 631              		@ sp needed
 632 002c 10BD     		pop	{r4, pc}
 633              	.L56:
ARM GAS  C:\Users\dmr85\AppData\Local\Temp\ccBWcmjg.s 			page 30


 634 002e C046     		.align	2
 635              	.L55:
 636 0030 51000F40 		.word	1074724945
 637 0034 62000F40 		.word	1074724962
 638 0038 91000F40 		.word	1074725009
 639              		.cfi_endproc
 640              	.LFE21:
 641              		.size	spi_ClearFIFO, .-spi_ClearFIFO
 642              		.section	.text.spi_Init,"ax",%progbits
 643              		.align	2
 644              		.global	spi_Init
 645              		.code	16
 646              		.thumb_func
 647              		.type	spi_Init, %function
 648              	spi_Init:
 649              	.LFB2:
  64:Generated_Source\PSoC4/spi.c ****     /* Initialize the Bit counter */
 650              		.loc 1 64 0
 651              		.cfi_startproc
 652              		@ args = 0, pretend = 0, frame = 0
 653              		@ frame_needed = 0, uses_anonymous_args = 0
 654 0000 10B5     		push	{r4, lr}
 655              		.cfi_def_cfa_offset 8
 656              		.cfi_offset 4, -8
 657              		.cfi_offset 14, -4
  66:Generated_Source\PSoC4/spi.c **** 
 658              		.loc 1 66 0
 659 0002 0F22     		movs	r2, #15
 660 0004 064B     		ldr	r3, .L58
 661 0006 1A70     		strb	r2, [r3]
  83:Generated_Source\PSoC4/spi.c **** 
 662              		.loc 1 83 0
 663 0008 FFF7FEFF 		bl	spi_ClearFIFO
 664              	.LVL31:
  97:Generated_Source\PSoC4/spi.c ****     (void) spi_ReadRxStatus(); /* Clear Rx status and swStatusRx */
 665              		.loc 1 97 0
 666 000c FFF7FEFF 		bl	spi_ReadTxStatus
 667              	.LVL32:
  98:Generated_Source\PSoC4/spi.c **** 
 668              		.loc 1 98 0
 669 0010 FFF7FEFF 		bl	spi_ReadRxStatus
 670              	.LVL33:
 101:Generated_Source\PSoC4/spi.c ****     spi_RX_STATUS_MASK_REG = spi_RX_INIT_INTERRUPTS_MASK;
 671              		.loc 1 101 0
 672 0014 0023     		movs	r3, #0
 673 0016 034A     		ldr	r2, .L58+4
 674 0018 1370     		strb	r3, [r2]
 102:Generated_Source\PSoC4/spi.c **** }
 675              		.loc 1 102 0
 676 001a 034A     		ldr	r2, .L58+8
 677 001c 1370     		strb	r3, [r2]
 103:Generated_Source\PSoC4/spi.c **** 
 678              		.loc 1 103 0
 679              		@ sp needed
 680 001e 10BD     		pop	{r4, pc}
 681              	.L59:
 682              		.align	2
ARM GAS  C:\Users\dmr85\AppData\Local\Temp\ccBWcmjg.s 			page 31


 683              	.L58:
 684 0020 81000F40 		.word	1074724993
 685 0024 80000F40 		.word	1074724992
 686 0028 82000F40 		.word	1074724994
 687              		.cfi_endproc
 688              	.LFE2:
 689              		.size	spi_Init, .-spi_Init
 690              		.section	.text.spi_Start,"ax",%progbits
 691              		.align	2
 692              		.global	spi_Start
 693              		.code	16
 694              		.thumb_func
 695              		.type	spi_Start, %function
 696              	spi_Start:
 697              	.LFB4:
 164:Generated_Source\PSoC4/spi.c ****     if(0u == spi_initVar)
 698              		.loc 1 164 0
 699              		.cfi_startproc
 700              		@ args = 0, pretend = 0, frame = 0
 701              		@ frame_needed = 0, uses_anonymous_args = 0
 702 0000 10B5     		push	{r4, lr}
 703              		.cfi_def_cfa_offset 8
 704              		.cfi_offset 4, -8
 705              		.cfi_offset 14, -4
 165:Generated_Source\PSoC4/spi.c ****     {
 706              		.loc 1 165 0
 707 0002 064B     		ldr	r3, .L62
 708 0004 1B78     		ldrb	r3, [r3]
 709 0006 002B     		cmp	r3, #0
 710 0008 04D1     		bne	.L61
 167:Generated_Source\PSoC4/spi.c ****         spi_initVar = 1u;
 711              		.loc 1 167 0
 712 000a FFF7FEFF 		bl	spi_Init
 713              	.LVL34:
 168:Generated_Source\PSoC4/spi.c ****     }
 714              		.loc 1 168 0
 715 000e 0122     		movs	r2, #1
 716 0010 024B     		ldr	r3, .L62
 717 0012 1A70     		strb	r2, [r3]
 718              	.L61:
 171:Generated_Source\PSoC4/spi.c **** }
 719              		.loc 1 171 0
 720 0014 FFF7FEFF 		bl	spi_Enable
 721              	.LVL35:
 172:Generated_Source\PSoC4/spi.c **** 
 722              		.loc 1 172 0
 723              		@ sp needed
 724 0018 10BD     		pop	{r4, pc}
 725              	.L63:
 726 001a C046     		.align	2
 727              	.L62:
 728 001c 00000000 		.word	.LANCHOR0
 729              		.cfi_endproc
 730              	.LFE4:
 731              		.size	spi_Start, .-spi_Start
 732              		.section	.text.spi_EnableInt,"ax",%progbits
 733              		.align	2
ARM GAS  C:\Users\dmr85\AppData\Local\Temp\ccBWcmjg.s 			page 32


 734              		.global	spi_EnableInt
 735              		.code	16
 736              		.thumb_func
 737              		.type	spi_EnableInt, %function
 738              	spi_EnableInt:
 739              	.LFB22:
1017:Generated_Source\PSoC4/spi.c **** 
1018:Generated_Source\PSoC4/spi.c **** 
1019:Generated_Source\PSoC4/spi.c **** /* Following functions are for version Compatibility, they are obsolete.
1020:Generated_Source\PSoC4/spi.c **** *  Please do not use it in new projects.
1021:Generated_Source\PSoC4/spi.c **** */
1022:Generated_Source\PSoC4/spi.c **** 
1023:Generated_Source\PSoC4/spi.c **** 
1024:Generated_Source\PSoC4/spi.c **** /*******************************************************************************
1025:Generated_Source\PSoC4/spi.c **** * Function Name: spi_EnableInt
1026:Generated_Source\PSoC4/spi.c **** ********************************************************************************
1027:Generated_Source\PSoC4/spi.c **** *
1028:Generated_Source\PSoC4/spi.c **** * Summary:
1029:Generated_Source\PSoC4/spi.c **** *  Enable internal interrupt generation.
1030:Generated_Source\PSoC4/spi.c **** *
1031:Generated_Source\PSoC4/spi.c **** * Parameters:
1032:Generated_Source\PSoC4/spi.c **** *  None.
1033:Generated_Source\PSoC4/spi.c **** *
1034:Generated_Source\PSoC4/spi.c **** * Return:
1035:Generated_Source\PSoC4/spi.c **** *  None.
1036:Generated_Source\PSoC4/spi.c **** *
1037:Generated_Source\PSoC4/spi.c **** * Theory:
1038:Generated_Source\PSoC4/spi.c **** *  Enable the internal interrupt output -or- the interrupt component itself.
1039:Generated_Source\PSoC4/spi.c **** *
1040:Generated_Source\PSoC4/spi.c **** *******************************************************************************/
1041:Generated_Source\PSoC4/spi.c **** void spi_EnableInt(void) 
1042:Generated_Source\PSoC4/spi.c **** {
 740              		.loc 1 1042 0
 741              		.cfi_startproc
 742              		@ args = 0, pretend = 0, frame = 0
 743              		@ frame_needed = 0, uses_anonymous_args = 0
 744              		@ link register save eliminated.
1043:Generated_Source\PSoC4/spi.c ****     spi_EnableRxInt();
1044:Generated_Source\PSoC4/spi.c ****     spi_EnableTxInt();
1045:Generated_Source\PSoC4/spi.c **** }
 745              		.loc 1 1045 0
 746              		@ sp needed
 747 0000 7047     		bx	lr
 748              		.cfi_endproc
 749              	.LFE22:
 750              		.size	spi_EnableInt, .-spi_EnableInt
 751 0002 C046     		.section	.text.spi_DisableInt,"ax",%progbits
 752              		.align	2
 753              		.global	spi_DisableInt
 754              		.code	16
 755              		.thumb_func
 756              		.type	spi_DisableInt, %function
 757              	spi_DisableInt:
 758              	.LFB23:
1046:Generated_Source\PSoC4/spi.c **** 
1047:Generated_Source\PSoC4/spi.c **** 
1048:Generated_Source\PSoC4/spi.c **** /*******************************************************************************
ARM GAS  C:\Users\dmr85\AppData\Local\Temp\ccBWcmjg.s 			page 33


1049:Generated_Source\PSoC4/spi.c **** * Function Name: spi_DisableInt
1050:Generated_Source\PSoC4/spi.c **** ********************************************************************************
1051:Generated_Source\PSoC4/spi.c **** *
1052:Generated_Source\PSoC4/spi.c **** * Summary:
1053:Generated_Source\PSoC4/spi.c **** *  Disable internal interrupt generation.
1054:Generated_Source\PSoC4/spi.c **** *
1055:Generated_Source\PSoC4/spi.c **** * Parameters:
1056:Generated_Source\PSoC4/spi.c **** *  None.
1057:Generated_Source\PSoC4/spi.c **** *
1058:Generated_Source\PSoC4/spi.c **** * Return:
1059:Generated_Source\PSoC4/spi.c **** *  None.
1060:Generated_Source\PSoC4/spi.c **** *
1061:Generated_Source\PSoC4/spi.c **** * Theory:
1062:Generated_Source\PSoC4/spi.c **** *  Disable the internal interrupt output -or- the interrupt component itself.
1063:Generated_Source\PSoC4/spi.c **** *
1064:Generated_Source\PSoC4/spi.c **** *******************************************************************************/
1065:Generated_Source\PSoC4/spi.c **** void spi_DisableInt(void) 
1066:Generated_Source\PSoC4/spi.c **** {
 759              		.loc 1 1066 0
 760              		.cfi_startproc
 761              		@ args = 0, pretend = 0, frame = 0
 762              		@ frame_needed = 0, uses_anonymous_args = 0
 763              		@ link register save eliminated.
1067:Generated_Source\PSoC4/spi.c ****     spi_DisableTxInt();
1068:Generated_Source\PSoC4/spi.c ****     spi_DisableRxInt();
1069:Generated_Source\PSoC4/spi.c **** }
 764              		.loc 1 1069 0
 765              		@ sp needed
 766 0000 7047     		bx	lr
 767              		.cfi_endproc
 768              	.LFE23:
 769              		.size	spi_DisableInt, .-spi_DisableInt
 770 0002 C046     		.section	.text.spi_SetInterruptMode,"ax",%progbits
 771              		.align	2
 772              		.global	spi_SetInterruptMode
 773              		.code	16
 774              		.thumb_func
 775              		.type	spi_SetInterruptMode, %function
 776              	spi_SetInterruptMode:
 777              	.LFB24:
1070:Generated_Source\PSoC4/spi.c **** 
1071:Generated_Source\PSoC4/spi.c **** 
1072:Generated_Source\PSoC4/spi.c **** /*******************************************************************************
1073:Generated_Source\PSoC4/spi.c **** * Function Name: spi_SetInterruptMode
1074:Generated_Source\PSoC4/spi.c **** ********************************************************************************
1075:Generated_Source\PSoC4/spi.c **** *
1076:Generated_Source\PSoC4/spi.c **** * Summary:
1077:Generated_Source\PSoC4/spi.c **** *  Configure which status bits trigger an interrupt event.
1078:Generated_Source\PSoC4/spi.c **** *
1079:Generated_Source\PSoC4/spi.c **** * Parameters:
1080:Generated_Source\PSoC4/spi.c **** *  intSrc: An or'd combination of the desired status bit masks (defined in the
1081:Generated_Source\PSoC4/spi.c **** *  header file).
1082:Generated_Source\PSoC4/spi.c **** *
1083:Generated_Source\PSoC4/spi.c **** * Return:
1084:Generated_Source\PSoC4/spi.c **** *  None.
1085:Generated_Source\PSoC4/spi.c **** *
1086:Generated_Source\PSoC4/spi.c **** * Theory:
ARM GAS  C:\Users\dmr85\AppData\Local\Temp\ccBWcmjg.s 			page 34


1087:Generated_Source\PSoC4/spi.c **** *  Enables the output of specific status bits to the interrupt controller.
1088:Generated_Source\PSoC4/spi.c **** *
1089:Generated_Source\PSoC4/spi.c **** *******************************************************************************/
1090:Generated_Source\PSoC4/spi.c **** void spi_SetInterruptMode(uint8 intSrc) 
1091:Generated_Source\PSoC4/spi.c **** {
 778              		.loc 1 1091 0
 779              		.cfi_startproc
 780              		@ args = 0, pretend = 0, frame = 0
 781              		@ frame_needed = 0, uses_anonymous_args = 0
 782              		@ link register save eliminated.
 783              	.LVL36:
1092:Generated_Source\PSoC4/spi.c ****     spi_TX_STATUS_MASK_REG  = (intSrc & ((uint8) ~spi_STS_SPI_IDLE));
 784              		.loc 1 1092 0
 785 0000 1023     		movs	r3, #16
 786 0002 0200     		movs	r2, r0
 787 0004 9A43     		bics	r2, r3
 788 0006 024B     		ldr	r3, .L67
 789 0008 1A70     		strb	r2, [r3]
1093:Generated_Source\PSoC4/spi.c ****     spi_RX_STATUS_MASK_REG  =  intSrc;
 790              		.loc 1 1093 0
 791 000a 024B     		ldr	r3, .L67+4
 792 000c 1870     		strb	r0, [r3]
1094:Generated_Source\PSoC4/spi.c **** }
 793              		.loc 1 1094 0
 794              		@ sp needed
 795 000e 7047     		bx	lr
 796              	.L68:
 797              		.align	2
 798              	.L67:
 799 0010 80000F40 		.word	1074724992
 800 0014 82000F40 		.word	1074724994
 801              		.cfi_endproc
 802              	.LFE24:
 803              		.size	spi_SetInterruptMode, .-spi_SetInterruptMode
 804              		.section	.text.spi_ReadStatus,"ax",%progbits
 805              		.align	2
 806              		.global	spi_ReadStatus
 807              		.code	16
 808              		.thumb_func
 809              		.type	spi_ReadStatus, %function
 810              	spi_ReadStatus:
 811              	.LFB25:
1095:Generated_Source\PSoC4/spi.c **** 
1096:Generated_Source\PSoC4/spi.c **** 
1097:Generated_Source\PSoC4/spi.c **** /*******************************************************************************
1098:Generated_Source\PSoC4/spi.c **** * Function Name: spi_ReadStatus
1099:Generated_Source\PSoC4/spi.c **** ********************************************************************************
1100:Generated_Source\PSoC4/spi.c **** *
1101:Generated_Source\PSoC4/spi.c **** * Summary:
1102:Generated_Source\PSoC4/spi.c **** *  Read the status register for the component.
1103:Generated_Source\PSoC4/spi.c **** *
1104:Generated_Source\PSoC4/spi.c **** * Parameters:
1105:Generated_Source\PSoC4/spi.c **** *  None.
1106:Generated_Source\PSoC4/spi.c **** *
1107:Generated_Source\PSoC4/spi.c **** * Return:
1108:Generated_Source\PSoC4/spi.c **** *  Contents of the status register.
1109:Generated_Source\PSoC4/spi.c **** *
ARM GAS  C:\Users\dmr85\AppData\Local\Temp\ccBWcmjg.s 			page 35


1110:Generated_Source\PSoC4/spi.c **** * Global variables:
1111:Generated_Source\PSoC4/spi.c **** *  spi_swStatus - used to store in software status register,
1112:Generated_Source\PSoC4/spi.c **** *  modified every function call - resets to zero.
1113:Generated_Source\PSoC4/spi.c **** *
1114:Generated_Source\PSoC4/spi.c **** * Theory:
1115:Generated_Source\PSoC4/spi.c **** *  Allows the user and the API to read the status register for error detection
1116:Generated_Source\PSoC4/spi.c **** *  and flow control.
1117:Generated_Source\PSoC4/spi.c **** *
1118:Generated_Source\PSoC4/spi.c **** * Side Effects:
1119:Generated_Source\PSoC4/spi.c **** *  Clear status register of the component.
1120:Generated_Source\PSoC4/spi.c **** *
1121:Generated_Source\PSoC4/spi.c **** * Reentrant:
1122:Generated_Source\PSoC4/spi.c **** *  No.
1123:Generated_Source\PSoC4/spi.c **** *
1124:Generated_Source\PSoC4/spi.c **** *******************************************************************************/
1125:Generated_Source\PSoC4/spi.c **** uint8 spi_ReadStatus(void) 
1126:Generated_Source\PSoC4/spi.c **** {
 812              		.loc 1 1126 0
 813              		.cfi_startproc
 814              		@ args = 0, pretend = 0, frame = 0
 815              		@ frame_needed = 0, uses_anonymous_args = 0
 816              		@ link register save eliminated.
1127:Generated_Source\PSoC4/spi.c ****     uint8 tmpStatus;
1128:Generated_Source\PSoC4/spi.c **** 
1129:Generated_Source\PSoC4/spi.c ****     #if(spi_TX_SOFTWARE_BUF_ENABLED || spi_RX_SOFTWARE_BUF_ENABLED)
1130:Generated_Source\PSoC4/spi.c **** 
1131:Generated_Source\PSoC4/spi.c ****         spi_DisableInt();
1132:Generated_Source\PSoC4/spi.c **** 
1133:Generated_Source\PSoC4/spi.c ****         tmpStatus  = spi_GET_STATUS_RX(spi_swStatusRx);
1134:Generated_Source\PSoC4/spi.c ****         tmpStatus |= spi_GET_STATUS_TX(spi_swStatusTx);
1135:Generated_Source\PSoC4/spi.c ****         tmpStatus &= ((uint8) ~spi_STS_SPI_IDLE);
1136:Generated_Source\PSoC4/spi.c **** 
1137:Generated_Source\PSoC4/spi.c ****         spi_swStatusTx = 0u;
1138:Generated_Source\PSoC4/spi.c ****         spi_swStatusRx = 0u;
1139:Generated_Source\PSoC4/spi.c **** 
1140:Generated_Source\PSoC4/spi.c ****         spi_EnableInt();
1141:Generated_Source\PSoC4/spi.c **** 
1142:Generated_Source\PSoC4/spi.c ****     #else
1143:Generated_Source\PSoC4/spi.c **** 
1144:Generated_Source\PSoC4/spi.c ****         tmpStatus  = spi_RX_STATUS_REG;
 817              		.loc 1 1144 0
 818 0000 034B     		ldr	r3, .L70
 819 0002 1B78     		ldrb	r3, [r3]
 820              	.LVL37:
1145:Generated_Source\PSoC4/spi.c ****         tmpStatus |= spi_TX_STATUS_REG;
 821              		.loc 1 1145 0
 822 0004 034A     		ldr	r2, .L70+4
 823 0006 1078     		ldrb	r0, [r2]
 824 0008 1843     		orrs	r0, r3
 825              	.LVL38:
1146:Generated_Source\PSoC4/spi.c ****         tmpStatus &= ((uint8) ~spi_STS_SPI_IDLE);
 826              		.loc 1 1146 0
 827 000a 1023     		movs	r3, #16
 828 000c 9843     		bics	r0, r3
 829              	.LVL39:
1147:Generated_Source\PSoC4/spi.c **** 
1148:Generated_Source\PSoC4/spi.c ****     #endif /* (spi_TX_SOFTWARE_BUF_ENABLED || spi_RX_SOFTWARE_BUF_ENABLED) */
ARM GAS  C:\Users\dmr85\AppData\Local\Temp\ccBWcmjg.s 			page 36


1149:Generated_Source\PSoC4/spi.c **** 
1150:Generated_Source\PSoC4/spi.c ****     return(tmpStatus);
1151:Generated_Source\PSoC4/spi.c **** }
 830              		.loc 1 1151 0
 831              		@ sp needed
 832 000e 7047     		bx	lr
 833              	.L71:
 834              		.align	2
 835              	.L70:
 836 0010 62000F40 		.word	1074724962
 837 0014 60000F40 		.word	1074724960
 838              		.cfi_endproc
 839              	.LFE25:
 840              		.size	spi_ReadStatus, .-spi_ReadStatus
 841              		.comm	spi_swStatusRx,1,1
 842              		.comm	spi_swStatusTx,1,1
 843              		.global	spi_initVar
 844              		.bss
 845              		.set	.LANCHOR0,. + 0
 846              		.type	spi_initVar, %object
 847              		.size	spi_initVar, 1
 848              	spi_initVar:
 849 0000 00       		.space	1
 850              		.text
 851              	.Letext0:
 852              		.file 2 "Generated_Source\\PSoC4\\cytypes.h"
 853              		.file 3 "Generated_Source\\PSoC4\\CyLib.h"