ARM GAS  C:\Users\dmr85\AppData\Local\Temp\ccptpkwM.s 			page 1


   1              		.syntax unified
   2              		.cpu cortex-m0plus
   3              		.fpu softvfp
   4              		.eabi_attribute 20, 1
   5              		.eabi_attribute 21, 1
   6              		.eabi_attribute 23, 3
   7              		.eabi_attribute 24, 1
   8              		.eabi_attribute 25, 1
   9              		.eabi_attribute 26, 1
  10              		.eabi_attribute 30, 1
  11              		.eabi_attribute 34, 0
  12              		.eabi_attribute 18, 4
  13              		.thumb
  14              		.syntax unified
  15              		.file	"ads1299.c"
  16              		.text
  17              	.Ltext0:
  18              		.cfi_sections	.debug_frame
  19              		.section	.text.ads1299_rreg,"ax",%progbits
  20              		.align	2
  21              		.global	ads1299_rreg
  22              		.code	16
  23              		.thumb_func
  24              		.type	ads1299_rreg, %function
  25              	ads1299_rreg:
  26              	.LFB454:
  27              		.file 1 "ads1299.c"
   1:ads1299.c     **** /** 
   2:ads1299.c     ****  *  \file ads1299.c
   3:ads1299.c     ****  *  \brief Some useful functions for using the ADS1299 EEG analog front-end from Texas Instruments.
   4:ads1299.c     ****  *	\details The ADS1299 is an SPI slave device. Communication with it requires at least one SPI mas
   5:ads1299.c     ****  *	\author Graham Kelly
   6:ads1299.c     ****  *	\version 1.0
   7:ads1299.c     ****  *	\date August 2014
   8:ads1299.c     ****  *
   9:ads1299.c     ****  *  All Atmel Software Framework libraries used herein are copyright Atmel and
  10:ads1299.c     ****  *  subject to their appropriate licenses, which allow free redistribution with
  11:ads1299.c     ****  *  some restrictions. These restrictions are listed in their appropriate files.
  12:ads1299.c     ****  *
  13:ads1299.c     ****  *  \page License
  14:ads1299.c     ****  *
  15:ads1299.c     ****  *  Brainboard firmware code is placed under the MIT license
  16:ads1299.c     ****  *  Copyright (c) 2014 Graham Kelly
  17:ads1299.c     ****  *
  18:ads1299.c     ****  *  Permission is hereby granted, free of charge, to any person obtaining a copy
  19:ads1299.c     ****  *  of this software and associated documentation files (the "Software"), to deal
  20:ads1299.c     ****  *  in the Software without restriction, including without limitation the rights
  21:ads1299.c     ****  *  to use, copy, modify, merge, publish, distribute, sublicense, and/or sell
  22:ads1299.c     ****  *  copies of the Software, and to permit persons to whom the Software is
  23:ads1299.c     ****  *  furnished to do so, subject to the following conditions:
  24:ads1299.c     ****  *
  25:ads1299.c     ****  *  The above copyright notice and this permission notice shall be included in
  26:ads1299.c     ****  *  all copies or substantial portions of the Software.
  27:ads1299.c     ****  *
  28:ads1299.c     ****  *  THE SOFTWARE IS PROVIDED "AS IS", WITHOUT WARRANTY OF ANY KIND, EXPRESS OR
  29:ads1299.c     ****  *  IMPLIED, INCLUDING BUT NOT LIMITED TO THE WARRANTIES OF MERCHANTABILITY,
  30:ads1299.c     ****  *  FITNESS FOR A PARTICULAR PURPOSE AND NONINFRINGEMENT. IN NO EVENT SHALL THE
ARM GAS  C:\Users\dmr85\AppData\Local\Temp\ccptpkwM.s 			page 2


  31:ads1299.c     ****  *  AUTHORS OR COPYRIGHT HOLDERS BE LIABLE FOR ANY CLAIM, DAMAGES OR OTHER
  32:ads1299.c     ****  *  LIABILITY, WHETHER IN AN ACTION OF CONTRACT, TORT OR OTHERWISE, ARISING FROM,
  33:ads1299.c     ****  *  OUT OF OR IN CONNECTION WITH THE SOFTWARE OR THE USE OR OTHER DEALINGS IN
  34:ads1299.c     ****  *  THE SOFTWARE.
  35:ads1299.c     ****  *
  36:ads1299.c     ****  */
  37:ads1299.c     **** 
  38:ads1299.c     **** #ifdef __cplusplus
  39:ads1299.c     **** extern "C" {
  40:ads1299.c     **** #endif
  41:ads1299.c     **** 
  42:ads1299.c     **** #include "ads1299.h"
  43:ads1299.c     **** 
  44:ads1299.c     **** 
  45:ads1299.c     **** /**************************************************************************************************
  46:ads1299.c     **** *               Function Definitions                                                               
  47:ads1299.c     **** ***************************************************************************************************
  48:ads1299.c     **** 
  49:ads1299.c     **** /* SYSTEM CONTROL FUNCTIONS ***********************************************************************
  50:ads1299.c     **** 
  51:ads1299.c     **** ads1299_error_t	ads1299_device_init(uint8_t chip_select, uint8_t init_regs)
  52:ads1299.c     **** {
  53:ads1299.c     **** 	#if UC3
  54:ads1299.c     ****         
  55:ads1299.c     ****     gpio_set_gpio_pin(ADS1299_PIN_CLKSEL);
  56:ads1299.c     ****     
  57:ads1299.c     **** 	/* Power cycle ADS1299 */
  58:ads1299.c     **** 	//gpio_clr_gpio_pin(ADS1299_PIN_PWDN);
  59:ads1299.c     **** 	//CyDelay(1000);
  60:ads1299.c     **** 	gpio_set_gpio_pin(ADS1299_PIN_PWDN);
  61:ads1299.c     ****     //CyDelay(1);
  62:ads1299.c     ****     
  63:ads1299.c     ****     gpio_set_gpio_pin(ADS1299_PIN_RESET);
  64:ads1299.c     **** 	CyDelay(1000);
  65:ads1299.c     ****     gpio_clr_gpio_pin(ADS1299_PIN_RESET);
  66:ads1299.c     **** 	CyDelay(1000);
  67:ads1299.c     **** 	gpio_set_gpio_pin(ADS1299_PIN_RESET);
  68:ads1299.c     ****     CyDelay(10);
  69:ads1299.c     ****     //gpio_clr_gpio_pin(ADS1299_PIN_RESET);
  70:ads1299.c     **** 	//CyDelay(1);
  71:ads1299.c     ****     
  72:ads1299.c     **** 	/* Allow oscillator warm-up */
  73:ads1299.c     **** 	CyDelay(1000);
  74:ads1299.c     **** 	
  75:ads1299.c     ****     spi_selectChip(SPI_ADDRESS, chip_select);
  76:ads1299.c     ****     CyDelay(1000);
  77:ads1299.c     **** 	spi_unselectChip(SPI_ADDRESS, chip_select);
  78:ads1299.c     ****     CyDelay(500);
  79:ads1299.c     ****     
  80:ads1299.c     **** 	/* Tell chip to exit continuous data mode */
  81:ads1299.c     **** 	ads1299_send_byte(chip_select, ADS1299_OPC_SDATAC);
  82:ads1299.c     ****     CyDelay(10);
  83:ads1299.c     ****     ads1299_send_byte(chip_select, ADS1299_OPC_STOP);
  84:ads1299.c     ****     //ads1299_hard_stop_conversion();
  85:ads1299.c     ****     CyDelay(10);
  86:ads1299.c     ****     /* Stop taking conversions; apparently not done automatically */
  87:ads1299.c     ****  	    
ARM GAS  C:\Users\dmr85\AppData\Local\Temp\ccptpkwM.s 			page 3


  88:ads1299.c     ****     
  89:ads1299.c     **** 	if (init_regs) 
  90:ads1299.c     **** 	{
  91:ads1299.c     ****         /* Write to GPIO register, set all pins to driven-low output */
  92:ads1299.c     **** 		ads1299_wreg(chip_select, ADS1299_REGADDR_GPIO, ADS1299_REG_GPIO_GPIOC4_OUTPUT |
  93:ads1299.c     **** 		ADS1299_REG_GPIO_GPIOD4_LOW    |
  94:ads1299.c     **** 		ADS1299_REG_GPIO_GPIOC3_OUTPUT |
  95:ads1299.c     **** 		ADS1299_REG_GPIO_GPIOD3_LOW    |
  96:ads1299.c     **** 		ADS1299_REG_GPIO_GPIOC2_OUTPUT |
  97:ads1299.c     **** 		ADS1299_REG_GPIO_GPIOD2_LOW    |
  98:ads1299.c     **** 		ADS1299_REG_GPIO_GPIOC1_OUTPUT |
  99:ads1299.c     **** 		ADS1299_REG_GPIO_GPIOD1_LOW    );
 100:ads1299.c     **** 			
 101:ads1299.c     **** 		/* Write to CONFIG1, set data rate to 250 Hz */
 102:ads1299.c     **** 		ads1299_wreg(chip_select, ADS1299_REGADDR_CONFIG1, ADS1299_REG_CONFIG1_RESERVED_VALUE |
 103:ads1299.c     **** 		ADS1299_REG_CONFIG1_FMOD_DIV_BY_4096);
 104:ads1299.c     **** 		/* Write to CONFIG2 register, generate test signal internally */
 105:ads1299.c     **** 		ads1299_wreg(chip_select, ADS1299_REGADDR_CONFIG2, ADS1299_REG_CONFIG2_RESERVED_VALUE |
 106:ads1299.c     **** 		ADS1299_REG_CONFIG2_CAL_INT        |
 107:ads1299.c     **** 		ADS1299_REG_CONFIG2_CAL_PULSE_FCLK_DIV_2_21);
 108:ads1299.c     **** 			
 109:ads1299.c     **** 		/* Write to CONFIG3, enable internal reference buffer, bias internally generated, bias buffer ena
 110:ads1299.c     **** 		ads1299_wreg(chip_select, ADS1299_REGADDR_CONFIG3, ADS1299_REG_CONFIG3_REFBUF_ENABLED |
 111:ads1299.c     **** 		//ADS1299_REG_CONFIG3_BIASREF_INT    |
 112:ads1299.c     **** 		ADS1299_REG_CONFIG3_BIASBUF_ENABLED);
 113:ads1299.c     **** 		/* Reference settling time */
 114:ads1299.c     **** 		delay_ms(150);
 115:ads1299.c     **** 			
 116:ads1299.c     **** 		/* Write to CH1 settings register, set as normal input, gain 24 */
 117:ads1299.c     **** 		ads1299_wreg(chip_select, ADS1299_REGADDR_CH1SET, ADS1299_REG_CHNSET_CHANNEL_ON			|
 118:ads1299.c     **** 		ADS1299_REG_CHNSET_GAIN_4			|
 119:ads1299.c     **** 		ADS1299_REG_CHNSET_SRB2_DISCONNECTED	|
 120:ads1299.c     **** 		ADS1299_REG_CHNSET_NORMAL_ELECTRODE);
 121:ads1299.c     **** 		/* Write to CH2 settings register, set as normal input, gain 24 */
 122:ads1299.c     **** 		ads1299_wreg(chip_select, ADS1299_REGADDR_CH2SET, ADS1299_REG_CHNSET_CHANNEL_ON			|
 123:ads1299.c     **** 		ADS1299_REG_CHNSET_GAIN_4			|
 124:ads1299.c     **** 		ADS1299_REG_CHNSET_SRB2_DISCONNECTED	|
 125:ads1299.c     **** 		ADS1299_REG_CHNSET_NORMAL_ELECTRODE);
 126:ads1299.c     **** 		/* Write to CH3 settings register, set as normal input, gain 24 */
 127:ads1299.c     **** 		ads1299_wreg(chip_select, ADS1299_REGADDR_CH3SET, ADS1299_REG_CHNSET_CHANNEL_ON			|
 128:ads1299.c     **** 		ADS1299_REG_CHNSET_GAIN_4			|
 129:ads1299.c     **** 		ADS1299_REG_CHNSET_SRB2_DISCONNECTED	|
 130:ads1299.c     **** 		ADS1299_REG_CHNSET_CHANNEL_OFF);
 131:ads1299.c     **** 		/* Write to CH4 settings register, set as normal input, gain 24 */
 132:ads1299.c     **** 		ads1299_wreg(chip_select, ADS1299_REGADDR_CH4SET, ADS1299_REG_CHNSET_CHANNEL_ON			|
 133:ads1299.c     **** 		ADS1299_REG_CHNSET_GAIN_4			|
 134:ads1299.c     **** 		ADS1299_REG_CHNSET_SRB2_DISCONNECTED	|
 135:ads1299.c     **** 		ADS1299_REG_CHNSET_CHANNEL_OFF);
 136:ads1299.c     **** 		/* Write to CH5 settings register, set as normal input, gain 24 */
 137:ads1299.c     **** 		ads1299_wreg(chip_select, ADS1299_REGADDR_CH5SET, ADS1299_REG_CHNSET_CHANNEL_ON			|
 138:ads1299.c     **** 		ADS1299_REG_CHNSET_GAIN_4			|
 139:ads1299.c     **** 		ADS1299_REG_CHNSET_SRB2_DISCONNECTED	|
 140:ads1299.c     **** 		ADS1299_REG_CHNSET_CHANNEL_OFF);
 141:ads1299.c     **** 		/* Write to CH6 settings register, set as normal input, gain 24 */
 142:ads1299.c     **** 		ads1299_wreg(chip_select, ADS1299_REGADDR_CH6SET, ADS1299_REG_CHNSET_CHANNEL_ON			|
 143:ads1299.c     **** 		ADS1299_REG_CHNSET_GAIN_4			|
 144:ads1299.c     **** 		ADS1299_REG_CHNSET_SRB2_DISCONNECTED	|
ARM GAS  C:\Users\dmr85\AppData\Local\Temp\ccptpkwM.s 			page 4


 145:ads1299.c     **** 		ADS1299_REG_CHNSET_CHANNEL_OFF);
 146:ads1299.c     **** 		/* Write to CH5 settings register, set as normal input, gain 24 */
 147:ads1299.c     **** 		ads1299_wreg(chip_select, ADS1299_REGADDR_CH7SET, ADS1299_REG_CHNSET_CHANNEL_ON			|
 148:ads1299.c     **** 		ADS1299_REG_CHNSET_GAIN_4			|
 149:ads1299.c     **** 		ADS1299_REG_CHNSET_SRB2_DISCONNECTED	|
 150:ads1299.c     **** 		ADS1299_REG_CHNSET_CHANNEL_OFF);
 151:ads1299.c     **** 		/* Write to CH6 settings register, set as normal input, gain 24 */
 152:ads1299.c     **** 		ads1299_wreg(chip_select, ADS1299_REGADDR_CH8SET, ADS1299_REG_CHNSET_CHANNEL_ON			|
 153:ads1299.c     **** 		ADS1299_REG_CHNSET_GAIN_4			|
 154:ads1299.c     **** 		ADS1299_REG_CHNSET_SRB2_DISCONNECTED	|
 155:ads1299.c     **** 		ADS1299_REG_CHNSET_CHANNEL_OFF);
 156:ads1299.c     **** 			
 157:ads1299.c     **** 		/* Write to MISC1 register, SRB1 on (ref electrode) */
 158:ads1299.c     **** 		ads1299_wreg(chip_select, ADS1299_REGADDR_MISC1, ADS1299_REG_MISC1_SRB1_ON);
 159:ads1299.c     **** 	} 		
 160:ads1299.c     ****     CyDelay(100);
 161:ads1299.c     ****     uint8_t reg_val[1];
 162:ads1299.c     ****     ads1299_rreg(SPI_ADS1299_MAIN_CHIPNUM, ADS1299_REGADDR_CONFIG3, reg_val);
 163:ads1299.c     ****     printf("regval %x ", reg_val[0]);
 164:ads1299.c     ****     
 165:ads1299.c     **** 	return ADS1299_STATUS_OK;
 166:ads1299.c     **** 	#else
 167:ads1299.c     **** 	#endif /* #if UC3 */
 168:ads1299.c     **** }
 169:ads1299.c     **** 
 170:ads1299.c     **** ads1299_error_t	ads1299_lead_off(uint8_t chip_select)
 171:ads1299.c     **** {
 172:ads1299.c     ****     ads1299_wreg(chip_select, ADS1299_REGADDR_LOFF, ADS1299_REG_LOFF_95_PERCENT | ADS1299_REG_LOFF_
 173:ads1299.c     ****     ads1299_wreg(chip_select, ADS1299_REGADDR_CONFIG4, ADS1299_REG_CONFIG4_LEAD_OFF_ENABLED);
 174:ads1299.c     ****     ads1299_wreg(chip_select, ADS1299_REGADDR_LOFF_SENSP, ADS1299_REG_LOFF_SENSP_LOFFP1 |
 175:ads1299.c     ****     ADS1299_REG_LOFF_SENSP_LOFFP2 |
 176:ads1299.c     ****     ADS1299_REG_LOFF_SENSP_LOFFP3 |
 177:ads1299.c     ****     ADS1299_REG_LOFF_SENSP_LOFFP4 |
 178:ads1299.c     ****     ADS1299_REG_LOFF_SENSP_LOFFP5 |
 179:ads1299.c     ****     ADS1299_REG_LOFF_SENSP_LOFFP6 |
 180:ads1299.c     ****     ADS1299_REG_LOFF_SENSP_LOFFP7 |
 181:ads1299.c     ****     ADS1299_REG_LOFF_SENSP_LOFFP8);
 182:ads1299.c     ****     
 183:ads1299.c     ****     return ADS1299_STATUS_OK;
 184:ads1299.c     **** }
 185:ads1299.c     **** 
 186:ads1299.c     **** 
 187:ads1299.c     **** /* REGISTER READ/WRITE FUNCTIONS ******************************************************************
 188:ads1299.c     **** 
 189:ads1299.c     **** ads1299_error_t ads1299_rreg(uint8_t chip_select, uint8_t reg_addr, uint8_t read_reg_val_arr[])
 190:ads1299.c     **** {
  28              		.loc 1 190 0
  29              		.cfi_startproc
  30              		@ args = 0, pretend = 0, frame = 8
  31              		@ frame_needed = 0, uses_anonymous_args = 0
  32              	.LVL0:
  33 0000 70B5     		push	{r4, r5, r6, lr}
  34              		.cfi_def_cfa_offset 16
  35              		.cfi_offset 4, -16
  36              		.cfi_offset 5, -12
  37              		.cfi_offset 6, -8
  38              		.cfi_offset 14, -4
ARM GAS  C:\Users\dmr85\AppData\Local\Temp\ccptpkwM.s 			page 5


  39 0002 82B0     		sub	sp, sp, #8
  40              		.cfi_def_cfa_offset 24
  41 0004 0500     		movs	r5, r0
  42 0006 0E00     		movs	r6, r1
  43              	.LVL1:
  44              	.LBB26:
  45              	.LBB27:
  46              		.file 2 "ads1299.h"
   1:ads1299.h     **** /**
   2:ads1299.h     ****  *  \file ads1299.h
   3:ads1299.h     ****  *  \brief Configuration settings, register definitions, and function prototypes for using the ADS1
   4:ads1299.h     ****  *	\author Graham Kelly
   5:ads1299.h     ****  *	\version 1.0
   6:ads1299.h     ****  *	\date August 2014
   7:ads1299.h     ****  *
   8:ads1299.h     ****  *  All Atmel Software Framework libraries used herein are copyright Atmel and
   9:ads1299.h     ****  *  subject to their appropriate licenses, which allow free redistribution with
  10:ads1299.h     ****  *  some restrictions. These restrictions are listed in their appropriate files.
  11:ads1299.h     ****  *
  12:ads1299.h     ****  *  \page License
  13:ads1299.h     ****  *
  14:ads1299.h     ****  *  Brainboard firmware code is placed under the MIT license
  15:ads1299.h     ****  *  Copyright (c) 2014 Graham Kelly
  16:ads1299.h     ****  *
  17:ads1299.h     ****  *  Permission is hereby granted, free of charge, to any person obtaining a copy
  18:ads1299.h     ****  *  of this software and associated documentation files (the "Software"), to deal
  19:ads1299.h     ****  *  in the Software without restriction, including without limitation the rights
  20:ads1299.h     ****  *  to use, copy, modify, merge, publish, distribute, sublicense, and/or sell
  21:ads1299.h     ****  *  copies of the Software, and to permit persons to whom the Software is
  22:ads1299.h     ****  *  furnished to do so, subject to the following conditions:
  23:ads1299.h     ****  *
  24:ads1299.h     ****  *  The above copyright notice and this permission notice shall be included in
  25:ads1299.h     ****  *  all copies or substantial portions of the Software.
  26:ads1299.h     ****  *
  27:ads1299.h     ****  *  THE SOFTWARE IS PROVIDED "AS IS", WITHOUT WARRANTY OF ANY KIND, EXPRESS OR
  28:ads1299.h     ****  *  IMPLIED, INCLUDING BUT NOT LIMITED TO THE WARRANTIES OF MERCHANTABILITY,
  29:ads1299.h     ****  *  FITNESS FOR A PARTICULAR PURPOSE AND NONINFRINGEMENT. IN NO EVENT SHALL THE
  30:ads1299.h     ****  *  AUTHORS OR COPYRIGHT HOLDERS BE LIABLE FOR ANY CLAIM, DAMAGES OR OTHER
  31:ads1299.h     ****  *  LIABILITY, WHETHER IN AN ACTION OF CONTRACT, TORT OR OTHERWISE, ARISING FROM,
  32:ads1299.h     ****  *  OUT OF OR IN CONNECTION WITH THE SOFTWARE OR THE USE OR OTHER DEALINGS IN
  33:ads1299.h     ****  *  THE SOFTWARE.
  34:ads1299.h     ****  *
  35:ads1299.h     ****  */
  36:ads1299.h     **** 
  37:ads1299.h     **** #ifndef _ADS1299_H_
  38:ads1299.h     **** #define _ADS1299_H_
  39:ads1299.h     **** 
  40:ads1299.h     **** #ifdef __cplusplus
  41:ads1299.h     **** extern "C" {
  42:ads1299.h     **** #endif
  43:ads1299.h     **** 
  44:ads1299.h     **** 
  45:ads1299.h     **** //#include "comms.h"
  46:ads1299.h     **** //#include <spi_master.h>
  47:ads1299.h     **** //#include <gpio.h>
  48:ads1299.h     **** //#include <delay.h>
  49:ads1299.h     **** #include <project.h>
ARM GAS  C:\Users\dmr85\AppData\Local\Temp\ccptpkwM.s 			page 6


  50:ads1299.h     **** #include "ads1299_spi_adapt.h"
  51:ads1299.h     **** #include "comms.h"
  52:ads1299.h     **** #include <stdio.h>
  53:ads1299.h     **** 
  54:ads1299.h     **** /**************************************************************************************************
  55:ads1299.h     ****  *               Sampling Config                                                                   
  56:ads1299.h     ****  **************************************************************************************************
  57:ads1299.h     **** 
  58:ads1299.h     **** /**
  59:ads1299.h     ****  *  \brief Default data rate from the ADS1299.
  60:ads1299.h     ****  *
  61:ads1299.h     ****  *	To monitor electrode impedance continuously, an AC current is pulsed through each electrode and 
  62:ads1299.h     ****  *  voltage perturbation observed in the measured signal. This signal will not be easily separable 
  63:ads1299.h     ****  *  is within the typical 0-100 Hz EEG bandwidth; since the fastest possible AC excitation rate the
  64:ads1299.h     ****  *  generate is (data rate)/4, the lowest recommended data rate that allows continuous impedance mo
  65:ads1299.h     ****  *  Using a 500 Hz data rate will generate an AC excitation at 125 Hz, which is dangerously close t
  66:ads1299.h     ****  *  the EEG band.
  67:ads1299.h     ****  */
  68:ads1299.h     **** #define DEFAULT_SAMPLE_RATE			250
  69:ads1299.h     **** 
  70:ads1299.h     **** 
  71:ads1299.h     **** /**************************************************************************************************
  72:ads1299.h     **** *               Other Useful Definitions                                                           
  73:ads1299.h     **** ***************************************************************************************************
  74:ads1299.h     **** 
  75:ads1299.h     **** 
  76:ads1299.h     **** #define SIGN_EXT_24(VAL)						((int32_t)((uint32_t)(VAL) ^ (1UL<<(23))) - (1L<<(23)))
  77:ads1299.h     **** 
  78:ads1299.h     **** /* Default register values */
  79:ads1299.h     **** #define ADS1299_REGDEFAULT_ID			ADS1299_DEVICE_ID
  80:ads1299.h     **** #define ADS1299_REGDEFAULT_CONFIG1		0x96			///< Multiple readback mode, OSC output disabled, DR = F
  81:ads1299.h     **** #define ADS1299_REGDEFAULT_CONFIG2		0xD0			///< Test signal sourced internally, low-amplitude test 
  82:ads1299.h     **** #define ADS1299_REGDEFAULT_CONFIG3		0x68			///< Ref buffer off, bias measurement off, internal bias
  83:ads1299.h     **** #define ADS1299_REGDEFAULT_LOFF			0x00			///< 95%/5% LOFF comparator threshold, DC lead-off at 6 nA
  84:ads1299.h     **** #define ADS1299_REGDEFAULT_CHNSET		0xE0			///< Channel off, gain 24, SRB2 disconnected, normal elec
  85:ads1299.h     **** #define ADS1299_REGDEFAULT_BIAS_SENSP	0x00			///< All BIAS channels disconnected from positive lead
  86:ads1299.h     **** #define ADS1299_REGDEFAULT_BIAS_SENSN	0x00			///< All BIAS channels disconnected from negative lead
  87:ads1299.h     **** #define ADS1299_REGDEFAULT_LOFF_SENSP	0x00			///< All LOFF channels disconnected from positive lead
  88:ads1299.h     **** #define ADS1299_REGDEFAULT_LOFF_SENSN	0x00			///< All LOFF channels disconnected from negative lead
  89:ads1299.h     **** #define ADS1299_REGDEFAULT_LOFF_FLIP	0x00			///< No flipping in this house; source/pull-up at INP, 
  90:ads1299.h     **** #define ADS1299_REGDEFAULT_LOFF_STATP	0x00			///< This is a read-only register; reset value is 0x00
  91:ads1299.h     **** #define ADS1299_REGDEFAULT_LOFF_STATN	0x00			///< This is a read-only register; reset value is 0x00
  92:ads1299.h     **** #define ADS1299_REGDEFAULT_GPIO			0x0F			///< All GPIO set to inputs
  93:ads1299.h     **** #define ADS1299_REGDEFAULT_MISC1		0x00			///< SRB1 disconnected
  94:ads1299.h     **** #define ADS1299_REGDEFAULT_MISC2		0x00			///< Register not used in this silicon; should stay at 0x0
  95:ads1299.h     **** #define ADS1299_REGDEFAULT_CONFIG4		0x00			///< Continuous conversion, LOFF comparator powered down
  96:ads1299.h     **** 	
  97:ads1299.h     **** 
  98:ads1299.h     **** /**************************************************************************************************
  99:ads1299.h     **** *               Typedefs and Struct Declarations/Definitions                                       
 100:ads1299.h     **** ***************************************************************************************************
 101:ads1299.h     **** 
 102:ads1299.h     **** /**
 103:ads1299.h     ****  *	\brief Error codes for interacting with the ADS1299.
 104:ads1299.h     ****  *
 105:ads1299.h     ****  */
 106:ads1299.h     **** typedef enum
ARM GAS  C:\Users\dmr85\AppData\Local\Temp\ccptpkwM.s 			page 7


 107:ads1299.h     **** {
 108:ads1299.h     **** 	ADS1299_STATUS_OK				= 0,		///< No error.
 109:ads1299.h     **** 	ADS1299_ERROR_SPI_TIMEOUT		= 1,		///< SPI timed out. Check SPI configuration and hardware connecti
 110:ads1299.h     **** 	/* Expand with other codes if desired */
 111:ads1299.h     **** } ads1299_error_t;
 112:ads1299.h     **** 
 113:ads1299.h     **** /**
 114:ads1299.h     ****  *	\brief ADS1299 register addresses.
 115:ads1299.h     ****  *
 116:ads1299.h     ****  * Consult the ADS1299 datasheet and user's guide for more information.
 117:ads1299.h     ****  */
 118:ads1299.h     **** #define	ADS1299_REGADDR_ID			 0x00			///< Chip ID register. Read-only. ID[4:0] should be 11110.
 119:ads1299.h     **** #define	ADS1299_REGADDR_CONFIG1		 0x01			///< Configuration register 1. Controls daisy-chain mode; 
 120:ads1299.h     **** #define	ADS1299_REGADDR_CONFIG2		 0x02			///< Configuration register 2. Controls calibration signal
 121:ads1299.h     **** #define	ADS1299_REGADDR_CONFIG3		 0x03			///< Configuration register 3. Controls reference buffer p
 122:ads1299.h     **** #define	ADS1299_REGADDR_LOFF		 0x04			///< Lead-off control register. Controls lead-off frequency, 
 123:ads1299.h     **** #define	ADS1299_REGADDR_CH1SET		 0x05			///< Channel 1 settings register. Controls channel 1 input 
 124:ads1299.h     **** #define	ADS1299_REGADDR_CH2SET		 0x06			///< Channel 2 settings register. Controls channel 2 input 
 125:ads1299.h     **** #define	ADS1299_REGADDR_CH3SET		 0x07			///< Channel 3 settings register. Controls channel 3 input 
 126:ads1299.h     **** #define	ADS1299_REGADDR_CH4SET		 0x08			///< Channel 4 settings register. Controls channel 4 input 
 127:ads1299.h     **** #define	ADS1299_REGADDR_CH5SET		 0x09			///< Channel 5 settings register. Controls channel 5 input 
 128:ads1299.h     **** #define	ADS1299_REGADDR_CH6SET		 0x0A			///< Channel 6 settings register. Controls channel 6 input 
 129:ads1299.h     **** #define	ADS1299_REGADDR_CH7SET		 0x0B			///< Channel 7 settings register. Controls channel 7 input 
 130:ads1299.h     **** #define	ADS1299_REGADDR_CH8SET		 0x0C			///< Channel 8 settings register. Controls channel 8 input 
 131:ads1299.h     **** #define	ADS1299_REGADDR_BIAS_SENSP	 0x0D			///< Bias drive positive sense selection. Selects channe
 132:ads1299.h     **** #define	ADS1299_REGADDR_BIAS_SENSN	 0x0E			///< Bias drive negative sense selection. Selects channe
 133:ads1299.h     **** #define	ADS1299_REGADDR_LOFF_SENSP	 0x0F			///< Lead-off positive sense selection. Selects channels
 134:ads1299.h     **** #define	ADS1299_REGADDR_LOFF_SENSN	 0x10			///< Lead-off negative sense selection. Selects channels
 135:ads1299.h     **** #define	ADS1299_REGADDR_LOFF_FLIP	 0x11			///< 1: Swaps lead-off current source and sink on the cor
 136:ads1299.h     **** #define	ADS1299_REGADDR_LOFF_STATP	 0x12			///< Lead-off positive side status register. Read-only. 
 137:ads1299.h     **** #define	ADS1299_REGADDR_LOFF_STATN	 0x13			///< Lead-off negative side status register. Read-only. 
 138:ads1299.h     **** #define	ADS1299_REGADDR_GPIO		 0x14			///< GPIO register. Controls state and direction of the ADS12
 139:ads1299.h     **** #define	ADS1299_REGADDR_MISC1		 0x15			///< Miscellaneous 1. Connects/disconnects SRB1 to all chann
 140:ads1299.h     **** #define	ADS1299_REGADDR_MISC2		 0x16			///< Miscellaneous 2. No functionality in current revision o
 141:ads1299.h     **** #define	ADS1299_REGADDR_CONFIG4		 0x17			///< Configuration register 4. Enables/disables single-sho
 142:ads1299.h     **** 
 143:ads1299.h     **** /**
 144:ads1299.h     ****  *	\brief ADS1299 SPI communication opcodes.
 145:ads1299.h     ****  *	
 146:ads1299.h     ****  * Consult the ADS1299 datasheet and user's guide for more information.
 147:ads1299.h     ****  * For RREG and WREG opcodes, the first byte (opcode) must be ORed with the address of the register
 148:ads1299.h     ****  * The command is completed with a second byte 000n nnnn, where n nnnn is (# registers to read) - 1
 149:ads1299.h     ****  */
 150:ads1299.h     **** #define	ADS1299_OPC_WAKEUP		 0x02			///< Wake up from standby.
 151:ads1299.h     **** #define	ADS1299_OPC_STANDBY		 0x04			///< Enter standby.
 152:ads1299.h     **** #define	ADS1299_OPC_RESET		 0x06			///< Reset all registers.	
 153:ads1299.h     **** #define	ADS1299_OPC_START		 0x08			///< Start data conversions.
 154:ads1299.h     **** #define	ADS1299_OPC_STOP		 0x0A			///< Stop data conversions.
 155:ads1299.h     **** 	
 156:ads1299.h     **** #define	ADS1299_OPC_RDATAC		 0x10			///< Read data continuously (registers cannot be read or writte
 157:ads1299.h     **** #define	ADS1299_OPC_SDATAC		 0x11			///< Stop continuous data read.
 158:ads1299.h     **** #define	ADS1299_OPC_RDATA		 0x12			///< Read single data value.
 159:ads1299.h     **** 	
 160:ads1299.h     **** #define	ADS1299_OPC_RREG		 0x20			///< Read register value.
 161:ads1299.h     **** #define	ADS1299_OPC_WREG		 0x40			///< Write register value.
 162:ads1299.h     **** 
 163:ads1299.h     **** /* ID REGISTER ************************************************************************************
ARM GAS  C:\Users\dmr85\AppData\Local\Temp\ccptpkwM.s 			page 8


 164:ads1299.h     **** 
 165:ads1299.h     **** /**
 166:ads1299.h     ****  *  \brief Factory-programmed device ID for ADS1299, stored in ID[3:0].
 167:ads1299.h     ****  */ 
 168:ads1299.h     **** // Factory-programmed device ID for ADS1299. Stored in ID[3:0].
 169:ads1299.h     **** #define ADS1299_DEVICE_ID		0b1110
 170:ads1299.h     **** 
 171:ads1299.h     **** /* CONFIG1 REGISTER *******************************************************************************
 172:ads1299.h     **** 
 173:ads1299.h     **** /**
 174:ads1299.h     ****  *  \brief Bit location and size definitions for CONFIG1.CLK_EN bit (oscillator output on CLK pin e
 175:ads1299.h     ****  *
 176:ads1299.h     ****  * Consult the ADS1299 datasheet, page 40, for more information.
 177:ads1299.h     ****  */
 178:ads1299.h     **** #define ADS1299_REG_CONFIG1_CLOCK_OUTPUT_DISABLED	 (0<<5)
 179:ads1299.h     **** #define ADS1299_REG_CONFIG1_CLOCK_OUTPUT_ENABLED	 (1<<5)
 180:ads1299.h     **** 
 181:ads1299.h     **** /**
 182:ads1299.h     ****  *  \brief Bit location and size definitions for CONFIG1.DAISY_EN bit.
 183:ads1299.h     ****  *
 184:ads1299.h     ****  * Consult the ADS1299 datasheet, pp. 40 and 31-34, for more information.
 185:ads1299.h     ****  */
 186:ads1299.h     **** #define ADS1299_REG_CONFIG1_DAISY_CHAIN_MODE		 (0<<6)
 187:ads1299.h     **** #define ADS1299_REG_CONFIG1_MULTI_READBACK_MODE		 (1<<6)
 188:ads1299.h     **** 
 189:ads1299.h     **** /**
 190:ads1299.h     ****  *  \brief Bit mask definitions for CONFIG1.DR (data rate).
 191:ads1299.h     ****  *
 192:ads1299.h     ****  * FMOD = FCLK/2, where FCLK is the clock frequency of the ADS1299. This is normally 2.048 MHz.
 193:ads1299.h     ****  */
 194:ads1299.h     **** #define	ADS1299_REG_CONFIG1_FMOD_DIV_BY_64			 0		///< Data is output at FMOD/64, or 16 kHz at 2.048
 195:ads1299.h     **** #define	ADS1299_REG_CONFIG1_FMOD_DIV_BY_128			 1		///< Data is output at FMOD/128, or 8 kHz at 2.04
 196:ads1299.h     **** #define	ADS1299_REG_CONFIG1_FMOD_DIV_BY_256			 2		///< Data is output at FMOD/256, or 4 kHz at 2.04
 197:ads1299.h     **** #define	ADS1299_REG_CONFIG1_FMOD_DIV_BY_512			 3		///< Data is output at FMOD/512, or 2 kHz at 2.04
 198:ads1299.h     **** #define	ADS1299_REG_CONFIG1_FMOD_DIV_BY_1024		 4		///< Data is output at FMOD/1024, or 1 kHz at 2.0
 199:ads1299.h     **** #define	ADS1299_REG_CONFIG1_FMOD_DIV_BY_2048		 5		///< Data is output at FMOD/2048, or 500 Hz at 2.
 200:ads1299.h     **** #define	ADS1299_REG_CONFIG1_FMOD_DIV_BY_4096		 6		///< Data is output at FMOD/4096, or 250 Hz at 2.
 201:ads1299.h     **** 
 202:ads1299.h     **** /**
 203:ads1299.h     ****  *  \brief Combined value of reserved bits in CONFIG1 register.
 204:ads1299.h     ****  *
 205:ads1299.h     ****  * Consult the ADS1299 datasheet, page 40, for more information.
 206:ads1299.h     ****  */
 207:ads1299.h     **** #define ADS1299_REG_CONFIG1_RESERVED_VALUE			(1<<7)|(1<<4)
 208:ads1299.h     **** 
 209:ads1299.h     **** /* CONFIG2 REGISTER *******************************************************************************
 210:ads1299.h     **** 
 211:ads1299.h     **** /**
 212:ads1299.h     ****  *  \brief Bit mask definitions for CONFIG2.CAL_FREQ (calibration signal frequency).
 213:ads1299.h     ****  *
 214:ads1299.h     ****  * FCLK is the clock frequency of the ADS1299. This is normally 2.048 MHz.
 215:ads1299.h     ****  */
 216:ads1299.h     **** #define	ADS1299_REG_CONFIG2_CAL_PULSE_FCLK_DIV_2_21		0		///< Calibration signal pulsed at FCLK/2^21
 217:ads1299.h     **** #define	ADS1299_REG_CONFIG2_CAL_PULSE_FCLK_DIV_2_20		1		///< Calibration signal pulsed at FCLK/2^20
 218:ads1299.h     **** #define	ADS1299_REG_CONFIG2_CAL_DC						3		///< Calibration signal is not pulsed.
 219:ads1299.h     **** 
 220:ads1299.h     **** 
ARM GAS  C:\Users\dmr85\AppData\Local\Temp\ccptpkwM.s 			page 9


 221:ads1299.h     **** /**
 222:ads1299.h     ****  *  \brief Bit mask definitions for CONFIG2.CAL_AMP0 (calibration signal amplitude).
 223:ads1299.h     ****  */
 224:ads1299.h     **** #define	ADS1299_REG_CONFIG2_CAL_AMP_VREF_DIV_2_4_MV		(0<<2)		///< Calibration signal amplitude is 1
 225:ads1299.h     **** #define	ADS1299_REG_CONFIG2_CAL_AMP_2VREF_DIV_2_4_MV	(1<<2)		///< Calibration signal amplitude is 2
 226:ads1299.h     **** 
 227:ads1299.h     **** /**
 228:ads1299.h     ****  *  \brief Bit mask definitions for CONFIG2.INT_CAL (calibration signal source).
 229:ads1299.h     ****  */
 230:ads1299.h     **** #define	ADS1299_REG_CONFIG2_CAL_EXT						(0<<4)		///< Calibration signal is driven externally.
 231:ads1299.h     **** #define	ADS1299_REG_CONFIG2_CAL_INT						(1<<4)		///< Calibration signal is driven internally.
 232:ads1299.h     **** 
 233:ads1299.h     **** /**
 234:ads1299.h     ****  *  \brief Combined value of reserved bits in CONFIG2 register.
 235:ads1299.h     ****  *
 236:ads1299.h     ****  * Consult the ADS1299 datasheet, page 41, for more information.
 237:ads1299.h     ****  */
 238:ads1299.h     **** #define	ADS1299_REG_CONFIG2_RESERVED_VALUE				(6<<5)
 239:ads1299.h     **** 
 240:ads1299.h     **** 
 241:ads1299.h     **** /* CONFIG3 REGISTER *******************************************************************************
 242:ads1299.h     **** 
 243:ads1299.h     **** /**
 244:ads1299.h     ****  *  \brief Bit mask definitions for CONFIG3.PD_REFBUF (internal voltage reference buffer enable/dis
 245:ads1299.h     ****  *
 246:ads1299.h     ****  * Note that disabling the buffer for the internal voltage reference requires that a reference volt
 247:ads1299.h     ****  * must be externally applied on VREFP for proper operation. This is not related to the reference E
 248:ads1299.h     ****  * buffer, which is an external op-amp on the PCB. Brainboard does not apply a voltage to VREFP, an
 249:ads1299.h     ****  * the buffer must be enabled.
 250:ads1299.h     ****  */
 251:ads1299.h     **** #define	ADS1299_REG_CONFIG3_REFBUF_DISABLED			(0<<7)
 252:ads1299.h     **** #define	ADS1299_REG_CONFIG3_REFBUF_ENABLED			(1<<7)
 253:ads1299.h     **** 
 254:ads1299.h     **** /**
 255:ads1299.h     ****  *  \brief Bit mask definitions for CONFIG3.BIAS_MEAS (enable or disable bias measurement through B
 256:ads1299.h     ****  */
 257:ads1299.h     **** #define	ADS1299_REG_CONFIG3_BIAS_MEAS_DISABLED			(0<<4)
 258:ads1299.h     **** #define	ADS1299_REG_CONFIG3_BIAS_MEAS_ENABLED			(1<<4)
 259:ads1299.h     **** 
 260:ads1299.h     **** /**
 261:ads1299.h     ****  *  \brief Bit mask definitions for CONFIG3.BIASREF_INT (bias reference internally or externally ge
 262:ads1299.h     ****  */
 263:ads1299.h     **** #define	ADS1299_REG_CONFIG3_BIASREF_EXT					(0<<3)
 264:ads1299.h     **** #define	ADS1299_REG_CONFIG3_BIASREF_INT					(1<<3)
 265:ads1299.h     **** 
 266:ads1299.h     **** /**
 267:ads1299.h     ****  *  \brief Bit mask definitions for CONFIG3.PD_BIAS (power-down or enable bias buffer amplifier).
 268:ads1299.h     ****  */
 269:ads1299.h     **** #define	ADS1299_REG_CONFIG3_BIASBUF_DISABLED			(0<<2)
 270:ads1299.h     **** #define	ADS1299_REG_CONFIG3_BIASBUF_ENABLED				(1<<2)
 271:ads1299.h     **** 
 272:ads1299.h     **** /**
 273:ads1299.h     ****  *  \brief Bit mask definitions for CONFIG3.BIAS_LOFF_SENS (detection of bias lead-off en/disable).
 274:ads1299.h     ****  */
 275:ads1299.h     **** #define	ADS1299_REG_CONFIG3_BIAS_LOFF_SENSE_DISABLED	(0<<1)
 276:ads1299.h     **** #define ADS1299_REG_CONFIG3_BIAS_LOFF_SENSE_ENABLED		(1<<1)
 277:ads1299.h     **** 
ARM GAS  C:\Users\dmr85\AppData\Local\Temp\ccptpkwM.s 			page 10


 278:ads1299.h     **** /**
 279:ads1299.h     ****  *  \brief Combined value of reserved bits in CONFIG3 register.
 280:ads1299.h     ****  *
 281:ads1299.h     ****  * Consult the ADS1299 datasheet, page 42, for more information.
 282:ads1299.h     ****  */
 283:ads1299.h     **** #define ADS1299_REG_CONFIG3_RESERVED_VALUE				(3<<5)
 284:ads1299.h     **** 
 285:ads1299.h     **** /* CONFIG4 REGISTER *******************************************************************************
 286:ads1299.h     **** 
 287:ads1299.h     **** /**
 288:ads1299.h     ****  *  \brief Bit mask definitions for CONFIG4.SINGLE_SHOT (single-shot or continuous conversion setti
 289:ads1299.h     ****  *
 290:ads1299.h     ****  * This can more easily be set with the RDATAC/SDATAC opcodes.
 291:ads1299.h     ****  */
 292:ads1299.h     **** #define ADS1299_REG_CONFIG4_CONTINUOUS_CONVERSION_MODE		(0<<3)
 293:ads1299.h     **** #define ADS1299_REG_CONFIG4_SINGLE_SHOT_MODE				(1<<3)
 294:ads1299.h     **** 
 295:ads1299.h     **** /**
 296:ads1299.h     ****  *  \brief Bit mask definitions for CONFIG4.PD_LOFF_COMP (power-down lead-off comparators).
 297:ads1299.h     ****  *
 298:ads1299.h     ****  */
 299:ads1299.h     **** #define ADS1299_REG_CONFIG4_LEAD_OFF_DISABLED				(0<<1)
 300:ads1299.h     **** #define ADS1299_REG_CONFIG4_LEAD_OFF_ENABLED				(1<<1)
 301:ads1299.h     **** 
 302:ads1299.h     **** /**
 303:ads1299.h     ****  *  \brief Combined value of reserved bits in CONFIG4 register.
 304:ads1299.h     ****  *
 305:ads1299.h     ****  * Consult the ADS1299 datasheet, page 47, for more information.
 306:ads1299.h     ****  */
 307:ads1299.h     **** #define ADS1299_REG_CONFIG4_RESERVED_VALUE		0
 308:ads1299.h     **** 
 309:ads1299.h     **** /* LOFF REGISTER **********************************************************************************
 310:ads1299.h     **** 
 311:ads1299.h     **** /**
 312:ads1299.h     ****  *  \brief Bit mask definitions for LOFF.COMP_TH (lead-off comparator threshold).
 313:ads1299.h     ****  *
 314:ads1299.h     ****  * Definition names are for the positive side (LOFFP). The corresponding LOFFN thresholds
 315:ads1299.h     ****  * are the difference between these thresholds and 100%. Default value is _95_PERCENT.
 316:ads1299.h     ****  */
 317:ads1299.h     **** #define	ADS1299_REG_LOFF_95_PERCENT					(0<<5)
 318:ads1299.h     **** #define	ADS1299_REG_LOFF_92_5_PERCENT				(1<<5)
 319:ads1299.h     **** #define	ADS1299_REG_LOFF_90_PERCENT					(2<<5)
 320:ads1299.h     **** #define	ADS1299_REG_LOFF_87_5_PERCENT				(3<<5)
 321:ads1299.h     **** #define	ADS1299_REG_LOFF_85_PERCENT					(4<<5)
 322:ads1299.h     **** #define	ADS1299_REG_LOFF_80_PERCENT					(5<<5)
 323:ads1299.h     **** #define	ADS1299_REG_LOFF_75_PERCENT					(6<<5)
 324:ads1299.h     **** #define	ADS1299_REG_LOFF_70_PERCENT					(7<<5)	
 325:ads1299.h     **** 
 326:ads1299.h     **** /**
 327:ads1299.h     ****  *  \brief Bit mask definitions for LOFF.ILEAD_OFF (lead-off current magnitude).
 328:ads1299.h     ****  *
 329:ads1299.h     ****  * This should be as small as possible for continuous lead-off detection, so as not to noticeably a
 330:ads1299.h     ****  * the acquired signal. Default is _6_NA.
 331:ads1299.h     ****  */
 332:ads1299.h     **** #define	ADS1299_REG_LOFF_6_NA						(0<<2)			///< 6 nA lead-off current.
 333:ads1299.h     **** #define	ADS1299_REG_LOFF_24_NA						(1<<2)			///< 24 nA lead-off current.
 334:ads1299.h     **** #define	ADS1299_REG_LOFF_6_UA						(2<<2)			///< 6 uA lead-off current.
ARM GAS  C:\Users\dmr85\AppData\Local\Temp\ccptpkwM.s 			page 11


 335:ads1299.h     **** #define	ADS1299_REG_LOFF_24_UA						(3<<2)			///< 24 uA lead-off current.					
 336:ads1299.h     **** 
 337:ads1299.h     **** /**
 338:ads1299.h     ****  *  \brief Bit mask definitions for LOFF.FLEAD_OFF (lead-off current frequency).
 339:ads1299.h     ****  *
 340:ads1299.h     ****  * This should be as large as possible for continuous AC lead-off detection to ensure that it is ou
 341:ads1299.h     ****  * of the EEG frequency band (approx. 0-100 Hz for most applications). The excitation signal can th
 342:ads1299.h     ****  * be filtered out of the acquired overall signal, and its voltage amplitude measured in order to d
 343:ads1299.h     ****  * the electrode impedance.
 344:ads1299.h     ****  * FCLK is the clock frequency of the ADS1299. This is normally 2.048 MHz.
 345:ads1299.h     ****  * FDR is the output data rate. With the default clock, this must be at least 1 kHz in order to use
 346:ads1299.h     ****  * continuous AC impedance monitoring, since the excitation frequency of FDR/4 = 250 Hz is the lowe
 347:ads1299.h     ****  * possible frequency outside of the EEG band. If only a specific band is needed and it is lower th
 348:ads1299.h     ****  * 62.5 Hz or 125 Hz, the 250/500 Hz settings may be used.
 349:ads1299.h     ****  */
 350:ads1299.h     **** #define	ADS1299_REG_LOFF_DC_LEAD_OFF				0		///< Lead-off current is at DC.
 351:ads1299.h     **** #define	ADS1299_REG_LOFF_AC_LEAD_OFF_FCLK_DIV_2_18	1		///< Lead-off current is at FCLK/2^18, or 7.8
 352:ads1299.h     **** #define	ADS1299_REG_LOFF_AC_LEAD_OFF_FCLK_DIV_2_16	2		///< Lead-off current is at FCLK/2^16, or 31.
 353:ads1299.h     **** #define	ADS1299_REG_LOFF_AC_LEAD_OFF_FDR_DIV_4		3		///< Lead-off current is at FDR/4.
 354:ads1299.h     **** 
 355:ads1299.h     **** /**
 356:ads1299.h     ****  *  \brief Combined value of reserved bits in LOFF register.
 357:ads1299.h     ****  *
 358:ads1299.h     ****  */
 359:ads1299.h     **** #define ADS1299_REG_LOFF_RESERVED_VALUE				0
 360:ads1299.h     **** 
 361:ads1299.h     **** /* CHnSET REGISTERS *******************************************************************************
 362:ads1299.h     **** 
 363:ads1299.h     **** /**
 364:ads1299.h     ****  *  \brief Bit mask definitions for CHnSET.PD (channel power-down).
 365:ads1299.h     ****  */
 366:ads1299.h     **** #define	ADS1299_REG_CHNSET_CHANNEL_ON			(0<<7)
 367:ads1299.h     **** #define	ADS1299_REG_CHNSET_CHANNEL_OFF			(1<<7)
 368:ads1299.h     **** 
 369:ads1299.h     **** /**
 370:ads1299.h     ****  *  \brief Bit mask definitions for CHnSET.GAIN (channel PGA gain).
 371:ads1299.h     ****  *
 372:ads1299.h     ****  * Take care to ensure that the gain is appropriate for the common-mode level of the device inputs.
 373:ads1299.h     ****  * Higher gain settings have lower input-referred noise.
 374:ads1299.h     ****  * Consult the ADS1299 datasheet, pages 6-7 and 19-20, for more information.
 375:ads1299.h     ****  */
 376:ads1299.h     **** #define	ADS1299_REG_CHNSET_GAIN_1				(0<<4)			///< PGA gain = 1.
 377:ads1299.h     **** #define	ADS1299_REG_CHNSET_GAIN_2				(1<<4)			///< PGA gain = 2.
 378:ads1299.h     **** #define	ADS1299_REG_CHNSET_GAIN_4				(2<<4)			///< PGA gain = 4.
 379:ads1299.h     **** #define	ADS1299_REG_CHNSET_GAIN_6				(3<<4)			///< PGA gain = 6.
 380:ads1299.h     **** #define	ADS1299_REG_CHNSET_GAIN_8				(4<<4)			///< PGA gain = 8.
 381:ads1299.h     **** #define	ADS1299_REG_CHNSET_GAIN_12				(5<<4)			///< PGA gain = 12.
 382:ads1299.h     **** #define	ADS1299_REG_CHNSET_GAIN_24				(6<<4)			///< PGA gain = 24.
 383:ads1299.h     **** 
 384:ads1299.h     **** /**
 385:ads1299.h     ****  *  \brief Bit mask definitions for CHnSET.SRB2 (channel internal connection to SRB2 pin).
 386:ads1299.h     ****  */
 387:ads1299.h     **** #define	ADS1299_REG_CHNSET_SRB2_DISCONNECTED	(0<<3)
 388:ads1299.h     **** #define	ADS1299_REG_CHNSET_SRB2_CONNECTED		(1<<3)
 389:ads1299.h     **** 
 390:ads1299.h     **** /**
 391:ads1299.h     ****  *  \brief Bit mask definitions for CHnSET.MUX (channel mux setting).
ARM GAS  C:\Users\dmr85\AppData\Local\Temp\ccptpkwM.s 			page 12


 392:ads1299.h     ****  *
 393:ads1299.h     ****  * Controls the channel multiplexing on the ADS1299.
 394:ads1299.h     ****  * Consult the ADS1299 datasheet, pages 16-17, for more information.
 395:ads1299.h     ****  */
 396:ads1299.h     **** #define	ADS1299_REG_CHNSET_NORMAL_ELECTRODE		0			///< Channel is connected to the corresponding pos
 397:ads1299.h     **** #define	ADS1299_REG_CHNSET_INPUT_SHORTED		1			///< Channel inputs are shorted together. Used for of
 398:ads1299.h     **** #define	ADS1299_REG_CHNSET_BIAS_MEASUREMENT		2			///< Used with CONFIG3.BIAS_MEAS for bias measurem
 399:ads1299.h     **** #define	ADS1299_REG_CHNSET_MVDD_SUPPLY			3			///< Used for measuring analog and digital supplies. S
 400:ads1299.h     **** #define	ADS1299_REG_CHNSET_TEMPERATURE_SENSOR	4			///< Measures device temperature. See ADS1299 dat
 401:ads1299.h     **** #define	ADS1299_REG_CHNSET_TEST_SIGNAL			5			///< Measures calibration signal. See ADS1299 datashee
 402:ads1299.h     **** #define	ADS1299_REG_CHNSET_BIAS_DRIVE_P			6			///< Connects positive side of channel to bias drive 
 403:ads1299.h     **** #define	ADS1299_REG_CHNSET_BIAS_DRIVE_N			7 			///< Connects negative side of channel to bias drive
 404:ads1299.h     **** 
 405:ads1299.h     **** /**
 406:ads1299.h     ****  *  \brief Combined value of reserved bits in CHnSET registers.
 407:ads1299.h     ****  *
 408:ads1299.h     ****  */
 409:ads1299.h     **** #define ADS1299_REG_CHNSET_RESERVED_VALUE		0
 410:ads1299.h     **** 
 411:ads1299.h     **** /* BIAS_SENSP REGISTER ****************************************************************************
 412:ads1299.h     **** 
 413:ads1299.h     **** /**
 414:ads1299.h     ****  *  \brief Bit mask definitions for BIAS_SENSP register (read-only).
 415:ads1299.h     ****  *
 416:ads1299.h     ****  * Consult the ADS1299 datasheet, page 44, for more information.
 417:ads1299.h     ****  */
 418:ads1299.h     **** #define ADS1299_REG_BIAS_SENSP_BIASP8	(1<<7)
 419:ads1299.h     **** #define ADS1299_REG_BIAS_SENSP_BIASP7	(1<<6)
 420:ads1299.h     **** #define ADS1299_REG_BIAS_SENSP_BIASP6	(1<<5)
 421:ads1299.h     **** #define ADS1299_REG_BIAS_SENSP_BIASP5	(1<<4)
 422:ads1299.h     **** #define ADS1299_REG_BIAS_SENSP_BIASP4	(1<<3)
 423:ads1299.h     **** #define ADS1299_REG_BIAS_SENSP_BIASP3	(1<<2)
 424:ads1299.h     **** #define ADS1299_REG_BIAS_SENSP_BIASP2	(1<<1)
 425:ads1299.h     **** #define ADS1299_REG_BIAS_SENSP_BIASP1	(1<<0)
 426:ads1299.h     **** 
 427:ads1299.h     **** 
 428:ads1299.h     **** /* BIAS_SENSN REGISTER ****************************************************************************
 429:ads1299.h     **** 
 430:ads1299.h     **** /**
 431:ads1299.h     ****  *  \brief Bit mask definitions for BIAS_SENSN register (read-only).
 432:ads1299.h     ****  *
 433:ads1299.h     ****  * Consult the ADS1299 datasheet, page 44, for more information.
 434:ads1299.h     ****  */
 435:ads1299.h     **** #define ADS1299_REG_BIAS_SENSN_BIASN8	(1<<7)
 436:ads1299.h     **** #define ADS1299_REG_BIAS_SENSN_BIASN7	(1<<6)
 437:ads1299.h     **** #define ADS1299_REG_BIAS_SENSN_BIASN6	(1<<5)
 438:ads1299.h     **** #define ADS1299_REG_BIAS_SENSN_BIASN5	(1<<4)
 439:ads1299.h     **** #define ADS1299_REG_BIAS_SENSN_BIASN4	(1<<3)
 440:ads1299.h     **** #define ADS1299_REG_BIAS_SENSN_BIASN3	(1<<2)
 441:ads1299.h     **** #define ADS1299_REG_BIAS_SENSN_BIASN2	(1<<1)
 442:ads1299.h     **** #define ADS1299_REG_BIAS_SENSN_BIASN1	(1<<0)
 443:ads1299.h     **** 
 444:ads1299.h     **** /* LOFF_SENSP REGISTER ****************************************************************************
 445:ads1299.h     **** 
 446:ads1299.h     **** /**
 447:ads1299.h     ****  *  \brief Bit mask definitions for LOFF_SENSP register (read-only).
 448:ads1299.h     ****  *
ARM GAS  C:\Users\dmr85\AppData\Local\Temp\ccptpkwM.s 			page 13


 449:ads1299.h     ****  * Consult the ADS1299 datasheet, page 45, for more information.
 450:ads1299.h     ****  */
 451:ads1299.h     **** #define ADS1299_REG_LOFF_SENSP_LOFFP8	(1<<7)
 452:ads1299.h     **** #define ADS1299_REG_LOFF_SENSP_LOFFP7	(1<<6)
 453:ads1299.h     **** #define ADS1299_REG_LOFF_SENSP_LOFFP6	(1<<5)
 454:ads1299.h     **** #define ADS1299_REG_LOFF_SENSP_LOFFP5	(1<<4)
 455:ads1299.h     **** #define ADS1299_REG_LOFF_SENSP_LOFFP4	(1<<3)
 456:ads1299.h     **** #define ADS1299_REG_LOFF_SENSP_LOFFP3	(1<<2)
 457:ads1299.h     **** #define ADS1299_REG_LOFF_SENSP_LOFFP2	(1<<1)
 458:ads1299.h     **** #define ADS1299_REG_LOFF_SENSP_LOFFP1	(1<<0)
 459:ads1299.h     **** 
 460:ads1299.h     **** 
 461:ads1299.h     **** /* LOFF_SENSN REGISTER ****************************************************************************
 462:ads1299.h     **** 
 463:ads1299.h     **** /**
 464:ads1299.h     ****  *  \brief Bit mask definitions for LOFF_SENSN register (read-only).
 465:ads1299.h     ****  *
 466:ads1299.h     ****  * Consult the ADS1299 datasheet, page 45, for more information.
 467:ads1299.h     ****  */
 468:ads1299.h     **** #define ADS1299_REG_LOFF_SENSN_LOFFN8	(1<<7)
 469:ads1299.h     **** #define ADS1299_REG_LOFF_SENSN_LOFFN7	(1<<6)
 470:ads1299.h     **** #define ADS1299_REG_LOFF_SENSN_LOFFN6	(1<<5)
 471:ads1299.h     **** #define ADS1299_REG_LOFF_SENSN_LOFFN5	(1<<4)
 472:ads1299.h     **** #define ADS1299_REG_LOFF_SENSN_LOFFN4	(1<<3)
 473:ads1299.h     **** #define ADS1299_REG_LOFF_SENSN_LOFFN3	(1<<2)
 474:ads1299.h     **** #define ADS1299_REG_LOFF_SENSN_LOFFN2	(1<<1)
 475:ads1299.h     **** #define ADS1299_REG_LOFF_SENSN_LOFFN1	(1<<0)
 476:ads1299.h     **** 
 477:ads1299.h     **** /* LOFF_FLIP REGISTER *****************************************************************************
 478:ads1299.h     **** 
 479:ads1299.h     **** /**
 480:ads1299.h     ****  *  \brief Bit mask definitions for LOFF_FLIP register (read-only).
 481:ads1299.h     ****  *
 482:ads1299.h     ****  * Consult the ADS1299 datasheet, page 45, for more information.
 483:ads1299.h     ****  */
 484:ads1299.h     **** #define ADS1299_REG_LOFF_FLIP_LOFF_FLIP8	(1<<7)
 485:ads1299.h     **** #define ADS1299_REG_LOFF_FLIP_LOFF_FLIP7	(1<<6)
 486:ads1299.h     **** #define ADS1299_REG_LOFF_FLIP_LOFF_FLIP6	(1<<5)
 487:ads1299.h     **** #define ADS1299_REG_LOFF_FLIP_LOFF_FLIP5	(1<<4)
 488:ads1299.h     **** #define ADS1299_REG_LOFF_FLIP_LOFF_FLIP4	(1<<3)
 489:ads1299.h     **** #define ADS1299_REG_LOFF_FLIP_LOFF_FLIP3	(1<<2)
 490:ads1299.h     **** #define ADS1299_REG_LOFF_FLIP_LOFF_FLIP2	(1<<1)
 491:ads1299.h     **** #define ADS1299_REG_LOFF_FLIP_LOFF_FLIP1	(1<<0)
 492:ads1299.h     **** 
 493:ads1299.h     **** 
 494:ads1299.h     **** /* LOFF_STATP REGISTER ****************************************************************************
 495:ads1299.h     **** 
 496:ads1299.h     **** /**
 497:ads1299.h     ****  *  \brief Bit mask definitions for LOFF_STATP register (read-only).
 498:ads1299.h     ****  *
 499:ads1299.h     ****  * Consult the ADS1299 datasheet, page 45, for more information.
 500:ads1299.h     ****  */
 501:ads1299.h     **** #define ADS1299_REG_LOFF_STATP_IN8P_OFF	(1<<7)
 502:ads1299.h     **** #define ADS1299_REG_LOFF_STATP_IN7P_OFF	(1<<6)
 503:ads1299.h     **** #define ADS1299_REG_LOFF_STATP_IN6P_OFF	(1<<5)
 504:ads1299.h     **** #define ADS1299_REG_LOFF_STATP_IN5P_OFF	(1<<4)
 505:ads1299.h     **** #define ADS1299_REG_LOFF_STATP_IN4P_OFF	(1<<3)
ARM GAS  C:\Users\dmr85\AppData\Local\Temp\ccptpkwM.s 			page 14


 506:ads1299.h     **** #define ADS1299_REG_LOFF_STATP_IN3P_OFF	(1<<2)
 507:ads1299.h     **** #define ADS1299_REG_LOFF_STATP_IN2P_OFF	(1<<1)
 508:ads1299.h     **** #define ADS1299_REG_LOFF_STATP_IN1P_OFF	(1<<0)
 509:ads1299.h     **** 
 510:ads1299.h     **** /* LOFF_STATN REGISTER ****************************************************************************
 511:ads1299.h     **** 
 512:ads1299.h     **** /**
 513:ads1299.h     ****  *  \brief Bit mask definitions for LOFF_STATN register (read-only).
 514:ads1299.h     ****  *
 515:ads1299.h     ****  * Consult the ADS1299 datasheet, page 45, for more information.
 516:ads1299.h     ****  */
 517:ads1299.h     **** #define ADS1299_REG_LOFF_STATN_IN8N_OFF	(1<<7)
 518:ads1299.h     **** #define ADS1299_REG_LOFF_STATN_IN7N_OFF	(1<<6)
 519:ads1299.h     **** #define ADS1299_REG_LOFF_STATN_IN6N_OFF	(1<<5)
 520:ads1299.h     **** #define ADS1299_REG_LOFF_STATN_IN5N_OFF	(1<<4)
 521:ads1299.h     **** #define ADS1299_REG_LOFF_STATN_IN4N_OFF	(1<<3)
 522:ads1299.h     **** #define ADS1299_REG_LOFF_STATN_IN3N_OFF	(1<<2)
 523:ads1299.h     **** #define ADS1299_REG_LOFF_STATN_IN2N_OFF	(1<<1)
 524:ads1299.h     **** #define ADS1299_REG_LOFF_STATN_IN1N_OFF	(1<<0)
 525:ads1299.h     **** 
 526:ads1299.h     **** /* GPIO REGISTER **********************************************************************************
 527:ads1299.h     **** 
 528:ads1299.h     **** /**
 529:ads1299.h     ****  *  \brief Bit mask definitions for GPIO.GPIODn (GPIO direction bits).
 530:ads1299.h     ****  *
 531:ads1299.h     ****  * The ADS1299 has 4 GPIO pins that can be manipulated via the SPI bus if there are not enough
 532:ads1299.h     ****  * GPIO pins available on the host.
 533:ads1299.h     ****  * GPIOD[4:1] controls the logic levels on GPIO pins 4:1.
 534:ads1299.h     ****  *
 535:ads1299.h     ****  * Consult the ADS1299 datasheet, page 46, for more information.
 536:ads1299.h     ****  */
 537:ads1299.h     **** #define ADS1299_REG_GPIO_GPIOD4_LOW			(0<<7)
 538:ads1299.h     **** #define ADS1299_REG_GPIO_GPIOD4_HIGH		(1<<7)
 539:ads1299.h     **** #define ADS1299_REG_GPIO_GPIOD3_LOW			(0<<6)
 540:ads1299.h     **** #define ADS1299_REG_GPIO_GPIOD3_HIGH		(1<<6)
 541:ads1299.h     **** #define ADS1299_REG_GPIO_GPIOD2_LOW			(0<<5)
 542:ads1299.h     **** #define ADS1299_REG_GPIO_GPIOD2_HIGH		(1<<5)
 543:ads1299.h     **** #define ADS1299_REG_GPIO_GPIOD1_LOW			(0<<4)
 544:ads1299.h     **** #define ADS1299_REG_GPIO_GPIOD1_HIGH		(1<<4)
 545:ads1299.h     **** 
 546:ads1299.h     **** /**
 547:ads1299.h     ****  *  \brief Bit mask definitions for GPIO.GPIOCn (GPIO level).
 548:ads1299.h     ****  *
 549:ads1299.h     ****  * The ADS1299 has 4 GPIO pins that can be manipulated via the SPI bus if there are not enough
 550:ads1299.h     ****  * GPIO pins available on the host.
 551:ads1299.h     ****  * GPIOC[4:1] controls the pin direction on GPIO pins 4:1.
 552:ads1299.h     ****  *
 553:ads1299.h     ****  * Consult the ADS1299 datasheet, page 46, for more information.
 554:ads1299.h     ****  */
 555:ads1299.h     **** #define ADS1299_REG_GPIO_GPIOC4_OUTPUT		(0<<3)
 556:ads1299.h     **** #define ADS1299_REG_GPIO_GPIOC4_INPUT		(1<<3)
 557:ads1299.h     **** #define ADS1299_REG_GPIO_GPIOC3_OUTPUT		(0<<2)
 558:ads1299.h     **** #define ADS1299_REG_GPIO_GPIOC3_INPUT		(1<<2)
 559:ads1299.h     **** #define ADS1299_REG_GPIO_GPIOC2_OUTPUT		(0<<1)
 560:ads1299.h     **** #define ADS1299_REG_GPIO_GPIOC2_INPUT		(1<<1)
 561:ads1299.h     **** #define ADS1299_REG_GPIO_GPIOC1_OUTPUT		(0<<0)
 562:ads1299.h     **** #define ADS1299_REG_GPIO_GPIOC1_INPUT		(1<<0)
ARM GAS  C:\Users\dmr85\AppData\Local\Temp\ccptpkwM.s 			page 15


 563:ads1299.h     **** 
 564:ads1299.h     **** /**
 565:ads1299.h     ****  *  \brief Combined value of reserved bits in GPIO register.
 566:ads1299.h     ****  *
 567:ads1299.h     ****  */
 568:ads1299.h     **** #define ADS1299_REG_GPIO_RESERVED_VALUE				0
 569:ads1299.h     **** 
 570:ads1299.h     **** /* MISC1 REGISTER *********************************************************************************
 571:ads1299.h     **** 
 572:ads1299.h     **** /**
 573:ads1299.h     ****  *  \brief Bit mask definitions for MISC1.SRB1 (SRB1 internal connection).
 574:ads1299.h     ****  */
 575:ads1299.h     **** #define	ADS1299_REG_MISC1_SRB1_OFF		(0<<5)			///< Stim/ref/bias 1 turned off.
 576:ads1299.h     **** #define	ADS1299_REG_MISC1_SRB1_ON		(1<<5)			///< Stim/ref/bias 1 connected to all channel inverting
 577:ads1299.h     **** 
 578:ads1299.h     **** /**
 579:ads1299.h     ****  *  \brief Combined value of reserved bits in MISC1 register.
 580:ads1299.h     ****  *
 581:ads1299.h     ****  */
 582:ads1299.h     **** #define ADS1299_REG_MISC1_RESERVED_VALUE				0
 583:ads1299.h     **** 
 584:ads1299.h     **** 
 585:ads1299.h     **** /* MISC2 REGISTER *********************************************************************************
 586:ads1299.h     **** 
 587:ads1299.h     **** /**
 588:ads1299.h     ****  *  \brief Combined value of reserved bits in MISC2 register.
 589:ads1299.h     ****  *
 590:ads1299.h     ****  * MISC2 don't do nothin' right now!
 591:ads1299.h     ****  * Consult the ADS1299 user's guide, page 46, for more information.
 592:ads1299.h     ****  */
 593:ads1299.h     **** #define ADS1299_REG_MISC2_RESERVED_VALUE				0
 594:ads1299.h     **** 
 595:ads1299.h     **** 
 596:ads1299.h     **** /**************************************************************************************************
 597:ads1299.h     **** *               Prototypes                                                                         
 598:ads1299.h     **** ***************************************************************************************************
 599:ads1299.h     **** 
 600:ads1299.h     **** /**
 601:ads1299.h     ****  *	\brief Initialize the ADS1299.
 602:ads1299.h     ****  *
 603:ads1299.h     ****  * This function performs the power-on reset and initialization procedure documented on page 58 of 
 604:ads1299.h     ****  * ADS1299 datasheet, up to "Send SDATAC Command."
 605:ads1299.h     ****  *
 606:ads1299.h     ****  * \pre Requires spi.h from the Atmel Software Framework and ads1299_spi_adapt.h.
 607:ads1299.h     ****  * \param chip_select The chip select number of the ADS1299 to be initialized.
 608:ads1299.h     ****  * \param init_regs	Nonzero if initializing registers to firmware default settings; 0 otherwise.
 609:ads1299.h     ****  * \return Zero if successful, or an error code if unsuccessful.
 610:ads1299.h     ****  */
 611:ads1299.h     **** ads1299_error_t ads1299_device_init(uint8_t, uint8_t);
 612:ads1299.h     **** 
 613:ads1299.h     **** 
 614:ads1299.h     **** ads1299_error_t	ads1299_lead_off(uint8_t);
 615:ads1299.h     **** 
 616:ads1299.h     **** /**
 617:ads1299.h     ****  *	\brief Read a single register from the ADS1299.
 618:ads1299.h     ****  *
 619:ads1299.h     ****  * This function sends the RREG opcode, logical OR'd with the specified register address, and
ARM GAS  C:\Users\dmr85\AppData\Local\Temp\ccptpkwM.s 			page 16


 620:ads1299.h     ****  * writes the obtained register value to a variable. This command will have no effect if the 
 621:ads1299.h     ****  * device is in continuous read mode.
 622:ads1299.h     ****  *
 623:ads1299.h     ****  * \pre Requires spi.h from the Atmel Software Framework and ads1299_spi_adapt.h.
 624:ads1299.h     ****  * \param chip_select The chip select number of the ADS1299 to be initialized.
 625:ads1299.h     ****  * \param reg_addr The register address of the register to be read.
 626:ads1299.h     ****  * \param read_reg_val_ptr Pointer to the variable to store the read register value.
 627:ads1299.h     ****  * \return Zero if successful, or an error code if unsuccessful.
 628:ads1299.h     ****  */
 629:ads1299.h     **** ads1299_error_t ads1299_rreg(uint8_t, uint8_t, uint8_t*);
 630:ads1299.h     **** 
 631:ads1299.h     **** /**
 632:ads1299.h     ****  *	\brief Write a single register on the ADS1299.
 633:ads1299.h     ****  *
 634:ads1299.h     ****  * This function sends the WREG opcode, logical OR'd with the specified register address, and
 635:ads1299.h     ****  * then writes the specified value to that register. This command will have no effect if the 
 636:ads1299.h     ****  * device is in continuous read mode.
 637:ads1299.h     ****  *
 638:ads1299.h     ****  * \pre Requires spi.h from the Atmel Software Framework and ads1299_spi_adapt.h.
 639:ads1299.h     ****  * \param chip_select The chip select number of the ADS1299 to be initialized.
 640:ads1299.h     ****  * \param reg_addr The register address of the register to be written.
 641:ads1299.h     ****  * \param reg_val_to_write The value to be written to the specified register.
 642:ads1299.h     ****  * \return Zero if successful, or an error code if unsuccessful.
 643:ads1299.h     ****  */
 644:ads1299.h     **** ads1299_error_t ads1299_wreg(uint8_t, uint8_t, uint8_t);
 645:ads1299.h     **** 
 646:ads1299.h     **** /**
 647:ads1299.h     ****  *	\brief Read a single 24-bit data sample for each enabled channel.
 648:ads1299.h     ****  *
 649:ads1299.h     ****  * This function reads back the 24-bit status word and 8 channels of 24-bit data.
 650:ads1299.h     ****  * These 24-bit values are stored right-aligned in 32-bit integers.
 651:ads1299.h     ****  *
 652:ads1299.h     ****  * \param chip_select The chip select number of the ADS1299 to be initialized.
 653:ads1299.h     ****  * \param sample_idx The index within each channel array of the sample to be acquired.
 654:ads1299.h     ****  * \param packet_ptr Pointer to EEG data packet structure.
 655:ads1299.h     ****  * \return Zero if successful, or an error code if unsuccessful.
 656:ads1299.h     ****  */
 657:ads1299.h     **** ads1299_error_t ads1299_rdata32_packet(uint8_t, volatile uint32_t, bboard_data32bit_packet_t*);
 658:ads1299.h     **** 
 659:ads1299.h     **** /**
 660:ads1299.h     ****  *	\brief Read a single 24-bit data sample for each enabled channel.
 661:ads1299.h     ****  *
 662:ads1299.h     ****  * This function reads back the 24-bit status word and 8 channels of 24-bit data.
 663:ads1299.h     ****  * These 24-bit values are stored right-aligned in 32-bit integers.
 664:ads1299.h     ****  *
 665:ads1299.h     ****  * \param chip_select The chip select number of the ADS1299 to be initialized.
 666:ads1299.h     ****  * \param sample_idx The index within each channel array of the sample to be acquired.
 667:ads1299.h     ****  * \param status ADS1299 status word.
 668:ads1299.h     ****  * \param data_array Array of 32-bit signed ints (dsp32_t from the ASF is equivalent) for storing E
 669:ads1299.h     ****  * \return Zero if successful, or an error code if unsuccessful.
 670:ads1299.h     ****  */
 671:ads1299.h     **** ads1299_error_t ads1299_rdata32_generic(uint8_t, volatile uint32_t, volatile uint32_t, volatile int
 672:ads1299.h     **** 
 673:ads1299.h     **** /**
 674:ads1299.h     ****  *	\brief Read a single 24-bit data sample for each enabled channel into a specified packet structu
 675:ads1299.h     ****  *
 676:ads1299.h     ****  * This function reads back the 24-bit status word and 8 channels of 24-bit data.
ARM GAS  C:\Users\dmr85\AppData\Local\Temp\ccptpkwM.s 			page 17


 677:ads1299.h     ****  * These 24-bit values are stored in two arrays: one 3-byte array for the status
 678:ads1299.h     ****  * word, and a 24-byte array for the data.
 679:ads1299.h     ****  *
 680:ads1299.h     ****  * \param chip_select The chip select number of the ADS1299 to be initialized.
 681:ads1299.h     ****  * \param sample_idx The index within each channel array of the sample to be acquired.
 682:ads1299.h     ****  * \param packet_ptr Pointer to EEG data packet structure.
 683:ads1299.h     ****  * \return Zero if successful, or an error code if unsuccessful.
 684:ads1299.h     ****  */
 685:ads1299.h     **** ads1299_error_t ads1299_rdata24_packet(uint8_t, volatile uint32_t, bboard_data24bit_packet_t*);
 686:ads1299.h     **** 
 687:ads1299.h     **** /**
 688:ads1299.h     ****  *	\brief Read a single 24-bit data sample for each enabled channel into an array of channels.
 689:ads1299.h     ****  *
 690:ads1299.h     ****  * This function reads back the 24-bit status word and 8 channels of 24-bit data.
 691:ads1299.h     ****  * These 24-bit values are stored in two arrays: one 3-byte array for the status
 692:ads1299.h     ****  * word, and a 24-byte array for the data.
 693:ads1299.h     ****  *
 694:ads1299.h     ****  * \param chip_select The chip select number of the ADS1299 to be initialized.
 695:ads1299.h     ****  * \param sample_idx The index within each channel array of the sample to be acquired.
 696:ads1299.h     ****  * \param status_array Array of 3 bytes representing the 24-bit status word.
 697:ads1299.h     ****  * \param data_array Array of dimensions [BUFFERSIZE][EEG_CHANNELS][3] representing EEG data.
 698:ads1299.h     ****  * \return Zero if successful, or an error code if unsuccessful.
 699:ads1299.h     ****  */
 700:ads1299.h     **** ads1299_error_t ads1299_rdata24_generic(uint8_t, volatile uint32_t, volatile uint8_t[], volatile ui
 701:ads1299.h     **** 
 702:ads1299.h     **** /* INLINE FUNCTIONS *******************************************************************************
 703:ads1299.h     **** 
 704:ads1299.h     **** /**
 705:ads1299.h     ****  *	\brief Send a single byte to the ADS1299 without manipulating chip select.
 706:ads1299.h     ****  *
 707:ads1299.h     ****  *	Use this function when multiple bytes need to be sent and you want the chip to remain selected
 708:ads1299.h     ****  *	throughout the process.
 709:ads1299.h     ****  *
 710:ads1299.h     ****  * \pre Requires spi.h from the Atmel Software Framework and ads1299_spi_adapt.h.
 711:ads1299.h     ****  * \param opcode The opcode to send.
 712:ads1299.h     ****  * \return Zero if successful, or an error code if unsuccessful.
 713:ads1299.h     ****  */
 714:ads1299.h     **** 
 715:ads1299.h     **** static inline uint32_t ads1299_send_byte_no_cs(uint8_t opcode)
 716:ads1299.h     **** {
 717:ads1299.h     ****     uint8_t tx_buf[1] = {opcode};
 718:ads1299.h     ****     return spi_write_packet(tx_buf, 1);
 719:ads1299.h     **** }
 720:ads1299.h     **** 
 721:ads1299.h     **** /**
 722:ads1299.h     ****  *	\brief Send a single opcode to the ADS1299.
 723:ads1299.h     ****  *
 724:ads1299.h     ****  * This function sends the specified byte to the ADS1299. Chip select is cleared (activated) and se
 725:ads1299.h     ****  * (inactivated) within the function.
 726:ads1299.h     ****  *
 727:ads1299.h     ****  * \pre Requires spi.h from the Atmel Software Framework and ads1299_spi_adapt.h.
 728:ads1299.h     ****  * \param chip_select The chip select number of the ADS1299 to be initialized.
 729:ads1299.h     ****  * \param opcode The opcode to send.
 730:ads1299.h     ****  * \return Zero if successful, or an error code if unsuccessful.
 731:ads1299.h     ****  */
 732:ads1299.h     **** static inline ads1299_error_t ads1299_send_byte(uint8_t chip_select, uint8_t opcode)
 733:ads1299.h     **** {
ARM GAS  C:\Users\dmr85\AppData\Local\Temp\ccptpkwM.s 			page 18


 734:ads1299.h     **** 	//#if UC3
 735:ads1299.h     **** 	spi_selectChip(SPI_ADDRESS, chip_select);
  47              		.loc 2 735 0
  48 0008 1A4C     		ldr	r4, .L2
  49 000a 0100     		movs	r1, r0
  50              	.LVL2:
  51 000c 2000     		movs	r0, r4
  52              	.LVL3:
  53 000e FFF7FEFF 		bl	spi_selectChip
  54              	.LVL4:
  55              	.LBB28:
  56              	.LBB29:
 717:ads1299.h     ****     return spi_write_packet(tx_buf, 1);
  57              		.loc 2 717 0
  58 0012 1123     		movs	r3, #17
  59 0014 6A46     		mov	r2, sp
  60 0016 1370     		strb	r3, [r2]
 718:ads1299.h     **** }
  61              		.loc 2 718 0
  62 0018 0121     		movs	r1, #1
  63 001a 6846     		mov	r0, sp
  64 001c FFF7FEFF 		bl	spi_write_packet
  65              	.LVL5:
  66              	.LBE29:
  67              	.LBE28:
 736:ads1299.h     **** 	ads1299_send_byte_no_cs(opcode);
 737:ads1299.h     **** 	spi_unselectChip(SPI_ADDRESS, chip_select);
  68              		.loc 2 737 0
  69 0020 2900     		movs	r1, r5
  70 0022 2000     		movs	r0, r4
  71 0024 FFF7FEFF 		bl	spi_unselectChip
  72              	.LVL6:
  73              	.LBE27:
  74              	.LBE26:
  75              	.LBB30:
  76              	.LBB31:
  77              	.LBB32:
 735:ads1299.h     **** 	ads1299_send_byte_no_cs(opcode);
  78              		.loc 2 735 0
  79 0028 2900     		movs	r1, r5
  80 002a 2000     		movs	r0, r4
  81 002c FFF7FEFF 		bl	spi_selectChip
  82              	.LVL7:
  83              	.LBB33:
  84              	.LBB34:
 717:ads1299.h     ****     return spi_write_packet(tx_buf, 1);
  85              		.loc 2 717 0
  86 0030 0A23     		movs	r3, #10
  87 0032 6A46     		mov	r2, sp
  88 0034 1370     		strb	r3, [r2]
 718:ads1299.h     **** }
  89              		.loc 2 718 0
  90 0036 0121     		movs	r1, #1
  91 0038 6846     		mov	r0, sp
  92 003a FFF7FEFF 		bl	spi_write_packet
  93              	.LVL8:
  94              	.LBE34:
ARM GAS  C:\Users\dmr85\AppData\Local\Temp\ccptpkwM.s 			page 19


  95              	.LBE33:
  96              		.loc 2 737 0
  97 003e 2900     		movs	r1, r5
  98 0040 2000     		movs	r0, r4
  99 0042 FFF7FEFF 		bl	spi_unselectChip
 100              	.LVL9:
 101              	.LBE32:
 102              	.LBE31:
 103              	.LBE30:
 191:ads1299.c     **** 		
 192:ads1299.c     **** 	ads1299_send_byte(chip_select, ADS1299_OPC_SDATAC);
 193:ads1299.c     ****     //ads1299_hard_stop_conversion();
 194:ads1299.c     ****     ads1299_soft_stop_conversion(chip_select);
 195:ads1299.c     **** 	spi_selectChip(SPI_ADDRESS, chip_select);
 104              		.loc 1 195 0
 105 0046 2900     		movs	r1, r5
 106 0048 2000     		movs	r0, r4
 107 004a FFF7FEFF 		bl	spi_selectChip
 108              	.LVL10:
 196:ads1299.c     ****     
 197:ads1299.c     ****     //CyDelay(1);
 198:ads1299.c     ****     
 199:ads1299.c     ****     /*SPI_Write(ADS1299_OPC_RREG | reg_addr);
 200:ads1299.c     ****     SPI_Write(0x00);
 201:ads1299.c     ****     SPI_Write(0x00);
 202:ads1299.c     ****     *read_reg_val_arr = SPI_Read();*/
 203:ads1299.c     ****     
 204:ads1299.c     ****     uint8_t tx_buf[] = {ADS1299_OPC_RREG | reg_addr, 0x00, 0xFF};
 109              		.loc 1 204 0
 110 004e 01A8     		add	r0, sp, #4
 111 0050 2021     		movs	r1, #32
 112 0052 3143     		orrs	r1, r6
 113 0054 0170     		strb	r1, [r0]
 114 0056 0023     		movs	r3, #0
 115 0058 4370     		strb	r3, [r0, #1]
 116 005a FF33     		adds	r3, r3, #255
 117 005c 8370     		strb	r3, [r0, #2]
 205:ads1299.c     ****     spi_write_packet(tx_buf, 3);
 118              		.loc 1 205 0
 119 005e 0321     		movs	r1, #3
 120 0060 FFF7FEFF 		bl	spi_write_packet
 121              	.LVL11:
 206:ads1299.c     **** 	/* First byte: read command for specified register */
 207:ads1299.c     **** 	//ads1299_send_byte(chip_select, ADS1299_OPC_RREG | reg_addr);
 208:ads1299.c     **** 	    
 209:ads1299.c     ****     //CyDelay(1);
 210:ads1299.c     ****         
 211:ads1299.c     **** 	/* Second byte: Read only 1 register (send n-1, where n is number of registers to read) */
 212:ads1299.c     **** 	//ads1299_send_byte(chip_select, 0x00);
 213:ads1299.c     ****     
 214:ads1299.c     ****     //CyDelay(1);
 215:ads1299.c     **** 	
 216:ads1299.c     ****     //uint8_t tx_buf[] = {ADS1299_OPC_RREG | reg_addr, 0x00};
 217:ads1299.c     ****     //spi_write_packet(tx_buf, 2);
 218:ads1299.c     **** 	/* Dummy byte to clock in data and read RX register */
 219:ads1299.c     ****     //spi_read_packet(read_reg_val_arr, 1);
 220:ads1299.c     ****     
ARM GAS  C:\Users\dmr85\AppData\Local\Temp\ccptpkwM.s 			page 20


 221:ads1299.c     ****     spi_unselectChip(SPI_ADDRESS, chip_select);
 122              		.loc 1 221 0
 123 0064 2900     		movs	r1, r5
 124 0066 2000     		movs	r0, r4
 125 0068 FFF7FEFF 		bl	spi_unselectChip
 126              	.LVL12:
 222:ads1299.c     ****     
 223:ads1299.c     **** 	return ADS1299_STATUS_OK;
 224:ads1299.c     **** }
 127              		.loc 1 224 0
 128 006c 0020     		movs	r0, #0
 129 006e 02B0     		add	sp, sp, #8
 130              		@ sp needed
 131 0070 70BD     		pop	{r4, r5, r6, pc}
 132              	.L3:
 133 0072 C046     		.align	2
 134              	.L2:
 135 0074 00000000 		.word	spi
 136              		.cfi_endproc
 137              	.LFE454:
 138              		.size	ads1299_rreg, .-ads1299_rreg
 139              		.section	.text.ads1299_wreg,"ax",%progbits
 140              		.align	2
 141              		.global	ads1299_wreg
 142              		.code	16
 143              		.thumb_func
 144              		.type	ads1299_wreg, %function
 145              	ads1299_wreg:
 146              	.LFB455:
 225:ads1299.c     **** 
 226:ads1299.c     **** ads1299_error_t ads1299_wreg(uint8_t chip_select, uint8_t reg_addr, uint8_t reg_val_to_write)
 227:ads1299.c     **** {
 147              		.loc 1 227 0
 148              		.cfi_startproc
 149              		@ args = 0, pretend = 0, frame = 8
 150              		@ frame_needed = 0, uses_anonymous_args = 0
 151              	.LVL13:
 152 0000 00B5     		push	{lr}
 153              		.cfi_def_cfa_offset 4
 154              		.cfi_offset 14, -4
 155 0002 83B0     		sub	sp, sp, #12
 156              		.cfi_def_cfa_offset 16
 228:ads1299.c     **** 	
 229:ads1299.c     **** 	//spi_selectChip(SPI_ADDRESS, chip_select);
 230:ads1299.c     ****     uint8_t tx_buf[] = {ADS1299_OPC_WREG | reg_addr, 0x00, reg_val_to_write};
 157              		.loc 1 230 0
 158 0004 01A8     		add	r0, sp, #4
 159              	.LVL14:
 160 0006 4023     		movs	r3, #64
 161 0008 1943     		orrs	r1, r3
 162              	.LVL15:
 163 000a 0170     		strb	r1, [r0]
 164 000c 0023     		movs	r3, #0
 165 000e 4370     		strb	r3, [r0, #1]
 166 0010 8270     		strb	r2, [r0, #2]
 231:ads1299.c     ****     spi_write_packet(tx_buf, 3);
 167              		.loc 1 231 0
ARM GAS  C:\Users\dmr85\AppData\Local\Temp\ccptpkwM.s 			page 21


 168 0012 0321     		movs	r1, #3
 169 0014 FFF7FEFF 		bl	spi_write_packet
 170              	.LVL16:
 232:ads1299.c     **** 	/* First byte: write command for specified register */
 233:ads1299.c     ****     //ads1299_send_byte(chip_select, ADS1299_OPC_WREG | reg_addr);
 234:ads1299.c     ****     
 235:ads1299.c     **** 	//CyDelay(100);
 236:ads1299.c     **** 	/* Second byte: number of registers to write (1) */
 237:ads1299.c     **** 	//ads1299_send_byte(chip_select, 0x00);
 238:ads1299.c     ****     
 239:ads1299.c     ****     //CyDelay(100);
 240:ads1299.c     **** 	/* Third byte: write register value */
 241:ads1299.c     **** 	//ads1299_send_byte(chip_select, reg_val_to_write);
 242:ads1299.c     **** 		
 243:ads1299.c     **** 	//spi_unselectChip(SPI_ADDRESS, chip_select);
 244:ads1299.c     **** 		
 245:ads1299.c     **** 	return ADS1299_STATUS_OK;
 246:ads1299.c     **** 	
 247:ads1299.c     **** }
 171              		.loc 1 247 0
 172 0018 0020     		movs	r0, #0
 173 001a 03B0     		add	sp, sp, #12
 174              		@ sp needed
 175 001c 00BD     		pop	{pc}
 176              		.cfi_endproc
 177              	.LFE455:
 178              		.size	ads1299_wreg, .-ads1299_wreg
 179 001e C046     		.section	.text.ads1299_device_init,"ax",%progbits
 180              		.align	2
 181              		.global	ads1299_device_init
 182              		.code	16
 183              		.thumb_func
 184              		.type	ads1299_device_init, %function
 185              	ads1299_device_init:
 186              	.LFB452:
  52:ads1299.c     **** 	#if UC3
 187              		.loc 1 52 0
 188              		.cfi_startproc
 189              		@ args = 0, pretend = 0, frame = 8
 190              		@ frame_needed = 0, uses_anonymous_args = 0
 191              	.LVL17:
 192 0000 F0B5     		push	{r4, r5, r6, r7, lr}
 193              		.cfi_def_cfa_offset 20
 194              		.cfi_offset 4, -20
 195              		.cfi_offset 5, -16
 196              		.cfi_offset 6, -12
 197              		.cfi_offset 7, -8
 198              		.cfi_offset 14, -4
 199 0002 83B0     		sub	sp, sp, #12
 200              		.cfi_def_cfa_offset 32
 201 0004 0400     		movs	r4, r0
 202 0006 0F00     		movs	r7, r1
  55:ads1299.c     ****     
 203              		.loc 1 55 0
 204 0008 0620     		movs	r0, #6
 205              	.LVL18:
 206 000a FFF7FEFF 		bl	gpio_set_gpio_pin
ARM GAS  C:\Users\dmr85\AppData\Local\Temp\ccptpkwM.s 			page 22


 207              	.LVL19:
  60:ads1299.c     ****     //CyDelay(1);
 208              		.loc 1 60 0
 209 000e 0120     		movs	r0, #1
 210 0010 FFF7FEFF 		bl	gpio_set_gpio_pin
 211              	.LVL20:
  63:ads1299.c     **** 	CyDelay(1000);
 212              		.loc 1 63 0
 213 0014 0420     		movs	r0, #4
 214 0016 FFF7FEFF 		bl	gpio_set_gpio_pin
 215              	.LVL21:
  64:ads1299.c     ****     gpio_clr_gpio_pin(ADS1299_PIN_RESET);
 216              		.loc 1 64 0
 217 001a FA26     		movs	r6, #250
 218 001c B600     		lsls	r6, r6, #2
 219 001e 3000     		movs	r0, r6
 220 0020 FFF7FEFF 		bl	Cy_SysLib_Delay
 221              	.LVL22:
  65:ads1299.c     **** 	CyDelay(1000);
 222              		.loc 1 65 0
 223 0024 0420     		movs	r0, #4
 224 0026 FFF7FEFF 		bl	gpio_clr_gpio_pin
 225              	.LVL23:
  66:ads1299.c     **** 	gpio_set_gpio_pin(ADS1299_PIN_RESET);
 226              		.loc 1 66 0
 227 002a 3000     		movs	r0, r6
 228 002c FFF7FEFF 		bl	Cy_SysLib_Delay
 229              	.LVL24:
  67:ads1299.c     ****     CyDelay(10);
 230              		.loc 1 67 0
 231 0030 0420     		movs	r0, #4
 232 0032 FFF7FEFF 		bl	gpio_set_gpio_pin
 233              	.LVL25:
  68:ads1299.c     ****     //gpio_clr_gpio_pin(ADS1299_PIN_RESET);
 234              		.loc 1 68 0
 235 0036 0A20     		movs	r0, #10
 236 0038 FFF7FEFF 		bl	Cy_SysLib_Delay
 237              	.LVL26:
  73:ads1299.c     **** 	
 238              		.loc 1 73 0
 239 003c 3000     		movs	r0, r6
 240 003e FFF7FEFF 		bl	Cy_SysLib_Delay
 241              	.LVL27:
  75:ads1299.c     ****     CyDelay(1000);
 242              		.loc 1 75 0
 243 0042 454D     		ldr	r5, .L7
 244 0044 2100     		movs	r1, r4
 245 0046 2800     		movs	r0, r5
 246 0048 FFF7FEFF 		bl	spi_selectChip
 247              	.LVL28:
  76:ads1299.c     **** 	spi_unselectChip(SPI_ADDRESS, chip_select);
 248              		.loc 1 76 0
 249 004c 3000     		movs	r0, r6
 250 004e FFF7FEFF 		bl	Cy_SysLib_Delay
 251              	.LVL29:
  77:ads1299.c     ****     CyDelay(500);
 252              		.loc 1 77 0
ARM GAS  C:\Users\dmr85\AppData\Local\Temp\ccptpkwM.s 			page 23


 253 0052 2100     		movs	r1, r4
 254 0054 2800     		movs	r0, r5
 255 0056 FFF7FEFF 		bl	spi_unselectChip
 256              	.LVL30:
  78:ads1299.c     ****     
 257              		.loc 1 78 0
 258 005a FA20     		movs	r0, #250
 259 005c 4000     		lsls	r0, r0, #1
 260 005e FFF7FEFF 		bl	Cy_SysLib_Delay
 261              	.LVL31:
 262              	.LBB43:
 263              	.LBB44:
 735:ads1299.h     **** 	ads1299_send_byte_no_cs(opcode);
 264              		.loc 2 735 0
 265 0062 2100     		movs	r1, r4
 266 0064 2800     		movs	r0, r5
 267 0066 FFF7FEFF 		bl	spi_selectChip
 268              	.LVL32:
 269              	.LBB45:
 270              	.LBB46:
 717:ads1299.h     ****     return spi_write_packet(tx_buf, 1);
 271              		.loc 2 717 0
 272 006a 1123     		movs	r3, #17
 273 006c 6A46     		mov	r2, sp
 274 006e 1370     		strb	r3, [r2]
 718:ads1299.h     **** }
 275              		.loc 2 718 0
 276 0070 0121     		movs	r1, #1
 277 0072 6846     		mov	r0, sp
 278 0074 FFF7FEFF 		bl	spi_write_packet
 279              	.LVL33:
 280              	.LBE46:
 281              	.LBE45:
 282              		.loc 2 737 0
 283 0078 2100     		movs	r1, r4
 284 007a 2800     		movs	r0, r5
 285 007c FFF7FEFF 		bl	spi_unselectChip
 286              	.LVL34:
 287              	.LBE44:
 288              	.LBE43:
  82:ads1299.c     ****     ads1299_send_byte(chip_select, ADS1299_OPC_STOP);
 289              		.loc 1 82 0
 290 0080 0A20     		movs	r0, #10
 291 0082 FFF7FEFF 		bl	Cy_SysLib_Delay
 292              	.LVL35:
 293              	.LBB47:
 294              	.LBB48:
 735:ads1299.h     **** 	ads1299_send_byte_no_cs(opcode);
 295              		.loc 2 735 0
 296 0086 2100     		movs	r1, r4
 297 0088 2800     		movs	r0, r5
 298 008a FFF7FEFF 		bl	spi_selectChip
 299              	.LVL36:
 300              	.LBB49:
 301              	.LBB50:
 717:ads1299.h     ****     return spi_write_packet(tx_buf, 1);
 302              		.loc 2 717 0
ARM GAS  C:\Users\dmr85\AppData\Local\Temp\ccptpkwM.s 			page 24


 303 008e 0A23     		movs	r3, #10
 304 0090 6A46     		mov	r2, sp
 305 0092 1370     		strb	r3, [r2]
 718:ads1299.h     **** }
 306              		.loc 2 718 0
 307 0094 0121     		movs	r1, #1
 308 0096 6846     		mov	r0, sp
 309 0098 FFF7FEFF 		bl	spi_write_packet
 310              	.LVL37:
 311              	.LBE50:
 312              	.LBE49:
 313              		.loc 2 737 0
 314 009c 2100     		movs	r1, r4
 315 009e 2800     		movs	r0, r5
 316 00a0 FFF7FEFF 		bl	spi_unselectChip
 317              	.LVL38:
 318              	.LBE48:
 319              	.LBE47:
  85:ads1299.c     ****     /* Stop taking conversions; apparently not done automatically */
 320              		.loc 1 85 0
 321 00a4 0A20     		movs	r0, #10
 322 00a6 FFF7FEFF 		bl	Cy_SysLib_Delay
 323              	.LVL39:
  89:ads1299.c     **** 	{
 324              		.loc 1 89 0
 325 00aa 002F     		cmp	r7, #0
 326 00ac 43D0     		beq	.L6
  92:ads1299.c     **** 		ADS1299_REG_GPIO_GPIOD4_LOW    |
 327              		.loc 1 92 0
 328 00ae 0022     		movs	r2, #0
 329 00b0 1421     		movs	r1, #20
 330 00b2 2000     		movs	r0, r4
 331 00b4 FFF7FEFF 		bl	ads1299_wreg
 332              	.LVL40:
 102:ads1299.c     **** 		ADS1299_REG_CONFIG1_FMOD_DIV_BY_4096);
 333              		.loc 1 102 0
 334 00b8 9622     		movs	r2, #150
 335 00ba 0121     		movs	r1, #1
 336 00bc 2000     		movs	r0, r4
 337 00be FFF7FEFF 		bl	ads1299_wreg
 338              	.LVL41:
 105:ads1299.c     **** 		ADS1299_REG_CONFIG2_CAL_INT        |
 339              		.loc 1 105 0
 340 00c2 D022     		movs	r2, #208
 341 00c4 0221     		movs	r1, #2
 342 00c6 2000     		movs	r0, r4
 343 00c8 FFF7FEFF 		bl	ads1299_wreg
 344              	.LVL42:
 110:ads1299.c     **** 		//ADS1299_REG_CONFIG3_BIASREF_INT    |
 345              		.loc 1 110 0
 346 00cc 8422     		movs	r2, #132
 347 00ce 0321     		movs	r1, #3
 348 00d0 2000     		movs	r0, r4
 349 00d2 FFF7FEFF 		bl	ads1299_wreg
 350              	.LVL43:
 114:ads1299.c     **** 			
 351              		.loc 1 114 0
ARM GAS  C:\Users\dmr85\AppData\Local\Temp\ccptpkwM.s 			page 25


 352 00d6 9620     		movs	r0, #150
 353 00d8 FFF7FEFF 		bl	delay_ms
 354              	.LVL44:
 117:ads1299.c     **** 		ADS1299_REG_CHNSET_GAIN_4			|
 355              		.loc 1 117 0
 356 00dc 2022     		movs	r2, #32
 357 00de 0521     		movs	r1, #5
 358 00e0 2000     		movs	r0, r4
 359 00e2 FFF7FEFF 		bl	ads1299_wreg
 360              	.LVL45:
 122:ads1299.c     **** 		ADS1299_REG_CHNSET_GAIN_4			|
 361              		.loc 1 122 0
 362 00e6 2022     		movs	r2, #32
 363 00e8 0621     		movs	r1, #6
 364 00ea 2000     		movs	r0, r4
 365 00ec FFF7FEFF 		bl	ads1299_wreg
 366              	.LVL46:
 127:ads1299.c     **** 		ADS1299_REG_CHNSET_GAIN_4			|
 367              		.loc 1 127 0
 368 00f0 A022     		movs	r2, #160
 369 00f2 0721     		movs	r1, #7
 370 00f4 2000     		movs	r0, r4
 371 00f6 FFF7FEFF 		bl	ads1299_wreg
 372              	.LVL47:
 132:ads1299.c     **** 		ADS1299_REG_CHNSET_GAIN_4			|
 373              		.loc 1 132 0
 374 00fa A022     		movs	r2, #160
 375 00fc 0821     		movs	r1, #8
 376 00fe 2000     		movs	r0, r4
 377 0100 FFF7FEFF 		bl	ads1299_wreg
 378              	.LVL48:
 137:ads1299.c     **** 		ADS1299_REG_CHNSET_GAIN_4			|
 379              		.loc 1 137 0
 380 0104 A022     		movs	r2, #160
 381 0106 0921     		movs	r1, #9
 382 0108 2000     		movs	r0, r4
 383 010a FFF7FEFF 		bl	ads1299_wreg
 384              	.LVL49:
 142:ads1299.c     **** 		ADS1299_REG_CHNSET_GAIN_4			|
 385              		.loc 1 142 0
 386 010e A022     		movs	r2, #160
 387 0110 0A21     		movs	r1, #10
 388 0112 2000     		movs	r0, r4
 389 0114 FFF7FEFF 		bl	ads1299_wreg
 390              	.LVL50:
 147:ads1299.c     **** 		ADS1299_REG_CHNSET_GAIN_4			|
 391              		.loc 1 147 0
 392 0118 A022     		movs	r2, #160
 393 011a 0B21     		movs	r1, #11
 394 011c 2000     		movs	r0, r4
 395 011e FFF7FEFF 		bl	ads1299_wreg
 396              	.LVL51:
 152:ads1299.c     **** 		ADS1299_REG_CHNSET_GAIN_4			|
 397              		.loc 1 152 0
 398 0122 A022     		movs	r2, #160
 399 0124 0C21     		movs	r1, #12
 400 0126 2000     		movs	r0, r4
ARM GAS  C:\Users\dmr85\AppData\Local\Temp\ccptpkwM.s 			page 26


 401 0128 FFF7FEFF 		bl	ads1299_wreg
 402              	.LVL52:
 158:ads1299.c     **** 	} 		
 403              		.loc 1 158 0
 404 012c 2022     		movs	r2, #32
 405 012e 1521     		movs	r1, #21
 406 0130 2000     		movs	r0, r4
 407 0132 FFF7FEFF 		bl	ads1299_wreg
 408              	.LVL53:
 409              	.L6:
 160:ads1299.c     ****     uint8_t reg_val[1];
 410              		.loc 1 160 0
 411 0136 6420     		movs	r0, #100
 412 0138 FFF7FEFF 		bl	Cy_SysLib_Delay
 413              	.LVL54:
 162:ads1299.c     ****     printf("regval %x ", reg_val[0]);
 414              		.loc 1 162 0
 415 013c 01AC     		add	r4, sp, #4
 416 013e 2200     		movs	r2, r4
 417 0140 0321     		movs	r1, #3
 418 0142 0020     		movs	r0, #0
 419 0144 FFF7FEFF 		bl	ads1299_rreg
 420              	.LVL55:
 163:ads1299.c     ****     
 421              		.loc 1 163 0
 422 0148 2178     		ldrb	r1, [r4]
 423 014a 0448     		ldr	r0, .L7+4
 424 014c FFF7FEFF 		bl	printf
 425              	.LVL56:
 168:ads1299.c     **** 
 426              		.loc 1 168 0
 427 0150 0020     		movs	r0, #0
 428 0152 03B0     		add	sp, sp, #12
 429              		@ sp needed
 430 0154 F0BD     		pop	{r4, r5, r6, r7, pc}
 431              	.L8:
 432 0156 C046     		.align	2
 433              	.L7:
 434 0158 00000000 		.word	spi
 435 015c 00000000 		.word	.LC2
 436              		.cfi_endproc
 437              	.LFE452:
 438              		.size	ads1299_device_init, .-ads1299_device_init
 439              		.section	.text.ads1299_lead_off,"ax",%progbits
 440              		.align	2
 441              		.global	ads1299_lead_off
 442              		.code	16
 443              		.thumb_func
 444              		.type	ads1299_lead_off, %function
 445              	ads1299_lead_off:
 446              	.LFB453:
 171:ads1299.c     ****     ads1299_wreg(chip_select, ADS1299_REGADDR_LOFF, ADS1299_REG_LOFF_95_PERCENT | ADS1299_REG_LOFF_
 447              		.loc 1 171 0
 448              		.cfi_startproc
 449              		@ args = 0, pretend = 0, frame = 0
 450              		@ frame_needed = 0, uses_anonymous_args = 0
 451              	.LVL57:
ARM GAS  C:\Users\dmr85\AppData\Local\Temp\ccptpkwM.s 			page 27


 452 0000 10B5     		push	{r4, lr}
 453              		.cfi_def_cfa_offset 8
 454              		.cfi_offset 4, -8
 455              		.cfi_offset 14, -4
 456 0002 0400     		movs	r4, r0
 172:ads1299.c     ****     ads1299_wreg(chip_select, ADS1299_REGADDR_CONFIG4, ADS1299_REG_CONFIG4_LEAD_OFF_ENABLED);
 457              		.loc 1 172 0
 458 0004 0322     		movs	r2, #3
 459 0006 0421     		movs	r1, #4
 460 0008 FFF7FEFF 		bl	ads1299_wreg
 461              	.LVL58:
 173:ads1299.c     ****     ads1299_wreg(chip_select, ADS1299_REGADDR_LOFF_SENSP, ADS1299_REG_LOFF_SENSP_LOFFP1 |
 462              		.loc 1 173 0
 463 000c 0222     		movs	r2, #2
 464 000e 1721     		movs	r1, #23
 465 0010 2000     		movs	r0, r4
 466 0012 FFF7FEFF 		bl	ads1299_wreg
 467              	.LVL59:
 174:ads1299.c     ****     ADS1299_REG_LOFF_SENSP_LOFFP2 |
 468              		.loc 1 174 0
 469 0016 FF22     		movs	r2, #255
 470 0018 0F21     		movs	r1, #15
 471 001a 2000     		movs	r0, r4
 472 001c FFF7FEFF 		bl	ads1299_wreg
 473              	.LVL60:
 184:ads1299.c     **** 
 474              		.loc 1 184 0
 475 0020 0020     		movs	r0, #0
 476              		@ sp needed
 477 0022 10BD     		pop	{r4, pc}
 478              		.cfi_endproc
 479              	.LFE453:
 480              		.size	ads1299_lead_off, .-ads1299_lead_off
 481              		.section	.text.ads1299_rdata32_packet,"ax",%progbits
 482              		.align	2
 483              		.global	ads1299_rdata32_packet
 484              		.code	16
 485              		.thumb_func
 486              		.type	ads1299_rdata32_packet, %function
 487              	ads1299_rdata32_packet:
 488              	.LFB456:
 248:ads1299.c     **** 
 249:ads1299.c     **** /* DATA RETRIEVAL FUNCTIONS ***********************************************************************
 250:ads1299.c     **** 
 251:ads1299.c     **** ads1299_error_t ads1299_rdata32_packet(uint8_t chip_select, volatile uint32_t sample_idx, bboard_da
 252:ads1299.c     **** {
 489              		.loc 1 252 0
 490              		.cfi_startproc
 491              		@ args = 0, pretend = 0, frame = 24
 492              		@ frame_needed = 0, uses_anonymous_args = 0
 493              	.LVL61:
 494 0000 F0B5     		push	{r4, r5, r6, r7, lr}
 495              		.cfi_def_cfa_offset 20
 496              		.cfi_offset 4, -20
 497              		.cfi_offset 5, -16
 498              		.cfi_offset 6, -12
 499              		.cfi_offset 7, -8
ARM GAS  C:\Users\dmr85\AppData\Local\Temp\ccptpkwM.s 			page 28


 500              		.cfi_offset 14, -4
 501 0002 87B0     		sub	sp, sp, #28
 502              		.cfi_def_cfa_offset 48
 503 0004 0090     		str	r0, [sp]
 504 0006 0191     		str	r1, [sp, #4]
 505 0008 1500     		movs	r5, r2
 253:ads1299.c     **** 	#if UC3
 254:ads1299.c     **** 	volatile uint8_t channel_idx;	
 255:ads1299.c     **** 	union {
 256:ads1299.c     **** 		uint32_t raw;
 257:ads1299.c     **** 		uint8_t status[4];
 258:ads1299.c     **** 	} __attribute__((packed)) statustemp;	
 259:ads1299.c     **** 	union {
 260:ads1299.c     **** 		int32_t raw;
 261:ads1299.c     **** 		uint8_t data[4];
 262:ads1299.c     **** 	} __attribute__((packed)) sigtemp;
 263:ads1299.c     **** 	statustemp.raw = 0;
 506              		.loc 1 263 0
 507 000a 0026     		movs	r6, #0
 508 000c 0496     		str	r6, [sp, #16]
 264:ads1299.c     **** 	sigtemp.raw = 0;
 509              		.loc 1 264 0
 510 000e 0396     		str	r6, [sp, #12]
 265:ads1299.c     **** 	
 266:ads1299.c     **** 	/* Begin SPI comms */
 267:ads1299.c     **** 	spi_selectChip(SPI_ADDRESS, chip_select);
 511              		.loc 1 267 0
 512 0010 0100     		movs	r1, r0
 513              	.LVL62:
 514 0012 2948     		ldr	r0, .L13
 515              	.LVL63:
 516 0014 FFF7FEFF 		bl	spi_selectChip
 517              	.LVL64:
 268:ads1299.c     **** 	
 269:ads1299.c     **** 	/* Function assumes we've already sent RDATA command or are in RDATAC mode */
 270:ads1299.c     **** 		
 271:ads1299.c     **** 	/* Read in status word first (24 bits) */
 272:ads1299.c     **** 	spi_read_packet(&statustemp.status[1], 3);
 518              		.loc 1 272 0
 519 0018 0321     		movs	r1, #3
 520 001a 1120     		movs	r0, #17
 521 001c 6844     		add	r0, r0, sp
 522 001e FFF7FEFF 		bl	spi_read_packet
 523              	.LVL65:
 273:ads1299.c     **** 	packet_ptr->eegstatus = statustemp.raw;
 524              		.loc 1 273 0
 525 0022 049A     		ldr	r2, [sp, #16]
 526 0024 FF20     		movs	r0, #255
 527 0026 0100     		movs	r1, r0
 528 0028 1140     		ands	r1, r2
 529 002a EF78     		ldrb	r7, [r5, #3]
 530 002c E970     		strb	r1, [r5, #3]
 531 002e 110A     		lsrs	r1, r2, #8
 532 0030 0140     		ands	r1, r0
 533 0032 2F79     		ldrb	r7, [r5, #4]
 534 0034 2971     		strb	r1, [r5, #4]
 535 0036 110C     		lsrs	r1, r2, #16
ARM GAS  C:\Users\dmr85\AppData\Local\Temp\ccptpkwM.s 			page 29


 536 0038 0140     		ands	r1, r0
 537 003a 6879     		ldrb	r0, [r5, #5]
 538 003c 6971     		strb	r1, [r5, #5]
 539 003e 120E     		lsrs	r2, r2, #24
 540 0040 A979     		ldrb	r1, [r5, #6]
 541 0042 AA71     		strb	r2, [r5, #6]
 274:ads1299.c     **** 	
 275:ads1299.c     **** 	/* Begin reading in data */	
 276:ads1299.c     **** 	for (channel_idx = 0; channel_idx < MAX_EEG_CHANNELS; channel_idx++)
 542              		.loc 1 276 0
 543 0044 1723     		movs	r3, #23
 544 0046 6B44     		add	r3, r3, sp
 545 0048 1E70     		strb	r6, [r3]
 546 004a 28E0     		b	.L11
 547              	.L12:
 277:ads1299.c     **** 	{
 278:ads1299.c     **** 		spi_read_packet(&sigtemp.data[1], 3);
 548              		.loc 1 278 0 discriminator 3
 549 004c 0321     		movs	r1, #3
 550 004e 0D20     		movs	r0, #13
 551 0050 6844     		add	r0, r0, sp
 552 0052 FFF7FEFF 		bl	spi_read_packet
 553              	.LVL66:
 279:ads1299.c     **** 		packet_ptr->eegdata[sample_idx][channel_idx] = SIGN_EXT_24(sigtemp.raw);
 554              		.loc 1 279 0 discriminator 3
 555 0056 019B     		ldr	r3, [sp, #4]
 556 0058 1722     		movs	r2, #23
 557 005a 6A44     		add	r2, r2, sp
 558 005c 1078     		ldrb	r0, [r2]
 559 005e 8021     		movs	r1, #128
 560 0060 0904     		lsls	r1, r1, #16
 561 0062 039C     		ldr	r4, [sp, #12]
 562 0064 6140     		eors	r1, r4
 563 0066 154C     		ldr	r4, .L13+4
 564 0068 A446     		mov	ip, r4
 565 006a 6144     		add	r1, r1, ip
 566 006c DB00     		lsls	r3, r3, #3
 567 006e C318     		adds	r3, r0, r3
 568 0070 9B00     		lsls	r3, r3, #2
 569 0072 EB18     		adds	r3, r5, r3
 570 0074 D81D     		adds	r0, r3, #7
 571 0076 FF26     		movs	r6, #255
 572 0078 3700     		movs	r7, r6
 573 007a 0F40     		ands	r7, r1
 574 007c DC79     		ldrb	r4, [r3, #7]
 575 007e DF71     		strb	r7, [r3, #7]
 576 0080 0B0A     		lsrs	r3, r1, #8
 577 0082 3340     		ands	r3, r6
 578 0084 4778     		ldrb	r7, [r0, #1]
 579 0086 4370     		strb	r3, [r0, #1]
 580 0088 0B0C     		lsrs	r3, r1, #16
 581 008a 3340     		ands	r3, r6
 582 008c 8678     		ldrb	r6, [r0, #2]
 583 008e 8370     		strb	r3, [r0, #2]
 584 0090 090E     		lsrs	r1, r1, #24
 585 0092 C378     		ldrb	r3, [r0, #3]
 586 0094 C170     		strb	r1, [r0, #3]
ARM GAS  C:\Users\dmr85\AppData\Local\Temp\ccptpkwM.s 			page 30


 276:ads1299.c     **** 	{
 587              		.loc 1 276 0 discriminator 3
 588 0096 1378     		ldrb	r3, [r2]
 589 0098 0133     		adds	r3, r3, #1
 590 009a DBB2     		uxtb	r3, r3
 591 009c 1370     		strb	r3, [r2]
 592              	.L11:
 276:ads1299.c     **** 	{
 593              		.loc 1 276 0 is_stmt 0 discriminator 1
 594 009e 1723     		movs	r3, #23
 595 00a0 6B44     		add	r3, r3, sp
 596 00a2 1B78     		ldrb	r3, [r3]
 597 00a4 DBB2     		uxtb	r3, r3
 598 00a6 072B     		cmp	r3, #7
 599 00a8 D0D9     		bls	.L12
 280:ads1299.c     **** 	}
 281:ads1299.c     **** 		
 282:ads1299.c     **** 	spi_unselectChip(SPI_ADDRESS, chip_select);
 600              		.loc 1 282 0 is_stmt 1
 601 00aa 0099     		ldr	r1, [sp]
 602 00ac 0248     		ldr	r0, .L13
 603 00ae FFF7FEFF 		bl	spi_unselectChip
 604              	.LVL67:
 283:ads1299.c     **** 		
 284:ads1299.c     **** 	#else
 285:ads1299.c     **** 	#endif	/* #if UC3 */
 286:ads1299.c     **** 	return ADS1299_STATUS_OK;
 287:ads1299.c     **** }
 605              		.loc 1 287 0
 606 00b2 0020     		movs	r0, #0
 607 00b4 07B0     		add	sp, sp, #28
 608              		@ sp needed
 609              	.LVL68:
 610 00b6 F0BD     		pop	{r4, r5, r6, r7, pc}
 611              	.L14:
 612              		.align	2
 613              	.L13:
 614 00b8 00000000 		.word	spi
 615 00bc 000080FF 		.word	-8388608
 616              		.cfi_endproc
 617              	.LFE456:
 618              		.size	ads1299_rdata32_packet, .-ads1299_rdata32_packet
 619              		.section	.text.ads1299_rdata24_packet,"ax",%progbits
 620              		.align	2
 621              		.global	ads1299_rdata24_packet
 622              		.code	16
 623              		.thumb_func
 624              		.type	ads1299_rdata24_packet, %function
 625              	ads1299_rdata24_packet:
 626              	.LFB457:
 288:ads1299.c     **** 
 289:ads1299.c     **** ads1299_error_t ads1299_rdata24_packet(uint8_t chip_select, volatile uint32_t sample_idx, bboard_da
 290:ads1299.c     **** {
 627              		.loc 1 290 0
 628              		.cfi_startproc
 629              		@ args = 0, pretend = 0, frame = 40
 630              		@ frame_needed = 0, uses_anonymous_args = 0
ARM GAS  C:\Users\dmr85\AppData\Local\Temp\ccptpkwM.s 			page 31


 631              	.LVL69:
 632 0000 F0B5     		push	{r4, r5, r6, r7, lr}
 633              		.cfi_def_cfa_offset 20
 634              		.cfi_offset 4, -20
 635              		.cfi_offset 5, -16
 636              		.cfi_offset 6, -12
 637              		.cfi_offset 7, -8
 638              		.cfi_offset 14, -4
 639 0002 8BB0     		sub	sp, sp, #44
 640              		.cfi_def_cfa_offset 64
 641 0004 0400     		movs	r4, r0
 642 0006 0191     		str	r1, [sp, #4]
 643 0008 1600     		movs	r6, r2
 291:ads1299.c     **** 	#if UC3
 292:ads1299.c     **** 	volatile uint8_t channel_idx;
 293:ads1299.c     **** 	
 294:ads1299.c     **** 	uint8_t temp[27];
 295:ads1299.c     **** 	
 296:ads1299.c     **** 	/* Begin SPI comms */
 297:ads1299.c     **** 	spi_selectChip(SPI_ADDRESS, chip_select);
 644              		.loc 1 297 0
 645 000a 0100     		movs	r1, r0
 646              	.LVL70:
 647 000c 2748     		ldr	r0, .L18
 648              	.LVL71:
 649 000e FFF7FEFF 		bl	spi_selectChip
 650              	.LVL72:
 298:ads1299.c     **** 	
 299:ads1299.c     **** 	/* Function assumes we've already sent RDATA command or are in RDATAC mode */
 300:ads1299.c     **** 	
 301:ads1299.c     **** 	/* Read in status word first (24 bits) */
 302:ads1299.c     **** 	spi_read_packet(temp, 3);
 651              		.loc 1 302 0
 652 0012 03AD     		add	r5, sp, #12
 653 0014 0321     		movs	r1, #3
 654 0016 2800     		movs	r0, r5
 655 0018 FFF7FEFF 		bl	spi_read_packet
 656              	.LVL73:
 303:ads1299.c     **** 	packet_ptr->eegstatus[0] = temp[0];
 657              		.loc 1 303 0
 658 001c 2B78     		ldrb	r3, [r5]
 659 001e F370     		strb	r3, [r6, #3]
 304:ads1299.c     **** 	packet_ptr->eegstatus[1] = temp[1];
 660              		.loc 1 304 0
 661 0020 6B78     		ldrb	r3, [r5, #1]
 662 0022 3371     		strb	r3, [r6, #4]
 305:ads1299.c     **** 	packet_ptr->eegstatus[2] = temp[2];
 663              		.loc 1 305 0
 664 0024 AB78     		ldrb	r3, [r5, #2]
 665 0026 7371     		strb	r3, [r6, #5]
 306:ads1299.c     **** 	
 307:ads1299.c     **** 	/* Begin reading in data */
 308:ads1299.c     **** 	for (channel_idx = 0; channel_idx < MAX_EEG_CHANNELS; channel_idx++)
 666              		.loc 1 308 0
 667 0028 0022     		movs	r2, #0
 668 002a 2723     		movs	r3, #39
 669 002c 6B44     		add	r3, r3, sp
ARM GAS  C:\Users\dmr85\AppData\Local\Temp\ccptpkwM.s 			page 32


 670 002e 1A70     		strb	r2, [r3]
 671 0030 2EE0     		b	.L16
 672              	.L17:
 309:ads1299.c     **** 	{
 310:ads1299.c     **** 		spi_read_packet(temp, 3);
 673              		.loc 1 310 0 discriminator 3
 674 0032 03AD     		add	r5, sp, #12
 675 0034 0321     		movs	r1, #3
 676 0036 2800     		movs	r0, r5
 677 0038 FFF7FEFF 		bl	spi_read_packet
 678              	.LVL74:
 311:ads1299.c     **** 		packet_ptr->eegdata[sample_idx][channel_idx][0] = temp[0];
 679              		.loc 1 311 0 discriminator 3
 680 003c 0198     		ldr	r0, [sp, #4]
 681 003e 2722     		movs	r2, #39
 682 0040 6A44     		add	r2, r2, sp
 683 0042 1378     		ldrb	r3, [r2]
 684 0044 DBB2     		uxtb	r3, r3
 685 0046 2F78     		ldrb	r7, [r5]
 686 0048 5900     		lsls	r1, r3, #1
 687 004a C918     		adds	r1, r1, r3
 688 004c 4300     		lsls	r3, r0, #1
 689 004e 1818     		adds	r0, r3, r0
 690 0050 C300     		lsls	r3, r0, #3
 691 0052 CB18     		adds	r3, r1, r3
 692 0054 F318     		adds	r3, r6, r3
 693 0056 9F71     		strb	r7, [r3, #6]
 312:ads1299.c     **** 		packet_ptr->eegdata[sample_idx][channel_idx][1] = temp[1];
 694              		.loc 1 312 0 discriminator 3
 695 0058 0198     		ldr	r0, [sp, #4]
 696 005a 1378     		ldrb	r3, [r2]
 697 005c DBB2     		uxtb	r3, r3
 698 005e 6F78     		ldrb	r7, [r5, #1]
 699 0060 5900     		lsls	r1, r3, #1
 700 0062 C918     		adds	r1, r1, r3
 701 0064 4300     		lsls	r3, r0, #1
 702 0066 1818     		adds	r0, r3, r0
 703 0068 C300     		lsls	r3, r0, #3
 704 006a CB18     		adds	r3, r1, r3
 705 006c F318     		adds	r3, r6, r3
 706 006e DF71     		strb	r7, [r3, #7]
 313:ads1299.c     **** 		packet_ptr->eegdata[sample_idx][channel_idx][2] = temp[2];
 707              		.loc 1 313 0 discriminator 3
 708 0070 0198     		ldr	r0, [sp, #4]
 709 0072 1378     		ldrb	r3, [r2]
 710 0074 DBB2     		uxtb	r3, r3
 711 0076 AD78     		ldrb	r5, [r5, #2]
 712 0078 5900     		lsls	r1, r3, #1
 713 007a C918     		adds	r1, r1, r3
 714 007c 4300     		lsls	r3, r0, #1
 715 007e 1818     		adds	r0, r3, r0
 716 0080 C300     		lsls	r3, r0, #3
 717 0082 CB18     		adds	r3, r1, r3
 718 0084 F318     		adds	r3, r6, r3
 719 0086 1D72     		strb	r5, [r3, #8]
 308:ads1299.c     **** 	{
 720              		.loc 1 308 0 discriminator 3
ARM GAS  C:\Users\dmr85\AppData\Local\Temp\ccptpkwM.s 			page 33


 721 0088 1378     		ldrb	r3, [r2]
 722 008a 0133     		adds	r3, r3, #1
 723 008c DBB2     		uxtb	r3, r3
 724 008e 1370     		strb	r3, [r2]
 725              	.L16:
 308:ads1299.c     **** 	{
 726              		.loc 1 308 0 is_stmt 0 discriminator 1
 727 0090 2723     		movs	r3, #39
 728 0092 6B44     		add	r3, r3, sp
 729 0094 1B78     		ldrb	r3, [r3]
 730 0096 DBB2     		uxtb	r3, r3
 731 0098 072B     		cmp	r3, #7
 732 009a CAD9     		bls	.L17
 314:ads1299.c     **** 	}
 315:ads1299.c     **** 	
 316:ads1299.c     **** 	spi_unselectChip(SPI_ADDRESS, chip_select);
 733              		.loc 1 316 0 is_stmt 1
 734 009c 2100     		movs	r1, r4
 735 009e 0348     		ldr	r0, .L18
 736 00a0 FFF7FEFF 		bl	spi_unselectChip
 737              	.LVL75:
 317:ads1299.c     **** 	
 318:ads1299.c     **** 	#else
 319:ads1299.c     **** 	#endif	/* #if UC3 */
 320:ads1299.c     **** 	return ADS1299_STATUS_OK;
 321:ads1299.c     **** }
 738              		.loc 1 321 0
 739 00a4 0020     		movs	r0, #0
 740 00a6 0BB0     		add	sp, sp, #44
 741              		@ sp needed
 742              	.LVL76:
 743 00a8 F0BD     		pop	{r4, r5, r6, r7, pc}
 744              	.L19:
 745 00aa C046     		.align	2
 746              	.L18:
 747 00ac 00000000 		.word	spi
 748              		.cfi_endproc
 749              	.LFE457:
 750              		.size	ads1299_rdata24_packet, .-ads1299_rdata24_packet
 751              		.section	.text.ads1299_rdata24_generic,"ax",%progbits
 752              		.align	2
 753              		.global	ads1299_rdata24_generic
 754              		.code	16
 755              		.thumb_func
 756              		.type	ads1299_rdata24_generic, %function
 757              	ads1299_rdata24_generic:
 758              	.LFB458:
 322:ads1299.c     **** 
 323:ads1299.c     **** ads1299_error_t ads1299_rdata24_generic(uint8_t chip_select, volatile uint32_t sample_idx, volatile
 324:ads1299.c     **** {
 759              		.loc 1 324 0
 760              		.cfi_startproc
 761              		@ args = 0, pretend = 0, frame = 40
 762              		@ frame_needed = 0, uses_anonymous_args = 0
 763              	.LVL77:
 764 0000 F0B5     		push	{r4, r5, r6, r7, lr}
 765              		.cfi_def_cfa_offset 20
ARM GAS  C:\Users\dmr85\AppData\Local\Temp\ccptpkwM.s 			page 34


 766              		.cfi_offset 4, -20
 767              		.cfi_offset 5, -16
 768              		.cfi_offset 6, -12
 769              		.cfi_offset 7, -8
 770              		.cfi_offset 14, -4
 771 0002 8BB0     		sub	sp, sp, #44
 772              		.cfi_def_cfa_offset 64
 773 0004 0090     		str	r0, [sp]
 774 0006 0191     		str	r1, [sp, #4]
 775 0008 1400     		movs	r4, r2
 776 000a 1F00     		movs	r7, r3
 325:ads1299.c     **** 	uint32_t transfer_status;
 326:ads1299.c     **** 	volatile uint8_t channel_idx;
 327:ads1299.c     **** 	uint8_t sigtemp[27];
 328:ads1299.c     **** 	
 329:ads1299.c     **** 	/* Begin SPI comms */
 330:ads1299.c     **** 	spi_selectChip(SPI_ADDRESS, chip_select);
 777              		.loc 1 330 0
 778 000c 0100     		movs	r1, r0
 779              	.LVL78:
 780 000e 4D48     		ldr	r0, .L28
 781              	.LVL79:
 782 0010 FFF7FEFF 		bl	spi_selectChip
 783              	.LVL80:
 784              	.L22:
 785              	.LBB67:
 786              	.LBB68:
 787              	.LBB69:
 788              	.LBB70:
 789              		.file 3 "Generated_Source\\PSoC6\\pdl\\drivers/peripheral/gpio/cy_gpio.h"
   1:Generated_Source\PSoC6\pdl\drivers/peripheral/gpio/cy_gpio.h **** /***************************************************************************//**
   2:Generated_Source\PSoC6\pdl\drivers/peripheral/gpio/cy_gpio.h **** * \file cy_gpio.h
   3:Generated_Source\PSoC6\pdl\drivers/peripheral/gpio/cy_gpio.h **** * \version 1.20
   4:Generated_Source\PSoC6\pdl\drivers/peripheral/gpio/cy_gpio.h **** *
   5:Generated_Source\PSoC6\pdl\drivers/peripheral/gpio/cy_gpio.h **** * Provides an API declaration of the GPIO driver
   6:Generated_Source\PSoC6\pdl\drivers/peripheral/gpio/cy_gpio.h **** *
   7:Generated_Source\PSoC6\pdl\drivers/peripheral/gpio/cy_gpio.h **** ********************************************************************************
   8:Generated_Source\PSoC6\pdl\drivers/peripheral/gpio/cy_gpio.h **** * \copyright
   9:Generated_Source\PSoC6\pdl\drivers/peripheral/gpio/cy_gpio.h **** * Copyright 2016-2018, Cypress Semiconductor Corporation. All rights reserved.
  10:Generated_Source\PSoC6\pdl\drivers/peripheral/gpio/cy_gpio.h **** * You may use this file only in accordance with the license, terms, conditions,
  11:Generated_Source\PSoC6\pdl\drivers/peripheral/gpio/cy_gpio.h **** * disclaimers, and limitations in the end user license agreement accompanying
  12:Generated_Source\PSoC6\pdl\drivers/peripheral/gpio/cy_gpio.h **** * the software package with which this file was provided.
  13:Generated_Source\PSoC6\pdl\drivers/peripheral/gpio/cy_gpio.h **** *******************************************************************************/
  14:Generated_Source\PSoC6\pdl\drivers/peripheral/gpio/cy_gpio.h **** 
  15:Generated_Source\PSoC6\pdl\drivers/peripheral/gpio/cy_gpio.h **** /**
  16:Generated_Source\PSoC6\pdl\drivers/peripheral/gpio/cy_gpio.h **** * \addtogroup group_gpio
  17:Generated_Source\PSoC6\pdl\drivers/peripheral/gpio/cy_gpio.h **** * \{
  18:Generated_Source\PSoC6\pdl\drivers/peripheral/gpio/cy_gpio.h **** * The GPIO driver provides an API to configure and access device Input/Output pins.
  19:Generated_Source\PSoC6\pdl\drivers/peripheral/gpio/cy_gpio.h **** *
  20:Generated_Source\PSoC6\pdl\drivers/peripheral/gpio/cy_gpio.h **** * The functions and other declarations used in this driver are in cy_gpio.h. 
  21:Generated_Source\PSoC6\pdl\drivers/peripheral/gpio/cy_gpio.h **** * You can include cy_pdl.h (ModusToolbox only) to get access to all functions 
  22:Generated_Source\PSoC6\pdl\drivers/peripheral/gpio/cy_gpio.h **** * and declarations in the PDL.
  23:Generated_Source\PSoC6\pdl\drivers/peripheral/gpio/cy_gpio.h **** *
  24:Generated_Source\PSoC6\pdl\drivers/peripheral/gpio/cy_gpio.h **** * IO pins include all general purpose types such as GPIO, SIO, HSIO, AUXIO, and
  25:Generated_Source\PSoC6\pdl\drivers/peripheral/gpio/cy_gpio.h **** * their variants.
  26:Generated_Source\PSoC6\pdl\drivers/peripheral/gpio/cy_gpio.h **** *
  27:Generated_Source\PSoC6\pdl\drivers/peripheral/gpio/cy_gpio.h **** * Initialization can be performed either at the port level or by configuring the
ARM GAS  C:\Users\dmr85\AppData\Local\Temp\ccptpkwM.s 			page 35


  28:Generated_Source\PSoC6\pdl\drivers/peripheral/gpio/cy_gpio.h **** * individual pins. For efficient use of code space, port
  29:Generated_Source\PSoC6\pdl\drivers/peripheral/gpio/cy_gpio.h **** * configuration should be used in the field. Refer to the product device header files 
  30:Generated_Source\PSoC6\pdl\drivers/peripheral/gpio/cy_gpio.h **** * for the list of supported ports and pins.
  31:Generated_Source\PSoC6\pdl\drivers/peripheral/gpio/cy_gpio.h **** * 
  32:Generated_Source\PSoC6\pdl\drivers/peripheral/gpio/cy_gpio.h **** * - Single pin configuration is performed by using \ref Cy_GPIO_Pin_FastInit 
  33:Generated_Source\PSoC6\pdl\drivers/peripheral/gpio/cy_gpio.h **** *   (provide specific values) or \ref Cy_GPIO_Pin_Init (provide a filled
  34:Generated_Source\PSoC6\pdl\drivers/peripheral/gpio/cy_gpio.h **** *   cy_stc_gpio_pin_config_t structure).
  35:Generated_Source\PSoC6\pdl\drivers/peripheral/gpio/cy_gpio.h **** * - An entire port can be configured using \ref Cy_GPIO_Port_Init. Provide a filled 
  36:Generated_Source\PSoC6\pdl\drivers/peripheral/gpio/cy_gpio.h **** *   cy_stc_gpio_prt_config_t structure. The values in the structure are 
  37:Generated_Source\PSoC6\pdl\drivers/peripheral/gpio/cy_gpio.h **** *   bitfields representing the desired value for each pin in the port.
  38:Generated_Source\PSoC6\pdl\drivers/peripheral/gpio/cy_gpio.h **** * - Pin configuration and management is based on the port address and pin number.
  39:Generated_Source\PSoC6\pdl\drivers/peripheral/gpio/cy_gpio.h **** *   \ref Cy_GPIO_PortToAddr function can optionally be used to calculate the port
  40:Generated_Source\PSoC6\pdl\drivers/peripheral/gpio/cy_gpio.h **** *   address from the port number at run-time.
  41:Generated_Source\PSoC6\pdl\drivers/peripheral/gpio/cy_gpio.h **** *
  42:Generated_Source\PSoC6\pdl\drivers/peripheral/gpio/cy_gpio.h **** * Once the pin/port initialization is complete, each pin can be accessed by 
  43:Generated_Source\PSoC6\pdl\drivers/peripheral/gpio/cy_gpio.h **** * specifying the port (GPIO_PRT_Type) and the pin (0-7) in the provided API 
  44:Generated_Source\PSoC6\pdl\drivers/peripheral/gpio/cy_gpio.h **** * functions.
  45:Generated_Source\PSoC6\pdl\drivers/peripheral/gpio/cy_gpio.h **** *
  46:Generated_Source\PSoC6\pdl\drivers/peripheral/gpio/cy_gpio.h **** * \section group_gpio_configuration Configuration Considerations
  47:Generated_Source\PSoC6\pdl\drivers/peripheral/gpio/cy_gpio.h **** *
  48:Generated_Source\PSoC6\pdl\drivers/peripheral/gpio/cy_gpio.h **** * 1. Pin multiplexing is controlled through the High-Speed IO Matrix (HSIOM) selection.
  49:Generated_Source\PSoC6\pdl\drivers/peripheral/gpio/cy_gpio.h **** *    This allows the pin to connect to signal sources/sinks throughout the device,
  50:Generated_Source\PSoC6\pdl\drivers/peripheral/gpio/cy_gpio.h **** *    as defined by the pin HSIOM selection options (en_hsiom_sel_t).
  51:Generated_Source\PSoC6\pdl\drivers/peripheral/gpio/cy_gpio.h **** * 2. All pins are initialized to High-Z drive mode with HSIOM connected to CPU (SW
  52:Generated_Source\PSoC6\pdl\drivers/peripheral/gpio/cy_gpio.h **** *    control digital pin only) at Power-On-Reset(POR).
  53:Generated_Source\PSoC6\pdl\drivers/peripheral/gpio/cy_gpio.h **** * 3. Some API functions perform read-modify-write operations on shared port
  54:Generated_Source\PSoC6\pdl\drivers/peripheral/gpio/cy_gpio.h **** *    registers. These functions are not thread safe and care must be taken when
  55:Generated_Source\PSoC6\pdl\drivers/peripheral/gpio/cy_gpio.h **** *    called by the application.
  56:Generated_Source\PSoC6\pdl\drivers/peripheral/gpio/cy_gpio.h **** * 4. Digital input buffer provides a high-impedance buffer for the external 
  57:Generated_Source\PSoC6\pdl\drivers/peripheral/gpio/cy_gpio.h **** *    digital input. The input buffer is connected to the HSIOM for routing to 
  58:Generated_Source\PSoC6\pdl\drivers/peripheral/gpio/cy_gpio.h **** *    the CPU port registers and selected peripheral. Enabling the input 
  59:Generated_Source\PSoC6\pdl\drivers/peripheral/gpio/cy_gpio.h **** *    buffer provides possibility to read the pin state via the CPU.
  60:Generated_Source\PSoC6\pdl\drivers/peripheral/gpio/cy_gpio.h **** *    If pin is connected to an analog signal, the input buffer should be 
  61:Generated_Source\PSoC6\pdl\drivers/peripheral/gpio/cy_gpio.h **** *    disabled to avoid crowbar currents. For more information refer to device 
  62:Generated_Source\PSoC6\pdl\drivers/peripheral/gpio/cy_gpio.h **** *    TRM and the device datasheet.
  63:Generated_Source\PSoC6\pdl\drivers/peripheral/gpio/cy_gpio.h **** *
  64:Generated_Source\PSoC6\pdl\drivers/peripheral/gpio/cy_gpio.h **** * Multiple pins on a port can be updated using direct port register writes with an
  65:Generated_Source\PSoC6\pdl\drivers/peripheral/gpio/cy_gpio.h **** * appropriate port mask. An example is shown below, highlighting the different ways of 
  66:Generated_Source\PSoC6\pdl\drivers/peripheral/gpio/cy_gpio.h **** * configuring Port 1 pins using:
  67:Generated_Source\PSoC6\pdl\drivers/peripheral/gpio/cy_gpio.h **** * 
  68:Generated_Source\PSoC6\pdl\drivers/peripheral/gpio/cy_gpio.h **** * - Port output data register
  69:Generated_Source\PSoC6\pdl\drivers/peripheral/gpio/cy_gpio.h **** * - Port output data set register
  70:Generated_Source\PSoC6\pdl\drivers/peripheral/gpio/cy_gpio.h **** * - Port output data clear register
  71:Generated_Source\PSoC6\pdl\drivers/peripheral/gpio/cy_gpio.h **** *
  72:Generated_Source\PSoC6\pdl\drivers/peripheral/gpio/cy_gpio.h **** * \snippet gpio/gpio_v1_10_sut_01.cydsn/main_cm4.c Cy_GPIO_Snippet
  73:Generated_Source\PSoC6\pdl\drivers/peripheral/gpio/cy_gpio.h **** *
  74:Generated_Source\PSoC6\pdl\drivers/peripheral/gpio/cy_gpio.h **** * \section group_gpio_more_information More Information
  75:Generated_Source\PSoC6\pdl\drivers/peripheral/gpio/cy_gpio.h **** *
  76:Generated_Source\PSoC6\pdl\drivers/peripheral/gpio/cy_gpio.h **** * Refer to the technical reference manual (TRM) and the device datasheet.
  77:Generated_Source\PSoC6\pdl\drivers/peripheral/gpio/cy_gpio.h **** *
  78:Generated_Source\PSoC6\pdl\drivers/peripheral/gpio/cy_gpio.h **** * \section group_gpio_MISRA MISRA-C Compliance
  79:Generated_Source\PSoC6\pdl\drivers/peripheral/gpio/cy_gpio.h **** * The GPIO driver has the following specific deviations:
  80:Generated_Source\PSoC6\pdl\drivers/peripheral/gpio/cy_gpio.h **** *
  81:Generated_Source\PSoC6\pdl\drivers/peripheral/gpio/cy_gpio.h **** * <table class="doxtable">
  82:Generated_Source\PSoC6\pdl\drivers/peripheral/gpio/cy_gpio.h **** *   <tr>
  83:Generated_Source\PSoC6\pdl\drivers/peripheral/gpio/cy_gpio.h **** *     <th>MISRA Rule</th>
  84:Generated_Source\PSoC6\pdl\drivers/peripheral/gpio/cy_gpio.h **** *     <th>Rule Class (Required/Advisory)</th>
ARM GAS  C:\Users\dmr85\AppData\Local\Temp\ccptpkwM.s 			page 36


  85:Generated_Source\PSoC6\pdl\drivers/peripheral/gpio/cy_gpio.h **** *     <th>Rule Description</th>
  86:Generated_Source\PSoC6\pdl\drivers/peripheral/gpio/cy_gpio.h **** *     <th>Description of Deviation(s)</th>
  87:Generated_Source\PSoC6\pdl\drivers/peripheral/gpio/cy_gpio.h **** *   </tr>
  88:Generated_Source\PSoC6\pdl\drivers/peripheral/gpio/cy_gpio.h **** *   <tr>
  89:Generated_Source\PSoC6\pdl\drivers/peripheral/gpio/cy_gpio.h **** *     <td>11.4</td>
  90:Generated_Source\PSoC6\pdl\drivers/peripheral/gpio/cy_gpio.h **** *     <td>A</td>
  91:Generated_Source\PSoC6\pdl\drivers/peripheral/gpio/cy_gpio.h **** *     <td>A cast should not be performed between a pointer to object type and
  92:Generated_Source\PSoC6\pdl\drivers/peripheral/gpio/cy_gpio.h **** *         a different pointer to object type.</td>
  93:Generated_Source\PSoC6\pdl\drivers/peripheral/gpio/cy_gpio.h **** *     <td> This code is safe because the elements of both GPIO_PRT_V1_Type and GPIO_PRT_V2_Type 
  94:Generated_Source\PSoC6\pdl\drivers/peripheral/gpio/cy_gpio.h **** *          types have identical alignment.</td>
  95:Generated_Source\PSoC6\pdl\drivers/peripheral/gpio/cy_gpio.h **** *   </tr>
  96:Generated_Source\PSoC6\pdl\drivers/peripheral/gpio/cy_gpio.h **** *   <tr>
  97:Generated_Source\PSoC6\pdl\drivers/peripheral/gpio/cy_gpio.h **** *     <td>16.7</td>
  98:Generated_Source\PSoC6\pdl\drivers/peripheral/gpio/cy_gpio.h **** *     <td>A</td>
  99:Generated_Source\PSoC6\pdl\drivers/peripheral/gpio/cy_gpio.h **** *     <td>A pointer parameter in a function prototype should be declared as pointer 
 100:Generated_Source\PSoC6\pdl\drivers/peripheral/gpio/cy_gpio.h **** *         to const if the pointer is not used to modify the addressed object.</td>
 101:Generated_Source\PSoC6\pdl\drivers/peripheral/gpio/cy_gpio.h **** *     <td>The objects pointed to by the base addresses of the GPIO port are not always modified.
 102:Generated_Source\PSoC6\pdl\drivers/peripheral/gpio/cy_gpio.h **** *         While a const qualifier can be used in select scenarios, it brings little benefit
 103:Generated_Source\PSoC6\pdl\drivers/peripheral/gpio/cy_gpio.h **** *         in adding this to the affected functions. </td>
 104:Generated_Source\PSoC6\pdl\drivers/peripheral/gpio/cy_gpio.h **** *   </tr>
 105:Generated_Source\PSoC6\pdl\drivers/peripheral/gpio/cy_gpio.h **** * </table>
 106:Generated_Source\PSoC6\pdl\drivers/peripheral/gpio/cy_gpio.h **** *
 107:Generated_Source\PSoC6\pdl\drivers/peripheral/gpio/cy_gpio.h **** * \section group_gpio_changelog Changelog
 108:Generated_Source\PSoC6\pdl\drivers/peripheral/gpio/cy_gpio.h **** * <table class="doxtable">
 109:Generated_Source\PSoC6\pdl\drivers/peripheral/gpio/cy_gpio.h **** *   <tr><th>Version</th><th>Changes</th><th>Reason for Change</th></tr>
 110:Generated_Source\PSoC6\pdl\drivers/peripheral/gpio/cy_gpio.h **** *   <tr>
 111:Generated_Source\PSoC6\pdl\drivers/peripheral/gpio/cy_gpio.h **** *     <td rowspan="3">1.20</td>
 112:Generated_Source\PSoC6\pdl\drivers/peripheral/gpio/cy_gpio.h **** *     <td>Flattened the organization of the driver source code into the single source directory and
 113:Generated_Source\PSoC6\pdl\drivers/peripheral/gpio/cy_gpio.h **** *     <td>Driver library directory-structure simplification.</td>
 114:Generated_Source\PSoC6\pdl\drivers/peripheral/gpio/cy_gpio.h **** *   </tr>
 115:Generated_Source\PSoC6\pdl\drivers/peripheral/gpio/cy_gpio.h **** *   <tr>
 116:Generated_Source\PSoC6\pdl\drivers/peripheral/gpio/cy_gpio.h **** *     <td>Added the functions for configuring the AMux bus splitter switch cells:
 117:Generated_Source\PSoC6\pdl\drivers/peripheral/gpio/cy_gpio.h **** *     - \ref Cy_GPIO_SetAmuxSplit
 118:Generated_Source\PSoC6\pdl\drivers/peripheral/gpio/cy_gpio.h **** *     - \ref Cy_GPIO_GetAmuxSplit
 119:Generated_Source\PSoC6\pdl\drivers/peripheral/gpio/cy_gpio.h **** *     </td>
 120:Generated_Source\PSoC6\pdl\drivers/peripheral/gpio/cy_gpio.h **** *     <td>Added a new functionality related to AMux bus.</td>
 121:Generated_Source\PSoC6\pdl\drivers/peripheral/gpio/cy_gpio.h **** *   </tr>
 122:Generated_Source\PSoC6\pdl\drivers/peripheral/gpio/cy_gpio.h **** *   <tr>
 123:Generated_Source\PSoC6\pdl\drivers/peripheral/gpio/cy_gpio.h **** *     <td>Added register access layer. Use register access macros instead
 124:Generated_Source\PSoC6\pdl\drivers/peripheral/gpio/cy_gpio.h **** *         of direct register access using dereferenced pointers.</td>
 125:Generated_Source\PSoC6\pdl\drivers/peripheral/gpio/cy_gpio.h **** *     <td>Makes register access device-independent, so that the PDL does 
 126:Generated_Source\PSoC6\pdl\drivers/peripheral/gpio/cy_gpio.h **** *         not need to be recompiled for each supported part number.</td>
 127:Generated_Source\PSoC6\pdl\drivers/peripheral/gpio/cy_gpio.h **** *   </tr>
 128:Generated_Source\PSoC6\pdl\drivers/peripheral/gpio/cy_gpio.h **** *   <tr>
 129:Generated_Source\PSoC6\pdl\drivers/peripheral/gpio/cy_gpio.h **** *     <td>1.10.1</td>
 130:Generated_Source\PSoC6\pdl\drivers/peripheral/gpio/cy_gpio.h **** *     <td>Updated description for the functions: \ref Cy_GPIO_GetInterruptStatus, 
 131:Generated_Source\PSoC6\pdl\drivers/peripheral/gpio/cy_gpio.h **** *         \ref Cy_GPIO_GetInterruptMask, \ref Cy_GPIO_GetInterruptStatusMasked.
 132:Generated_Source\PSoC6\pdl\drivers/peripheral/gpio/cy_gpio.h **** *
 133:Generated_Source\PSoC6\pdl\drivers/peripheral/gpio/cy_gpio.h **** *         Minor documentation edits.
 134:Generated_Source\PSoC6\pdl\drivers/peripheral/gpio/cy_gpio.h **** *     </td>
 135:Generated_Source\PSoC6\pdl\drivers/peripheral/gpio/cy_gpio.h **** *     <td>Documentation update and clarification</td>
 136:Generated_Source\PSoC6\pdl\drivers/peripheral/gpio/cy_gpio.h **** *   </tr>
 137:Generated_Source\PSoC6\pdl\drivers/peripheral/gpio/cy_gpio.h **** *   <tr>
 138:Generated_Source\PSoC6\pdl\drivers/peripheral/gpio/cy_gpio.h **** *     <td>1.10</td>
 139:Generated_Source\PSoC6\pdl\drivers/peripheral/gpio/cy_gpio.h **** *     <td>Added input parameter validation to the API functions</td>
 140:Generated_Source\PSoC6\pdl\drivers/peripheral/gpio/cy_gpio.h **** *     <td></td>
 141:Generated_Source\PSoC6\pdl\drivers/peripheral/gpio/cy_gpio.h **** *   </tr>
ARM GAS  C:\Users\dmr85\AppData\Local\Temp\ccptpkwM.s 			page 37


 142:Generated_Source\PSoC6\pdl\drivers/peripheral/gpio/cy_gpio.h **** *   <tr>
 143:Generated_Source\PSoC6\pdl\drivers/peripheral/gpio/cy_gpio.h **** *     <td>1.0</td>
 144:Generated_Source\PSoC6\pdl\drivers/peripheral/gpio/cy_gpio.h **** *     <td>Initial version</td>
 145:Generated_Source\PSoC6\pdl\drivers/peripheral/gpio/cy_gpio.h **** *     <td></td>
 146:Generated_Source\PSoC6\pdl\drivers/peripheral/gpio/cy_gpio.h **** *   </tr>
 147:Generated_Source\PSoC6\pdl\drivers/peripheral/gpio/cy_gpio.h **** * </table>
 148:Generated_Source\PSoC6\pdl\drivers/peripheral/gpio/cy_gpio.h **** *
 149:Generated_Source\PSoC6\pdl\drivers/peripheral/gpio/cy_gpio.h **** * \defgroup group_gpio_macros Macros
 150:Generated_Source\PSoC6\pdl\drivers/peripheral/gpio/cy_gpio.h **** * \defgroup group_gpio_functions Functions
 151:Generated_Source\PSoC6\pdl\drivers/peripheral/gpio/cy_gpio.h **** * \{
 152:Generated_Source\PSoC6\pdl\drivers/peripheral/gpio/cy_gpio.h **** *   \defgroup group_gpio_functions_init       Initialization Functions
 153:Generated_Source\PSoC6\pdl\drivers/peripheral/gpio/cy_gpio.h **** *   \defgroup group_gpio_functions_gpio       GPIO Functions
 154:Generated_Source\PSoC6\pdl\drivers/peripheral/gpio/cy_gpio.h **** *   \defgroup group_gpio_functions_sio        SIO Functions
 155:Generated_Source\PSoC6\pdl\drivers/peripheral/gpio/cy_gpio.h **** *   \defgroup group_gpio_functions_interrupt  Port Interrupt Functions
 156:Generated_Source\PSoC6\pdl\drivers/peripheral/gpio/cy_gpio.h **** * \}
 157:Generated_Source\PSoC6\pdl\drivers/peripheral/gpio/cy_gpio.h **** * \defgroup group_gpio_data_structures Data Structures
 158:Generated_Source\PSoC6\pdl\drivers/peripheral/gpio/cy_gpio.h **** * \defgroup group_gpio_enums Enumerated Types
 159:Generated_Source\PSoC6\pdl\drivers/peripheral/gpio/cy_gpio.h **** */
 160:Generated_Source\PSoC6\pdl\drivers/peripheral/gpio/cy_gpio.h **** 
 161:Generated_Source\PSoC6\pdl\drivers/peripheral/gpio/cy_gpio.h **** #if !defined(CY_GPIO_H)
 162:Generated_Source\PSoC6\pdl\drivers/peripheral/gpio/cy_gpio.h **** #define CY_GPIO_H
 163:Generated_Source\PSoC6\pdl\drivers/peripheral/gpio/cy_gpio.h **** 
 164:Generated_Source\PSoC6\pdl\drivers/peripheral/gpio/cy_gpio.h **** #include <stddef.h>
 165:Generated_Source\PSoC6\pdl\drivers/peripheral/gpio/cy_gpio.h **** #include "cy_device.h"
 166:Generated_Source\PSoC6\pdl\drivers/peripheral/gpio/cy_gpio.h **** #include "cy_device_headers.h"
 167:Generated_Source\PSoC6\pdl\drivers/peripheral/gpio/cy_gpio.h **** #include "cy_syslib.h"
 168:Generated_Source\PSoC6\pdl\drivers/peripheral/gpio/cy_gpio.h **** 
 169:Generated_Source\PSoC6\pdl\drivers/peripheral/gpio/cy_gpio.h **** #if defined(__cplusplus)
 170:Generated_Source\PSoC6\pdl\drivers/peripheral/gpio/cy_gpio.h **** extern "C" {
 171:Generated_Source\PSoC6\pdl\drivers/peripheral/gpio/cy_gpio.h **** #endif
 172:Generated_Source\PSoC6\pdl\drivers/peripheral/gpio/cy_gpio.h **** 
 173:Generated_Source\PSoC6\pdl\drivers/peripheral/gpio/cy_gpio.h **** /** \addtogroup group_gpio_macros
 174:Generated_Source\PSoC6\pdl\drivers/peripheral/gpio/cy_gpio.h **** * \{
 175:Generated_Source\PSoC6\pdl\drivers/peripheral/gpio/cy_gpio.h **** */
 176:Generated_Source\PSoC6\pdl\drivers/peripheral/gpio/cy_gpio.h **** 
 177:Generated_Source\PSoC6\pdl\drivers/peripheral/gpio/cy_gpio.h **** /** Driver major version */
 178:Generated_Source\PSoC6\pdl\drivers/peripheral/gpio/cy_gpio.h **** #define CY_GPIO_DRV_VERSION_MAJOR       1
 179:Generated_Source\PSoC6\pdl\drivers/peripheral/gpio/cy_gpio.h **** 
 180:Generated_Source\PSoC6\pdl\drivers/peripheral/gpio/cy_gpio.h **** /** Driver minor version */
 181:Generated_Source\PSoC6\pdl\drivers/peripheral/gpio/cy_gpio.h **** #define CY_GPIO_DRV_VERSION_MINOR       20
 182:Generated_Source\PSoC6\pdl\drivers/peripheral/gpio/cy_gpio.h **** 
 183:Generated_Source\PSoC6\pdl\drivers/peripheral/gpio/cy_gpio.h **** /** GPIO driver ID */
 184:Generated_Source\PSoC6\pdl\drivers/peripheral/gpio/cy_gpio.h **** #define CY_GPIO_ID CY_PDL_DRV_ID(0x16U)
 185:Generated_Source\PSoC6\pdl\drivers/peripheral/gpio/cy_gpio.h **** 
 186:Generated_Source\PSoC6\pdl\drivers/peripheral/gpio/cy_gpio.h **** /** \} group_gpio_macros */
 187:Generated_Source\PSoC6\pdl\drivers/peripheral/gpio/cy_gpio.h **** 
 188:Generated_Source\PSoC6\pdl\drivers/peripheral/gpio/cy_gpio.h **** 
 189:Generated_Source\PSoC6\pdl\drivers/peripheral/gpio/cy_gpio.h **** /***************************************
 190:Generated_Source\PSoC6\pdl\drivers/peripheral/gpio/cy_gpio.h **** *       Enumerations
 191:Generated_Source\PSoC6\pdl\drivers/peripheral/gpio/cy_gpio.h **** ***************************************/
 192:Generated_Source\PSoC6\pdl\drivers/peripheral/gpio/cy_gpio.h **** /**
 193:Generated_Source\PSoC6\pdl\drivers/peripheral/gpio/cy_gpio.h **** * \addtogroup group_gpio_enums
 194:Generated_Source\PSoC6\pdl\drivers/peripheral/gpio/cy_gpio.h **** * \{
 195:Generated_Source\PSoC6\pdl\drivers/peripheral/gpio/cy_gpio.h **** */
 196:Generated_Source\PSoC6\pdl\drivers/peripheral/gpio/cy_gpio.h **** 
 197:Generated_Source\PSoC6\pdl\drivers/peripheral/gpio/cy_gpio.h **** /** GPIO Driver error codes */
 198:Generated_Source\PSoC6\pdl\drivers/peripheral/gpio/cy_gpio.h **** typedef enum 
ARM GAS  C:\Users\dmr85\AppData\Local\Temp\ccptpkwM.s 			page 38


 199:Generated_Source\PSoC6\pdl\drivers/peripheral/gpio/cy_gpio.h **** {
 200:Generated_Source\PSoC6\pdl\drivers/peripheral/gpio/cy_gpio.h ****     CY_GPIO_SUCCESS   = 0x00U,                                    /**< Returned successful */
 201:Generated_Source\PSoC6\pdl\drivers/peripheral/gpio/cy_gpio.h ****     CY_GPIO_BAD_PARAM = CY_GPIO_ID | CY_PDL_STATUS_ERROR | 0x01U, /**< Bad parameter was passed */
 202:Generated_Source\PSoC6\pdl\drivers/peripheral/gpio/cy_gpio.h **** } cy_en_gpio_status_t;
 203:Generated_Source\PSoC6\pdl\drivers/peripheral/gpio/cy_gpio.h **** 
 204:Generated_Source\PSoC6\pdl\drivers/peripheral/gpio/cy_gpio.h **** /** AMux switch open/close config */
 205:Generated_Source\PSoC6\pdl\drivers/peripheral/gpio/cy_gpio.h **** typedef enum
 206:Generated_Source\PSoC6\pdl\drivers/peripheral/gpio/cy_gpio.h **** {
 207:Generated_Source\PSoC6\pdl\drivers/peripheral/gpio/cy_gpio.h ****     CY_GPIO_AMUX_OPENALL,   /**< Open ground switch. Open right switch. Open left switch */
 208:Generated_Source\PSoC6\pdl\drivers/peripheral/gpio/cy_gpio.h ****     CY_GPIO_AMUX_L,         /**< Open ground switch. Open right switch. Close left switch */
 209:Generated_Source\PSoC6\pdl\drivers/peripheral/gpio/cy_gpio.h ****     CY_GPIO_AMUX_R,         /**< Open ground switch. Close right switch. Open left switch */
 210:Generated_Source\PSoC6\pdl\drivers/peripheral/gpio/cy_gpio.h ****     CY_GPIO_AMUX_LR,        /**< Open ground switch. Close right switch. Close left switch */
 211:Generated_Source\PSoC6\pdl\drivers/peripheral/gpio/cy_gpio.h ****     CY_GPIO_AMUX_G,         /**< Close ground switch. Open right switch. Open left switch */
 212:Generated_Source\PSoC6\pdl\drivers/peripheral/gpio/cy_gpio.h ****     CY_GPIO_AMUX_GL,        /**< Close ground switch. Open right switch. Close left switch */
 213:Generated_Source\PSoC6\pdl\drivers/peripheral/gpio/cy_gpio.h ****     CY_GPIO_AMUX_GR,        /**< Close ground switch. Close right switch. Open left switch */
 214:Generated_Source\PSoC6\pdl\drivers/peripheral/gpio/cy_gpio.h ****     CY_GPIO_AMUX_GLR,       /**< Close ground switch. Close right switch. Close left switch */
 215:Generated_Source\PSoC6\pdl\drivers/peripheral/gpio/cy_gpio.h **** }cy_en_gpio_amuxconnect_t;
 216:Generated_Source\PSoC6\pdl\drivers/peripheral/gpio/cy_gpio.h **** 
 217:Generated_Source\PSoC6\pdl\drivers/peripheral/gpio/cy_gpio.h **** /**
 218:Generated_Source\PSoC6\pdl\drivers/peripheral/gpio/cy_gpio.h **** * AMux Bus selection
 219:Generated_Source\PSoC6\pdl\drivers/peripheral/gpio/cy_gpio.h **** */
 220:Generated_Source\PSoC6\pdl\drivers/peripheral/gpio/cy_gpio.h **** typedef enum
 221:Generated_Source\PSoC6\pdl\drivers/peripheral/gpio/cy_gpio.h **** {
 222:Generated_Source\PSoC6\pdl\drivers/peripheral/gpio/cy_gpio.h ****     CY_GPIO_AMUXBUSA,       /**< AMuxBus A */
 223:Generated_Source\PSoC6\pdl\drivers/peripheral/gpio/cy_gpio.h ****     CY_GPIO_AMUXBUSB        /**< AMuxBus B */
 224:Generated_Source\PSoC6\pdl\drivers/peripheral/gpio/cy_gpio.h **** }cy_en_gpio_amuxselect_t;
 225:Generated_Source\PSoC6\pdl\drivers/peripheral/gpio/cy_gpio.h **** 
 226:Generated_Source\PSoC6\pdl\drivers/peripheral/gpio/cy_gpio.h **** /** \} group_gpio_enums */
 227:Generated_Source\PSoC6\pdl\drivers/peripheral/gpio/cy_gpio.h **** 
 228:Generated_Source\PSoC6\pdl\drivers/peripheral/gpio/cy_gpio.h **** 
 229:Generated_Source\PSoC6\pdl\drivers/peripheral/gpio/cy_gpio.h **** /***************************************
 230:Generated_Source\PSoC6\pdl\drivers/peripheral/gpio/cy_gpio.h **** *       Configuration Structures
 231:Generated_Source\PSoC6\pdl\drivers/peripheral/gpio/cy_gpio.h **** ***************************************/
 232:Generated_Source\PSoC6\pdl\drivers/peripheral/gpio/cy_gpio.h **** 
 233:Generated_Source\PSoC6\pdl\drivers/peripheral/gpio/cy_gpio.h **** /**
 234:Generated_Source\PSoC6\pdl\drivers/peripheral/gpio/cy_gpio.h **** * \addtogroup group_gpio_data_structures
 235:Generated_Source\PSoC6\pdl\drivers/peripheral/gpio/cy_gpio.h **** * \{
 236:Generated_Source\PSoC6\pdl\drivers/peripheral/gpio/cy_gpio.h **** */
 237:Generated_Source\PSoC6\pdl\drivers/peripheral/gpio/cy_gpio.h **** 
 238:Generated_Source\PSoC6\pdl\drivers/peripheral/gpio/cy_gpio.h **** /** This structure is used to initialize a port of GPIO pins */
 239:Generated_Source\PSoC6\pdl\drivers/peripheral/gpio/cy_gpio.h **** typedef struct 
 240:Generated_Source\PSoC6\pdl\drivers/peripheral/gpio/cy_gpio.h **** {
 241:Generated_Source\PSoC6\pdl\drivers/peripheral/gpio/cy_gpio.h ****     uint32_t out;           /**< Initial output data for the IO pins in the port */
 242:Generated_Source\PSoC6\pdl\drivers/peripheral/gpio/cy_gpio.h ****     uint32_t intrMask;      /**< Interrupt enable mask for the port interrupt */
 243:Generated_Source\PSoC6\pdl\drivers/peripheral/gpio/cy_gpio.h ****     uint32_t intrCfg;       /**< Port pin interrupt edge detection configuration */
 244:Generated_Source\PSoC6\pdl\drivers/peripheral/gpio/cy_gpio.h ****     uint32_t cfg;           /**< Port pin drive modes and input buffer enable configuration */
 245:Generated_Source\PSoC6\pdl\drivers/peripheral/gpio/cy_gpio.h ****     uint32_t cfgIn;         /**< Port pin input buffer configuration */
 246:Generated_Source\PSoC6\pdl\drivers/peripheral/gpio/cy_gpio.h ****     uint32_t cfgOut;        /**< Port pin output buffer configuration */
 247:Generated_Source\PSoC6\pdl\drivers/peripheral/gpio/cy_gpio.h ****     uint32_t cfgSIO;        /**< Port SIO pins configuration */
 248:Generated_Source\PSoC6\pdl\drivers/peripheral/gpio/cy_gpio.h ****     uint32_t sel0Active;    /**< HSIOM selection for port pins 0,1,2,3 */
 249:Generated_Source\PSoC6\pdl\drivers/peripheral/gpio/cy_gpio.h ****     uint32_t sel1Active;    /**< HSIOM selection for port pins 4,5,6,7 */
 250:Generated_Source\PSoC6\pdl\drivers/peripheral/gpio/cy_gpio.h **** } cy_stc_gpio_prt_config_t;
 251:Generated_Source\PSoC6\pdl\drivers/peripheral/gpio/cy_gpio.h **** 
 252:Generated_Source\PSoC6\pdl\drivers/peripheral/gpio/cy_gpio.h **** /** This structure is used to initialize a single GPIO pin */
 253:Generated_Source\PSoC6\pdl\drivers/peripheral/gpio/cy_gpio.h **** typedef struct
 254:Generated_Source\PSoC6\pdl\drivers/peripheral/gpio/cy_gpio.h **** {
 255:Generated_Source\PSoC6\pdl\drivers/peripheral/gpio/cy_gpio.h ****     uint32_t outVal;         /**< Pin output state */
ARM GAS  C:\Users\dmr85\AppData\Local\Temp\ccptpkwM.s 			page 39


 256:Generated_Source\PSoC6\pdl\drivers/peripheral/gpio/cy_gpio.h ****     uint32_t driveMode;      /**< Drive mode */
 257:Generated_Source\PSoC6\pdl\drivers/peripheral/gpio/cy_gpio.h ****     en_hsiom_sel_t hsiom;    /**< HSIOM selection */
 258:Generated_Source\PSoC6\pdl\drivers/peripheral/gpio/cy_gpio.h ****     uint32_t intEdge;        /**< Interrupt Edge type */
 259:Generated_Source\PSoC6\pdl\drivers/peripheral/gpio/cy_gpio.h ****     uint32_t intMask;        /**< Interrupt enable mask */
 260:Generated_Source\PSoC6\pdl\drivers/peripheral/gpio/cy_gpio.h ****     uint32_t vtrip;          /**< Input buffer voltage trip type */
 261:Generated_Source\PSoC6\pdl\drivers/peripheral/gpio/cy_gpio.h ****     uint32_t slewRate;       /**< Output buffer slew rate */
 262:Generated_Source\PSoC6\pdl\drivers/peripheral/gpio/cy_gpio.h ****     uint32_t driveSel;       /**< Drive strength */
 263:Generated_Source\PSoC6\pdl\drivers/peripheral/gpio/cy_gpio.h ****     uint32_t vregEn;         /**< SIO pair output buffer mode */
 264:Generated_Source\PSoC6\pdl\drivers/peripheral/gpio/cy_gpio.h ****     uint32_t ibufMode;       /**< SIO pair input buffer mode */
 265:Generated_Source\PSoC6\pdl\drivers/peripheral/gpio/cy_gpio.h ****     uint32_t vtripSel;       /**< SIO pair input buffer trip point */
 266:Generated_Source\PSoC6\pdl\drivers/peripheral/gpio/cy_gpio.h ****     uint32_t vrefSel;        /**< SIO pair reference voltage for input buffer trip point */
 267:Generated_Source\PSoC6\pdl\drivers/peripheral/gpio/cy_gpio.h ****     uint32_t vohSel;         /**< SIO pair regulated voltage output level */
 268:Generated_Source\PSoC6\pdl\drivers/peripheral/gpio/cy_gpio.h **** } cy_stc_gpio_pin_config_t;
 269:Generated_Source\PSoC6\pdl\drivers/peripheral/gpio/cy_gpio.h **** 
 270:Generated_Source\PSoC6\pdl\drivers/peripheral/gpio/cy_gpio.h **** /** \} group_gpio_data_structures */
 271:Generated_Source\PSoC6\pdl\drivers/peripheral/gpio/cy_gpio.h **** 
 272:Generated_Source\PSoC6\pdl\drivers/peripheral/gpio/cy_gpio.h **** /***************************************
 273:Generated_Source\PSoC6\pdl\drivers/peripheral/gpio/cy_gpio.h **** *        Constants
 274:Generated_Source\PSoC6\pdl\drivers/peripheral/gpio/cy_gpio.h **** ***************************************/
 275:Generated_Source\PSoC6\pdl\drivers/peripheral/gpio/cy_gpio.h **** 
 276:Generated_Source\PSoC6\pdl\drivers/peripheral/gpio/cy_gpio.h **** /** \cond INTERNAL */
 277:Generated_Source\PSoC6\pdl\drivers/peripheral/gpio/cy_gpio.h **** 
 278:Generated_Source\PSoC6\pdl\drivers/peripheral/gpio/cy_gpio.h **** /* General Constants */
 279:Generated_Source\PSoC6\pdl\drivers/peripheral/gpio/cy_gpio.h **** #define CY_GPIO_PRT_HALF                       (4UL)      /**< Half-way point of a GPIO port */
 280:Generated_Source\PSoC6\pdl\drivers/peripheral/gpio/cy_gpio.h **** #define CY_GPIO_PRT_DEINIT                     (0UL)      /**< De-init value for port registers */
 281:Generated_Source\PSoC6\pdl\drivers/peripheral/gpio/cy_gpio.h **** 
 282:Generated_Source\PSoC6\pdl\drivers/peripheral/gpio/cy_gpio.h **** /* GPIO Masks */
 283:Generated_Source\PSoC6\pdl\drivers/peripheral/gpio/cy_gpio.h **** #define CY_GPIO_HSIOM_MASK                     (0x1FUL)   /**< HSIOM selection mask */
 284:Generated_Source\PSoC6\pdl\drivers/peripheral/gpio/cy_gpio.h **** #define CY_GPIO_OUT_MASK                       (0x01UL)   /**< Single pin mask for OUT register */
 285:Generated_Source\PSoC6\pdl\drivers/peripheral/gpio/cy_gpio.h **** #define CY_GPIO_IN_MASK                        (0x01UL)   /**< Single pin mask for IN register */
 286:Generated_Source\PSoC6\pdl\drivers/peripheral/gpio/cy_gpio.h **** #define CY_GPIO_CFG_DM_MASK                    (0x0FUL)   /**< Single pin mask for drive mode in CF
 287:Generated_Source\PSoC6\pdl\drivers/peripheral/gpio/cy_gpio.h **** #define CY_GPIO_CFG_IN_VTRIP_SEL_MASK          (0x01UL)   /**< Single pin mask for VTRIP selection 
 288:Generated_Source\PSoC6\pdl\drivers/peripheral/gpio/cy_gpio.h **** #define CY_GPIO_CFG_OUT_SLOW_MASK              (0x01UL)   /**< Single pin mask for slew rate in CFG
 289:Generated_Source\PSoC6\pdl\drivers/peripheral/gpio/cy_gpio.h **** #define CY_GPIO_CFG_OUT_DRIVE_SEL_MASK         (0x03UL)   /**< Single pin mask for drive strength i
 290:Generated_Source\PSoC6\pdl\drivers/peripheral/gpio/cy_gpio.h **** #define CY_GPIO_INTR_STATUS_MASK               (0x01UL)   /**< Single pin mask for interrupt status
 291:Generated_Source\PSoC6\pdl\drivers/peripheral/gpio/cy_gpio.h **** #define CY_GPIO_INTR_EN_MASK                   (0x01UL)   /**< Single pin mask for interrupt status
 292:Generated_Source\PSoC6\pdl\drivers/peripheral/gpio/cy_gpio.h **** #define CY_GPIO_INTR_MASKED_MASK               (0x01UL)   /**< Single pin mask for masked interrupt
 293:Generated_Source\PSoC6\pdl\drivers/peripheral/gpio/cy_gpio.h **** #define CY_GPIO_INTR_SET_MASK                  (0x01UL)   /**< Single pin mask for setting the inte
 294:Generated_Source\PSoC6\pdl\drivers/peripheral/gpio/cy_gpio.h **** #define CY_GPIO_INTR_EDGE_MASK                 (0x03UL)   /**< Single pin mask for interrupt edge t
 295:Generated_Source\PSoC6\pdl\drivers/peripheral/gpio/cy_gpio.h **** #define CY_GPIO_INTR_FLT_EDGE_MASK             (0x07UL)   /**< Single pin mask for setting filtered
 296:Generated_Source\PSoC6\pdl\drivers/peripheral/gpio/cy_gpio.h **** 
 297:Generated_Source\PSoC6\pdl\drivers/peripheral/gpio/cy_gpio.h **** /* SIO Masks */
 298:Generated_Source\PSoC6\pdl\drivers/peripheral/gpio/cy_gpio.h **** #define CY_GPIO_VREG_EN_MASK                   (0x01UL)   /**< Single SIO pin mask for voltage regu
 299:Generated_Source\PSoC6\pdl\drivers/peripheral/gpio/cy_gpio.h **** #define CY_GPIO_IBUF_MASK                      (0x01UL)   /**< Single SIO pin mask for input buffer
 300:Generated_Source\PSoC6\pdl\drivers/peripheral/gpio/cy_gpio.h **** #define CY_GPIO_IBUF_SHIFT                     (0x01UL)   /**< Single SIO pin shift for input buffe
 301:Generated_Source\PSoC6\pdl\drivers/peripheral/gpio/cy_gpio.h **** #define CY_GPIO_VTRIP_SEL_MASK                 (0x01UL)   /**< Single SIO pin mask for the input bu
 302:Generated_Source\PSoC6\pdl\drivers/peripheral/gpio/cy_gpio.h **** #define CY_GPIO_VTRIP_SEL_SHIFT                (0x02UL)   /**< Single SIO pin shift for the input b
 303:Generated_Source\PSoC6\pdl\drivers/peripheral/gpio/cy_gpio.h **** #define CY_GPIO_VREF_SEL_MASK                  (0x03UL)   /**< Single SIO pin mask for voltage refe
 304:Generated_Source\PSoC6\pdl\drivers/peripheral/gpio/cy_gpio.h **** #define CY_GPIO_VREF_SEL_SHIFT                 (0x03UL)   /**< Single SIO pin shift for voltage ref
 305:Generated_Source\PSoC6\pdl\drivers/peripheral/gpio/cy_gpio.h **** #define CY_GPIO_VOH_SEL_MASK                   (0x07UL)   /**< Single SIO pin mask for VOH */
 306:Generated_Source\PSoC6\pdl\drivers/peripheral/gpio/cy_gpio.h **** #define CY_GPIO_VOH_SEL_SHIFT                  (0x05UL)   /**< Single SIO pin shift for VOH */
 307:Generated_Source\PSoC6\pdl\drivers/peripheral/gpio/cy_gpio.h **** 
 308:Generated_Source\PSoC6\pdl\drivers/peripheral/gpio/cy_gpio.h **** /* Special mask for SIO pin pair setting */
 309:Generated_Source\PSoC6\pdl\drivers/peripheral/gpio/cy_gpio.h **** #define CY_GPIO_SIO_ODD_PIN_MASK               (0x00FEUL) /**< SIO pin pair selection mask */
 310:Generated_Source\PSoC6\pdl\drivers/peripheral/gpio/cy_gpio.h **** #define CY_GPIO_SIO_PIN_MASK                   (0x00FFUL) /**< SIO pin pair mask */
 311:Generated_Source\PSoC6\pdl\drivers/peripheral/gpio/cy_gpio.h **** 
 312:Generated_Source\PSoC6\pdl\drivers/peripheral/gpio/cy_gpio.h **** /* Offsets */
ARM GAS  C:\Users\dmr85\AppData\Local\Temp\ccptpkwM.s 			page 40


 313:Generated_Source\PSoC6\pdl\drivers/peripheral/gpio/cy_gpio.h **** #define CY_GPIO_HSIOM_OFFSET                   (3UL)      /**< Offset for HSIOM */
 314:Generated_Source\PSoC6\pdl\drivers/peripheral/gpio/cy_gpio.h **** #define CY_GPIO_DRIVE_MODE_OFFSET              (2UL)      /**< Offset for Drive mode */
 315:Generated_Source\PSoC6\pdl\drivers/peripheral/gpio/cy_gpio.h **** #define CY_GPIO_INBUF_OFFSET                   (3UL)      /**< Offset for input buffer */
 316:Generated_Source\PSoC6\pdl\drivers/peripheral/gpio/cy_gpio.h **** #define CY_GPIO_CFG_OUT_DRIVE_OFFSET           (16UL)     /**< Offset for drive strength */
 317:Generated_Source\PSoC6\pdl\drivers/peripheral/gpio/cy_gpio.h **** #define CY_GPIO_INTR_CFG_OFFSET                (1UL)      /**< Offset for interrupt config */
 318:Generated_Source\PSoC6\pdl\drivers/peripheral/gpio/cy_gpio.h **** #define CY_GPIO_INTR_FILT_OFFSET               (18UL)     /**< Offset for filtered interrupt config
 319:Generated_Source\PSoC6\pdl\drivers/peripheral/gpio/cy_gpio.h **** #define CY_GPIO_CFG_SIO_OFFSET                 (2UL)      /**< Offset for SIO config */
 320:Generated_Source\PSoC6\pdl\drivers/peripheral/gpio/cy_gpio.h **** 
 321:Generated_Source\PSoC6\pdl\drivers/peripheral/gpio/cy_gpio.h **** /* Parameter validation constants */
 322:Generated_Source\PSoC6\pdl\drivers/peripheral/gpio/cy_gpio.h **** #define CY_GPIO_PINS_MAX                       (8UL)      /**< Number of pins in the port */
 323:Generated_Source\PSoC6\pdl\drivers/peripheral/gpio/cy_gpio.h **** #define CY_GPIO_PRT_PINS_MASK                  (0x0000000FFUL)
 324:Generated_Source\PSoC6\pdl\drivers/peripheral/gpio/cy_gpio.h **** #define CY_GPIO_PRT_INTR_CFG_EDGE_SEL_MASK     (GPIO_PRT_INTR_CFG_EDGE0_SEL_Msk | \
 325:Generated_Source\PSoC6\pdl\drivers/peripheral/gpio/cy_gpio.h ****                                                 GPIO_PRT_INTR_CFG_EDGE1_SEL_Msk | \
 326:Generated_Source\PSoC6\pdl\drivers/peripheral/gpio/cy_gpio.h ****                                                 GPIO_PRT_INTR_CFG_EDGE2_SEL_Msk | \
 327:Generated_Source\PSoC6\pdl\drivers/peripheral/gpio/cy_gpio.h ****                                                 GPIO_PRT_INTR_CFG_EDGE3_SEL_Msk | \
 328:Generated_Source\PSoC6\pdl\drivers/peripheral/gpio/cy_gpio.h ****                                                 GPIO_PRT_INTR_CFG_EDGE4_SEL_Msk | \
 329:Generated_Source\PSoC6\pdl\drivers/peripheral/gpio/cy_gpio.h ****                                                 GPIO_PRT_INTR_CFG_EDGE5_SEL_Msk | \
 330:Generated_Source\PSoC6\pdl\drivers/peripheral/gpio/cy_gpio.h ****                                                 GPIO_PRT_INTR_CFG_EDGE6_SEL_Msk | \
 331:Generated_Source\PSoC6\pdl\drivers/peripheral/gpio/cy_gpio.h ****                                                 GPIO_PRT_INTR_CFG_EDGE7_SEL_Msk)
 332:Generated_Source\PSoC6\pdl\drivers/peripheral/gpio/cy_gpio.h **** #define CY_GPIO_PRT_INTR_CFG_RANGE_MASK        (CY_GPIO_PRT_INTR_CFG_EDGE_SEL_MASK | \
 333:Generated_Source\PSoC6\pdl\drivers/peripheral/gpio/cy_gpio.h ****                                                 GPIO_PRT_INTR_CFG_FLT_EDGE_SEL_Msk | \
 334:Generated_Source\PSoC6\pdl\drivers/peripheral/gpio/cy_gpio.h ****                                                 GPIO_PRT_INTR_CFG_FLT_SEL_Msk)
 335:Generated_Source\PSoC6\pdl\drivers/peripheral/gpio/cy_gpio.h **** #define CY_GPIO_PRT_INT_MASK_MASK              (0x0000001FFUL)
 336:Generated_Source\PSoC6\pdl\drivers/peripheral/gpio/cy_gpio.h **** #define CY_GPIO_PRT_SEL_ACTIVE_MASK            (0x1FFFFFFFUL)
 337:Generated_Source\PSoC6\pdl\drivers/peripheral/gpio/cy_gpio.h **** 
 338:Generated_Source\PSoC6\pdl\drivers/peripheral/gpio/cy_gpio.h **** #define GPIO_MAX_SPLIT_CELL_SEGMENTS           (9U)
 339:Generated_Source\PSoC6\pdl\drivers/peripheral/gpio/cy_gpio.h **** 
 340:Generated_Source\PSoC6\pdl\drivers/peripheral/gpio/cy_gpio.h **** /* Parameter validation macros */
 341:Generated_Source\PSoC6\pdl\drivers/peripheral/gpio/cy_gpio.h **** #define CY_GPIO_IS_PIN_VALID(pinNum)           (CY_GPIO_PINS_MAX > (pinNum))
 342:Generated_Source\PSoC6\pdl\drivers/peripheral/gpio/cy_gpio.h **** #define CY_GPIO_IS_FILTER_PIN_VALID(pinNum)    (CY_GPIO_PINS_MAX >= (pinNum))
 343:Generated_Source\PSoC6\pdl\drivers/peripheral/gpio/cy_gpio.h **** #define CY_GPIO_IS_VALUE_VALID(outVal)         (1UL >= (outVal))
 344:Generated_Source\PSoC6\pdl\drivers/peripheral/gpio/cy_gpio.h **** #define CY_GPIO_IS_DM_VALID(driveMode)         (0U == ((driveMode) & (uint32_t)~CY_GPIO_CFG_DM_MASK
 345:Generated_Source\PSoC6\pdl\drivers/peripheral/gpio/cy_gpio.h **** 
 346:Generated_Source\PSoC6\pdl\drivers/peripheral/gpio/cy_gpio.h **** #define CY_GPIO_IS_HSIOM_VALID(hsiom)          (0U == ((hsiom) & (uint32_t)~CY_GPIO_HSIOM_MASK))
 347:Generated_Source\PSoC6\pdl\drivers/peripheral/gpio/cy_gpio.h **** 
 348:Generated_Source\PSoC6\pdl\drivers/peripheral/gpio/cy_gpio.h **** #define CY_GPIO_IS_INT_EDGE_VALID(intEdge)     ((CY_GPIO_INTR_DISABLE  == (intEdge)) || \
 349:Generated_Source\PSoC6\pdl\drivers/peripheral/gpio/cy_gpio.h ****                                                 (CY_GPIO_INTR_RISING   == (intEdge)) || \
 350:Generated_Source\PSoC6\pdl\drivers/peripheral/gpio/cy_gpio.h ****                                                 (CY_GPIO_INTR_FALLING  == (intEdge)) || \
 351:Generated_Source\PSoC6\pdl\drivers/peripheral/gpio/cy_gpio.h ****                                                 (CY_GPIO_INTR_BOTH     == (intEdge)))
 352:Generated_Source\PSoC6\pdl\drivers/peripheral/gpio/cy_gpio.h **** 
 353:Generated_Source\PSoC6\pdl\drivers/peripheral/gpio/cy_gpio.h **** #define CY_GPIO_IS_DRIVE_SEL_VALID(driveSel)   ((CY_GPIO_DRIVE_FULL    == (driveSel)) || \
 354:Generated_Source\PSoC6\pdl\drivers/peripheral/gpio/cy_gpio.h ****                                                 (CY_GPIO_DRIVE_1_2     == (driveSel)) || \
 355:Generated_Source\PSoC6\pdl\drivers/peripheral/gpio/cy_gpio.h ****                                                 (CY_GPIO_DRIVE_1_4     == (driveSel)) || \
 356:Generated_Source\PSoC6\pdl\drivers/peripheral/gpio/cy_gpio.h ****                                                 (CY_GPIO_DRIVE_1_8     == (driveSel)))
 357:Generated_Source\PSoC6\pdl\drivers/peripheral/gpio/cy_gpio.h **** 
 358:Generated_Source\PSoC6\pdl\drivers/peripheral/gpio/cy_gpio.h **** #define CY_GPIO_IS_VREF_SEL_VALID(vrefSel)     ((CY_SIO_VREF_PINREF    == (vrefSel)) || \
 359:Generated_Source\PSoC6\pdl\drivers/peripheral/gpio/cy_gpio.h ****                                                 (CY_SIO_VREF_1_2V      == (vrefSel)) || \
 360:Generated_Source\PSoC6\pdl\drivers/peripheral/gpio/cy_gpio.h ****                                                 (CY_SIO_VREF_AMUX_A    == (vrefSel)) || \
 361:Generated_Source\PSoC6\pdl\drivers/peripheral/gpio/cy_gpio.h ****                                                 (CY_SIO_VREF_AMUX_B    == (vrefSel)))
 362:Generated_Source\PSoC6\pdl\drivers/peripheral/gpio/cy_gpio.h **** 
 363:Generated_Source\PSoC6\pdl\drivers/peripheral/gpio/cy_gpio.h **** #define CY_GPIO_IS_VOH_SEL_VALID(vrefSel)      ((CY_SIO_VOH_1_00       == (vrefSel)) || \
 364:Generated_Source\PSoC6\pdl\drivers/peripheral/gpio/cy_gpio.h ****                                                 (CY_SIO_VOH_1_25       == (vrefSel)) || \
 365:Generated_Source\PSoC6\pdl\drivers/peripheral/gpio/cy_gpio.h ****                                                 (CY_SIO_VOH_1_49       == (vrefSel)) || \
 366:Generated_Source\PSoC6\pdl\drivers/peripheral/gpio/cy_gpio.h ****                                                 (CY_SIO_VOH_1_67       == (vrefSel)) || \
 367:Generated_Source\PSoC6\pdl\drivers/peripheral/gpio/cy_gpio.h ****                                                 (CY_SIO_VOH_2_08       == (vrefSel)) || \
 368:Generated_Source\PSoC6\pdl\drivers/peripheral/gpio/cy_gpio.h ****                                                 (CY_SIO_VOH_2_50       == (vrefSel)) || \
 369:Generated_Source\PSoC6\pdl\drivers/peripheral/gpio/cy_gpio.h ****                                                 (CY_SIO_VOH_2_78       == (vrefSel)) || \
ARM GAS  C:\Users\dmr85\AppData\Local\Temp\ccptpkwM.s 			page 41


 370:Generated_Source\PSoC6\pdl\drivers/peripheral/gpio/cy_gpio.h ****                                                 (CY_SIO_VOH_4_16       == (vrefSel)))
 371:Generated_Source\PSoC6\pdl\drivers/peripheral/gpio/cy_gpio.h ****                    
 372:Generated_Source\PSoC6\pdl\drivers/peripheral/gpio/cy_gpio.h **** #define CY_GPIO_IS_PIN_BIT_VALID(pinBit)       (0U == ((pinBit) & (uint32_t)~CY_GPIO_PRT_PINS_MASK)
 373:Generated_Source\PSoC6\pdl\drivers/peripheral/gpio/cy_gpio.h **** #define CY_GPIO_IS_INTR_CFG_VALID(intrCfg)     (0U == ((intrCfg) & (uint32_t)~CY_GPIO_PRT_INTR_CFG_
 374:Generated_Source\PSoC6\pdl\drivers/peripheral/gpio/cy_gpio.h **** #define CY_GPIO_IS_INTR_MASK_VALID(intrMask)   (0U == ((intrMask) & (uint32_t)~CY_GPIO_PRT_INT_MASK
 375:Generated_Source\PSoC6\pdl\drivers/peripheral/gpio/cy_gpio.h **** #define CY_GPIO_IS_SEL_ACT_VALID(selActive)    (0U == ((selActive) & (uint32_t)~CY_GPIO_PRT_SEL_ACT
 376:Generated_Source\PSoC6\pdl\drivers/peripheral/gpio/cy_gpio.h **** 
 377:Generated_Source\PSoC6\pdl\drivers/peripheral/gpio/cy_gpio.h **** #define CY_GPIO_IS_AMUX_SPLIT_VALID(switchCtrl)       (((uint32_t) (switchCtrl)) < GPIO_MAX_SPLIT_C
 378:Generated_Source\PSoC6\pdl\drivers/peripheral/gpio/cy_gpio.h **** 
 379:Generated_Source\PSoC6\pdl\drivers/peripheral/gpio/cy_gpio.h **** #define CY_GPIO_IS_AMUX_CONNECT_VALID(amuxConnect)    ((CY_GPIO_AMUX_OPENALL == (amuxConnect)) || \
 380:Generated_Source\PSoC6\pdl\drivers/peripheral/gpio/cy_gpio.h ****                                                        (CY_GPIO_AMUX_L       == (amuxConnect)) || \
 381:Generated_Source\PSoC6\pdl\drivers/peripheral/gpio/cy_gpio.h ****                                                        (CY_GPIO_AMUX_R       == (amuxConnect)) || \
 382:Generated_Source\PSoC6\pdl\drivers/peripheral/gpio/cy_gpio.h ****                                                        (CY_GPIO_AMUX_LR      == (amuxConnect)) || \
 383:Generated_Source\PSoC6\pdl\drivers/peripheral/gpio/cy_gpio.h ****                                                        (CY_GPIO_AMUX_G       == (amuxConnect)) || \
 384:Generated_Source\PSoC6\pdl\drivers/peripheral/gpio/cy_gpio.h ****                                                        (CY_GPIO_AMUX_GL      == (amuxConnect)) || \
 385:Generated_Source\PSoC6\pdl\drivers/peripheral/gpio/cy_gpio.h ****                                                        (CY_GPIO_AMUX_GR      == (amuxConnect)) || \
 386:Generated_Source\PSoC6\pdl\drivers/peripheral/gpio/cy_gpio.h ****                                                        (CY_GPIO_AMUX_GLR     == (amuxConnect)))
 387:Generated_Source\PSoC6\pdl\drivers/peripheral/gpio/cy_gpio.h **** 
 388:Generated_Source\PSoC6\pdl\drivers/peripheral/gpio/cy_gpio.h **** #define CY_GPIO_IS_AMUX_SELECT_VALID(amuxBus)       ((CY_GPIO_AMUXBUSA       == (amuxBus)) || \
 389:Generated_Source\PSoC6\pdl\drivers/peripheral/gpio/cy_gpio.h ****                                                      (CY_GPIO_AMUXBUSB       == (amuxBus)))
 390:Generated_Source\PSoC6\pdl\drivers/peripheral/gpio/cy_gpio.h **** /** \endcond */
 391:Generated_Source\PSoC6\pdl\drivers/peripheral/gpio/cy_gpio.h **** 
 392:Generated_Source\PSoC6\pdl\drivers/peripheral/gpio/cy_gpio.h **** 
 393:Generated_Source\PSoC6\pdl\drivers/peripheral/gpio/cy_gpio.h **** /***************************************
 394:Generated_Source\PSoC6\pdl\drivers/peripheral/gpio/cy_gpio.h **** *        Function Constants
 395:Generated_Source\PSoC6\pdl\drivers/peripheral/gpio/cy_gpio.h **** ***************************************/
 396:Generated_Source\PSoC6\pdl\drivers/peripheral/gpio/cy_gpio.h **** 
 397:Generated_Source\PSoC6\pdl\drivers/peripheral/gpio/cy_gpio.h **** /**
 398:Generated_Source\PSoC6\pdl\drivers/peripheral/gpio/cy_gpio.h **** * \addtogroup group_gpio_macros
 399:Generated_Source\PSoC6\pdl\drivers/peripheral/gpio/cy_gpio.h **** * \{
 400:Generated_Source\PSoC6\pdl\drivers/peripheral/gpio/cy_gpio.h **** */
 401:Generated_Source\PSoC6\pdl\drivers/peripheral/gpio/cy_gpio.h **** 
 402:Generated_Source\PSoC6\pdl\drivers/peripheral/gpio/cy_gpio.h **** /**
 403:Generated_Source\PSoC6\pdl\drivers/peripheral/gpio/cy_gpio.h **** * \defgroup group_gpio_driveModes Pin drive mode
 404:Generated_Source\PSoC6\pdl\drivers/peripheral/gpio/cy_gpio.h **** * \{
 405:Generated_Source\PSoC6\pdl\drivers/peripheral/gpio/cy_gpio.h **** * Constants to be used for setting the drive mode of the pin.
 406:Generated_Source\PSoC6\pdl\drivers/peripheral/gpio/cy_gpio.h **** */
 407:Generated_Source\PSoC6\pdl\drivers/peripheral/gpio/cy_gpio.h **** #define CY_GPIO_DM_ANALOG                      (0x00UL) /**< Analog High-Z. Input buffer off */
 408:Generated_Source\PSoC6\pdl\drivers/peripheral/gpio/cy_gpio.h **** #define CY_GPIO_DM_PULLUP_IN_OFF               (0x02UL) /**< Resistive Pull-Up. Input buffer off */
 409:Generated_Source\PSoC6\pdl\drivers/peripheral/gpio/cy_gpio.h **** #define CY_GPIO_DM_PULLDOWN_IN_OFF             (0x03UL) /**< Resistive Pull-Down. Input buffer off 
 410:Generated_Source\PSoC6\pdl\drivers/peripheral/gpio/cy_gpio.h **** #define CY_GPIO_DM_OD_DRIVESLOW_IN_OFF         (0x04UL) /**< Open Drain, Drives Low. Input buffer o
 411:Generated_Source\PSoC6\pdl\drivers/peripheral/gpio/cy_gpio.h **** #define CY_GPIO_DM_OD_DRIVESHIGH_IN_OFF        (0x05UL) /**< Open Drain, Drives High. Input buffer 
 412:Generated_Source\PSoC6\pdl\drivers/peripheral/gpio/cy_gpio.h **** #define CY_GPIO_DM_STRONG_IN_OFF               (0x06UL) /**< Strong Drive. Input buffer off */
 413:Generated_Source\PSoC6\pdl\drivers/peripheral/gpio/cy_gpio.h **** #define CY_GPIO_DM_PULLUP_DOWN_IN_OFF          (0x07UL) /**< Resistive Pull-Up/Down. Input buffer o
 414:Generated_Source\PSoC6\pdl\drivers/peripheral/gpio/cy_gpio.h **** #define CY_GPIO_DM_HIGHZ                       (0x08UL) /**< Digital High-Z. Input buffer on */
 415:Generated_Source\PSoC6\pdl\drivers/peripheral/gpio/cy_gpio.h **** #define CY_GPIO_DM_PULLUP                      (0x0AUL) /**< Resistive Pull-Up. Input buffer on */
 416:Generated_Source\PSoC6\pdl\drivers/peripheral/gpio/cy_gpio.h **** #define CY_GPIO_DM_PULLDOWN                    (0x0BUL) /**< Resistive Pull-Down. Input buffer on *
 417:Generated_Source\PSoC6\pdl\drivers/peripheral/gpio/cy_gpio.h **** #define CY_GPIO_DM_OD_DRIVESLOW                (0x0CUL) /**< Open Drain, Drives Low. Input buffer o
 418:Generated_Source\PSoC6\pdl\drivers/peripheral/gpio/cy_gpio.h **** #define CY_GPIO_DM_OD_DRIVESHIGH               (0x0DUL) /**< Open Drain, Drives High. Input buffer 
 419:Generated_Source\PSoC6\pdl\drivers/peripheral/gpio/cy_gpio.h **** #define CY_GPIO_DM_STRONG                      (0x0EUL) /**< Strong Drive. Input buffer on */
 420:Generated_Source\PSoC6\pdl\drivers/peripheral/gpio/cy_gpio.h **** #define CY_GPIO_DM_PULLUP_DOWN                 (0x0FUL) /**< Resistive Pull-Up/Down. Input buffer o
 421:Generated_Source\PSoC6\pdl\drivers/peripheral/gpio/cy_gpio.h **** /** \} */
 422:Generated_Source\PSoC6\pdl\drivers/peripheral/gpio/cy_gpio.h **** 
 423:Generated_Source\PSoC6\pdl\drivers/peripheral/gpio/cy_gpio.h **** /**
 424:Generated_Source\PSoC6\pdl\drivers/peripheral/gpio/cy_gpio.h **** * \defgroup group_gpio_vtrip Voltage trip mode
 425:Generated_Source\PSoC6\pdl\drivers/peripheral/gpio/cy_gpio.h **** * \{
 426:Generated_Source\PSoC6\pdl\drivers/peripheral/gpio/cy_gpio.h **** * Constants to be used for setting the voltage trip type on the pin.
ARM GAS  C:\Users\dmr85\AppData\Local\Temp\ccptpkwM.s 			page 42


 427:Generated_Source\PSoC6\pdl\drivers/peripheral/gpio/cy_gpio.h **** */
 428:Generated_Source\PSoC6\pdl\drivers/peripheral/gpio/cy_gpio.h **** #define CY_GPIO_VTRIP_CMOS                     (0x00UL) /**< Input buffer compatible with CMOS and 
 429:Generated_Source\PSoC6\pdl\drivers/peripheral/gpio/cy_gpio.h **** #define CY_GPIO_VTRIP_TTL                      (0x01UL) /**< Input buffer compatible with TTL and M
 430:Generated_Source\PSoC6\pdl\drivers/peripheral/gpio/cy_gpio.h **** /** \} */
 431:Generated_Source\PSoC6\pdl\drivers/peripheral/gpio/cy_gpio.h **** 
 432:Generated_Source\PSoC6\pdl\drivers/peripheral/gpio/cy_gpio.h **** /**
 433:Generated_Source\PSoC6\pdl\drivers/peripheral/gpio/cy_gpio.h **** * \defgroup group_gpio_slewRate Slew Rate Mode
 434:Generated_Source\PSoC6\pdl\drivers/peripheral/gpio/cy_gpio.h **** * \{
 435:Generated_Source\PSoC6\pdl\drivers/peripheral/gpio/cy_gpio.h **** * Constants to be used for setting the slew rate of the pin.
 436:Generated_Source\PSoC6\pdl\drivers/peripheral/gpio/cy_gpio.h **** */
 437:Generated_Source\PSoC6\pdl\drivers/peripheral/gpio/cy_gpio.h **** #define CY_GPIO_SLEW_FAST                      (0x00UL) /**< Fast slew rate */
 438:Generated_Source\PSoC6\pdl\drivers/peripheral/gpio/cy_gpio.h **** #define CY_GPIO_SLEW_SLOW                      (0x01UL) /**< Slow slew rate */
 439:Generated_Source\PSoC6\pdl\drivers/peripheral/gpio/cy_gpio.h **** /** \} */
 440:Generated_Source\PSoC6\pdl\drivers/peripheral/gpio/cy_gpio.h **** 
 441:Generated_Source\PSoC6\pdl\drivers/peripheral/gpio/cy_gpio.h **** /**
 442:Generated_Source\PSoC6\pdl\drivers/peripheral/gpio/cy_gpio.h **** * \defgroup group_gpio_driveStrength Pin drive strength
 443:Generated_Source\PSoC6\pdl\drivers/peripheral/gpio/cy_gpio.h **** * \{
 444:Generated_Source\PSoC6\pdl\drivers/peripheral/gpio/cy_gpio.h **** * Constants to be used for setting the drive strength of the pin.
 445:Generated_Source\PSoC6\pdl\drivers/peripheral/gpio/cy_gpio.h **** */
 446:Generated_Source\PSoC6\pdl\drivers/peripheral/gpio/cy_gpio.h **** #define CY_GPIO_DRIVE_FULL                     (0x00UL) /**< Full drive strength: Max drive current
 447:Generated_Source\PSoC6\pdl\drivers/peripheral/gpio/cy_gpio.h **** #define CY_GPIO_DRIVE_1_2                      (0x01UL) /**< 1/2 drive strength: 1/2 drive current 
 448:Generated_Source\PSoC6\pdl\drivers/peripheral/gpio/cy_gpio.h **** #define CY_GPIO_DRIVE_1_4                      (0x02UL) /**< 1/4 drive strength: 1/4 drive current 
 449:Generated_Source\PSoC6\pdl\drivers/peripheral/gpio/cy_gpio.h **** #define CY_GPIO_DRIVE_1_8                      (0x03UL) /**< 1/8 drive strength: 1/8 drive current 
 450:Generated_Source\PSoC6\pdl\drivers/peripheral/gpio/cy_gpio.h **** /** \} */
 451:Generated_Source\PSoC6\pdl\drivers/peripheral/gpio/cy_gpio.h **** 
 452:Generated_Source\PSoC6\pdl\drivers/peripheral/gpio/cy_gpio.h **** /**
 453:Generated_Source\PSoC6\pdl\drivers/peripheral/gpio/cy_gpio.h **** * \defgroup group_gpio_interruptTrigger Interrupt trigger type
 454:Generated_Source\PSoC6\pdl\drivers/peripheral/gpio/cy_gpio.h **** * \{
 455:Generated_Source\PSoC6\pdl\drivers/peripheral/gpio/cy_gpio.h **** * Constants to be used for setting the interrupt trigger type on the pin.
 456:Generated_Source\PSoC6\pdl\drivers/peripheral/gpio/cy_gpio.h **** */
 457:Generated_Source\PSoC6\pdl\drivers/peripheral/gpio/cy_gpio.h **** #define CY_GPIO_INTR_DISABLE                   (0x00UL) /**< Disable the pin interrupt generation *
 458:Generated_Source\PSoC6\pdl\drivers/peripheral/gpio/cy_gpio.h **** #define CY_GPIO_INTR_RISING                    (0x01UL) /**< Rising-Edge interrupt */
 459:Generated_Source\PSoC6\pdl\drivers/peripheral/gpio/cy_gpio.h **** #define CY_GPIO_INTR_FALLING                   (0x02UL) /**< Falling-Edge interrupt */
 460:Generated_Source\PSoC6\pdl\drivers/peripheral/gpio/cy_gpio.h **** #define CY_GPIO_INTR_BOTH                      (0x03UL) /**< Both-Edge interrupt */
 461:Generated_Source\PSoC6\pdl\drivers/peripheral/gpio/cy_gpio.h **** /** \} */
 462:Generated_Source\PSoC6\pdl\drivers/peripheral/gpio/cy_gpio.h **** 
 463:Generated_Source\PSoC6\pdl\drivers/peripheral/gpio/cy_gpio.h **** /**
 464:Generated_Source\PSoC6\pdl\drivers/peripheral/gpio/cy_gpio.h **** * \defgroup group_gpio_sioVreg SIO output buffer mode
 465:Generated_Source\PSoC6\pdl\drivers/peripheral/gpio/cy_gpio.h **** * \{
 466:Generated_Source\PSoC6\pdl\drivers/peripheral/gpio/cy_gpio.h **** * Constants to be used for setting the SIO output buffer mode on the pin.
 467:Generated_Source\PSoC6\pdl\drivers/peripheral/gpio/cy_gpio.h **** */
 468:Generated_Source\PSoC6\pdl\drivers/peripheral/gpio/cy_gpio.h **** #define CY_SIO_VREG_UNREGULATED                (0x00UL) /**< Unregulated output buffer */
 469:Generated_Source\PSoC6\pdl\drivers/peripheral/gpio/cy_gpio.h **** #define CY_SIO_VREG_REGULATED                  (0x01UL) /**< Regulated output buffer */
 470:Generated_Source\PSoC6\pdl\drivers/peripheral/gpio/cy_gpio.h **** /** \} */
 471:Generated_Source\PSoC6\pdl\drivers/peripheral/gpio/cy_gpio.h **** 
 472:Generated_Source\PSoC6\pdl\drivers/peripheral/gpio/cy_gpio.h **** /**
 473:Generated_Source\PSoC6\pdl\drivers/peripheral/gpio/cy_gpio.h **** * \defgroup group_gpio_sioIbuf SIO input buffer mode
 474:Generated_Source\PSoC6\pdl\drivers/peripheral/gpio/cy_gpio.h **** * \{
 475:Generated_Source\PSoC6\pdl\drivers/peripheral/gpio/cy_gpio.h **** * Constants to be used for setting the SIO input buffer mode on the pin.
 476:Generated_Source\PSoC6\pdl\drivers/peripheral/gpio/cy_gpio.h **** */
 477:Generated_Source\PSoC6\pdl\drivers/peripheral/gpio/cy_gpio.h **** #define CY_SIO_IBUF_SINGLEENDED                (0x00UL) /**< Single ended input buffer */
 478:Generated_Source\PSoC6\pdl\drivers/peripheral/gpio/cy_gpio.h **** #define CY_SIO_IBUF_DIFFERENTIAL               (0x01UL) /**< Differential input buffer */
 479:Generated_Source\PSoC6\pdl\drivers/peripheral/gpio/cy_gpio.h **** /** \} */
 480:Generated_Source\PSoC6\pdl\drivers/peripheral/gpio/cy_gpio.h **** 
 481:Generated_Source\PSoC6\pdl\drivers/peripheral/gpio/cy_gpio.h **** /**
 482:Generated_Source\PSoC6\pdl\drivers/peripheral/gpio/cy_gpio.h **** * \defgroup group_gpio_sioVtrip SIO input buffer trip-point
 483:Generated_Source\PSoC6\pdl\drivers/peripheral/gpio/cy_gpio.h **** * \{
ARM GAS  C:\Users\dmr85\AppData\Local\Temp\ccptpkwM.s 			page 43


 484:Generated_Source\PSoC6\pdl\drivers/peripheral/gpio/cy_gpio.h **** * Constants to be used for setting the SIO input buffer trip-point of the pin.
 485:Generated_Source\PSoC6\pdl\drivers/peripheral/gpio/cy_gpio.h **** */
 486:Generated_Source\PSoC6\pdl\drivers/peripheral/gpio/cy_gpio.h **** #define CY_SIO_VTRIP_CMOS                      (0x00UL) /**< CMOS input buffer (single-ended) */
 487:Generated_Source\PSoC6\pdl\drivers/peripheral/gpio/cy_gpio.h **** #define CY_SIO_VTRIP_TTL                       (0x01UL) /**< TTL input buffer (single-ended) */
 488:Generated_Source\PSoC6\pdl\drivers/peripheral/gpio/cy_gpio.h **** #define CY_SIO_VTRIP_0_5VDDIO_0_5VOH           (0x00UL) /**< 0.5xVddio or 0.5xVoh (differential) */
 489:Generated_Source\PSoC6\pdl\drivers/peripheral/gpio/cy_gpio.h **** #define CY_SIO_VTRIP_0_4VDDIO_1_0VREF          (0x01UL) /**< 0.4xVddio or 0.4xVoh (differential) */
 490:Generated_Source\PSoC6\pdl\drivers/peripheral/gpio/cy_gpio.h **** /** \} */
 491:Generated_Source\PSoC6\pdl\drivers/peripheral/gpio/cy_gpio.h **** 
 492:Generated_Source\PSoC6\pdl\drivers/peripheral/gpio/cy_gpio.h **** /**
 493:Generated_Source\PSoC6\pdl\drivers/peripheral/gpio/cy_gpio.h **** * \defgroup group_gpio_sioVref SIO reference voltage for input buffer trip-point
 494:Generated_Source\PSoC6\pdl\drivers/peripheral/gpio/cy_gpio.h **** * \{
 495:Generated_Source\PSoC6\pdl\drivers/peripheral/gpio/cy_gpio.h **** * Constants to be used for setting the reference voltage of SIO input buffer trip-point.
 496:Generated_Source\PSoC6\pdl\drivers/peripheral/gpio/cy_gpio.h **** */
 497:Generated_Source\PSoC6\pdl\drivers/peripheral/gpio/cy_gpio.h **** #define CY_SIO_VREF_PINREF                     (0x00UL) /**< Vref from analog pin */
 498:Generated_Source\PSoC6\pdl\drivers/peripheral/gpio/cy_gpio.h **** #define CY_SIO_VREF_1_2V                       (0x01UL) /**< Vref from internal 1.2V reference */
 499:Generated_Source\PSoC6\pdl\drivers/peripheral/gpio/cy_gpio.h **** #define CY_SIO_VREF_AMUX_A                     (0x02UL) /**< Vref from AMUXBUS_A */
 500:Generated_Source\PSoC6\pdl\drivers/peripheral/gpio/cy_gpio.h **** #define CY_SIO_VREF_AMUX_B                     (0x03UL) /**< Vref from AMUXBUS_B */
 501:Generated_Source\PSoC6\pdl\drivers/peripheral/gpio/cy_gpio.h **** /** \} */
 502:Generated_Source\PSoC6\pdl\drivers/peripheral/gpio/cy_gpio.h **** 
 503:Generated_Source\PSoC6\pdl\drivers/peripheral/gpio/cy_gpio.h **** /**
 504:Generated_Source\PSoC6\pdl\drivers/peripheral/gpio/cy_gpio.h **** * \defgroup group_gpio_sioVoh Regulated output voltage level (Voh) and input buffer trip-point of a
 505:Generated_Source\PSoC6\pdl\drivers/peripheral/gpio/cy_gpio.h **** * \{
 506:Generated_Source\PSoC6\pdl\drivers/peripheral/gpio/cy_gpio.h **** * Constants to be used for setting the Voh and input buffer trip-point of an SIO pair
 507:Generated_Source\PSoC6\pdl\drivers/peripheral/gpio/cy_gpio.h **** */
 508:Generated_Source\PSoC6\pdl\drivers/peripheral/gpio/cy_gpio.h **** #define CY_SIO_VOH_1_00                        (0x00UL) /**< Voh = 1 x Reference */
 509:Generated_Source\PSoC6\pdl\drivers/peripheral/gpio/cy_gpio.h **** #define CY_SIO_VOH_1_25                        (0x01UL) /**< Voh = 1.25 x Reference */
 510:Generated_Source\PSoC6\pdl\drivers/peripheral/gpio/cy_gpio.h **** #define CY_SIO_VOH_1_49                        (0x02UL) /**< Voh = 1.49 x Reference */
 511:Generated_Source\PSoC6\pdl\drivers/peripheral/gpio/cy_gpio.h **** #define CY_SIO_VOH_1_67                        (0x03UL) /**< Voh = 1.67 x Reference */
 512:Generated_Source\PSoC6\pdl\drivers/peripheral/gpio/cy_gpio.h **** #define CY_SIO_VOH_2_08                        (0x04UL) /**< Voh = 2.08 x Reference */
 513:Generated_Source\PSoC6\pdl\drivers/peripheral/gpio/cy_gpio.h **** #define CY_SIO_VOH_2_50                        (0x05UL) /**< Voh = 2.50 x Reference */
 514:Generated_Source\PSoC6\pdl\drivers/peripheral/gpio/cy_gpio.h **** #define CY_SIO_VOH_2_78                        (0x06UL) /**< Voh = 2.78 x Reference */
 515:Generated_Source\PSoC6\pdl\drivers/peripheral/gpio/cy_gpio.h **** #define CY_SIO_VOH_4_16                        (0x07UL) /**< Voh = 4.16 x Reference */
 516:Generated_Source\PSoC6\pdl\drivers/peripheral/gpio/cy_gpio.h **** /** \} */
 517:Generated_Source\PSoC6\pdl\drivers/peripheral/gpio/cy_gpio.h **** 
 518:Generated_Source\PSoC6\pdl\drivers/peripheral/gpio/cy_gpio.h **** /** \} group_gpio_macros */
 519:Generated_Source\PSoC6\pdl\drivers/peripheral/gpio/cy_gpio.h **** 
 520:Generated_Source\PSoC6\pdl\drivers/peripheral/gpio/cy_gpio.h **** /***************************************
 521:Generated_Source\PSoC6\pdl\drivers/peripheral/gpio/cy_gpio.h **** *        Function Prototypes
 522:Generated_Source\PSoC6\pdl\drivers/peripheral/gpio/cy_gpio.h **** ***************************************/
 523:Generated_Source\PSoC6\pdl\drivers/peripheral/gpio/cy_gpio.h **** 
 524:Generated_Source\PSoC6\pdl\drivers/peripheral/gpio/cy_gpio.h **** /**
 525:Generated_Source\PSoC6\pdl\drivers/peripheral/gpio/cy_gpio.h **** * \addtogroup group_gpio_functions
 526:Generated_Source\PSoC6\pdl\drivers/peripheral/gpio/cy_gpio.h **** * \{
 527:Generated_Source\PSoC6\pdl\drivers/peripheral/gpio/cy_gpio.h **** */
 528:Generated_Source\PSoC6\pdl\drivers/peripheral/gpio/cy_gpio.h **** 
 529:Generated_Source\PSoC6\pdl\drivers/peripheral/gpio/cy_gpio.h **** /**
 530:Generated_Source\PSoC6\pdl\drivers/peripheral/gpio/cy_gpio.h **** * \addtogroup group_gpio_functions_init
 531:Generated_Source\PSoC6\pdl\drivers/peripheral/gpio/cy_gpio.h **** * \{
 532:Generated_Source\PSoC6\pdl\drivers/peripheral/gpio/cy_gpio.h **** */
 533:Generated_Source\PSoC6\pdl\drivers/peripheral/gpio/cy_gpio.h **** 
 534:Generated_Source\PSoC6\pdl\drivers/peripheral/gpio/cy_gpio.h **** cy_en_gpio_status_t Cy_GPIO_Pin_Init(GPIO_PRT_Type* base, uint32_t pinNum, const cy_stc_gpio_pin_co
 535:Generated_Source\PSoC6\pdl\drivers/peripheral/gpio/cy_gpio.h **** cy_en_gpio_status_t Cy_GPIO_Port_Init(GPIO_PRT_Type* base, const cy_stc_gpio_prt_config_t *config);
 536:Generated_Source\PSoC6\pdl\drivers/peripheral/gpio/cy_gpio.h **** void Cy_GPIO_Pin_FastInit(GPIO_PRT_Type* base, uint32_t pinNum, uint32_t driveMode, uint32_t outVal
 537:Generated_Source\PSoC6\pdl\drivers/peripheral/gpio/cy_gpio.h **** void Cy_GPIO_Port_Deinit(GPIO_PRT_Type* base);
 538:Generated_Source\PSoC6\pdl\drivers/peripheral/gpio/cy_gpio.h **** __STATIC_INLINE void Cy_GPIO_SetHSIOM(GPIO_PRT_Type* base, uint32_t pinNum, en_hsiom_sel_t value);
 539:Generated_Source\PSoC6\pdl\drivers/peripheral/gpio/cy_gpio.h **** __STATIC_INLINE en_hsiom_sel_t Cy_GPIO_GetHSIOM(GPIO_PRT_Type* base, uint32_t pinNum);
 540:Generated_Source\PSoC6\pdl\drivers/peripheral/gpio/cy_gpio.h **** __STATIC_INLINE GPIO_PRT_Type* Cy_GPIO_PortToAddr(uint32_t portNum);
ARM GAS  C:\Users\dmr85\AppData\Local\Temp\ccptpkwM.s 			page 44


 541:Generated_Source\PSoC6\pdl\drivers/peripheral/gpio/cy_gpio.h **** 
 542:Generated_Source\PSoC6\pdl\drivers/peripheral/gpio/cy_gpio.h **** /** \} group_gpio_functions_init */
 543:Generated_Source\PSoC6\pdl\drivers/peripheral/gpio/cy_gpio.h **** 
 544:Generated_Source\PSoC6\pdl\drivers/peripheral/gpio/cy_gpio.h **** /**
 545:Generated_Source\PSoC6\pdl\drivers/peripheral/gpio/cy_gpio.h **** * \addtogroup group_gpio_functions_gpio
 546:Generated_Source\PSoC6\pdl\drivers/peripheral/gpio/cy_gpio.h **** * \{
 547:Generated_Source\PSoC6\pdl\drivers/peripheral/gpio/cy_gpio.h **** */
 548:Generated_Source\PSoC6\pdl\drivers/peripheral/gpio/cy_gpio.h **** 
 549:Generated_Source\PSoC6\pdl\drivers/peripheral/gpio/cy_gpio.h **** void Cy_GPIO_SetAmuxSplit(cy_en_amux_split_t switchCtrl, cy_en_gpio_amuxconnect_t amuxConnect, cy_e
 550:Generated_Source\PSoC6\pdl\drivers/peripheral/gpio/cy_gpio.h **** cy_en_gpio_amuxconnect_t Cy_GPIO_GetAmuxSplit(cy_en_amux_split_t switchCtrl, cy_en_gpio_amuxselect_
 551:Generated_Source\PSoC6\pdl\drivers/peripheral/gpio/cy_gpio.h **** 
 552:Generated_Source\PSoC6\pdl\drivers/peripheral/gpio/cy_gpio.h **** __STATIC_INLINE uint32_t Cy_GPIO_Read(GPIO_PRT_Type* base, uint32_t pinNum);
 553:Generated_Source\PSoC6\pdl\drivers/peripheral/gpio/cy_gpio.h **** __STATIC_INLINE void Cy_GPIO_Write(GPIO_PRT_Type* base, uint32_t pinNum, uint32_t value);
 554:Generated_Source\PSoC6\pdl\drivers/peripheral/gpio/cy_gpio.h **** __STATIC_INLINE uint32_t Cy_GPIO_ReadOut(GPIO_PRT_Type* base, uint32_t pinNum);
 555:Generated_Source\PSoC6\pdl\drivers/peripheral/gpio/cy_gpio.h **** __STATIC_INLINE void Cy_GPIO_Set(GPIO_PRT_Type* base, uint32_t pinNum);
 556:Generated_Source\PSoC6\pdl\drivers/peripheral/gpio/cy_gpio.h **** __STATIC_INLINE void Cy_GPIO_Clr(GPIO_PRT_Type* base, uint32_t pinNum);
 557:Generated_Source\PSoC6\pdl\drivers/peripheral/gpio/cy_gpio.h **** __STATIC_INLINE void Cy_GPIO_Inv(GPIO_PRT_Type* base, uint32_t pinNum);
 558:Generated_Source\PSoC6\pdl\drivers/peripheral/gpio/cy_gpio.h **** __STATIC_INLINE void Cy_GPIO_SetDrivemode(GPIO_PRT_Type* base, uint32_t pinNum, uint32_t value);
 559:Generated_Source\PSoC6\pdl\drivers/peripheral/gpio/cy_gpio.h **** __STATIC_INLINE uint32_t Cy_GPIO_GetDrivemode(GPIO_PRT_Type* base, uint32_t pinNum);
 560:Generated_Source\PSoC6\pdl\drivers/peripheral/gpio/cy_gpio.h **** __STATIC_INLINE void Cy_GPIO_SetVtrip(GPIO_PRT_Type* base, uint32_t pinNum, uint32_t value);
 561:Generated_Source\PSoC6\pdl\drivers/peripheral/gpio/cy_gpio.h **** __STATIC_INLINE uint32_t Cy_GPIO_GetVtrip(GPIO_PRT_Type* base, uint32_t pinNum);
 562:Generated_Source\PSoC6\pdl\drivers/peripheral/gpio/cy_gpio.h **** __STATIC_INLINE void Cy_GPIO_SetSlewRate(GPIO_PRT_Type* base, uint32_t pinNum, uint32_t value);
 563:Generated_Source\PSoC6\pdl\drivers/peripheral/gpio/cy_gpio.h **** __STATIC_INLINE uint32_t Cy_GPIO_GetSlewRate(GPIO_PRT_Type* base, uint32_t pinNum);
 564:Generated_Source\PSoC6\pdl\drivers/peripheral/gpio/cy_gpio.h **** __STATIC_INLINE void Cy_GPIO_SetDriveSel(GPIO_PRT_Type* base, uint32_t pinNum, uint32_t value);
 565:Generated_Source\PSoC6\pdl\drivers/peripheral/gpio/cy_gpio.h **** __STATIC_INLINE uint32_t Cy_GPIO_GetDriveSel(GPIO_PRT_Type* base, uint32_t pinNum);
 566:Generated_Source\PSoC6\pdl\drivers/peripheral/gpio/cy_gpio.h **** 
 567:Generated_Source\PSoC6\pdl\drivers/peripheral/gpio/cy_gpio.h **** /** \} group_gpio_functions_gpio */
 568:Generated_Source\PSoC6\pdl\drivers/peripheral/gpio/cy_gpio.h **** 
 569:Generated_Source\PSoC6\pdl\drivers/peripheral/gpio/cy_gpio.h **** /**
 570:Generated_Source\PSoC6\pdl\drivers/peripheral/gpio/cy_gpio.h **** * \addtogroup group_gpio_functions_sio
 571:Generated_Source\PSoC6\pdl\drivers/peripheral/gpio/cy_gpio.h **** * \{
 572:Generated_Source\PSoC6\pdl\drivers/peripheral/gpio/cy_gpio.h **** */
 573:Generated_Source\PSoC6\pdl\drivers/peripheral/gpio/cy_gpio.h **** 
 574:Generated_Source\PSoC6\pdl\drivers/peripheral/gpio/cy_gpio.h **** __STATIC_INLINE void Cy_GPIO_SetVregEn(GPIO_PRT_Type* base, uint32_t pinNum, uint32_t value);
 575:Generated_Source\PSoC6\pdl\drivers/peripheral/gpio/cy_gpio.h **** __STATIC_INLINE uint32_t Cy_GPIO_GetVregEn(GPIO_PRT_Type* base, uint32_t pinNum);
 576:Generated_Source\PSoC6\pdl\drivers/peripheral/gpio/cy_gpio.h **** __STATIC_INLINE void Cy_GPIO_SetIbufMode(GPIO_PRT_Type* base, uint32_t pinNum, uint32_t value);
 577:Generated_Source\PSoC6\pdl\drivers/peripheral/gpio/cy_gpio.h **** __STATIC_INLINE uint32_t Cy_GPIO_GetIbufMode(GPIO_PRT_Type* base, uint32_t pinNum);
 578:Generated_Source\PSoC6\pdl\drivers/peripheral/gpio/cy_gpio.h **** __STATIC_INLINE void Cy_GPIO_SetVtripSel(GPIO_PRT_Type* base, uint32_t pinNum, uint32_t value);
 579:Generated_Source\PSoC6\pdl\drivers/peripheral/gpio/cy_gpio.h **** __STATIC_INLINE uint32_t Cy_GPIO_GetVtripSel(GPIO_PRT_Type* base, uint32_t pinNum);
 580:Generated_Source\PSoC6\pdl\drivers/peripheral/gpio/cy_gpio.h **** __STATIC_INLINE void Cy_GPIO_SetVrefSel(GPIO_PRT_Type* base, uint32_t pinNum, uint32_t value);
 581:Generated_Source\PSoC6\pdl\drivers/peripheral/gpio/cy_gpio.h **** __STATIC_INLINE uint32_t Cy_GPIO_GetVrefSel(GPIO_PRT_Type* base, uint32_t pinNum);
 582:Generated_Source\PSoC6\pdl\drivers/peripheral/gpio/cy_gpio.h **** __STATIC_INLINE void Cy_GPIO_SetVohSel(GPIO_PRT_Type* base, uint32_t pinNum, uint32_t value);
 583:Generated_Source\PSoC6\pdl\drivers/peripheral/gpio/cy_gpio.h **** __STATIC_INLINE uint32_t Cy_GPIO_GetVohSel(GPIO_PRT_Type* base, uint32_t pinNum);
 584:Generated_Source\PSoC6\pdl\drivers/peripheral/gpio/cy_gpio.h **** 
 585:Generated_Source\PSoC6\pdl\drivers/peripheral/gpio/cy_gpio.h **** /** \} group_gpio_functions_sio */
 586:Generated_Source\PSoC6\pdl\drivers/peripheral/gpio/cy_gpio.h **** 
 587:Generated_Source\PSoC6\pdl\drivers/peripheral/gpio/cy_gpio.h **** /**
 588:Generated_Source\PSoC6\pdl\drivers/peripheral/gpio/cy_gpio.h **** * \addtogroup group_gpio_functions_interrupt
 589:Generated_Source\PSoC6\pdl\drivers/peripheral/gpio/cy_gpio.h **** * \{
 590:Generated_Source\PSoC6\pdl\drivers/peripheral/gpio/cy_gpio.h **** */
 591:Generated_Source\PSoC6\pdl\drivers/peripheral/gpio/cy_gpio.h **** 
 592:Generated_Source\PSoC6\pdl\drivers/peripheral/gpio/cy_gpio.h **** __STATIC_INLINE uint32_t Cy_GPIO_GetInterruptStatus(GPIO_PRT_Type* base, uint32_t pinNum);
 593:Generated_Source\PSoC6\pdl\drivers/peripheral/gpio/cy_gpio.h **** __STATIC_INLINE void Cy_GPIO_ClearInterrupt(GPIO_PRT_Type* base, uint32_t pinNum);
 594:Generated_Source\PSoC6\pdl\drivers/peripheral/gpio/cy_gpio.h **** __STATIC_INLINE void Cy_GPIO_SetInterruptMask(GPIO_PRT_Type* base, uint32_t pinNum, uint32_t value)
 595:Generated_Source\PSoC6\pdl\drivers/peripheral/gpio/cy_gpio.h **** __STATIC_INLINE uint32_t Cy_GPIO_GetInterruptMask(GPIO_PRT_Type* base, uint32_t pinNum);
 596:Generated_Source\PSoC6\pdl\drivers/peripheral/gpio/cy_gpio.h **** __STATIC_INLINE uint32_t Cy_GPIO_GetInterruptStatusMasked(GPIO_PRT_Type* base, uint32_t pinNum);
 597:Generated_Source\PSoC6\pdl\drivers/peripheral/gpio/cy_gpio.h **** __STATIC_INLINE void Cy_GPIO_SetSwInterrupt(GPIO_PRT_Type* base, uint32_t pinNum);
ARM GAS  C:\Users\dmr85\AppData\Local\Temp\ccptpkwM.s 			page 45


 598:Generated_Source\PSoC6\pdl\drivers/peripheral/gpio/cy_gpio.h **** __STATIC_INLINE void Cy_GPIO_SetInterruptEdge(GPIO_PRT_Type* base, uint32_t pinNum, uint32_t value)
 599:Generated_Source\PSoC6\pdl\drivers/peripheral/gpio/cy_gpio.h **** __STATIC_INLINE uint32_t Cy_GPIO_GetInterruptEdge(GPIO_PRT_Type* base, uint32_t pinNum);
 600:Generated_Source\PSoC6\pdl\drivers/peripheral/gpio/cy_gpio.h **** __STATIC_INLINE void Cy_GPIO_SetFilter(GPIO_PRT_Type* base, uint32_t value);
 601:Generated_Source\PSoC6\pdl\drivers/peripheral/gpio/cy_gpio.h **** __STATIC_INLINE uint32_t Cy_GPIO_GetFilter(GPIO_PRT_Type* base);
 602:Generated_Source\PSoC6\pdl\drivers/peripheral/gpio/cy_gpio.h **** 
 603:Generated_Source\PSoC6\pdl\drivers/peripheral/gpio/cy_gpio.h **** __STATIC_INLINE uint32_t Cy_GPIO_GetInterruptCause0(void);
 604:Generated_Source\PSoC6\pdl\drivers/peripheral/gpio/cy_gpio.h **** __STATIC_INLINE uint32_t Cy_GPIO_GetInterruptCause1(void);
 605:Generated_Source\PSoC6\pdl\drivers/peripheral/gpio/cy_gpio.h **** __STATIC_INLINE uint32_t Cy_GPIO_GetInterruptCause2(void);
 606:Generated_Source\PSoC6\pdl\drivers/peripheral/gpio/cy_gpio.h **** __STATIC_INLINE uint32_t Cy_GPIO_GetInterruptCause3(void);
 607:Generated_Source\PSoC6\pdl\drivers/peripheral/gpio/cy_gpio.h **** 
 608:Generated_Source\PSoC6\pdl\drivers/peripheral/gpio/cy_gpio.h **** /** \} group_gpio_functions_interrupt */
 609:Generated_Source\PSoC6\pdl\drivers/peripheral/gpio/cy_gpio.h **** 
 610:Generated_Source\PSoC6\pdl\drivers/peripheral/gpio/cy_gpio.h **** 
 611:Generated_Source\PSoC6\pdl\drivers/peripheral/gpio/cy_gpio.h **** /**
 612:Generated_Source\PSoC6\pdl\drivers/peripheral/gpio/cy_gpio.h **** * \addtogroup group_gpio_functions_init
 613:Generated_Source\PSoC6\pdl\drivers/peripheral/gpio/cy_gpio.h **** * \{
 614:Generated_Source\PSoC6\pdl\drivers/peripheral/gpio/cy_gpio.h **** */
 615:Generated_Source\PSoC6\pdl\drivers/peripheral/gpio/cy_gpio.h **** 
 616:Generated_Source\PSoC6\pdl\drivers/peripheral/gpio/cy_gpio.h **** /*******************************************************************************
 617:Generated_Source\PSoC6\pdl\drivers/peripheral/gpio/cy_gpio.h **** * Function Name: Cy_GPIO_SetHSIOM
 618:Generated_Source\PSoC6\pdl\drivers/peripheral/gpio/cy_gpio.h **** ****************************************************************************//**
 619:Generated_Source\PSoC6\pdl\drivers/peripheral/gpio/cy_gpio.h **** *
 620:Generated_Source\PSoC6\pdl\drivers/peripheral/gpio/cy_gpio.h **** * Configures the HSIOM connection to the pin.
 621:Generated_Source\PSoC6\pdl\drivers/peripheral/gpio/cy_gpio.h **** *
 622:Generated_Source\PSoC6\pdl\drivers/peripheral/gpio/cy_gpio.h **** * Connects the specified High-Speed Input Output Multiplexer (HSIOM) selection
 623:Generated_Source\PSoC6\pdl\drivers/peripheral/gpio/cy_gpio.h **** * to the pin.
 624:Generated_Source\PSoC6\pdl\drivers/peripheral/gpio/cy_gpio.h **** *
 625:Generated_Source\PSoC6\pdl\drivers/peripheral/gpio/cy_gpio.h **** * \param base
 626:Generated_Source\PSoC6\pdl\drivers/peripheral/gpio/cy_gpio.h **** * Pointer to the pin's port register base address
 627:Generated_Source\PSoC6\pdl\drivers/peripheral/gpio/cy_gpio.h **** *
 628:Generated_Source\PSoC6\pdl\drivers/peripheral/gpio/cy_gpio.h **** * \param pinNum
 629:Generated_Source\PSoC6\pdl\drivers/peripheral/gpio/cy_gpio.h **** * Position of the pin bit-field within the port register
 630:Generated_Source\PSoC6\pdl\drivers/peripheral/gpio/cy_gpio.h **** *
 631:Generated_Source\PSoC6\pdl\drivers/peripheral/gpio/cy_gpio.h **** * \param value
 632:Generated_Source\PSoC6\pdl\drivers/peripheral/gpio/cy_gpio.h **** * HSIOM input selection
 633:Generated_Source\PSoC6\pdl\drivers/peripheral/gpio/cy_gpio.h **** *
 634:Generated_Source\PSoC6\pdl\drivers/peripheral/gpio/cy_gpio.h **** * \note 
 635:Generated_Source\PSoC6\pdl\drivers/peripheral/gpio/cy_gpio.h **** * This function modifies a port register in a read-modify-write operation. It is
 636:Generated_Source\PSoC6\pdl\drivers/peripheral/gpio/cy_gpio.h **** * not thread safe as the resource is shared among multiple pins on a port.
 637:Generated_Source\PSoC6\pdl\drivers/peripheral/gpio/cy_gpio.h **** *
 638:Generated_Source\PSoC6\pdl\drivers/peripheral/gpio/cy_gpio.h **** * \funcusage
 639:Generated_Source\PSoC6\pdl\drivers/peripheral/gpio/cy_gpio.h **** * \snippet gpio/gpio_v1_10_sut_01.cydsn/main_cm4.c snippet_Cy_GPIO_SetHSIOM
 640:Generated_Source\PSoC6\pdl\drivers/peripheral/gpio/cy_gpio.h **** *
 641:Generated_Source\PSoC6\pdl\drivers/peripheral/gpio/cy_gpio.h **** *******************************************************************************/
 642:Generated_Source\PSoC6\pdl\drivers/peripheral/gpio/cy_gpio.h **** __STATIC_INLINE void Cy_GPIO_SetHSIOM(GPIO_PRT_Type* base, uint32_t pinNum, en_hsiom_sel_t value)
 643:Generated_Source\PSoC6\pdl\drivers/peripheral/gpio/cy_gpio.h **** {
 644:Generated_Source\PSoC6\pdl\drivers/peripheral/gpio/cy_gpio.h ****     uint32_t portNum;
 645:Generated_Source\PSoC6\pdl\drivers/peripheral/gpio/cy_gpio.h ****     uint32_t tempReg;
 646:Generated_Source\PSoC6\pdl\drivers/peripheral/gpio/cy_gpio.h ****     HSIOM_PRT_V1_Type* portAddrHSIOM;
 647:Generated_Source\PSoC6\pdl\drivers/peripheral/gpio/cy_gpio.h **** 
 648:Generated_Source\PSoC6\pdl\drivers/peripheral/gpio/cy_gpio.h ****     CY_ASSERT_L2(CY_GPIO_IS_PIN_VALID(pinNum));
 649:Generated_Source\PSoC6\pdl\drivers/peripheral/gpio/cy_gpio.h ****     CY_ASSERT_L2(CY_GPIO_IS_HSIOM_VALID(value));
 650:Generated_Source\PSoC6\pdl\drivers/peripheral/gpio/cy_gpio.h **** 
 651:Generated_Source\PSoC6\pdl\drivers/peripheral/gpio/cy_gpio.h ****     portNum = ((uint32_t)(base) - CY_GPIO_BASE) / GPIO_PRT_SECTION_SIZE;
 652:Generated_Source\PSoC6\pdl\drivers/peripheral/gpio/cy_gpio.h ****     portAddrHSIOM = (HSIOM_PRT_V1_Type*)(CY_HSIOM_BASE + (HSIOM_PRT_SECTION_SIZE * portNum));
 653:Generated_Source\PSoC6\pdl\drivers/peripheral/gpio/cy_gpio.h **** 
 654:Generated_Source\PSoC6\pdl\drivers/peripheral/gpio/cy_gpio.h ****     if(pinNum < CY_GPIO_PRT_HALF)
ARM GAS  C:\Users\dmr85\AppData\Local\Temp\ccptpkwM.s 			page 46


 655:Generated_Source\PSoC6\pdl\drivers/peripheral/gpio/cy_gpio.h ****     {
 656:Generated_Source\PSoC6\pdl\drivers/peripheral/gpio/cy_gpio.h ****         tempReg = HSIOM_PRT_PORT_SEL0(portAddrHSIOM) & ~(CY_GPIO_HSIOM_MASK << (pinNum << CY_GPIO_H
 657:Generated_Source\PSoC6\pdl\drivers/peripheral/gpio/cy_gpio.h ****         HSIOM_PRT_PORT_SEL0(portAddrHSIOM) = tempReg | ((value & CY_GPIO_HSIOM_MASK) << (pinNum << 
 658:Generated_Source\PSoC6\pdl\drivers/peripheral/gpio/cy_gpio.h ****     }
 659:Generated_Source\PSoC6\pdl\drivers/peripheral/gpio/cy_gpio.h ****     else
 660:Generated_Source\PSoC6\pdl\drivers/peripheral/gpio/cy_gpio.h ****     {
 661:Generated_Source\PSoC6\pdl\drivers/peripheral/gpio/cy_gpio.h ****         pinNum -= CY_GPIO_PRT_HALF;
 662:Generated_Source\PSoC6\pdl\drivers/peripheral/gpio/cy_gpio.h ****         tempReg = HSIOM_PRT_PORT_SEL1(portAddrHSIOM) & ~(CY_GPIO_HSIOM_MASK << (pinNum << CY_GPIO_H
 663:Generated_Source\PSoC6\pdl\drivers/peripheral/gpio/cy_gpio.h ****         HSIOM_PRT_PORT_SEL1(portAddrHSIOM) = tempReg | ((value & CY_GPIO_HSIOM_MASK) << (pinNum << 
 664:Generated_Source\PSoC6\pdl\drivers/peripheral/gpio/cy_gpio.h ****     }
 665:Generated_Source\PSoC6\pdl\drivers/peripheral/gpio/cy_gpio.h **** }
 666:Generated_Source\PSoC6\pdl\drivers/peripheral/gpio/cy_gpio.h **** 
 667:Generated_Source\PSoC6\pdl\drivers/peripheral/gpio/cy_gpio.h **** 
 668:Generated_Source\PSoC6\pdl\drivers/peripheral/gpio/cy_gpio.h **** /*******************************************************************************
 669:Generated_Source\PSoC6\pdl\drivers/peripheral/gpio/cy_gpio.h **** * Function Name: Cy_GPIO_GetHSIOM
 670:Generated_Source\PSoC6\pdl\drivers/peripheral/gpio/cy_gpio.h **** ****************************************************************************//**
 671:Generated_Source\PSoC6\pdl\drivers/peripheral/gpio/cy_gpio.h **** *
 672:Generated_Source\PSoC6\pdl\drivers/peripheral/gpio/cy_gpio.h **** * Returns the current HSIOM multiplexer connection to the pin.
 673:Generated_Source\PSoC6\pdl\drivers/peripheral/gpio/cy_gpio.h **** *
 674:Generated_Source\PSoC6\pdl\drivers/peripheral/gpio/cy_gpio.h **** * \param base
 675:Generated_Source\PSoC6\pdl\drivers/peripheral/gpio/cy_gpio.h **** * Pointer to the pin's port register base address
 676:Generated_Source\PSoC6\pdl\drivers/peripheral/gpio/cy_gpio.h **** *
 677:Generated_Source\PSoC6\pdl\drivers/peripheral/gpio/cy_gpio.h **** * \param pinNum
 678:Generated_Source\PSoC6\pdl\drivers/peripheral/gpio/cy_gpio.h **** * Position of the pin bit-field within the port register
 679:Generated_Source\PSoC6\pdl\drivers/peripheral/gpio/cy_gpio.h **** *
 680:Generated_Source\PSoC6\pdl\drivers/peripheral/gpio/cy_gpio.h **** * \return
 681:Generated_Source\PSoC6\pdl\drivers/peripheral/gpio/cy_gpio.h **** * HSIOM input selection
 682:Generated_Source\PSoC6\pdl\drivers/peripheral/gpio/cy_gpio.h **** *
 683:Generated_Source\PSoC6\pdl\drivers/peripheral/gpio/cy_gpio.h **** * \funcusage
 684:Generated_Source\PSoC6\pdl\drivers/peripheral/gpio/cy_gpio.h **** * \snippet gpio/gpio_v1_10_sut_01.cydsn/main_cm4.c snippet_Cy_GPIO_SetHSIOM
 685:Generated_Source\PSoC6\pdl\drivers/peripheral/gpio/cy_gpio.h **** *
 686:Generated_Source\PSoC6\pdl\drivers/peripheral/gpio/cy_gpio.h **** *******************************************************************************/
 687:Generated_Source\PSoC6\pdl\drivers/peripheral/gpio/cy_gpio.h **** __STATIC_INLINE en_hsiom_sel_t Cy_GPIO_GetHSIOM(GPIO_PRT_Type* base, uint32_t pinNum)
 688:Generated_Source\PSoC6\pdl\drivers/peripheral/gpio/cy_gpio.h **** {
 689:Generated_Source\PSoC6\pdl\drivers/peripheral/gpio/cy_gpio.h ****     uint32_t returnValue;
 690:Generated_Source\PSoC6\pdl\drivers/peripheral/gpio/cy_gpio.h ****     uint32_t portNum;
 691:Generated_Source\PSoC6\pdl\drivers/peripheral/gpio/cy_gpio.h ****     HSIOM_PRT_V1_Type* portAddrHSIOM;
 692:Generated_Source\PSoC6\pdl\drivers/peripheral/gpio/cy_gpio.h ****     
 693:Generated_Source\PSoC6\pdl\drivers/peripheral/gpio/cy_gpio.h ****     CY_ASSERT_L2(CY_GPIO_IS_PIN_VALID(pinNum));
 694:Generated_Source\PSoC6\pdl\drivers/peripheral/gpio/cy_gpio.h **** 
 695:Generated_Source\PSoC6\pdl\drivers/peripheral/gpio/cy_gpio.h ****     portNum = ((uint32_t)(base) - CY_GPIO_BASE) / GPIO_PRT_SECTION_SIZE;
 696:Generated_Source\PSoC6\pdl\drivers/peripheral/gpio/cy_gpio.h ****     portAddrHSIOM = (HSIOM_PRT_V1_Type*)(CY_HSIOM_BASE + (HSIOM_PRT_SECTION_SIZE * portNum));
 697:Generated_Source\PSoC6\pdl\drivers/peripheral/gpio/cy_gpio.h **** 
 698:Generated_Source\PSoC6\pdl\drivers/peripheral/gpio/cy_gpio.h ****     if(pinNum < CY_GPIO_PRT_HALF)
 699:Generated_Source\PSoC6\pdl\drivers/peripheral/gpio/cy_gpio.h ****     {
 700:Generated_Source\PSoC6\pdl\drivers/peripheral/gpio/cy_gpio.h ****         returnValue = (HSIOM_PRT_PORT_SEL0(portAddrHSIOM) >> (pinNum << CY_GPIO_HSIOM_OFFSET)) & CY
 701:Generated_Source\PSoC6\pdl\drivers/peripheral/gpio/cy_gpio.h ****     }
 702:Generated_Source\PSoC6\pdl\drivers/peripheral/gpio/cy_gpio.h ****     else
 703:Generated_Source\PSoC6\pdl\drivers/peripheral/gpio/cy_gpio.h ****     {
 704:Generated_Source\PSoC6\pdl\drivers/peripheral/gpio/cy_gpio.h ****         pinNum -= CY_GPIO_PRT_HALF;
 705:Generated_Source\PSoC6\pdl\drivers/peripheral/gpio/cy_gpio.h ****         returnValue = (HSIOM_PRT_PORT_SEL1(portAddrHSIOM) >> (pinNum << CY_GPIO_HSIOM_OFFSET)) & CY
 706:Generated_Source\PSoC6\pdl\drivers/peripheral/gpio/cy_gpio.h ****     }
 707:Generated_Source\PSoC6\pdl\drivers/peripheral/gpio/cy_gpio.h **** 
 708:Generated_Source\PSoC6\pdl\drivers/peripheral/gpio/cy_gpio.h ****     return (en_hsiom_sel_t)returnValue;
 709:Generated_Source\PSoC6\pdl\drivers/peripheral/gpio/cy_gpio.h **** }
 710:Generated_Source\PSoC6\pdl\drivers/peripheral/gpio/cy_gpio.h **** 
 711:Generated_Source\PSoC6\pdl\drivers/peripheral/gpio/cy_gpio.h **** 
ARM GAS  C:\Users\dmr85\AppData\Local\Temp\ccptpkwM.s 			page 47


 712:Generated_Source\PSoC6\pdl\drivers/peripheral/gpio/cy_gpio.h **** /*******************************************************************************
 713:Generated_Source\PSoC6\pdl\drivers/peripheral/gpio/cy_gpio.h **** * Function Name: Cy_GPIO_PortToAddr
 714:Generated_Source\PSoC6\pdl\drivers/peripheral/gpio/cy_gpio.h **** ****************************************************************************//**
 715:Generated_Source\PSoC6\pdl\drivers/peripheral/gpio/cy_gpio.h **** *
 716:Generated_Source\PSoC6\pdl\drivers/peripheral/gpio/cy_gpio.h **** * Retrieves the port address based on the given port number.
 717:Generated_Source\PSoC6\pdl\drivers/peripheral/gpio/cy_gpio.h **** *
 718:Generated_Source\PSoC6\pdl\drivers/peripheral/gpio/cy_gpio.h **** * This is a helper function to calculate the port base address when given a port
 719:Generated_Source\PSoC6\pdl\drivers/peripheral/gpio/cy_gpio.h **** * number. It is to be used when pin access needs to be calculated at runtime.
 720:Generated_Source\PSoC6\pdl\drivers/peripheral/gpio/cy_gpio.h **** *
 721:Generated_Source\PSoC6\pdl\drivers/peripheral/gpio/cy_gpio.h **** * \param portNum
 722:Generated_Source\PSoC6\pdl\drivers/peripheral/gpio/cy_gpio.h **** * Port number
 723:Generated_Source\PSoC6\pdl\drivers/peripheral/gpio/cy_gpio.h **** *
 724:Generated_Source\PSoC6\pdl\drivers/peripheral/gpio/cy_gpio.h **** * \return
 725:Generated_Source\PSoC6\pdl\drivers/peripheral/gpio/cy_gpio.h **** * Base address of the port register structure
 726:Generated_Source\PSoC6\pdl\drivers/peripheral/gpio/cy_gpio.h **** *
 727:Generated_Source\PSoC6\pdl\drivers/peripheral/gpio/cy_gpio.h **** * \funcusage
 728:Generated_Source\PSoC6\pdl\drivers/peripheral/gpio/cy_gpio.h **** * \snippet gpio/gpio_v1_10_sut_01.cydsn/main_cm4.c snippet_Cy_GPIO_PortToAddr
 729:Generated_Source\PSoC6\pdl\drivers/peripheral/gpio/cy_gpio.h **** *
 730:Generated_Source\PSoC6\pdl\drivers/peripheral/gpio/cy_gpio.h **** *******************************************************************************/
 731:Generated_Source\PSoC6\pdl\drivers/peripheral/gpio/cy_gpio.h **** __STATIC_INLINE GPIO_PRT_Type* Cy_GPIO_PortToAddr(uint32_t portNum)
 732:Generated_Source\PSoC6\pdl\drivers/peripheral/gpio/cy_gpio.h **** {
 733:Generated_Source\PSoC6\pdl\drivers/peripheral/gpio/cy_gpio.h ****     GPIO_PRT_Type* portBase;
 734:Generated_Source\PSoC6\pdl\drivers/peripheral/gpio/cy_gpio.h ****     
 735:Generated_Source\PSoC6\pdl\drivers/peripheral/gpio/cy_gpio.h ****     if(portNum < (uint32_t)IOSS_GPIO_GPIO_PORT_NR)
 736:Generated_Source\PSoC6\pdl\drivers/peripheral/gpio/cy_gpio.h ****     {
 737:Generated_Source\PSoC6\pdl\drivers/peripheral/gpio/cy_gpio.h ****         portBase = (GPIO_PRT_Type *)(CY_GPIO_BASE + (GPIO_PRT_SECTION_SIZE * portNum));
 738:Generated_Source\PSoC6\pdl\drivers/peripheral/gpio/cy_gpio.h ****     }
 739:Generated_Source\PSoC6\pdl\drivers/peripheral/gpio/cy_gpio.h ****     else
 740:Generated_Source\PSoC6\pdl\drivers/peripheral/gpio/cy_gpio.h ****     {
 741:Generated_Source\PSoC6\pdl\drivers/peripheral/gpio/cy_gpio.h ****         /* Error: Return default base address */
 742:Generated_Source\PSoC6\pdl\drivers/peripheral/gpio/cy_gpio.h ****         portBase = (GPIO_PRT_Type *)(CY_GPIO_BASE);
 743:Generated_Source\PSoC6\pdl\drivers/peripheral/gpio/cy_gpio.h ****     }
 744:Generated_Source\PSoC6\pdl\drivers/peripheral/gpio/cy_gpio.h **** 
 745:Generated_Source\PSoC6\pdl\drivers/peripheral/gpio/cy_gpio.h ****     return (portBase);
 746:Generated_Source\PSoC6\pdl\drivers/peripheral/gpio/cy_gpio.h **** }
 747:Generated_Source\PSoC6\pdl\drivers/peripheral/gpio/cy_gpio.h **** 
 748:Generated_Source\PSoC6\pdl\drivers/peripheral/gpio/cy_gpio.h **** /** \} group_gpio_functions_init */
 749:Generated_Source\PSoC6\pdl\drivers/peripheral/gpio/cy_gpio.h **** 
 750:Generated_Source\PSoC6\pdl\drivers/peripheral/gpio/cy_gpio.h **** /**
 751:Generated_Source\PSoC6\pdl\drivers/peripheral/gpio/cy_gpio.h **** * \addtogroup group_gpio_functions_gpio
 752:Generated_Source\PSoC6\pdl\drivers/peripheral/gpio/cy_gpio.h **** * \{
 753:Generated_Source\PSoC6\pdl\drivers/peripheral/gpio/cy_gpio.h **** */
 754:Generated_Source\PSoC6\pdl\drivers/peripheral/gpio/cy_gpio.h **** 
 755:Generated_Source\PSoC6\pdl\drivers/peripheral/gpio/cy_gpio.h **** /*******************************************************************************
 756:Generated_Source\PSoC6\pdl\drivers/peripheral/gpio/cy_gpio.h **** * Function Name: Cy_GPIO_Read
 757:Generated_Source\PSoC6\pdl\drivers/peripheral/gpio/cy_gpio.h **** ****************************************************************************//**
 758:Generated_Source\PSoC6\pdl\drivers/peripheral/gpio/cy_gpio.h **** *
 759:Generated_Source\PSoC6\pdl\drivers/peripheral/gpio/cy_gpio.h **** * Reads the current logic level on the input buffer of the pin.
 760:Generated_Source\PSoC6\pdl\drivers/peripheral/gpio/cy_gpio.h **** *
 761:Generated_Source\PSoC6\pdl\drivers/peripheral/gpio/cy_gpio.h **** * \param base
 762:Generated_Source\PSoC6\pdl\drivers/peripheral/gpio/cy_gpio.h **** * Pointer to the pin's port register base address
 763:Generated_Source\PSoC6\pdl\drivers/peripheral/gpio/cy_gpio.h **** *
 764:Generated_Source\PSoC6\pdl\drivers/peripheral/gpio/cy_gpio.h **** * \param pinNum
 765:Generated_Source\PSoC6\pdl\drivers/peripheral/gpio/cy_gpio.h **** * Position of the pin bit-field within the port register.
 766:Generated_Source\PSoC6\pdl\drivers/peripheral/gpio/cy_gpio.h **** * Bit position 8 is the routed pin through the port glitch filter.
 767:Generated_Source\PSoC6\pdl\drivers/peripheral/gpio/cy_gpio.h **** *
 768:Generated_Source\PSoC6\pdl\drivers/peripheral/gpio/cy_gpio.h **** * \return
ARM GAS  C:\Users\dmr85\AppData\Local\Temp\ccptpkwM.s 			page 48


 769:Generated_Source\PSoC6\pdl\drivers/peripheral/gpio/cy_gpio.h **** * Logic level present on the pin
 770:Generated_Source\PSoC6\pdl\drivers/peripheral/gpio/cy_gpio.h **** *
 771:Generated_Source\PSoC6\pdl\drivers/peripheral/gpio/cy_gpio.h **** * \funcusage
 772:Generated_Source\PSoC6\pdl\drivers/peripheral/gpio/cy_gpio.h **** * \snippet gpio/gpio_v1_10_sut_01.cydsn/main_cm4.c snippet_Cy_GPIO_Read
 773:Generated_Source\PSoC6\pdl\drivers/peripheral/gpio/cy_gpio.h **** *
 774:Generated_Source\PSoC6\pdl\drivers/peripheral/gpio/cy_gpio.h **** *******************************************************************************/
 775:Generated_Source\PSoC6\pdl\drivers/peripheral/gpio/cy_gpio.h **** __STATIC_INLINE uint32_t Cy_GPIO_Read(GPIO_PRT_Type* base, uint32_t pinNum)
 776:Generated_Source\PSoC6\pdl\drivers/peripheral/gpio/cy_gpio.h **** {
 777:Generated_Source\PSoC6\pdl\drivers/peripheral/gpio/cy_gpio.h ****     CY_ASSERT_L2(CY_GPIO_IS_FILTER_PIN_VALID(pinNum));
 778:Generated_Source\PSoC6\pdl\drivers/peripheral/gpio/cy_gpio.h ****     
 779:Generated_Source\PSoC6\pdl\drivers/peripheral/gpio/cy_gpio.h ****     return (GPIO_PRT_IN(base) >> (pinNum)) & CY_GPIO_IN_MASK;
 790              		.loc 3 779 0
 791 0014 4C4B     		ldr	r3, .L28+4
 792 0016 1B69     		ldr	r3, [r3, #16]
 793              	.LVL81:
 794              	.LBE70:
 795              	.LBE69:
 796              		.file 4 "ads1299_spi_adapt.h"
   1:ads1299_spi_adapt.h **** /* ========================================
   2:ads1299_spi_adapt.h ****  *
   3:ads1299_spi_adapt.h ****  * Copyright YOUR COMPANY, THE YEAR
   4:ads1299_spi_adapt.h ****  * All Rights Reserved
   5:ads1299_spi_adapt.h ****  * UNPUBLISHED, LICENSED SOFTWARE.
   6:ads1299_spi_adapt.h ****  *
   7:ads1299_spi_adapt.h ****  * CONFIDENTIAL AND PROPRIETARY INFORMATION
   8:ads1299_spi_adapt.h ****  * WHICH IS THE PROPERTY OF your company.
   9:ads1299_spi_adapt.h ****  *
  10:ads1299_spi_adapt.h ****  * ========================================
  11:ads1299_spi_adapt.h **** */
  12:ads1299_spi_adapt.h **** 
  13:ads1299_spi_adapt.h **** #ifndef _ADS1299_SPI_ADAPT_H_
  14:ads1299_spi_adapt.h **** #define _ADS1299_SPI_ADAPT_H_
  15:ads1299_spi_adapt.h **** #endif
  16:ads1299_spi_adapt.h **** 
  17:ads1299_spi_adapt.h **** /* [] END OF FILE */
  18:ads1299_spi_adapt.h **** 
  19:ads1299_spi_adapt.h **** #include <project.h>
  20:ads1299_spi_adapt.h **** #include <comms.h>
  21:ads1299_spi_adapt.h **** #include <stdio.h>
  22:ads1299_spi_adapt.h **** #include <stdlib.h>
  23:ads1299_spi_adapt.h **** 
  24:ads1299_spi_adapt.h **** uint8_t spi;
  25:ads1299_spi_adapt.h **** #define SPI_ADDRESS (&spi)
  26:ads1299_spi_adapt.h **** #define MAX_EEG_CHANNELS 8
  27:ads1299_spi_adapt.h **** #define UC3 1u
  28:ads1299_spi_adapt.h **** 
  29:ads1299_spi_adapt.h **** #define ADS1299_PIN_PWDN		1
  30:ads1299_spi_adapt.h **** #define ADS1299_PIN_DRDY		2
  31:ads1299_spi_adapt.h **** #define ADS1299_PIN_START		3
  32:ads1299_spi_adapt.h **** #define ADS1299_PIN_RESET		4
  33:ads1299_spi_adapt.h **** #define ADS1299_PIN_CS          5
  34:ads1299_spi_adapt.h **** #define ADS1299_PIN_CLKSEL      6
  35:ads1299_spi_adapt.h **** #define SPI_TIMEOUT             15000
  36:ads1299_spi_adapt.h **** #define ERR_TIMEOUT             -3
  37:ads1299_spi_adapt.h **** #define DSP_PREBUFFER_NB_SAMPLES    256	
  38:ads1299_spi_adapt.h **** 
  39:ads1299_spi_adapt.h **** cy_en_scb_spi_status_t spi_put(volatile uint8_t *spi, uint8_t opcode);
ARM GAS  C:\Users\dmr85\AppData\Local\Temp\ccptpkwM.s 			page 49


  40:ads1299_spi_adapt.h **** cy_en_scb_spi_status_t spi_get(volatile uint8_t *spi, uint8_t rxBuffer[]);
  41:ads1299_spi_adapt.h **** void spi_selectChip(volatile uint8_t *spi, uint8_t chip_select);
  42:ads1299_spi_adapt.h **** void spi_unselectChip(volatile uint8_t *spi, uint8_t chip_select);
  43:ads1299_spi_adapt.h **** void delay_s(int delay);
  44:ads1299_spi_adapt.h **** void delay_ms(int delay);
  45:ads1299_spi_adapt.h **** void delay_us(int delay);
  46:ads1299_spi_adapt.h **** void gpio_set_gpio_pin(uint32_t pin);
  47:ads1299_spi_adapt.h **** void gpio_clr_gpio_pin(uint32_t pin);
  48:ads1299_spi_adapt.h **** uint32_t spi_write_packet(uint8_t txBuffer[], uint8_t packet_size);
  49:ads1299_spi_adapt.h **** uint32_t spi_read_packet(uint8_t *data, uint8_t packet_size);
  50:ads1299_spi_adapt.h **** void HandleError(void);
  51:ads1299_spi_adapt.h **** 
  52:ads1299_spi_adapt.h **** /*static void spi_write_single(volatile uint8_t *spi, uint8_t data)
  53:ads1299_spi_adapt.h **** {
  54:ads1299_spi_adapt.h **** 	spi_put(spi,(uint16_t)data);
  55:ads1299_spi_adapt.h **** }
  56:ads1299_spi_adapt.h **** 
  57:ads1299_spi_adapt.h **** static void spi_read_single(volatile uint8_t *spi, uint8_t *data)
  58:ads1299_spi_adapt.h **** {
  59:ads1299_spi_adapt.h **** 	*data = (uint8_t)spi_get(spi);
  60:ads1299_spi_adapt.h **** }*/
  61:ads1299_spi_adapt.h **** 
  62:ads1299_spi_adapt.h **** static inline uint8 spi_is_tx_ready(volatile uint8_t *spi){
  63:ads1299_spi_adapt.h **** 	return SPI_GetTxFifoStatus() != 0;
  64:ads1299_spi_adapt.h **** }
  65:ads1299_spi_adapt.h **** static inline uint8 spi_is_rx_ready(volatile uint8_t *spi){
  66:ads1299_spi_adapt.h **** 	return SPI_GetRxFifoStatus() != 0;
  67:ads1299_spi_adapt.h **** }
  68:ads1299_spi_adapt.h **** static inline uint8 spi_is_tx_empty(volatile uint8_t *spi)
  69:ads1299_spi_adapt.h **** {
  70:ads1299_spi_adapt.h **** 	return SPI_IsTxComplete(); // spi_STS_SPI_IDLE
  71:ads1299_spi_adapt.h **** }
  72:ads1299_spi_adapt.h **** 
  73:ads1299_spi_adapt.h **** static inline uint8 spi_data_ready(volatile uint8_t *spi)
  74:ads1299_spi_adapt.h **** {
  75:ads1299_spi_adapt.h **** 	if (Cy_GPIO_Read(PIN_ADS1299_DRDY_0_PORT, PIN_ADS1299_DRDY_0_NUM) == 0) {
 797              		.loc 4 75 0
 798 0018 DB06     		lsls	r3, r3, #27
 799 001a 01D4     		bmi	.L27
  76:ads1299_spi_adapt.h ****         //UART_PutString("drdy0");
  77:ads1299_spi_adapt.h ****         return 1;
 800              		.loc 4 77 0
 801 001c 0123     		movs	r3, #1
 802 001e 00E0     		b	.L21
 803              	.L27:
  78:ads1299_spi_adapt.h ****     } else {
  79:ads1299_spi_adapt.h ****         //UART_PutString("1");
  80:ads1299_spi_adapt.h ****         return 0;
 804              		.loc 4 80 0
 805 0020 0023     		movs	r3, #0
 806              	.L21:
 807              	.LVL82:
 808              	.LBE68:
 809              	.LBE67:
 331:ads1299.c     **** 	
 332:ads1299.c     **** 	/* Function assumes we've already sent RDATA command or are in RDATAC mode */
 333:ads1299.c     **** 	// check if DRDY
ARM GAS  C:\Users\dmr85\AppData\Local\Temp\ccptpkwM.s 			page 50


 334:ads1299.c     ****     
 335:ads1299.c     ****     
 336:ads1299.c     ****     int j = 0;
 337:ads1299.c     ****     while (spi_data_ready(SPI_ADDRESS) == 0) {
 810              		.loc 1 337 0
 811 0022 002B     		cmp	r3, #0
 812 0024 F6D0     		beq	.L22
 813              	.LVL83:
 814              	.LBB71:
 815              	.LBB72:
 816              	.LBB73:
 735:ads1299.h     **** 	ads1299_send_byte_no_cs(opcode);
 817              		.loc 2 735 0
 818 0026 474D     		ldr	r5, .L28
 819 0028 009E     		ldr	r6, [sp]
 820 002a 3100     		movs	r1, r6
 821 002c 2800     		movs	r0, r5
 822 002e FFF7FEFF 		bl	spi_selectChip
 823              	.LVL84:
 824              	.LBB74:
 825              	.LBB75:
 717:ads1299.h     ****     return spi_write_packet(tx_buf, 1);
 826              		.loc 2 717 0
 827 0032 0A23     		movs	r3, #10
 828 0034 6A46     		mov	r2, sp
 829 0036 1372     		strb	r3, [r2, #8]
 718:ads1299.h     **** }
 830              		.loc 2 718 0
 831 0038 0121     		movs	r1, #1
 832 003a 02A8     		add	r0, sp, #8
 833 003c FFF7FEFF 		bl	spi_write_packet
 834              	.LVL85:
 835              	.LBE75:
 836              	.LBE74:
 837              		.loc 2 737 0
 838 0040 0096     		str	r6, [sp]
 839              	.LVL86:
 840 0042 3100     		movs	r1, r6
 841 0044 2800     		movs	r0, r5
 842 0046 FFF7FEFF 		bl	spi_unselectChip
 843              	.LVL87:
 844              	.LBE73:
 845              	.LBE72:
 846              	.LBE71:
 338:ads1299.c     ****         j++;
 339:ads1299.c     ****     }
 340:ads1299.c     ****     ads1299_soft_stop_conversion(chip_select);
 341:ads1299.c     ****     
 342:ads1299.c     **** 	transfer_status = spi_read_packet(sigtemp, 27);
 847              		.loc 1 342 0
 848 004a 03AE     		add	r6, sp, #12
 849 004c 1B21     		movs	r1, #27
 850 004e 3000     		movs	r0, r6
 851 0050 FFF7FEFF 		bl	spi_read_packet
 852              	.LVL88:
 343:ads1299.c     ****     
 344:ads1299.c     ****     
ARM GAS  C:\Users\dmr85\AppData\Local\Temp\ccptpkwM.s 			page 51


 345:ads1299.c     **** 	spi_unselectChip(SPI_ADDRESS, chip_select);
 853              		.loc 1 345 0
 854 0054 0099     		ldr	r1, [sp]
 855 0056 2800     		movs	r0, r5
 856 0058 FFF7FEFF 		bl	spi_unselectChip
 857              	.LVL89:
 858              	.LBB76:
 859              	.LBB77:
 860              	.LBB78:
 735:ads1299.h     **** 	ads1299_send_byte_no_cs(opcode);
 861              		.loc 2 735 0
 862 005c 0099     		ldr	r1, [sp]
 863 005e 2800     		movs	r0, r5
 864 0060 FFF7FEFF 		bl	spi_selectChip
 865              	.LVL90:
 866              	.LBB79:
 867              	.LBB80:
 717:ads1299.h     ****     return spi_write_packet(tx_buf, 1);
 868              		.loc 2 717 0
 869 0064 0823     		movs	r3, #8
 870 0066 6A46     		mov	r2, sp
 871 0068 1372     		strb	r3, [r2, #8]
 718:ads1299.h     **** }
 872              		.loc 2 718 0
 873 006a 0121     		movs	r1, #1
 874 006c 02A8     		add	r0, sp, #8
 875 006e FFF7FEFF 		bl	spi_write_packet
 876              	.LVL91:
 877              	.LBE80:
 878              	.LBE79:
 879              		.loc 2 737 0
 880 0072 0099     		ldr	r1, [sp]
 881 0074 2800     		movs	r0, r5
 882 0076 FFF7FEFF 		bl	spi_unselectChip
 883              	.LVL92:
 884              	.LBE78:
 885              	.LBE77:
 886              	.LBE76:
 346:ads1299.c     **** 	
 347:ads1299.c     ****     ads1299_soft_start_conversion(chip_select);
 348:ads1299.c     ****     
 349:ads1299.c     ****     // split data
 350:ads1299.c     ****     
 351:ads1299.c     ****     status_array[0] = sigtemp[1];
 887              		.loc 1 351 0
 888 007a 7378     		ldrb	r3, [r6, #1]
 889 007c 2370     		strb	r3, [r4]
 352:ads1299.c     ****     status_array[1] = sigtemp[2];
 890              		.loc 1 352 0
 891 007e B378     		ldrb	r3, [r6, #2]
 892 0080 6370     		strb	r3, [r4, #1]
 353:ads1299.c     ****     status_array[2] = sigtemp[3];
 893              		.loc 1 353 0
 894 0082 F378     		ldrb	r3, [r6, #3]
 895 0084 A370     		strb	r3, [r4, #2]
 354:ads1299.c     ****     
 355:ads1299.c     ****     
ARM GAS  C:\Users\dmr85\AppData\Local\Temp\ccptpkwM.s 			page 52


 356:ads1299.c     ****     for (channel_idx = 0; channel_idx < MAX_EEG_CHANNELS; channel_idx++)
 896              		.loc 1 356 0
 897 0086 0022     		movs	r2, #0
 898 0088 2723     		movs	r3, #39
 899 008a 6B44     		add	r3, r3, sp
 900 008c 1A70     		strb	r2, [r3]
 901 008e 4FE0     		b	.L23
 902              	.LVL93:
 903              	.L26:
 357:ads1299.c     **** 	{
 358:ads1299.c     **** 		data_array[sample_idx][channel_idx][0] = sigtemp[4+channel_idx*3];
 904              		.loc 1 358 0
 905 0090 019B     		ldr	r3, [sp, #4]
 906 0092 5A00     		lsls	r2, r3, #1
 907 0094 D318     		adds	r3, r2, r3
 908 0096 DA00     		lsls	r2, r3, #3
 909 0098 BC18     		adds	r4, r7, r2
 910 009a 2721     		movs	r1, #39
 911 009c 6944     		add	r1, r1, sp
 912 009e 0A78     		ldrb	r2, [r1]
 913 00a0 D2B2     		uxtb	r2, r2
 914 00a2 0B78     		ldrb	r3, [r1]
 915 00a4 DBB2     		uxtb	r3, r3
 916 00a6 5800     		lsls	r0, r3, #1
 917 00a8 C318     		adds	r3, r0, r3
 918 00aa 0433     		adds	r3, r3, #4
 919 00ac 03A8     		add	r0, sp, #12
 920 00ae C35C     		ldrb	r3, [r0, r3]
 921 00b0 5500     		lsls	r5, r2, #1
 922 00b2 AA18     		adds	r2, r5, r2
 923 00b4 1355     		strb	r3, [r2, r4]
 359:ads1299.c     **** 		data_array[sample_idx][channel_idx][1] = sigtemp[4+channel_idx*3+1];
 924              		.loc 1 359 0
 925 00b6 019B     		ldr	r3, [sp, #4]
 926 00b8 5A00     		lsls	r2, r3, #1
 927 00ba D218     		adds	r2, r2, r3
 928 00bc D300     		lsls	r3, r2, #3
 929 00be FC18     		adds	r4, r7, r3
 930 00c0 0A78     		ldrb	r2, [r1]
 931 00c2 D3B2     		uxtb	r3, r2
 932 00c4 0A78     		ldrb	r2, [r1]
 933 00c6 D2B2     		uxtb	r2, r2
 934 00c8 5500     		lsls	r5, r2, #1
 935 00ca AA18     		adds	r2, r5, r2
 936 00cc 0532     		adds	r2, r2, #5
 937 00ce 825C     		ldrb	r2, [r0, r2]
 938 00d0 5800     		lsls	r0, r3, #1
 939 00d2 C318     		adds	r3, r0, r3
 940 00d4 E318     		adds	r3, r4, r3
 941 00d6 5A70     		strb	r2, [r3, #1]
 360:ads1299.c     ****         if (channel_idx == 7)
 942              		.loc 1 360 0
 943 00d8 0B78     		ldrb	r3, [r1]
 944 00da 072B     		cmp	r3, #7
 945 00dc 0ED1     		bne	.L24
 361:ads1299.c     ****             data_array[sample_idx][channel_idx][2] = 0xff;
 946              		.loc 1 361 0
ARM GAS  C:\Users\dmr85\AppData\Local\Temp\ccptpkwM.s 			page 53


 947 00de 019B     		ldr	r3, [sp, #4]
 948 00e0 5A00     		lsls	r2, r3, #1
 949 00e2 D218     		adds	r2, r2, r3
 950 00e4 D300     		lsls	r3, r2, #3
 951 00e6 F918     		adds	r1, r7, r3
 952 00e8 2723     		movs	r3, #39
 953 00ea 6B44     		add	r3, r3, sp
 954 00ec 1A78     		ldrb	r2, [r3]
 955 00ee D3B2     		uxtb	r3, r2
 956 00f0 5A00     		lsls	r2, r3, #1
 957 00f2 D318     		adds	r3, r2, r3
 958 00f4 CB18     		adds	r3, r1, r3
 959 00f6 FF22     		movs	r2, #255
 960 00f8 9A70     		strb	r2, [r3, #2]
 961 00fa 13E0     		b	.L25
 962              	.L24:
 362:ads1299.c     **** 		else
 363:ads1299.c     ****             data_array[sample_idx][channel_idx][2] = sigtemp[4+channel_idx*3+2];
 963              		.loc 1 363 0
 964 00fc 019B     		ldr	r3, [sp, #4]
 965 00fe 5A00     		lsls	r2, r3, #1
 966 0100 D218     		adds	r2, r2, r3
 967 0102 D300     		lsls	r3, r2, #3
 968 0104 F818     		adds	r0, r7, r3
 969 0106 2721     		movs	r1, #39
 970 0108 6944     		add	r1, r1, sp
 971 010a 0A78     		ldrb	r2, [r1]
 972 010c D3B2     		uxtb	r3, r2
 973 010e 0A78     		ldrb	r2, [r1]
 974 0110 D2B2     		uxtb	r2, r2
 975 0112 5100     		lsls	r1, r2, #1
 976 0114 8A18     		adds	r2, r1, r2
 977 0116 0632     		adds	r2, r2, #6
 978 0118 03A9     		add	r1, sp, #12
 979 011a 8A5C     		ldrb	r2, [r1, r2]
 980 011c 5900     		lsls	r1, r3, #1
 981 011e CB18     		adds	r3, r1, r3
 982 0120 C318     		adds	r3, r0, r3
 983 0122 9A70     		strb	r2, [r3, #2]
 984              	.L25:
 356:ads1299.c     **** 	{
 985              		.loc 1 356 0 discriminator 2
 986 0124 2722     		movs	r2, #39
 987 0126 6A44     		add	r2, r2, sp
 988 0128 1378     		ldrb	r3, [r2]
 989 012a 0133     		adds	r3, r3, #1
 990 012c DBB2     		uxtb	r3, r3
 991 012e 1370     		strb	r3, [r2]
 992              	.L23:
 356:ads1299.c     **** 	{
 993              		.loc 1 356 0 is_stmt 0 discriminator 1
 994 0130 2723     		movs	r3, #39
 995 0132 6B44     		add	r3, r3, sp
 996 0134 1B78     		ldrb	r3, [r3]
 997 0136 DBB2     		uxtb	r3, r3
 998 0138 072B     		cmp	r3, #7
 999 013a A9D9     		bls	.L26
ARM GAS  C:\Users\dmr85\AppData\Local\Temp\ccptpkwM.s 			page 54


 364:ads1299.c     **** 	}
 365:ads1299.c     **** 	
 366:ads1299.c     **** 	return ADS1299_STATUS_OK;
 367:ads1299.c     **** }
 1000              		.loc 1 367 0 is_stmt 1
 1001 013c 0020     		movs	r0, #0
 1002 013e 0BB0     		add	sp, sp, #44
 1003              		@ sp needed
 1004              	.LVL94:
 1005 0140 F0BD     		pop	{r4, r5, r6, r7, pc}
 1006              	.L29:
 1007 0142 C046     		.align	2
 1008              	.L28:
 1009 0144 00000000 		.word	spi
 1010 0148 80023240 		.word	1077019264
 1011              		.cfi_endproc
 1012              	.LFE458:
 1013              		.size	ads1299_rdata24_generic, .-ads1299_rdata24_generic
 1014              		.section	.text.ads1299_rdata32_generic,"ax",%progbits
 1015              		.align	2
 1016              		.global	ads1299_rdata32_generic
 1017              		.code	16
 1018              		.thumb_func
 1019              		.type	ads1299_rdata32_generic, %function
 1020              	ads1299_rdata32_generic:
 1021              	.LFB459:
 368:ads1299.c     **** 
 369:ads1299.c     **** ads1299_error_t ads1299_rdata32_generic(uint8_t chip_select, volatile uint32_t sample_idx, volatile
 370:ads1299.c     **** {
 1022              		.loc 1 370 0
 1023              		.cfi_startproc
 1024              		@ args = 0, pretend = 0, frame = 24
 1025              		@ frame_needed = 0, uses_anonymous_args = 0
 1026              	.LVL95:
 1027 0000 70B5     		push	{r4, r5, r6, lr}
 1028              		.cfi_def_cfa_offset 16
 1029              		.cfi_offset 4, -16
 1030              		.cfi_offset 5, -12
 1031              		.cfi_offset 6, -8
 1032              		.cfi_offset 14, -4
 1033 0002 86B0     		sub	sp, sp, #24
 1034              		.cfi_def_cfa_offset 40
 1035 0004 0400     		movs	r4, r0
 1036 0006 0191     		str	r1, [sp, #4]
 1037 0008 0092     		str	r2, [sp]
 1038 000a 1D00     		movs	r5, r3
 371:ads1299.c     **** 	//#if UC3
 372:ads1299.c     **** 	volatile uint8_t channel_idx;
 373:ads1299.c     **** 	union {
 374:ads1299.c     **** 		uint32_t raw;
 375:ads1299.c     **** 		uint8_t status[4];
 376:ads1299.c     **** 	} __attribute__((packed)) statustemp;
 377:ads1299.c     **** 	union {
 378:ads1299.c     **** 		int32_t raw;
 379:ads1299.c     **** 		uint8_t data[4];
 380:ads1299.c     **** 	} __attribute__((packed)) sigtemp;
 381:ads1299.c     **** 	statustemp.raw = 0;
ARM GAS  C:\Users\dmr85\AppData\Local\Temp\ccptpkwM.s 			page 55


 1039              		.loc 1 381 0
 1040 000c 0026     		movs	r6, #0
 1041 000e 0496     		str	r6, [sp, #16]
 382:ads1299.c     **** 	sigtemp.raw = 0;
 1042              		.loc 1 382 0
 1043 0010 0396     		str	r6, [sp, #12]
 383:ads1299.c     **** 	
 384:ads1299.c     **** 	/* Begin SPI comms */
 385:ads1299.c     **** 	spi_selectChip(SPI_ADDRESS, chip_select);
 1044              		.loc 1 385 0
 1045 0012 0100     		movs	r1, r0
 1046              	.LVL96:
 1047 0014 1948     		ldr	r0, .L33
 1048              	.LVL97:
 1049 0016 FFF7FEFF 		bl	spi_selectChip
 1050              	.LVL98:
 386:ads1299.c     **** 	
 387:ads1299.c     **** 	/* Function assumes we've already sent RDATA command or are in RDATAC mode */
 388:ads1299.c     **** 	
 389:ads1299.c     **** 	/* Read in status word first (24 bits) */
 390:ads1299.c     **** 	spi_read_packet(&statustemp.status[1], 3);
 1051              		.loc 1 390 0
 1052 001a 0321     		movs	r1, #3
 1053 001c 1120     		movs	r0, #17
 1054 001e 6844     		add	r0, r0, sp
 1055 0020 FFF7FEFF 		bl	spi_read_packet
 1056              	.LVL99:
 391:ads1299.c     **** 	status = statustemp.raw;
 1057              		.loc 1 391 0
 1058 0024 049B     		ldr	r3, [sp, #16]
 1059 0026 0093     		str	r3, [sp]
 392:ads1299.c     **** 	
 393:ads1299.c     **** 	/* Begin reading in data */
 394:ads1299.c     **** 	/* Begin reading in data */
 395:ads1299.c     **** 	for (channel_idx = 0; channel_idx < MAX_EEG_CHANNELS; channel_idx++)
 1060              		.loc 1 395 0
 1061 0028 1723     		movs	r3, #23
 1062 002a 6B44     		add	r3, r3, sp
 1063 002c 1E70     		strb	r6, [r3]
 1064 002e 17E0     		b	.L31
 1065              	.L32:
 396:ads1299.c     **** 	{
 397:ads1299.c     **** 		spi_read_packet(&sigtemp.data[1], 3);
 1066              		.loc 1 397 0 discriminator 3
 1067 0030 0321     		movs	r1, #3
 1068 0032 0D20     		movs	r0, #13
 1069 0034 6844     		add	r0, r0, sp
 1070 0036 FFF7FEFF 		bl	spi_read_packet
 1071              	.LVL100:
 398:ads1299.c     **** 		data_array[sample_idx][channel_idx] = SIGN_EXT_24(sigtemp.raw);
 1072              		.loc 1 398 0 discriminator 3
 1073 003a 019B     		ldr	r3, [sp, #4]
 1074 003c 5B01     		lsls	r3, r3, #5
 1075 003e EB18     		adds	r3, r5, r3
 1076 0040 1721     		movs	r1, #23
 1077 0042 6944     		add	r1, r1, sp
 1078 0044 0878     		ldrb	r0, [r1]
ARM GAS  C:\Users\dmr85\AppData\Local\Temp\ccptpkwM.s 			page 56


 1079 0046 8022     		movs	r2, #128
 1080 0048 1204     		lsls	r2, r2, #16
 1081 004a 039E     		ldr	r6, [sp, #12]
 1082 004c 7240     		eors	r2, r6
 1083 004e 0C4E     		ldr	r6, .L33+4
 1084 0050 B446     		mov	ip, r6
 1085 0052 6244     		add	r2, r2, ip
 1086 0054 8000     		lsls	r0, r0, #2
 1087 0056 C250     		str	r2, [r0, r3]
 395:ads1299.c     **** 	{
 1088              		.loc 1 395 0 discriminator 3
 1089 0058 0B78     		ldrb	r3, [r1]
 1090 005a 0133     		adds	r3, r3, #1
 1091 005c DBB2     		uxtb	r3, r3
 1092 005e 0B70     		strb	r3, [r1]
 1093              	.L31:
 395:ads1299.c     **** 	{
 1094              		.loc 1 395 0 is_stmt 0 discriminator 1
 1095 0060 1723     		movs	r3, #23
 1096 0062 6B44     		add	r3, r3, sp
 1097 0064 1B78     		ldrb	r3, [r3]
 1098 0066 DBB2     		uxtb	r3, r3
 1099 0068 072B     		cmp	r3, #7
 1100 006a E1D9     		bls	.L32
 399:ads1299.c     **** 	}
 400:ads1299.c     **** 	
 401:ads1299.c     **** 	spi_unselectChip(SPI_ADDRESS, chip_select);
 1101              		.loc 1 401 0 is_stmt 1
 1102 006c 2100     		movs	r1, r4
 1103 006e 0348     		ldr	r0, .L33
 1104 0070 FFF7FEFF 		bl	spi_unselectChip
 1105              	.LVL101:
 402:ads1299.c     **** 	
 403:ads1299.c     **** 	//#else
 404:ads1299.c     **** 	//#endif	/* #if UC3 */
 405:ads1299.c     **** 	return ADS1299_STATUS_OK;
 406:ads1299.c     **** }
 1106              		.loc 1 406 0
 1107 0074 0020     		movs	r0, #0
 1108 0076 06B0     		add	sp, sp, #24
 1109              	.LVL102:
 1110              		@ sp needed
 1111              	.LVL103:
 1112 0078 70BD     		pop	{r4, r5, r6, pc}
 1113              	.L34:
 1114 007a C046     		.align	2
 1115              	.L33:
 1116 007c 00000000 		.word	spi
 1117 0080 000080FF 		.word	-8388608
 1118              		.cfi_endproc
 1119              	.LFE459:
 1120              		.size	ads1299_rdata32_generic, .-ads1299_rdata32_generic
 1121              		.comm	spi,1,1
 1122              		.section	.rodata.str1.4,"aMS",%progbits,1
 1123              		.align	2
 1124              	.LC2:
 1125 0000 72656776 		.ascii	"regval %x \000"
ARM GAS  C:\Users\dmr85\AppData\Local\Temp\ccptpkwM.s 			page 57


 1125      616C2025 
 1125      782000
 1126              		.text
 1127              	.Letext0:
 1128              		.file 5 "c:\\program files (x86)\\cypress\\psoc creator\\4.2\\psoc creator\\import\\gnu\\arm\\5.4.
 1129              		.file 6 "c:\\program files (x86)\\cypress\\psoc creator\\4.2\\psoc creator\\import\\gnu\\arm\\5.4.
 1130              		.file 7 "Generated_Source\\PSoC6\\pdl\\devices/psoc6/include/ip/cyip_gpio.h"
 1131              		.file 8 "Generated_Source\\PSoC6\\pdl\\devices/psoc6/include/psoc6_01_config.h"
 1132              		.file 9 "Generated_Source\\PSoC6\\pdl\\drivers/peripheral/device/cy_device.h"
 1133              		.file 10 "Generated_Source\\PSoC6\\pdl\\drivers/peripheral/syslib/cy_syslib.h"
 1134              		.file 11 "Generated_Source\\PSoC6\\pdl\\drivers/peripheral/scb/cy_scb_spi.h"
 1135              		.file 12 "Generated_Source\\PSoC6\\pdl\\drivers/peripheral/scb/cy_scb_uart.h"
 1136              		.file 13 "./comms.h"
 1137              		.file 14 "Generated_Source\\PSoC6/SPI.h"
 1138              		.file 15 "Generated_Source\\PSoC6/UART.h"
 1139              		.file 16 "c:\\program files (x86)\\cypress\\psoc creator\\4.2\\psoc creator\\import\\gnu\\arm\\5.4